 ice

 Timestamp is 3e4bfb3b (Thu Feb 13 21:08:27 2003)

 Preferred load address is 00400000

 Start         Length     Name                   Class
 0001:00000000 00164dd0H .text                   CODE
 0002:00000000 000008fbH .rdata                  DATA
 0002:000008fb 00000000H .edata                  DATA
 0003:00000000 00000104H .CRT$XCA                DATA
 0003:00000104 00000104H .CRT$XCZ                DATA
 0003:00000208 00000104H .CRT$XIA                DATA
 0003:0000030c 0000010eH .CRT$XIC                DATA
 0003:0000041c 00000104H .CRT$XIZ                DATA
 0003:00000520 00000104H .CRT$XPA                DATA
 0003:00000624 00000104H .CRT$XPX                DATA
 0003:00000728 00000104H .CRT$XPZ                DATA
 0003:0000082c 00000104H .CRT$XTA                DATA
 0003:00000930 00000104H .CRT$XTZ                DATA
 0003:00000a40 0002017aH .data                   DATA
 0003:00020bc0 00003658H .bss                    DATA
 0004:00000000 00000014H .idata$2                DATA
 0004:00000014 00000014H .idata$3                DATA
 0004:00000028 00000140H .idata$4                DATA
 0004:00000168 00000140H .idata$5                DATA
 0004:000002a8 00000585H .idata$6                DATA

  Address         Publics by Value              Rva+Base     Lib:Object

 0001:00000020       ?loadModules@@YAXXZ        00401020 f   ice-s.obj
 0001:00000565       ?call_main@@YAXXZ          00401565 f   ice-s.obj
 0001:000006d0       ?metaLoad@CoreClass@@QAEXXZ 004016d0 f   Core:Core.obj
 0001:000079b0       ?finite_ask_type@@YAPAVClaireBoolean@@PAVClaireType@@@Z 004089b0 f   Core:types.obj
 0001:00007ac0       ?enumerate_any@@YAPAVbag@@H@Z 00408ac0 f   Core:types.obj
 0001:00007cb0       ?_equaltype_ask_any@@YAPAVClaireBoolean@@PAVClaireType@@0@Z 00408cb0 f   Core:types.obj
 0001:00007cf0       ?sort_I_type@@YAPAVClaireClass@@PAVClaireType@@@Z 00408cf0 f   Core:types.obj
 0001:00007d50       ?_Z_any1@@YAPAVClaireBoolean@@HPAVClaireClass@@@Z 00408d50 f   Core:types.obj
 0001:00007de0       ?Ztype_any@@YAPAVClaireBoolean@@HH@Z 00408de0 f   Core:types.obj
 0001:00007f30       ?self_print_Union_Core@@YAXPAVUnion@@@Z 00408f30 f   Core:types.obj
 0001:00008020       ?finite_ask_Union@@YAPAVClaireBoolean@@PAVUnion@@@Z 00409020 f   Core:types.obj
 0001:00008130       ?self_print_Interval_Core@@YAXPAVInterval@@@Z 00409130 f   Core:types.obj
 0001:00008170       ?finite_ask_Interval@@YAPAVClaireBoolean@@PAVInterval@@@Z 00409170 f   Core:types.obj
 0001:00008180       ?_dash_dash_integer@@YAPAVInterval@@HH@Z 00409180 f   Core:types.obj
 0001:000081f0       ?self_print_Param_Core@@YAXPAVParam@@@Z 004091f0 f   Core:types.obj
 0001:00008340       ?finite_ask_Param@@YAPAVClaireBoolean@@PAVParam@@@Z 00409340 f   Core:types.obj
 0001:00008360       ?self_print_subtype_Core@@YAXPAVsubtype@@@Z 00409360 f   Core:types.obj
 0001:00008490       ?finite_ask_subtype@@YAPAVClaireBoolean@@PAVsubtype@@@Z 00409490 f   Core:types.obj
 0001:00008570       ?nth_class1@@YAPAVClaireType@@PAVClaireClass@@PAV1@@Z 00409570 f   Core:types.obj
 0001:000086f0       ?nth_class2@@YAPAVClaireType@@PAVClaireClass@@PAVlist@@1@Z 004096f0 f   Core:types.obj
 0001:000088f0       ?param_I_class@@YAPAVClaireType@@PAVClaireClass@@PAV1@@Z 004098f0 f   Core:types.obj
 0001:000089f0       ?nth_type@@YAPAVClaireType@@PAV1@@Z 004099f0 f   Core:types.obj
 0001:00008af0       ?finite_ask_tuple@@YAPAVClaireBoolean@@PAVtuple@@@Z 00409af0 f   Core:types.obj
 0001:00008b70       ?self_print_Reference_Core@@YAXPAVReference@@@Z 00409b70 f   Core:types.obj
 0001:00008c50       ?get_Reference@@YAHPAVReference@@H@Z 00409c50 f   Core:types.obj
 0001:00008d10       ?_at_Reference@@YAHPAVReference@@PAVlist@@H@Z 00409d10 f   Core:types.obj
 0001:00008dd0       ?set_I_collection@@YAPAVset@@PAVClaireCollection@@@Z 00409dd0 f   Core:types.obj
 0001:00008f30       ?size_collection@@YAHPAVClaireCollection@@@Z 00409f30 f   Core:types.obj
 0001:00009060       ?set_I_set@@YAPAVset@@PAV1@@Z 0040a060 f   Core:types.obj
 0001:00009070       ?size_set@@YAHPAVset@@@Z   0040a070 f   Core:types.obj
 0001:00009080       ?size_list2_Core@@YAHPAVlist@@@Z 0040a080 f   Core:types.obj
 0001:000090a0       ?set_I_class@@YAPAVset@@PAVClaireClass@@@Z 0040a0a0 f   Core:types.obj
 0001:00009210       ?size_class@@YAHPAVClaireClass@@@Z 0040a210 f   Core:types.obj
 0001:00009260       ?set_I_Union@@YAPAVset@@PAVUnion@@@Z 0040a260 f   Core:types.obj
 0001:00009380       ?size_Union@@YAHPAVUnion@@@Z 0040a380 f   Core:types.obj
 0001:00009500       ?set_I_Interval@@YAPAVset@@PAVInterval@@@Z 0040a500 f   Core:types.obj
 0001:00009520       ?size_Interval@@YAHPAVInterval@@@Z 0040a520 f   Core:types.obj
 0001:00009530       ?set_I_Param@@YAPAVset@@PAVParam@@@Z 0040a530 f   Core:types.obj
 0001:00009640       ?size_Param@@YAHPAVParam@@@Z 0040a640 f   Core:types.obj
 0001:00009660       ?set_I_subtype@@YAPAVset@@PAVsubtype@@@Z 0040a660 f   Core:types.obj
 0001:000097b0       ?size_subtype@@YAHPAVsubtype@@@Z 0040a7b0 f   Core:types.obj
 0001:00009900       ?set_I_tuple@@YAPAVset@@PAVtuple@@@Z 0040a900 f   Core:types.obj
 0001:00009c10       ?size_tuple@@YAHPAVtuple@@@Z 0040ac10 f   Core:types.obj
 0001:00009c90       ?member_ask_any@@YAPAVClaireBoolean@@HPAVClaireType@@@Z 0040ac90 f   Core:types.obj
 0001:0000a3e0       ?class_I_type@@YAPAVClaireClass@@PAVClaireType@@@Z 0040b3e0 f   Core:types.obj
 0001:0000a680       ?U_type@@YAPAVClaireType@@PAV1@0@Z 0040b680 f   Core:types.obj
 0001:0000ac50       ?_dot_dot_integer@@YAPAVClaireType@@HH@Z 0040bc50 f   Core:types.obj
 0001:0000ac70       ?_dot_dot_integer_type@@YAPAVClaireType@@PAV1@0@Z 0040bc70 f   Core:types.obj
 0001:0000adc0       ?but_any@@YAPAVbag@@HH@Z   0040bdc0 f   Core:types.obj
 0001:0000ae90       ?but_any_type@@YAPAVClaireType@@PAV1@0@Z 0040be90 f   Core:types.obj
 0001:0000af40       ?_backslash_type@@YAPAVset@@PAVClaireType@@0@Z 0040bf40 f   Core:types.obj
 0001:0000b080       ?glb_set@@YAPAVset@@PAV1@PAVClaireType@@@Z 0040c080 f   Core:types.obj
 0001:0000b180       ?glb_Union@@YAPAVClaireType@@PAVUnion@@PAV1@@Z 0040c180 f   Core:types.obj
 0001:0000b2c0       ?glb_Interval@@YAPAVClaireType@@PAVInterval@@PAV1@@Z 0040c2c0 f   Core:types.obj
 0001:0000b4a0       ?glb_class@@YAPAVClaireType@@PAVClaireClass@@PAV1@@Z 0040c4a0 f   Core:types.obj
 0001:0000b730       ?glb_Param@@YAPAVClaireType@@PAVParam@@PAV1@@Z 0040c730 f   Core:types.obj
 0001:0000ba40       ?glb_subtype@@YAPAVClaireType@@PAVsubtype@@PAV1@@Z 0040ca40 f   Core:types.obj
 0001:0000bd60       ?glb_tuple@@YAPAVClaireType@@PAVtuple@@PAV1@@Z 0040cd60 f   Core:types.obj
 0001:0000bfa0       ?glb_Reference@@YAPAVClaireType@@PAVReference@@PAV1@@Z 0040cfa0 f   Core:types.obj
 0001:0000bfb0       ?_exp_type@@YAPAVClaireType@@PAV1@0@Z 0040cfb0 f   Core:types.obj
 0001:0000bff0       ?join_class@@YAPAVClaireType@@PAVClaireClass@@0@Z 0040cff0 f   Core:types.obj
 0001:0000c050       ?_exp_list@@YAPAVlist@@PAV1@0@Z 0040d050 f   Core:types.obj
 0001:0000c170       ?Uall_list@@YAPAVClaireType@@PAVlist@@@Z 0040d170 f   Core:types.obj
 0001:0000c220       ?_inf_equalt_bag2@@YAPAVClaireBoolean@@PAVbag@@PAVClaireType@@@Z 0040d220 f   Core:types.obj
 0001:0000c330       ?_inf_equalt_class@@YAPAVClaireBoolean@@PAVClaireClass@@PAVClaireType@@@Z 0040d330 f   Core:types.obj
 0001:0000c670       ?_inf_equalt_Union@@YAPAVClaireBoolean@@PAVUnion@@PAVClaireType@@@Z 0040d670 f   Core:types.obj
 0001:0000c7e0       ?_inf_equalt_Interval@@YAPAVClaireBoolean@@PAVInterval@@PAVClaireType@@@Z 0040d7e0 f   Core:types.obj
 0001:0000ca00       ?_inf_equalt_subtype@@YAPAVClaireBoolean@@PAVsubtype@@PAVClaireType@@@Z 0040da00 f   Core:types.obj
 0001:0000cb90       ?_inf_equalt_Param@@YAPAVClaireBoolean@@PAVParam@@PAVClaireType@@@Z 0040db90 f   Core:types.obj
 0001:0000cd20       ?_inf_equalt_Reference@@YAPAVClaireBoolean@@PAVReference@@PAVClaireType@@@Z 0040dd20 f   Core:types.obj
 0001:0000cd30       ?_inf_equalt_tuple@@YAPAVClaireBoolean@@PAVtuple@@PAVClaireType@@@Z 0040dd30 f   Core:types.obj
 0001:0000d070       ?_inf_equalt_type@@YAPAVClaireBoolean@@PAVClaireType@@0@Z 0040e070 f   Core:types.obj
 0001:0000d400       ?_inf_equal_type@@YAPAVClaireBoolean@@PAVClaireType@@0@Z 0040e400 f   Core:types.obj
 0001:0000d450       ?member_type@@YAPAVClaireType@@PAV1@@Z 0040e450 f   Core:types.obj
 0001:0000d7f0       ?of_extract_type@@YAPAVClaireType@@PAV1@@Z 0040e7f0 f   Core:types.obj
 0001:0000d8a0       ?_at_type@@YAPAVClaireType@@PAV1@PAVproperty@@@Z 0040e8a0 f   Core:types.obj
 0001:0000db40       ?unique_ask_type@@YAPAVClaireBoolean@@PAVClaireType@@@Z 0040eb40 f   Core:types.obj
 0001:0000dbc0       ?the_type@@YAHPAVClaireType@@@Z 0040ebc0 f   Core:types.obj
 0001:0000dc00       ?integer_I_set@@YAHPAVset@@@Z 0040ec00 f   Core:types.obj
 0001:0000dc50       ?make_set_integer@@YAPAVset@@H@Z 0040ec50 f   Core:types.obj
 0001:0000dd20       ?abstract_type_set@@YAPAVClaireType@@PAVset@@@Z 0040ed20 f   Core:types.obj
 0001:0000de30       ?abstract_type_operation@@YAPAVClaireType@@PAVoperation@@PAV1@1@Z 0040ee30 f   Core:types.obj
 0001:0000e0e0       ?first_arg_type_type@@YAPAVClaireType@@PAV1@0@Z 0040f0e0 f   Core:types.obj
 0001:0000e0f0       ?first_arg_type_type2@@YAPAVClaireType@@PAV1@00@Z 0040f0f0 f   Core:types.obj
 0001:0000e100       ?second_arg_type_type@@YAPAVClaireType@@PAV1@0@Z 0040f100 f   Core:types.obj
 0001:0000e110       ?meet_arg_types_type@@YAPAVClaireType@@PAV1@0@Z 0040f110 f   Core:types.obj
 0001:0000e130       ?nth_get_array_type@@YAPAVClaireType@@PAV1@0@Z 0040f130 f   Core:types.obj
 0001:0000e140       ?nth_array@@YAHPAHH@Z      0040f140 f   Core:types.obj
 0001:0000e1c0       ?nth_array_type@@YAPAVClaireType@@PAV1@0@Z 0040f1c0 f   Core:types.obj
 0001:0000e1d0       ?make_array_integer_type@@YAPAVClaireType@@PAV1@00@Z 0040f1d0 f   Core:types.obj
 0001:0000e2a0       ?make_list_integer2@@YAPAVlist@@HPAVClaireType@@H@Z 0040f2a0 f   Core:types.obj
 0001:0000e2d0       ?make_list_integer2_type@@YAPAVClaireType@@PAV1@00@Z 0040f2d0 f   Core:types.obj
 0001:0000e3a0       ?make_set_array@@YAPAVset@@PAH@Z 0040f3a0 f   Core:types.obj
 0001:0000e450       ?make_set_array_type@@YAPAVClaireType@@PAV1@@Z 0040f450 f   Core:types.obj
 0001:0000e5a0       ?list_I_array_type@@YAPAVClaireType@@PAV1@@Z 0040f5a0 f   Core:types.obj
 0001:0000e6f0       ?array_I_list_type@@YAPAVClaireType@@PAV1@@Z 0040f6f0 f   Core:types.obj
 0001:0000e840       ?set_I_bag_type@@YAPAVClaireType@@PAV1@@Z 0040f840 f   Core:types.obj
 0001:0000e990       ?list_I_set_type@@YAPAVClaireType@@PAV1@@Z 0040f990 f   Core:types.obj
 0001:0000eae0       ?print_in_string_void@@YAXXZ 0040fae0 f   Core:function.obj
 0001:0000eb90       ?end_of_print_void@@YAPADXZ 0040fb90 f   Core:function.obj
 0001:0000ebd0       ?buffer_length_void@@YAHXZ 0040fbd0 f   Core:function.obj
 0001:0000ebf0       ?buffer_set_length_integer@@YAXH@Z 0040fbf0 f   Core:function.obj
 0001:0000ec10       ?apply_self_print_any@@YAXH@Z 0040fc10 f   Core:function.obj
 0001:0000ef60       ?self_print_any_Core@@YAXH@Z 0040ff60 f   Core:function.obj
 0001:0000efd0       ?self_print_boolean_Core@@YAXPAVClaireBoolean@@@Z 0040ffd0 f   Core:function.obj
 0001:0000f000       ?self_print_function_Core@@YAXPAVClaireFunction@@@Z 00410000 f   Core:function.obj
 0001:0000f030       ?self_print_restriction_Core@@YAXPAVrestriction@@@Z 00410030 f   Core:function.obj
 0001:0000f160       ?print_any@@YAXH@Z         00410160 f   Core:function.obj
 0001:0000f330       ?short_enough_integer@@YAPAVClaireBoolean@@H@Z 00410330 f   Core:function.obj
 0001:0000f350       ?complete_I_object@@YAPAVClaireObject@@PAV1@@Z 00410350 f   Core:function.obj
 0001:0000f690       ?not_any@@YAPAVClaireBoolean@@H@Z 00410690 f   Core:function.obj
 0001:0000f6d0       ?_I_equal_any@@YAPAVClaireBoolean@@HH@Z 004106d0 f   Core:function.obj
 0001:0000f700       ?owner_any@@YAPAVClaireClass@@H@Z 00410700 f   Core:function.obj
 0001:0000f730       ?known_ask_any@@YAPAVClaireBoolean@@H@Z 00410730 f   Core:function.obj
 0001:0000f750       ?unknown_ask_any@@YAPAVClaireBoolean@@H@Z 00410750 f   Core:function.obj
 0001:0000f770       ?check_in_any@@YAHHPAVClaireType@@@Z 00410770 f   Core:function.obj
 0001:0000f810       ?check_in_bag@@YAPAVbag@@PAV1@PAVClaireClass@@PAVClaireType@@@Z 00410810 f   Core:function.obj
 0001:0000f920       ?_inf_any@@YAPAVClaireBoolean@@HH@Z 00410920 f   Core:function.obj
 0001:0000f970       ?_sup_any@@YAPAVClaireBoolean@@HH@Z 00410970 f   Core:function.obj
 0001:0000f9c0       ?ephemeral_class@@YAHPAVClaireClass@@@Z 004109c0 f   Core:function.obj
 0001:0000fab0       ?abstract_class@@YAHPAVClaireClass@@@Z 00410ab0 f   Core:function.obj
 0001:0000fb60       ?final_class@@YAHPAVClaireClass@@@Z 00410b60 f   Core:function.obj
 0001:0000fc10       ?new_class1@@YAPAVClaireObject@@PAVClaireClass@@@Z 00410c10 f   Core:function.obj
 0001:0000fd50       ?new_class1_type@@YAPAVClaireType@@PAV1@@Z 00410d50 f   Core:function.obj
 0001:0000fe00       ?new_class2@@YAPAVthing@@PAVClaireClass@@PAVsymbol@@@Z 00410e00 f   Core:function.obj
 0001:0000fe80       ?new_class2_type@@YAPAVClaireType@@PAV1@0@Z 00410e80 f   Core:function.obj
 0001:0000ff30       ?new_object_class_type@@YAPAVClaireType@@PAV1@@Z 00410f30 f   Core:function.obj
 0001:0000ffe0       ?new_thing_class_type@@YAPAVClaireType@@PAV1@0@Z 00410fe0 f   Core:function.obj
 0001:00010090       ?meet_class@@YAPAVClaireClass@@PAV1@0@Z 00411090 f   Core:function.obj
 0001:00010110       ?inherit_ask_class@@YAPAVClaireBoolean@@PAVClaireClass@@0@Z 00411110 f   Core:function.obj
 0001:00010150       ?abstract_property@@YAHPAVproperty@@@Z 00411150 f   Core:function.obj
 0001:000101f0       ?final_relation@@YAXPAVClaireRelation@@@Z 004111f0 f   Core:function.obj
 0001:00010380       ?close_module@@YAPAVmodule@@PAV1@@Z 00411380 f   Core:function.obj
 0001:00010560       ?get_symbol_string@@YAHPAD@Z 00411560 f   Core:function.obj
 0001:00010580       ?gensym_void@@YAPAVsymbol@@XZ 00411580 f   Core:function.obj
 0001:00010590       ?store_list4@@YAHPAVlist@@HH@Z 00411590 f   Core:function.obj
 0001:00010640       ?store_array1@@YAHPAHHH@Z  00411640 f   Core:function.obj
 0001:00010660       ?commit_integer@@YAXH@Z    00411660 f   Core:function.obj
 0001:00010680       ?backtrack_integer@@YAXH@Z 00411680 f   Core:function.obj
 0001:000106a0       ?store_listargs@@YAHPAVlistargs@@@Z 004116a0 f   Core:function.obj
 0001:00010840       ?symbol_I_string2@@YAPAVsymbol@@PAD@Z 00411840 f   Core:function.obj
 0001:00010860       ?externC_string@@YAXPAD@Z  00411860 f   Core:function.obj
 0001:000108c0       ?externC_string2@@YAHPADPAVClaireClass@@@Z 004118c0 f   Core:function.obj
 0001:00010930       ?externC_string2_type@@YAPAVClaireType@@PAV1@0@Z 00411930 f   Core:function.obj
 0001:00010940       ?nth_get_string@@YAPAVClaireChar@@PADHH@Z 00411940 f   Core:function.obj
 0001:000109b0       ?nth_put_string@@YAXPADHPAVClaireChar@@H@Z 004119b0 f   Core:function.obj
 0001:00010a10       ?make_string_symbol@@YAPADPAVsymbol@@@Z 00411a10 f   Core:function.obj
 0001:00010a30       ?self_print_symbol_Core@@YAHPAVsymbol@@@Z 00411a30 f   Core:function.obj
 0001:00010a90       ?_plus_integer@@YAHHH@Z    00411a90 f   Core:function.obj
 0001:00010ac0       ?_plus_integer_type@@YAPAVClaireType@@PAV1@0@Z 00411ac0 f   Core:function.obj
 0001:00010ae0       ?_dash_integer1@@YAHHH@Z   00411ae0 f   Core:function.obj
 0001:00010af0       ?_dash_integer1_type@@YAPAVClaireType@@PAV1@0@Z 00411af0 f   Core:function.obj
 0001:00010b10       ?_inf_inf_integer@@YAHHH@Z 00411b10 f   Core:function.obj
 0001:00010b20       ?_sup_sup_integer@@YAHHH@Z 00411b20 f   Core:function.obj
 0001:00010b30       ?and_integer@@YAHHH@Z      00411b30 f   Core:function.obj
 0001:00010b40       ?or_integer@@YAHHH@Z       00411b40 f   Core:function.obj
 0001:00010b50       ?_inf_integer@@YAPAVClaireBoolean@@HH@Z 00411b50 f   Core:function.obj
 0001:00010b70       ?_inf_equal_integer@@YAPAVClaireBoolean@@HH@Z 00411b70 f   Core:function.obj
 0001:00010b90       ?_sup_integer@@YAPAVClaireBoolean@@HH@Z 00411b90 f   Core:function.obj
 0001:00010bb0       ?nth_integer@@YAPAVClaireBoolean@@HH@Z 00411bb0 f   Core:function.obj
 0001:00010bd0       ?factor_ask_integer@@YAPAVClaireBoolean@@HH@Z 00411bd0 f   Core:function.obj
 0001:00010bf0       ?divide_ask_integer@@YAPAVClaireBoolean@@HH@Z 00411bf0 f   Core:function.obj
 0001:00010c10       ?Id_any@@YAHH@Z            00411c10 f   Core:function.obj
 0001:00010c20       ?Id_any_type@@YAPAVClaireType@@PAV1@@Z 00411c20 f   Core:function.obj
 0001:00010c30       ?pair_any@@YAPAVlist@@HH@Z 00411c30 f   Core:function.obj
 0001:00010c50       ?pair_1_list@@YAHPAVlist@@@Z 00411c50 f   Core:function.obj
 0001:00010c60       ?pair_1_list_type@@YAPAVClaireType@@PAV1@@Z 00411c60 f   Core:function.obj
 0001:00010c70       ?pair_2_list@@YAHPAVlist@@@Z 00411c70 f   Core:function.obj
 0001:00010c80       ?pair_2_list_type@@YAPAVClaireType@@PAV1@@Z 00411c80 f   Core:function.obj
 0001:00010c90       ?_plus_float_@@YAHHH@Z     00411c90 f   Core:function.obj
 0001:00010d40       ?_plus_float@@YANNN@Z      00411d40 f   Core:function.obj
 0001:00010d50       ?_dash_float_@@YAHHH@Z     00411d50 f   Core:function.obj
 0001:00010e00       ?_dash_float@@YANNN@Z      00411e00 f   Core:function.obj
 0001:00010e10       ?_star_float_@@YAHHH@Z     00411e10 f   Core:function.obj
 0001:00010ec0       ?_star_float@@YANNN@Z      00411ec0 f   Core:function.obj
 0001:00010ed0       ?_7_float_@@YAHHH@Z        00411ed0 f   Core:function.obj
 0001:00010f80       ?_7_float@@YANNN@Z         00411f80 f   Core:function.obj
 0001:00010f90       ?_dash_float2_@@YAHH@Z     00411f90 f   Core:function.obj
 0001:00011030       ?_dash_float2@@YANN@Z      00412030 f   Core:function.obj
 0001:00011040       ?sqrt_float_@@YAHH@Z       00412040 f   Core:function.obj
 0001:000110e0       ?sqrt_float@@YANN@Z        004120e0 f   Core:function.obj
 0001:000110f0       ?_exp_float_@@YAHHH@Z      004120f0 f   Core:function.obj
 0001:000111a0       ?_exp_float@@YANNN@Z       004121a0 f   Core:function.obj
 0001:000111b0       ?log_float_@@YAHH@Z        004121b0 f   Core:function.obj
 0001:00011250       ?log_float@@YANN@Z         00412250 f   Core:function.obj
 0001:00011260       ?atan_float_@@YAHH@Z       00412260 f   Core:function.obj
 0001:00011300       ?atan_float@@YANN@Z        00412300 f   Core:function.obj
 0001:00011310       ?string_I_float_@@YAPADH@Z 00412310 f   Core:function.obj
 0001:00011340       ?string_I_float@@YAPADN@Z  00412340 f   Core:function.obj
 0001:00011360       ?length_bag@@YAHPAVbag@@@Z 00412360 f   Core:function.obj
 0001:00011370       ?nth_bag@@YAHPAVbag@@H@Z   00412370 f   Core:function.obj
 0001:000113f0       ?nth_bag_type@@YAPAVClaireType@@PAV1@0@Z 004123f0 f   Core:function.obj
 0001:00011400       ?nth_get_bag@@YAHPAVbag@@H@Z 00412400 f   Core:function.obj
 0001:00011410       ?min_method@@YAHPAVmethod@@PAVbag@@@Z 00412410 f   Core:function.obj
 0001:000114b0       ?min_method_type@@YAPAVClaireType@@PAV1@0@Z 004124b0 f   Core:function.obj
 0001:000114c0       ?max_method@@YAHPAVmethod@@PAVbag@@@Z 004124c0 f   Core:function.obj
 0001:00011560       ?max_method_type@@YAPAVClaireType@@PAV1@0@Z 00412560 f   Core:function.obj
 0001:00011570       ?_7_plus_bag@@YAPAVlist@@PAVbag@@0@Z 00412570 f   Core:function.obj
 0001:000116f0       ?last_list@@YAHPAVlist@@@Z 004126f0 f   Core:function.obj
 0001:00011750       ?last_list_type@@YAPAVClaireType@@PAV1@@Z 00412750 f   Core:function.obj
 0001:00011760       ?rmlast_list@@YAPAVlist@@PAV1@@Z 00412760 f   Core:function.obj
 0001:00011780       ?nth_set_list@@YAHPAVlist@@HH@Z 00412780 f   Core:function.obj
 0001:00011870       ?car_list@@YAHPAVlist@@@Z  00412870 f   Core:function.obj
 0001:000118d0       ?hashlist_integer@@YAPAVlist@@H@Z 004128d0 f   Core:function.obj
 0001:000119a0       ?hashsize_list@@YAHPAVlist@@@Z 004129a0 f   Core:function.obj
 0001:000119e0       ?sort_method@@YAPAVlist@@PAVmethod@@PAV1@@Z 004129e0 f   Core:function.obj
 0001:00011a00       ?quicksort_list@@YAXPAVlist@@PAVmethod@@HH@Z 00412a00 f   Core:function.obj
 0001:00011b10       ?build_powerset_list@@YAPAVset@@PAVlist@@@Z 00412b10 f   Core:function.obj
 0001:00011c90       ?make_copy_list_integer@@YAPAVlist@@HH@Z 00412c90 f   Core:function.obj
 0001:00011e00       ?difference_set@@YAPAVset@@PAV1@0@Z 00412e00 f   Core:function.obj
 0001:00011ef0       ?nth_equal_array@@YAXPAHHH@Z 00412ef0 f   Core:function.obj
 0001:00011fe0       ?self_print_array_Core@@YAHPAH@Z 00412fe0 f   Core:function.obj
 0001:00012030       ?self_print_char_Core@@YAHPAVClaireChar@@@Z 00413030 f   Core:function.obj
 0001:00012060       ?_inf_equal_char@@YAPAVClaireBoolean@@PAVClaireChar@@0@Z 00413060 f   Core:function.obj
 0001:00012080       ?release_void@@YAHXZ       00413080 f   Core:object.obj
 0001:000120c0       ?about_void@@YAHXZ         004130c0 f   Core:object.obj
 0001:00012230       ?get_args_integer@@YAPAVlist@@H@Z 00413230 f   Core:object.obj
 0001:000122e0       ?funcall_method1@@YAHPAVmethod@@H@Z 004132e0 f   Core:object.obj
 0001:00012320       ?funcall_method2@@YAHPAVmethod@@HH@Z 00413320 f   Core:object.obj
 0001:00012380       ?funcall_method3@@YAHPAVmethod@@HHH@Z 00413380 f   Core:object.obj
 0001:00012410       ?apply_function@@YAHPAVClaireFunction@@PAVlist@@1@Z 00413410 f   Core:object.obj
 0001:00012480       ?call_property@@YAHPAVproperty@@PAVlistargs@@@Z 00413480 f   Core:object.obj
 0001:000124a0       ?apply_property@@YAHPAVproperty@@PAVlist@@@Z 004134a0 f   Core:object.obj
 0001:00012550       ?apply_method@@YAHPAVmethod@@PAVlist@@@Z 00413550 f   Core:object.obj
 0001:000125c0       ?push_debug_property@@YAXPAVproperty@@HH@Z 004135c0 f   Core:object.obj
 0001:00012c00       ?pop_debug_property@@YAXPAVproperty@@HH@Z 00413c00 f   Core:object.obj
 0001:00012e10       ?tr_indent_boolean@@YAXPAVClaireBoolean@@H@Z 00413e10 f   Core:object.obj
 0001:00012ea0       ?identified_ask_class@@YAPAVClaireBoolean@@PAVClaireClass@@@Z 00413ea0 f   Core:object.obj
 0001:00012f30       ?identical_ask_any@@YAPAVClaireBoolean@@HH@Z 00413f30 f   Core:object.obj
 0001:00012f50       ?put_property2@@YAHPAVproperty@@PAVClaireObject@@H@Z 00413f50 f   Core:object.obj
 0001:000130a0       ?add_value_property3@@YAXPAVproperty@@PAVClaireObject@@H@Z 004140a0 f   Core:object.obj
 0001:000132a0       ?nth_table1@@YAHPAVtable@@H@Z 004142a0 f   Core:object.obj
 0001:000134f0       ?nth_table1_type@@YAPAVClaireType@@PAV1@0@Z 004144f0 f   Core:object.obj
 0001:000135c0       ?get_table@@YAHPAVtable@@H@Z 004145c0 f   Core:object.obj
 0001:00013610       ?get_table_type@@YAPAVClaireType@@PAV1@0@Z 00414610 f   Core:object.obj
 0001:00013710       ?nth_equal_table1@@YAXPAVtable@@HH@Z 00414710 f   Core:object.obj
 0001:00013810       ?nth_put_table@@YAXPAVtable@@HH@Z 00414810 f   Core:object.obj
 0001:00013b30       ?put_table@@YAXPAVtable@@HH@Z 00414b30 f   Core:object.obj
 0001:00013cb0       ?add_table@@YAXPAVtable@@HH@Z 00414cb0 f   Core:object.obj
 0001:00013dc0       ?add_I_table@@YAXPAVtable@@HH@Z 00414dc0 f   Core:object.obj
 0001:00013e40       ?add_value_array@@YAPAVClaireBoolean@@PAVtable@@HPAVbag@@H@Z 00414e40 f   Core:object.obj
 0001:00013fd0       ?add_value_table3@@YAXPAVtable@@HH@Z 00414fd0 f   Core:object.obj
 0001:00014010       ?delete_table@@YAHPAVtable@@HH@Z 00415010 f   Core:object.obj
 0001:000140c0       ?nth_table2@@YAHPAVtable@@HH@Z 004150c0 f   Core:object.obj
 0001:000142b0       ?nth_table2_type@@YAPAVClaireType@@PAV1@00@Z 004152b0 f   Core:object.obj
 0001:00014380       ?nth_equal_table2@@YAXPAVtable@@HHH@Z 00415380 f   Core:object.obj
 0001:000145c0       ?get_index_table1@@YAHPAVtable@@H@Z 004155c0 f   Core:object.obj
 0001:000146e0       ?get_index_table2@@YAHPAVtable@@HH@Z 004156e0 f   Core:object.obj
 0001:00014710       ?erase_table@@YAHPAVtable@@@Z 00415710 f   Core:object.obj
 0001:000149e0       ?make_table_type@@YAPAVtable@@PAVClaireType@@0H@Z 004159e0 f   Core:object.obj
 0001:00014a40       ?funcall_lambda1@@YAHPAVlambda@@H@Z 00415a40 f   Core:object.obj
 0001:00014b60       ?funcall_lambda2@@YAHPAVlambda@@HH@Z 00415b60 f   Core:object.obj
 0001:00014ca0       ?funcall_lambda3@@YAHPAVlambda@@HHH@Z 00415ca0 f   Core:object.obj
 0001:00014e00       ?check_inverse_any@@YAXHH@Z 00415e00 f   Core:object.obj
 0001:00014fd0       ?invert_relation@@YAPAVbag@@PAVClaireRelation@@H@Z 00415fd0 f   Core:object.obj
 0001:000155a0       ?domain_I_restriction@@YAPAVClaireClass@@PAVrestriction@@@Z 004165a0 f   Core:object.obj
 0001:000155d0       ?methods_class@@YAPAVset@@PAVClaireClass@@0@Z 004165d0 f   Core:object.obj
 0001:00015720       ?reify_listargs@@YAHPAVlistargs@@@Z 00416720 f   Core:object.obj
 0001:00015800       ?self_print_general_error_Core@@YAXPAVgeneral_error@@@Z 00416800 f   Core:object.obj
 0001:000158e0       ?self_print_read_slot_error_Core@@YAXPAVread_slot_error@@@Z 004168e0 f   Core:object.obj
 0001:000159b0       ?self_print_range_error_Core@@YAXPAVrange_error@@@Z 004169b0 f   Core:object.obj
 0001:00015aa0       ?self_print_selector_error_Core@@YAXPAVselector_error@@@Z 00416aa0 f   Core:object.obj
 0001:00015bd0       ?self_print_return_error_Core@@YAXPAVreturn_error@@@Z 00416bd0 f   Core:object.obj
 0001:00015be0       ?self_print_system_error_Core@@YAXPAVsystem_error@@@Z 00416be0 f   Core:object.obj
 0001:00015ee0       ?self_print_contradiction_Core@@YAXPAVcontradiction@@@Z 00416ee0 f   Core:object.obj
 0001:00015ef0       ?format_string@@YAXPADPAVlist@@@Z 00416ef0 f   Core:object.obj
 0001:000160a0       ?tformat_string@@YAHPADHPAVlist@@@Z 004170a0 f   Core:object.obj
 0001:000160f0       ?princ_bag@@YAXPAVbag@@@Z  004170f0 f   Core:object.obj
 0001:00016150       ?close_global_variable@@YAPAVglobal_variable@@PAV1@@Z 00417150 f   Core:object.obj
 0001:000161d0       ?contradiction_I_void@@YAXXZ 004171d0 f   Core:object.obj
 0001:000161f0       ?eval_message_property@@YAHPAVproperty@@PAVClaireObject@@HPAVClaireBoolean@@@Z 004171f0 f   Core:method.obj
 0001:00016420       ?noeval_message_property2@@YAHPAVproperty@@H@Z 00417420 f   Core:method.obj
 0001:00016520       ?execute_method@@YAHPAVmethod@@HPAVClaireBoolean@@@Z 00417520 f   Core:method.obj
 0001:000167b0       ?eval_any@@YAHH@Z          004177b0 f   Core:method.obj
 0001:000167f0       ?self_eval_ClaireObject@@YAHPAVClaireObject@@@Z 004177f0 f   Core:method.obj
 0001:00016810       ?inlineok_ask_method@@YAPAVmethod@@PAV1@PAD@Z 00417810 f   Core:method.obj
 0001:000169e0       ?get_slot@@YAHPAVslot@@PAVClaireObject@@@Z 004179e0 f   Core:method.obj
 0001:00016a00       ?put_slot@@YAHPAVslot@@PAVClaireObject@@H@Z 00417a00 f   Core:method.obj
 0001:00016a30       ?get_property@@YAHPAVproperty@@PAVClaireObject@@@Z 00417a30 f   Core:method.obj
 0001:00016b30       ?funcall_property@@YAHPAVproperty@@H@Z 00417b30 f   Core:method.obj
 0001:00016c40       ?read_property@@YAHPAVproperty@@PAVClaireObject@@@Z 00417c40 f   Core:method.obj
 0001:00016db0       ?hold_ask_property@@YAPAVClaireBoolean@@PAVproperty@@PAVClaireObject@@H@Z 00417db0 f   Core:method.obj
 0001:00016f00       ?write_property@@YAXPAVproperty@@PAVClaireObject@@H@Z 00417f00 f   Core:method.obj
 0001:00017150       ?range_is_wrong_slot@@YAHPAVslot@@H@Z 00418150 f   Core:method.obj
 0001:000171a0       ?put_property1@@YAXPAVproperty@@PAVClaireObject@@HPAVClaireClass@@H@Z 004181a0 f   Core:method.obj
 0001:000171e0       ?update_property@@YAXPAVproperty@@PAVClaireObject@@HPAVClaireClass@@H@Z 004181e0 f   Core:method.obj
 0001:00017410       ?update_plus_relation@@YAXPAVClaireRelation@@HH@Z 00418410 f   Core:method.obj
 0001:000176d0       ?update_dash_relation@@YAXPAVClaireRelation@@HH@Z 004186d0 f   Core:method.obj
 0001:00017a00       ?add_I_property@@YAXPAVproperty@@PAVClaireObject@@HH@Z 00418a00 f   Core:method.obj
 0001:00017aa0       ?add_value_property@@YAPAVClaireBoolean@@PAVproperty@@PAVClaireObject@@HPAVbag@@H@Z 00418aa0 f   Core:method.obj
 0001:00017c20       ?add_property@@YAXPAVproperty@@PAVClaireObject@@H@Z 00418c20 f   Core:method.obj
 0001:00017e60       ?known_ask_property@@YAPAVClaireBoolean@@PAVproperty@@PAVClaireObject@@@Z 00418e60 f   Core:method.obj
 0001:00017f70       ?unknown_ask_property@@YAPAVClaireBoolean@@PAVproperty@@PAVClaireObject@@@Z 00418f70 f   Core:method.obj
 0001:00018080       ?delete_property@@YAHPAVproperty@@PAVClaireObject@@H@Z 00419080 f   Core:method.obj
 0001:00018280       ?erase_property@@YAHPAVproperty@@PAVClaireObject@@@Z 00419280 f   Core:method.obj
 0001:000185d0       ?set_range_property@@YAXPAVproperty@@PAVClaireClass@@PAVClaireType@@@Z 004195d0 f   Core:method.obj
 0001:00018600       ?put_store_property2@@YAXPAVproperty@@PAVClaireObject@@HPAVClaireBoolean@@@Z 00419600 f   Core:method.obj
 0001:00018770       ?multi_ask_any@@YAPAVClaireBoolean@@H@Z 00419770 f   Core:method.obj
 0001:00018820       ?fastcall_relation2@@YAXPAVClaireRelation@@HH@Z 00419820 f   Core:method.obj
 0001:00018a50       ?insert_definition_property@@YAXPAVproperty@@PAVrestriction@@@Z 00419a50 f   Core:method.obj
 0001:00018ae0       ?initialize_restriction1@@YAPAVlist@@PAVrestriction@@PAVClaireClass@@PAV1@@Z 00419ae0 f   Core:method.obj
 0001:00018f00       ?uniform_restriction@@YAPAVClaireBoolean@@PAVrestriction@@@Z 00419f00 f   Core:method.obj
 0001:00019090       ?uniform_property@@YAPAVClaireBoolean@@PAVproperty@@@Z 0041a090 f   Core:method.obj
 0001:00019140       ?initialize_restriction2@@YAPAVlist@@PAVrestriction@@PAV1@@Z 0041a140 f   Core:method.obj
 0001:000192a0       ?hashinsert_restriction@@YAHPAVrestriction@@@Z 0041a2a0 f   Core:method.obj
 0001:00019350       ?hashinsert_class@@YAHPAVClaireClass@@PAVmethod@@@Z 0041a350 f   Core:method.obj
 0001:000193a0       ?hashinsert_list@@YAHPAVlist@@PAVmethod@@@Z 0041a3a0 f   Core:method.obj
 0001:000195e0       ?hashget_class@@YAPAVClaireObject@@PAVClaireClass@@PAVproperty@@@Z 0041a5e0 f   Core:method.obj
 0001:00019670       ?join_list@@YAPAVClaireBoolean@@PAVlist@@0@Z 0041a670 f   Core:method.obj
 0001:000197e0       ?_at_property1@@YAPAVClaireObject@@PAVproperty@@PAVClaireClass@@@Z 0041a7e0 f   Core:method.obj
 0001:000199d0       ?_at_property2@@YAPAVClaireObject@@PAVproperty@@PAVlist@@@Z 0041a9d0 f   Core:method.obj
 0001:00019ae0       ?matching_ask_list@@YAPAVClaireBoolean@@PAVlist@@HH@Z 0041aae0 f   Core:method.obj
 0001:00019dc0       ?vmatch_ask_any@@YAPAVClaireBoolean@@HHH@Z 0041adc0 f   Core:method.obj
 0001:0001a3d0       ?tmatch_ask_list@@YAPAVClaireBoolean@@PAVlist@@0@Z 0041b3d0 f   Core:method.obj
 0001:0001a4c0       ?tmatch_ask_any@@YAPAVClaireBoolean@@HHPAVlist@@@Z 0041b4c0 f   Core:method.obj
 0001:0001ab90       ?find_which_property@@YAPAVClaireObject@@PAVproperty@@HPAVClaireClass@@@Z 0041bb90 f   Core:method.obj
 0001:0001ac50       ?find_which_list@@YAPAVClaireObject@@PAVlist@@PAVClaireClass@@HH@Z 0041bc50 f   Core:method.obj
 0001:0001ace0       ?find_which_class@@YAPAVClaireObject@@PAVClaireClass@@PAVlist@@HH@Z 0041bce0 f   Core:method.obj
 0001:0001adc0       ?metaLoad@LanguageClass@@QAEXXZ 0041bdc0 f   Language:Language.obj
 0001:0001f2b0       ?self_print_Definition_Language@@YAHPAVDefinition@@@Z 004202b0 f   Language:define.obj
 0001:0001f380       ?self_print_Defobj_Language@@YAXPAVDefobj@@@Z 00420380 f   Language:define.obj
 0001:0001f5b0       ?self_print_Defclass_Language@@YAXPAVDefclass@@@Z 004205b0 f   Language:define.obj
 0001:0001f810       ?self_print_Defmethod_Language@@YAXPAVDefmethod@@@Z 00420810 f   Language:define.obj
 0001:0001f980       ?self_print_Defarray_Language@@YAXPAVDefarray@@@Z 00420980 f   Language:define.obj
 0001:0001fab0       ?self_print_Defrule_Language@@YAXPAVDefrule@@@Z 00420ab0 f   Language:define.obj
 0001:0001fbd0       ?self_print_Defvar_Language@@YAXPAVDefvar@@@Z 00420bd0 f   Language:define.obj
 0001:0001fca0       ?self_eval_Definition@@YAHPAVDefinition@@@Z 00420ca0 f   Language:define.obj
 0001:0001fdf0       ?complete_object@@YAHPAVClaireObject@@PAVlist@@@Z 00420df0 f   Language:define.obj
 0001:0001ffe0       ?self_eval_Defobj@@YAHPAVDefobj@@@Z 00420fe0 f   Language:define.obj
 0001:00020180       ?self_eval_Defclass@@YAHPAVDefclass@@@Z 00421180 f   Language:define.obj
 0001:00020770       ?self_eval_Defmethod@@YAHPAVDefmethod@@@Z 00421770 f   Language:define.obj
 0001:00020ca0       ?attach_comment_any@@YAXH@Z 00421ca0 f   Language:define.obj
 0001:00020d90       ?extract_signature_list@@YAPAVlist@@PAV1@@Z 00421d90 f   Language:define.obj
 0001:00021000       ?extract_pattern_any@@YAHHPAVlist@@@Z 00422000 f   Language:define.obj
 0001:00021930       ?extract_type_any@@YAPAVClaireType@@H@Z 00422930 f   Language:define.obj
 0001:00021a60       ?extract_item_any@@YAHHH@Z 00422a60 f   Language:define.obj
 0001:00021cf0       ?extract_pattern_nth_list@@YAHPAVlist@@0@Z 00422cf0 f   Language:define.obj
 0001:000223a0       ?extract_class_call_class@@YAPAVClaireObject@@PAVClaireClass@@PAVlist@@@Z 004233a0 f   Language:define.obj
 0001:00022e20       ?extract_range_any@@YAPAVlist@@HPAV1@0@Z 00423e20 f   Language:define.obj
 0001:00023530       ?bit_vector_listargs2@@YAHPAVlistargs@@@Z 00424530 f   Language:define.obj
 0001:00023570       ?extract_status_any@@YAPAVlist@@H@Z 00424570 f   Language:define.obj
 0001:00023b00       ?type_I_any@@YAPAVClaireType@@H@Z 00424b00 f   Language:define.obj
 0001:00023dc0       ?self_eval_Defarray@@YAHPAVDefarray@@@Z 00424dc0 f   Language:define.obj
 0001:00024740       ?self_print_demon@@YAXPAVdemon@@@Z 00425740 f   Language:define.obj
 0001:00024750       ?funcall_demon1@@YAHPAVdemon@@HH@Z 00425750 f   Language:define.obj
 0001:00024810       ?funcall_demon2@@YAHPAVdemon@@HHH@Z 00425810 f   Language:define.obj
 0001:000248e0       ?self_eval_Defrule@@YAHPAVDefrule@@@Z 004258e0 f   Language:define.obj
 0001:00024c10       ?eventMethod_ask_relation2@@YAPAVClaireBoolean@@PAVClaireRelation@@@Z 00425c10 f   Language:define.obj
 0001:00024cc0       ?make_filter_any_@@YAPAVtuple@@H@Z 00425cc0 f   Language:define.obj
 0001:00024ce0       ?make_filter_any@@YAPAVtuple@@H@Z 00425ce0 f   Language:define.obj
 0001:00025830       ?make_demon_relation@@YAPAVdemon@@PAVClaireRelation@@PAVsymbol@@PAVlist@@HH@Z 00426830 f   Language:define.obj
 0001:00025f20       ?readCall_relation@@YAPAVCall@@PAVClaireRelation@@H@Z 00426f20 f   Language:define.obj
 0001:000260a0       ?putCall_relation2@@YAPAVCall@@PAVClaireRelation@@HH@Z 004270a0 f   Language:define.obj
 0001:00026240       ?eval_if_write_relation@@YAXPAVClaireRelation@@@Z 00427240 f   Language:define.obj
 0001:00026b40       ?eventMethod_property@@YAXPAVproperty@@@Z 00427b40 f   Language:define.obj
 0001:00026bd0       ?interface_property@@YAXPAVproperty@@@Z 00427bd0 f   Language:define.obj
 0001:00026f70       ?interface_class@@YAXPAVClaireClass@@PAVlistargs@@@Z 00427f70 f   Language:define.obj
 0001:00027180       ?self_print_If_Language@@YAXPAVIf@@@Z 00428180 f   Language:control.obj
 0001:000271c0       ?printstat_If@@YAXPAVIf@@@Z 004281c0 f   Language:control.obj
 0001:000272b0       ?printif_any@@YAXH@Z       004282b0 f   Language:control.obj
 0001:00027410       ?printelse_If@@YAXPAVIf@@@Z 00428410 f   Language:control.obj
 0001:00027610       ?self_eval_If@@YAHPAVIf@@@Z 00428610 f   Language:control.obj
 0001:000276d0       ?self_print_Do_Language@@YAXPAVDo@@@Z 004286d0 f   Language:control.obj
 0001:000277a0       ?printdo_list@@YAXPAVlist@@PAVClaireBoolean@@@Z 004287a0 f   Language:control.obj
 0001:000278b0       ?printblock_any@@YAXH@Z    004288b0 f   Language:control.obj
 0001:00027a50       ?self_eval_Do@@YAHPAVDo@@@Z 00428a50 f   Language:control.obj
 0001:00027ac0       ?self_print_Let_Language@@YAXPAVLet@@@Z 00428ac0 f   Language:control.obj
 0001:00027bc0       ?printbody_Let@@YAXPAVLet@@@Z 00428bc0 f   Language:control.obj
 0001:00027d70       ?self_eval_Let@@YAHPAVLet@@@Z 00428d70 f   Language:control.obj
 0001:00027ea0       ?self_print_When_Language@@YAXPAVWhen@@@Z 00428ea0 f   Language:control.obj
 0001:00028000       ?self_eval_When@@YAHPAVWhen@@@Z 00429000 f   Language:control.obj
 0001:00028150       ?self_print_Let_plus_Language@@YAXPAVLet_plus@@@Z 00429150 f   Language:control.obj
 0001:000282c0       ?self_print_Let_star_Language@@YAXPAVLet_star@@@Z 004292c0 f   Language:control.obj
 0001:000286a0       ?self_print_For_Language@@YAXPAVFor@@@Z 004296a0 f   Language:control.obj
 0001:000287c0       ?self_eval_For@@YAHPAVFor@@@Z 004297c0 f   Language:control.obj
 0001:00028e10       ?self_print_Collect_Language@@YAXPAVCollect@@@Z 00429e10 f   Language:control.obj
 0001:00028f40       ?self_eval_Collect@@YAHPAVCollect@@@Z 00429f40 f   Language:control.obj
 0001:00029330       ?self_print_Image_Language@@YAXPAVImage@@@Z 0042a330 f   Language:control.obj
 0001:00029460       ?self_eval_Image@@YAHPAVImage@@@Z 0042a460 f   Language:control.obj
 0001:000296b0       ?self_print_Select_Language@@YAXPAVSelect@@@Z 0042a6b0 f   Language:control.obj
 0001:000297d0       ?self_eval_Select@@YAHPAVSelect@@@Z 0042a7d0 f   Language:control.obj
 0001:00029c10       ?self_print_Lselect_Language@@YAXPAVLselect@@@Z 0042ac10 f   Language:control.obj
 0001:00029d30       ?self_eval_Lselect@@YAHPAVLselect@@@Z 0042ad30 f   Language:control.obj
 0001:0002a1c0       ?self_print_Exists_Language@@YAXPAVExists@@@Z 0042b1c0 f   Language:control.obj
 0001:0002a370       ?self_eval_Exists@@YAHPAVExists@@@Z 0042b370 f   Language:control.obj
 0001:0002a710       ?self_print_Case_Language@@YAXPAVCase@@@Z 0042b710 f   Language:control.obj
 0001:0002a8c0       ?self_eval_Case@@YAHPAVCase@@@Z 0042b8c0 f   Language:control.obj
 0001:0002aaa0       ?self_print_While_Language@@YAXPAVWhile@@@Z 0042baa0 f   Language:control.obj
 0001:0002abb0       ?self_eval_While@@YAHPAVWhile@@@Z 0042bbb0 f   Language:control.obj
 0001:0002ae70       ?self_print_Handle_Language@@YAXPAVClaireHandle@@@Z 0042be70 f   Language:control.obj
 0001:0002af80       ?self_eval_Handle@@YAHPAVClaireHandle@@@Z 0042bf80 f   Language:control.obj
 0001:0002b1b0       ?self_print_Construct_Language@@YAXPAVConstruct@@@Z 0042c1b0 f   Language:control.obj
 0001:0002b420       ?self_eval_List@@YAHPAVList@@@Z 0042c420 f   Language:control.obj
 0001:0002b610       ?self_eval_Set@@YAHPAVSet@@@Z 0042c610 f   Language:control.obj
 0001:0002b800       ?self_eval_Tuple@@YAHPAVTuple@@@Z 0042c800 f   Language:control.obj
 0001:0002b910       ?self_eval_Array2@@YAHPAVArray@@@Z 0042c910 f   Language:control.obj
 0001:0002bb00       ?self_eval_Macro2@@YAHPAVMacro@@@Z 0042cb00 f   Language:control.obj
 0001:0002bbc0       ?self_eval_Error@@YAXPAVError@@@Z 0042cbc0 f   Language:control.obj
 0001:0002bdb0       ?self_eval_Printf@@YAHPAVPrintf@@@Z 0042cdb0 f   Language:control.obj
 0001:0002c190       ?self_eval_Trace@@YAHPAVTrace@@@Z 0042d190 f   Language:control.obj
 0001:0002c420       ?self_eval_Assert@@YAHPAVAssert@@@Z 0042d420 f   Language:control.obj
 0001:0002c620       ?self_eval_Branch@@YAHPAVBranch@@@Z 0042d620 f   Language:control.obj
 0001:0002c7c0       ?self_print_Call_Language@@YAXPAVCall@@@Z 0042d7c0 f   Language:call.obj
 0001:0002d0e0       ?self_print_Call_plus_Language@@YAHPAVCall_plus@@@Z 0042e0e0 f   Language:call.obj
 0001:0002d140       ?self_eval_Call@@YAHPAVCall@@@Z 0042e140 f   Language:call.obj
 0001:0002d270       ?self_eval_Call_plus@@YAHPAVCall_plus@@@Z 0042e270 f   Language:call.obj
 0001:0002d510       ?printe_any@@YAXHPAVproperty@@@Z 0042e510 f   Language:call.obj
 0001:0002d600       ?sugar_ask_any@@YAHHHHH@Z  0042e600 f   Language:call.obj
 0001:0002d9a0       ?self_print_Assign_Language@@YAXPAVAssign@@@Z 0042e9a0 f   Language:call.obj
 0001:0002dc30       ?self_eval_Assign@@YAHPAVAssign@@@Z 0042ec30 f   Language:call.obj
 0001:0002dde0       ?self_print_Gassign_Language@@YAXPAVGassign@@@Z 0042ede0 f   Language:call.obj
 0001:0002e080       ?self_eval_Gassign@@YAHPAVGassign@@@Z 0042f080 f   Language:call.obj
 0001:0002e130       ?self_print_And_Language@@YAXPAVAnd@@@Z 0042f130 f   Language:call.obj
 0001:0002e1f0       ?self_eval_And@@YAHPAVAnd@@@Z 0042f1f0 f   Language:call.obj
 0001:0002e340       ?self_print_Or_Language@@YAXPAVOr@@@Z 0042f340 f   Language:call.obj
 0001:0002e400       ?self_eval_Or@@YAHPAVOr@@@Z 0042f400 f   Language:call.obj
 0001:0002e550       ?self_print_Quote_Language@@YAXPAVQuote@@@Z 0042f550 f   Language:call.obj
 0001:0002e600       ?self_eval_Quote@@YAHPAVQuote@@@Z 0042f600 f   Language:call.obj
 0001:0002e610       ?self_print_Call_method_Language@@YAXPAVCall_method@@@Z 0042f610 f   Language:call.obj
 0001:0002e6e0       ?self_eval_Call_method@@YAHPAVCall_method@@@Z 0042f6e0 f   Language:call.obj
 0001:0002e830       ?self_eval_Call_method1@@YAHPAVCall_method1@@@Z 0042f830 f   Language:call.obj
 0001:0002e910       ?self_eval_Call_method2@@YAHPAVCall_method2@@@Z 0042f910 f   Language:call.obj
 0001:0002ea40       ?self_print_Call_slot_Language@@YAXPAVCall_slot@@@Z 0042fa40 f   Language:call.obj
 0001:0002eb10       ?self_eval_Call_slot@@YAHPAVCall_slot@@@Z 0042fb10 f   Language:call.obj
 0001:0002ebf0       ?self_print_Call_array_Language@@YAXPAVCall_array@@@Z 0042fbf0 f   Language:call.obj
 0001:0002ecb0       ?self_eval_Call_array@@YAHPAVCall_array@@@Z 0042fcb0 f   Language:call.obj
 0001:0002edc0       ?self_print_Call_table_Language@@YAXPAVCall_table@@@Z 0042fdc0 f   Language:call.obj
 0001:0002ee90       ?self_eval_Call_table@@YAHPAVCall_table@@@Z 0042fe90 f   Language:call.obj
 0001:0002efb0       ?self_print_Update_Language@@YAXPAVUpdate@@@Z 0042ffb0 f   Language:call.obj
 0001:0002f0a0       ?self_eval_Update@@YAHPAVUpdate@@@Z 004300a0 f   Language:call.obj
 0001:0002f2e0       ?self_print_Super_Language@@YAXPAVSuper@@@Z 004302e0 f   Language:call.obj
 0001:0002f3f0       ?self_eval_Super@@YAHPAVSuper@@@Z 004303f0 f   Language:call.obj
 0001:0002f570       ?self_print_Cast_Language@@YAXPAVCast@@@Z 00430570 f   Language:call.obj
 0001:0002f660       ?self_eval_Cast@@YAHPAVCast@@@Z 00430660 f   Language:call.obj
 0001:0002f800       ?self_print_Return_Language@@YAXPAVReturn@@@Z 00430800 f   Language:call.obj
 0001:0002f8d0       ?self_eval_Return@@YAHPAVReturn@@@Z 004308d0 f   Language:call.obj
 0001:0002f9b0       ?substitution_any@@YAHHPAVVariable@@H@Z 004309b0 f   Language:call.obj
 0001:0002fed0       ?occurrence_any@@YAHHPAVVariable@@@Z 00430ed0 f   Language:call.obj
 0001:00030170       ?instruction_copy_any@@YAHH@Z 00431170 f   Language:call.obj
 0001:00030470       ?no_eval_Instruction@@YAHPAVInstruction@@@Z 00431470 f   Language:pretty.obj
 0001:00030500       ?self_print_unbound_symbol_Language@@YAXPAVunbound_symbol@@@Z 00431500 f   Language:pretty.obj
 0001:00030520       ?self_eval_unbound_symbol@@YAHPAVunbound_symbol@@@Z 00431520 f   Language:pretty.obj
 0001:00030610       ?self_print_Variable_Language@@YAXPAVVariable@@@Z 00431610 f   Language:pretty.obj
 0001:00030640       ?ppvariable_Variable@@YAXPAVVariable@@@Z 00431640 f   Language:pretty.obj
 0001:00030730       ?ppvariable_list@@YAXPAVlist@@@Z 00431730 f   Language:pretty.obj
 0001:00030830       ?self_eval_Variable@@YAHPAVVariable@@@Z 00431830 f   Language:pretty.obj
 0001:00030850       ?write_value_Variable@@YAHPAVVariable@@H@Z 00431850 f   Language:pretty.obj
 0001:000308e0       ?self_eval_Vardef@@YAHPAVVardef@@@Z 004318e0 f   Language:pretty.obj
 0001:00030970       ?self_eval_global_variable@@YAHPAVglobal_variable@@@Z 00431970 f   Language:pretty.obj
 0001:00030980       ?write_value_global_variable@@YAHPAVglobal_variable@@H@Z 00431980 f   Language:pretty.obj
 0001:00030a10       ?apply_lambda@@YAHPAVlambda@@PAVlist@@@Z 00431a10 f   Language:pretty.obj
 0001:00030b50       ?call_lambda2@@YAHPAVlambda@@PAVlistargs@@@Z 00431b50 f   Language:pretty.obj
 0001:00030b70       ?self_print_lambda_Language@@YAHPAVlambda@@@Z 00431b70 f   Language:pretty.obj
 0001:00030c50       ?lambda_I_list@@YAPAVlambda@@PAVlist@@H@Z 00431c50 f   Language:pretty.obj
 0001:00030d90       ?lexical_build_any@@YAHHPAVlist@@H@Z 00431d90 f   Language:pretty.obj
 0001:000314f0       ?lexical_change_any@@YAHHPAVlist@@@Z 004324f0 f   Language:pretty.obj
 0001:000315d0       ?close_class@@YAPAVClaireClass@@PAV1@@Z 004325d0 f   Language:pretty.obj
 0001:000315e0       ?extract_symbol_any@@YAPAVsymbol@@H@Z 004325e0 f   Language:pretty.obj
 0001:000318b0       ?make_a_property_any@@YAPAVproperty@@H@Z 004328b0 f   Language:pretty.obj
 0001:00031c90       ?lbreak_void@@YAHXZ        00432c90 f   Language:pretty.obj
 0001:00031d00       ?put_buffer_void@@YAHXZ    00432d00 f   Language:pretty.obj
 0001:00031d30       ?checkfar_void@@YAHXZ      00432d30 f   Language:pretty.obj
 0001:00031d80       ?lbreak_integer@@YAHH@Z    00432d80 f   Language:pretty.obj
 0001:00031da0       ?indent_integer@@YAHH@Z    00432da0 f   Language:pretty.obj
 0001:00031df0       ?set_level_void@@YAXXZ     00432df0 f   Language:pretty.obj
 0001:00031e00       ?set_level_integer@@YAXH@Z 00432e00 f   Language:pretty.obj
 0001:00031e20       ?printbox_bag1@@YAHPAVbag@@HHPAD@Z 00432e20 f   Language:pretty.obj
 0001:000320a0       ?printbox_bag2@@YAHPAVbag@@@Z 004330a0 f   Language:pretty.obj
 0001:000320d0       ?printbox_bag3@@YAHPAVbag@@PAD@Z 004330d0 f   Language:pretty.obj
 0001:00032100       ?printl_bag@@YAXPAVbag@@PAD@Z 00433100 f   Language:pretty.obj
 0001:00032350       ?printexp_any@@YAXHPAVClaireBoolean@@@Z 00433350 f   Language:pretty.obj
 0001:00032950       ?pretty_print_any@@YAXH@Z  00433950 f   Language:pretty.obj
 0001:000329b0       ?self_print_list_Language@@YAXPAVlist@@@Z 004339b0 f   Language:pretty.obj
 0001:00032a50       ?self_print_set_Language@@YAXPAVset@@@Z 00433a50 f   Language:pretty.obj
 0001:00032b10       ?self_print_tuple_Language@@YAXPAVtuple@@@Z 00433b10 f   Language:pretty.obj
 0001:00032b40       ?metaLoad@ReaderClass@@QAEXXZ 00433b40 f   Reader:Reader.obj
 0001:00036380       ?inspect_any@@YAHH@Z       00437380 f   Reader:inspect.obj
 0001:00036760       ?inspect_loop_any@@YAHHPAVlist@@@Z 00437760 f   Reader:inspect.obj
 0001:00036b40       ?get_from_integer_any@@YAHHH@Z 00437b40 f   Reader:inspect.obj
 0001:00036ca0       ?trace_on_any@@YAHH@Z      00437ca0 f   Reader:inspect.obj
 0001:000370d0       ?untrace_any@@YAHH@Z       004380d0 f   Reader:inspect.obj
 0001:00037400       ?spy_listargs2_Reader@@YAHPAVlistargs@@@Z 00438400 f   Reader:inspect.obj
 0001:000375e0       ?self_trace_Trace@@YAHPAVTrace@@@Z 004385e0 f   Reader:inspect.obj
 0001:000376f0       ?trace_rule_relation@@YAXPAVClaireRelation@@PADHHHH@Z 004386f0 f   Reader:inspect.obj
 0001:000378f0       ?stop_property@@YAHPAVproperty@@PAVlistargs@@@Z 004388f0 f   Reader:inspect.obj
 0001:00037a00       ?debug_void@@YAXXZ         00438a00 f   Reader:inspect.obj
 0001:00037a60       ?call_debug_void@@YAHXZ    00438a60 f   Reader:inspect.obj
 0001:00037cd0       ?breakpoint_void@@YAXXZ    00438cd0 f   Reader:inspect.obj
 0001:00037f30       ?dn_integer@@YAXH@Z        00438f30 f   Reader:inspect.obj
 0001:00038090       ?up_integer@@YAXH@Z        00439090 f   Reader:inspect.obj
 0001:000381d0       ?where_integer@@YAXH@Z     004391d0 f   Reader:inspect.obj
 0001:00038230       ?print_debug_info_integer@@YAXHHH@Z 00439230 f   Reader:inspect.obj
 0001:000383c0       ?Show_integer@@YAHH@Z      004393c0 f   Reader:inspect.obj
 0001:000385c0       ?block_integer@@YAXH@Z     004395c0 f   Reader:inspect.obj
 0001:000388f0       ?closure_build_lambda@@YAPAVlist@@PAVlambda@@@Z 004398f0 f   Reader:inspect.obj
 0001:00038a20       ?closure_build_any@@YAXHPAVlist@@@Z 00439a20 f   Reader:inspect.obj
 0001:00038c10       ?call_step_property_Reader@@YAXPAVproperty@@@Z 00439c10 f   Reader:inspect.obj
 0001:00038cc0       ?step_any@@YAXH@Z          00439cc0 f   Reader:inspect.obj
 0001:00038e60       ?mem_class@@YAHPAVClaireClass@@@Z 00439e60 f   Reader:inspect.obj
 0001:00038ff0       ?PRget_property@@YAPAVPRcount@@PAVproperty@@@Z 00439ff0 f   Reader:inspect.obj
 0001:00039170       ?PRlook_property2@@YAHPAVproperty@@@Z 0043a170 f   Reader:inspect.obj
 0001:000391a0       ?PRshow_property@@YAXPAVproperty@@@Z 0043a1a0 f   Reader:inspect.obj
 0001:000392c0       ?PRtime_property@@YAHPAVproperty@@@Z 0043a2c0 f   Reader:inspect.obj
 0001:00039310       ?PRshow_void@@YAHXZ        0043a310 f   Reader:inspect.obj
 0001:000396b0       ?dependents_method@@YAPAVset@@PAVmethod@@@Z 0043a6b0 f   Reader:inspect.obj
 0001:00039860       ?dependents_any@@YAHH@Z    0043a860 f   Reader:inspect.obj
 0001:00039c00       ?PRdepends_property@@YAHPAVproperty@@0@Z 0043ac00 f   Reader:inspect.obj
 0001:00039c40       ?self_eval_delimiter@@YAHPAVdelimiter@@@Z 0043ac40 f   Reader:file.obj
 0001:00039cc0       ?useless_c_integer@@YAPAVClaireBoolean@@H@Z 0043acc0 f   Reader:file.obj
 0001:00039d20       ?skipc_meta_reader@@YAHPAVmeta_reader@@@Z 0043ad20 f   Reader:file.obj
 0001:00039db0       ?skipc_I_meta_reader@@YAHPAVmeta_reader@@@Z 0043adb0 f   Reader:file.obj
 0001:00039e80       ?cnext_meta_reader@@YAPAVmeta_reader@@PAV1@@Z 0043ae80 f   Reader:file.obj
 0001:00039ea0       ?findeol_meta_reader@@YAPAVClaireBoolean@@PAVmeta_reader@@@Z 0043aea0 f   Reader:file.obj
 0001:00039f50       ?checkno_meta_reader@@YAHPAVmeta_reader@@HH@Z 0043af50 f   Reader:file.obj
 0001:00039fc0       ?verify_any@@YAHHHH@Z      0043afc0 f   Reader:file.obj
 0001:0003a010       ?Serror_string@@YAXPADPAVlist@@@Z 0043b010 f   Reader:file.obj
 0001:0003a090       ?extract_variable_any@@YAPAVVariable@@H@Z 0043b090 f   Reader:file.obj
 0001:0003a260       ?bind_I_meta_reader@@YAPAVlist@@PAVmeta_reader@@PAVVariable@@@Z 0043b260 f   Reader:file.obj
 0001:0003a2d0       ?unbind_I_meta_reader@@YAHPAVmeta_reader@@PAVlist@@@Z 0043b2d0 f   Reader:file.obj
 0001:0003a310       ?_7_string@@YAPADPAD0@Z    0043b310 f   Reader:file.obj
 0001:0003a3e0       ?restore_state_meta_reader@@YAXPAVmeta_reader@@@Z 0043b3e0 f   Reader:file.obj
 0001:0003a450       ?load_file_string@@YAHPADPAVClaireBoolean@@@Z 0043b450 f   Reader:file.obj
 0001:0003aa10       ?load_string@@YAHPAD@Z     0043ba10 f   Reader:file.obj
 0001:0003aa30       ?sload_string@@YAHPAD@Z    0043ba30 f   Reader:file.obj
 0001:0003aa50       ?load_file_module@@YAXPAVmodule@@PAVClaireBoolean@@@Z 0043ba50 f   Reader:file.obj
 0001:0003ac10       ?load_module@@YAHPAVmodule@@@Z 0043bc10 f   Reader:file.obj
 0001:0003ad30       ?sload_module@@YAHPAVmodule@@@Z 0043bd30 f   Reader:file.obj
 0001:0003ae50       ?add_modules_module@@YAPAVlist@@PAVmodule@@PAVset@@PAV1@@Z 0043be50 f   Reader:file.obj
 0001:0003b0e0       ?add_modules_list@@YAPAVlist@@PAV1@@Z 0043c0e0 f   Reader:file.obj
 0001:0003b1b0       ?eload_string@@YAHPAD@Z    0043c1b0 f   Reader:file.obj
 0001:0003b580       ?readblock_port@@YAHPAVClairePort@@@Z 0043c580 f   Reader:file.obj
 0001:0003b720       ?read_port@@YAHPAVClairePort@@@Z 0043c720 f   Reader:file.obj
 0001:0003b910       ?read_string@@YAHPAD@Z     0043c910 f   Reader:file.obj
 0001:0003bad0       ?debug_if_possible_void@@YAHXZ 0043cad0 f   Reader:file.obj
 0001:0003bb20       ?print_exception_void@@YAHXZ 0043cb20 f   Reader:file.obj
 0001:0003bd60       ?show_any@@YAHH@Z          0043cd60 f   Reader:file.obj
 0001:0003bea0       ?kill_object@@YAHPAVClaireObject@@@Z 0043cea0 f   Reader:file.obj
 0001:0003bf30       ?kill_class@@YAHPAVClaireClass@@@Z 0043cf30 f   Reader:file.obj
 0001:0003bfb0       ?min_integer@@YAHHH@Z      0043cfb0 f   Reader:file.obj
 0001:0003bfc0       ?max_integer@@YAHHH@Z      0043cfc0 f   Reader:file.obj
 0001:0003bfd0       ?min_any@@YAHHH@Z          0043cfd0 f   Reader:file.obj
 0001:0003c010       ?max_any@@YAHHH@Z          0043d010 f   Reader:file.obj
 0001:0003c050       ?hashgrow_list@@YAPAVlist@@PAV1@PAVproperty@@@Z 0043d050 f   Reader:file.obj
 0001:0003c160       ?known_ask_table@@YAPAVClaireBoolean@@PAVtable@@H@Z 0043d160 f   Reader:file.obj
 0001:0003c190       ?unknown_ask_table@@YAPAVClaireBoolean@@PAVtable@@H@Z 0043d190 f   Reader:file.obj
 0001:0003c1c0       ?float_I_string_@@YAHPAD@Z 0043d1c0 f   Reader:file.obj
 0001:0003c250       ?float_I_string@@YANPAD@Z  0043d250 f   Reader:file.obj
 0001:0003c3a0       ?_sup_equal_any@@YAPAVClaireBoolean@@HH@Z 0043d3a0 f   Reader:file.obj
 0001:0003c3d0       ?DBregister_Call@@YAPAVCall@@PAV1@@Z 0043d3d0 f   Reader:syntax.obj
 0001:0003c590       ?Call_I_property@@YAPAVCall@@PAVproperty@@PAVlist@@@Z 0043d590 f   Reader:syntax.obj
 0001:0003c670       ?operation_ask_any@@YAPAVClaireBoolean@@H@Z 0043d670 f   Reader:syntax.obj
 0001:0003c790       ?combine_any@@YAHHHH@Z     0043d790 f   Reader:syntax.obj
 0001:0003c8b0       ?combine_I_any@@YAHHHH@Z   0043d8b0 f   Reader:syntax.obj
 0001:0003d450       ?operation_I_any@@YAHH@Z   0043e450 f   Reader:syntax.obj
 0001:0003d730       ?operand_I_any@@YAHHH@Z    0043e730 f   Reader:syntax.obj
 0001:0003dbb0       ?precedence_I_any@@YAHH@Z  0043ebb0 f   Reader:syntax.obj
 0001:0003dc50       ?nextstruct_meta_reader@@YAHPAVmeta_reader@@PAVkeyword@@1@Z 0043ec50 f   Reader:syntax.obj
 0001:0003df70       ?readlet_meta_reader@@YAHPAVmeta_reader@@PAVkeyword@@@Z 0043ef70 f   Reader:syntax.obj
 0001:0003e670       ?readlet_star_meta_reader@@YAHPAVmeta_reader@@PAVlist@@HPAVkeyword@@@Z 0043f670 f   Reader:syntax.obj
 0001:0003e7f0       ?readwhen_meta_reader@@YAHPAVmeta_reader@@PAVkeyword@@@Z 0043f7f0 f   Reader:syntax.obj
 0001:0003ea30       ?readif_meta_reader@@YAHPAVmeta_reader@@H@Z 0043fa30 f   Reader:syntax.obj
 0001:0003ec00       ?readcase_meta_reader@@YAHPAVmeta_reader@@PAVkeyword@@@Z 0043fc00 f   Reader:syntax.obj
 0001:0003ee70       ?readset_meta_reader@@YAHPAVmeta_reader@@H@Z 0043fe70 f   Reader:syntax.obj
 0001:0003f310       ?dereference_any@@YAHH@Z   00440310 f   Reader:syntax.obj
 0001:0003f4c0       ?nextseq_meta_reader@@YAHPAVmeta_reader@@H@Z 004404c0 f   Reader:syntax.obj
 0001:0003f660       ?readblock_meta_reader@@YAHPAVmeta_reader@@HH@Z 00440660 f   Reader:syntax.obj
 0001:0003f9b0       ?Do_I_any@@YAHHH@Z         004409b0 f   Reader:syntax.obj
 0001:0003fb50       ?extract_of_type_Call@@YAPAVClaireType@@PAVCall@@@Z 00440b50 f   Reader:syntax.obj
 0001:0003fd10       ?readcall_meta_reader@@YAHPAVmeta_reader@@HH@Z 00440d10 f   Reader:syntax.obj
 0001:00040c40       ?nextdefinition_meta_reader@@YAHPAVmeta_reader@@HHPAVClaireBoolean@@@Z 00441c40 f   Reader:syntax.obj
 0001:00041410       ?nextmethod_meta_reader@@YAHPAVmeta_reader@@HHPAVClaireBoolean@@11@Z 00442410 f   Reader:syntax.obj
 0001:00041600       ?nextinst_meta_reader@@YAHPAVmeta_reader@@H@Z 00442600 f   Reader:syntax.obj
 0001:00041d90       ?nextDefclass_meta_reader@@YAPAVDefclass@@PAVmeta_reader@@HPAVClaireBoolean@@@Z 00442d90 f   Reader:syntax.obj
 0001:00042400       ?next_meta_reader@@YAHPAVmeta_reader@@@Z 00443400 f   Reader:read.obj
 0001:00042410       ?firstc_meta_reader@@YAHPAVmeta_reader@@@Z 00443410 f   Reader:read.obj
 0001:00042420       ?keyword_ask_any@@YAHH@Z   00443420 f   Reader:read.obj
 0001:00042470       ?stop_ask_integer@@YAHH@Z  00443470 f   Reader:read.obj
 0001:000424f0       ?nextunit_meta_reader@@YAHPAVmeta_reader@@@Z 004434f0 f   Reader:read.obj
 0001:00042e50       ?nexts_meta_reader@@YAHPAVmeta_reader@@PAVkeyword@@@Z 00443e50 f   Reader:read.obj
 0001:00043090       ?loopexp_meta_reader@@YAHPAVmeta_reader@@HPAVkeyword@@PAVClaireBoolean@@@Z 00444090 f   Reader:read.obj
 0001:00043740       ?nexte_meta_reader@@YAHPAVmeta_reader@@@Z 00444740 f   Reader:read.obj
 0001:00043860       ?nextexp_meta_reader@@YAHPAVmeta_reader@@PAVClaireBoolean@@@Z 00444860 f   Reader:read.obj
 0001:00044010       ?nexti_meta_reader@@YAHPAVmeta_reader@@H@Z 00445010 f   Reader:read.obj
 0001:000449e0       ?read_escape_meta_reader@@YAHPAVmeta_reader@@@Z 004459e0 f   Reader:read.obj
 0001:00044ac0       ?nextvariable_meta_reader@@YAHPAVmeta_reader@@H@Z 00445ac0 f   Reader:read.obj
 0001:00044c10       ?nexts_I_meta_reader1@@YAHPAVmeta_reader@@PAVkeyword@@@Z 00445c10 f   Reader:read.obj
 0001:00044d10       ?nexte_I_meta_reader@@YAHPAVmeta_reader@@PAVkeyword@@@Z 00445d10 f   Reader:read.obj
 0001:00044df0       ?nexts_I_meta_reader2@@YAHPAVmeta_reader@@H@Z 00445df0 f   Reader:read.obj
 0001:00044ef0       ?nexts_I_meta_reader3@@YAHPAVmeta_reader@@PAVkeyword@@H@Z 00445ef0 f   Reader:read.obj
 0001:00045000       ?extended_comment_ask_meta_reader@@YAPAVClaireBoolean@@PAVmeta_reader@@PAD@Z 00446000 f   Reader:read.obj
 0001:000450b0       ?extended_comment_I_meta_reader@@YAHPAVmeta_reader@@PAD@Z 004460b0 f   Reader:read.obj
 0001:00045370       ?choco_getNbVars@AbstractConstraint@@QAEHXZ 00446370 f   choco:choco.obj
 0001:0004538a       ?choco_assignIndices@AbstractConstraint@@QAEHPAV1@H@Z 0044638a f   choco:choco.obj
 0001:000453ab       ?choco_getConstraintIdx@AbstractConstraint@@QAEHH@Z 004463ab f   choco:choco.obj
 0001:000453cb       ?choco_setConstraintIndex@AbstractConstraint@@QAEXHH@Z 004463cb f   choco:choco.obj
 0001:000453ec       ?choco_askIfEntailed@AbstractConstraint@@QAEHXZ 004463ec f   choco:choco.obj
 0001:00045406       ?choco_testIfSatisfied@AbstractConstraint@@QAEPAVClaireBoolean@@XZ 00446406 f   choco:choco.obj
 0001:00045420       ?choco_testIfCompletelyInstantiated@AbstractConstraint@@QAEPAVClaireBoolean@@XZ 00446420 f   choco:choco.obj
 0001:0004543a       ?choco_propagate@AbstractConstraint@@QAEXXZ 0044643a f   choco:choco.obj
 0001:00045454       ?choco_awakeOnInf@AbstractConstraint@@QAEXH@Z 00446454 f   choco:choco.obj
 0001:00045474       ?choco_awakeOnSup@AbstractConstraint@@QAEXH@Z 00446474 f   choco:choco.obj
 0001:00045494       ?choco_awakeOnInst@AbstractConstraint@@QAEXH@Z 00446494 f   choco:choco.obj
 0001:000454b4       ?choco_awakeOnRem@AbstractConstraint@@QAEXHH@Z 004464b4 f   choco:choco.obj
 0001:000454d8       ?choco_domainIncludedIn@IntVar@@QAEPAVClaireBoolean@@PAVlist@@@Z 004464d8 f   choco:choco.obj
 0001:000454f8       ?choco_hasExactDomain@IntVar@@QAEPAVClaireBoolean@@XZ 004464f8 f   choco:choco.obj
 0001:00045512       ?choco_getInf@IntVar@@QAEHXZ 00446512 f   choco:choco.obj
 0001:0004552c       ?choco_getSup@IntVar@@QAEHXZ 0044652c f   choco:choco.obj
 0001:00045546       ?choco_getNextActiveEventQueue@PropagationEngine@@QAEHXZ 00446546 f   choco:choco.obj
 0001:00045560       ?choco_selectBranchingObject@AbstractBranching@@QAEHXZ 00446560 f   choco:choco.obj
 0001:0004557a       ?choco_goDownBranch@AbstractBranching@@QAEXHH@Z 0044657a f   choco:choco.obj
 0001:0004559e       ?choco_traceDownBranch@AbstractBranching@@QAEXHH@Z 0044659e f   choco:choco.obj
 0001:000455c2       ?choco_goUpBranch@AbstractBranching@@QAEXHH@Z 004465c2 f   choco:choco.obj
 0001:000455e6       ?choco_traceUpBranch@AbstractBranching@@QAEXHH@Z 004465e6 f   choco:choco.obj
 0001:0004560a       ?choco_getFirstBranch@AbstractBranching@@QAEHH@Z 0044660a f   choco:choco.obj
 0001:0004562a       ?choco_getNextBranch@AbstractBranching@@QAEHHH@Z 0044662a f   choco:choco.obj
 0001:0004564e       ?choco_finishedBranching@AbstractBranching@@QAEPAVClaireBoolean@@HH@Z 0044664e f   choco:choco.obj
 0001:00045672       ?choco_branchOn@AbstractBranching@@QAEPAVClaireBoolean@@HH@Z 00446672 f   choco:choco.obj
 0001:00045696       ?choco_mayExpandNewNode@GlobalSearchLimit@@QAEPAVClaireBoolean@@PAVGlobalSearchSolver@@@Z 00446696 f   choco:choco.obj
 0001:000456b3       ?choco_domainSequence@AbstractIntDomain@@QAEPAVlist@@XZ 004466b3 f   choco:choco.obj
 0001:000456cd       ?choco_domainSet@AbstractIntDomain@@QAEPAVset@@XZ 004466cd f   choco:choco.obj
 0001:000456e7       ?choco_updateDomainInf@AbstractIntDomain@@QAEHH@Z 004466e7 f   choco:choco.obj
 0001:00045707       ?choco_updateDomainSup@AbstractIntDomain@@QAEHH@Z 00446707 f   choco:choco.obj
 0001:00045727       ?choco_getDomainInf@AbstractIntDomain@@QAEHXZ 00446727 f   choco:choco.obj
 0001:00045741       ?choco_getDomainSup@AbstractIntDomain@@QAEHXZ 00446741 f   choco:choco.obj
 0001:0004575b       ?choco_containsValInDomain@AbstractIntDomain@@QAEPAVClaireBoolean@@H@Z 0044675b f   choco:choco.obj
 0001:0004577b       ?choco_getNextValue@AbstractIntDomain@@QAEHH@Z 0044677b f   choco:choco.obj
 0001:0004579b       ?choco_getPrevValue@AbstractIntDomain@@QAEHH@Z 0044679b f   choco:choco.obj
 0001:000457bb       ?choco_removeDomainVal@AbstractIntDomain@@QAEPAVClaireBoolean@@H@Z 004467bb f   choco:choco.obj
 0001:000457db       ?choco_restrict@AbstractIntDomain@@QAEXH@Z 004467db f   choco:choco.obj
 0001:000457fb       ?choco_getDomainCard@AbstractIntDomain@@QAEHXZ 004467fb f   choco:choco.obj
 0001:00045815       ?choco_getKernel@AbstractSetDomain@@QAEPAVlist@@XZ 00446815 f   choco:choco.obj
 0001:0004582f       ?choco_getEnveloppe@AbstractSetDomain@@QAEPAVlist@@XZ 0044682f f   choco:choco.obj
 0001:00045849       ?choco_getKernelSize@AbstractSetDomain@@QAEHXZ 00446849 f   choco:choco.obj
 0001:00045863       ?choco_getEnveloppeSize@AbstractSetDomain@@QAEHXZ 00446863 f   choco:choco.obj
 0001:0004587d       ?choco_getEnveloppeInf@AbstractSetDomain@@QAEHXZ 0044687d f   choco:choco.obj
 0001:00045897       ?choco_getEnveloppeSup@AbstractSetDomain@@QAEHXZ 00446897 f   choco:choco.obj
 0001:000458b1       ?choco_isInKernel@AbstractSetDomain@@QAEPAVClaireBoolean@@H@Z 004468b1 f   choco:choco.obj
 0001:000458d1       ?choco_isInEnveloppe@AbstractSetDomain@@QAEPAVClaireBoolean@@H@Z 004468d1 f   choco:choco.obj
 0001:000458f1       ?choco_updateKernel@AbstractSetDomain@@QAEPAVClaireBoolean@@H@Z 004468f1 f   choco:choco.obj
 0001:00045911       ?choco_updateEnveloppe@AbstractSetDomain@@QAEPAVClaireBoolean@@H@Z 00446911 f   choco:choco.obj
 0001:00045931       ?choco_popSomeEvents@EventCollection@@QAEXXZ 00446931 f   choco:choco.obj
 0001:0004594b       ?choco_getTruthValue@BinRelation@@QAEPAVClaireBoolean@@HH@Z 0044694b f   choco:choco.obj
 0001:0004596f       ?choco_filter@LinComb@@QAEXPAVClaireBoolean@@H@Z 0044696f f   choco:choco.obj
 0001:00045993       ?choco_filterOnImprovedLowerBound@LinComb@@QAEPAVClaireBoolean@@XZ 00446993 f   choco:choco.obj
 0001:000459ad       ?choco_filterOnImprovedUpperBound@LinComb@@QAEPAVClaireBoolean@@XZ 004469ad f   choco:choco.obj
 0001:000459c7       ?choco_selectVar@VarSelector@@QAEHXZ 004469c7 f   choco:choco.obj
 0001:000459e1       ?choco_isOver@ValIterator@@QAEPAVClaireBoolean@@PAVIntVar@@H@Z 004469e1 f   choco:choco.obj
 0001:00045a05       ?choco_getFirstVal@ValIterator@@QAEHPAVIntVar@@@Z 00446a05 f   choco:choco.obj
 0001:00045a25       ?choco_getNextVal@ValIterator@@QAEHPAVIntVar@@H@Z 00446a25 f   choco:choco.obj
 0001:00045a49       ?choco_getBestVal@ValSelector@@QAEHPAVIntVar@@@Z 00446a49 f   choco:choco.obj
 0001:00045a69       ?metaLoad@chocoClass@@QAEXXZ 00446a69 f   choco:choco.obj
 0001:00069db0       ?fcall@property@@QAEHH@Z   0046adb0 f i choco:choco.obj
 0001:00069df0       ?fcall@property@@QAEHHH@Z  0046adf0 f i choco:choco.obj
 0001:00069e40       ?fcall@property@@QAEHHHH@Z 0046ae40 f i choco:choco.obj
 0001:00069e90       ?_float_@@YAHN@Z           0046ae90 f i choco:choco.obj
 0001:00069f50       ?choco_closeLargeIntConstraint_LargeIntConstraint@@YAXPAVLargeIntConstraint@@@Z 0046af50 f   choco:const.obj
 0001:00069f82       ?choco_delay_IntConstraint@@YAPAVDelayer@@PAVIntConstraint@@H@Z 0046af82 f   choco:const.obj
 0001:0006a092       ?claire_self_print_Delayer_choco@@YAXPAVDelayer@@@Z 0046b092 f   choco:const.obj
 0001:0006a1c5       ?choco_closeCompositeConstraint_BinCompositeConstraint@@YAXPAVBinCompositeConstraint@@@Z 0046b1c5 f   choco:const.obj
 0001:0006a2db       ?choco_closeCompositeConstraint_LargeCompositeConstraint@@YAXPAVLargeCompositeConstraint@@@Z 0046b2db f   choco:const.obj
 0001:0006a480       ?choco_getNbVarsFromSubConst_LargeCompositeConstraint@@YAHPAVLargeCompositeConstraint@@@Z 0046b480 f   choco:const.obj
 0001:0006a494       ?choco_connectHook_any_choco@@YAHHPAVAbstractConstraint@@@Z 0046b494 f   choco:const.obj
 0001:0006a4a1       ?choco_reconnectHook_any_choco@@YAHHPAVAbstractConstraint@@@Z 0046b4a1 f   choco:const.obj
 0001:0006a4ae       ?choco_disconnectHook_any_choco@@YAHHPAVAbstractConstraint@@@Z 0046b4ae f   choco:const.obj
 0001:0006a4bb       ?choco_assignIndices_AbstractConstraint@@YAHPAVAbstractConstraint@@0H@Z 0046b4bb f   choco:const.obj
 0001:0006a533       ?choco_assignIndices_UnIntConstraint@@YAHPAVUnIntConstraint@@PAVAbstractConstraint@@H@Z 0046b533 f   choco:const.obj
 0001:0006a667       ?choco_assignIndices_BinIntConstraint@@YAHPAVBinIntConstraint@@PAVAbstractConstraint@@H@Z 0046b667 f   choco:const.obj
 0001:0006a7de       ?choco_assignIndices_TernIntConstraint@@YAHPAVTernIntConstraint@@PAVAbstractConstraint@@H@Z 0046b7de f   choco:const.obj
 0001:0006a999       ?choco_assignIndices_LargeIntConstraint@@YAHPAVLargeIntConstraint@@PAVAbstractConstraint@@H@Z 0046b999 f   choco:const.obj
 0001:0006aa4d       ?choco_assignIndices_BinCompositeConstraint@@YAHPAVBinCompositeConstraint@@PAVAbstractConstraint@@H@Z 0046ba4d f   choco:const.obj
 0001:0006abc3       ?choco_assignIndices_LargeCompositeConstraint@@YAHPAVLargeCompositeConstraint@@PAVAbstractConstraint@@H@Z 0046bbc3 f   choco:const.obj
 0001:0006acfa       ?choco_setConstraintIndex_AbstractConstraint@@YAXPAVAbstractConstraint@@HH@Z 0046bcfa f   choco:const.obj
 0001:0006ad5e       ?choco_setConstraintIndex_UnIntConstraint@@YAXPAVUnIntConstraint@@HH@Z 0046bd5e f   choco:const.obj
 0001:0006add3       ?choco_setConstraintIndex_BinIntConstraint@@YAXPAVBinIntConstraint@@HH@Z 0046bdd3 f   choco:const.obj
 0001:0006ae5a       ?choco_setConstraintIndex_TernIntConstraint@@YAXPAVTernIntConstraint@@HH@Z 0046be5a f   choco:const.obj
 0001:0006aef4       ?choco_setConstraintIndex_LargeIntConstraint@@YAXPAVLargeIntConstraint@@HH@Z 0046bef4 f   choco:const.obj
 0001:0006af7c       ?choco_setConstraintIndex_BinCompositeConstraint@@YAXPAVBinCompositeConstraint@@HH@Z 0046bf7c f   choco:const.obj
 0001:0006b0cc       ?choco_setConstraintIndex_LargeCompositeConstraint@@YAXPAVLargeCompositeConstraint@@HH@Z 0046c0cc f   choco:const.obj
 0001:0006b302       ?choco_setConstraintIndex_Delayer@@YAXPAVDelayer@@HH@Z 0046c302 f   choco:const.obj
 0001:0006b40b       ?choco_getConstraintIdx_AbstractConstraint@@YAHPAVAbstractConstraint@@H@Z 0046c40b f   choco:const.obj
 0001:0006b46e       ?choco_getConstraintIdx_UnIntConstraint@@YAHPAVUnIntConstraint@@H@Z 0046c46e f   choco:const.obj
 0001:0006b4f4       ?choco_getConstraintIdx_BinIntConstraint@@YAHPAVBinIntConstraint@@H@Z 0046c4f4 f   choco:const.obj
 0001:0006b58a       ?choco_getConstraintIdx_TernIntConstraint@@YAHPAVTernIntConstraint@@H@Z 0046c58a f   choco:const.obj
 0001:0006b634       ?choco_getConstraintIdx_LargeIntConstraint@@YAHPAVLargeIntConstraint@@H@Z 0046c634 f   choco:const.obj
 0001:0006b6cc       ?choco_getConstraintIdx_BinCompositeConstraint@@YAHPAVBinCompositeConstraint@@H@Z 0046c6cc f   choco:const.obj
 0001:0006b851       ?choco_getConstraintIdx_LargeCompositeConstraint@@YAHPAVLargeCompositeConstraint@@H@Z 0046c851 f   choco:const.obj
 0001:0006baa4       ?choco_getConstraintIdx_Delayer@@YAHPAVDelayer@@H@Z 0046caa4 f   choco:const.obj
 0001:0006bbc7       ?choco_getPriority_AbstractConstraint_choco@@YAHPAVAbstractConstraint@@@Z 0046cbc7 f   choco:const.obj
 0001:0006bbd1       ?choco_getPriority_Delayer_choco@@YAHPAVDelayer@@@Z 0046cbd1 f   choco:const.obj
 0001:0006bbdc       ?choco_testIfCompletelyInstantiated_IntConstraint@@YAPAVClaireBoolean@@PAVIntConstraint@@@Z 0046cbdc f   choco:const.obj
 0001:0006bda4       ?choco_testIfCompletelyInstantiated_UnIntConstraint@@YAPAVClaireBoolean@@PAVUnIntConstraint@@@Z 0046cda4 f   choco:const.obj
 0001:0006bed8       ?choco_testIfCompletelyInstantiated_BinIntConstraint@@YAPAVClaireBoolean@@PAVBinIntConstraint@@@Z 0046ced8 f   choco:const.obj
 0001:0006c099       ?choco_testIfCompletelyInstantiated_TernIntConstraint@@YAPAVClaireBoolean@@PAVTernIntConstraint@@@Z 0046d099 f   choco:const.obj
 0001:0006c2cc       ?choco_testIfCompletelyInstantiated_LargeIntConstraint@@YAPAVClaireBoolean@@PAVLargeIntConstraint@@@Z 0046d2cc f   choco:const.obj
 0001:0006c47f       ?choco_testIfCompletelyInstantiated_BinCompositeConstraint@@YAPAVClaireBoolean@@PAVBinCompositeConstraint@@@Z 0046d47f f   choco:const.obj
 0001:0006c640       ?choco_testIfCompletelyInstantiated_LargeCompositeConstraint@@YAPAVClaireBoolean@@PAVLargeCompositeConstraint@@@Z 0046d640 f   choco:const.obj
 0001:0006c8fc       ?choco_getNbVars_AbstractConstraint@@YAHPAVAbstractConstraint@@@Z 0046d8fc f   choco:const.obj
 0001:0006c95a       ?choco_getNbVars_UnIntConstraint@@YAHPAVUnIntConstraint@@@Z 0046d95a f   choco:const.obj
 0001:0006c964       ?choco_getNbVars_BinIntConstraint@@YAHPAVBinIntConstraint@@@Z 0046d964 f   choco:const.obj
 0001:0006c96e       ?choco_getNbVars_TernIntConstraint@@YAHPAVTernIntConstraint@@@Z 0046d96e f   choco:const.obj
 0001:0006c978       ?choco_getNbVars_LargeIntConstraint@@YAHPAVLargeIntConstraint@@@Z 0046d978 f   choco:const.obj
 0001:0006c983       ?choco_getNbVars_LargeCompositeConstraint@@YAHPAVLargeCompositeConstraint@@@Z 0046d983 f   choco:const.obj
 0001:0006c9c7       ?choco_getNbVars_BinCompositeConstraint@@YAHPAVBinCompositeConstraint@@@Z 0046d9c7 f   choco:const.obj
 0001:0006caed       ?choco_getVar_AbstractConstraint_choco@@YAPAVAbstractVar@@PAVAbstractConstraint@@H@Z 0046daed f   choco:const.obj
 0001:0006cc6e       ?choco_getVar_UnIntConstraint_choco@@YAPAVAbstractVar@@PAVUnIntConstraint@@H@Z 0046dc6e f   choco:const.obj
 0001:0006ccdc       ?choco_getVar_BinIntConstraint_choco@@YAPAVAbstractVar@@PAVBinIntConstraint@@H@Z 0046dcdc f   choco:const.obj
 0001:0006cd6d       ?choco_getVar_TernIntConstraint_choco@@YAPAVAbstractVar@@PAVTernIntConstraint@@H@Z 0046dd6d f   choco:const.obj
 0001:0006ce12       ?choco_getVar_LargeIntConstraint_choco@@YAPAVAbstractVar@@PAVLargeIntConstraint@@H@Z 0046de12 f   choco:const.obj
 0001:0006ced0       ?choco_getVar_LargeCompositeConstraint_choco@@YAPAVAbstractVar@@PAVLargeCompositeConstraint@@H@Z 0046ded0 f   choco:const.obj
 0001:0006d157       ?choco_getVar_BinCompositeConstraint_choco@@YAPAVAbstractVar@@PAVBinCompositeConstraint@@H@Z 0046e157 f   choco:const.obj
 0001:0006d2ce       ?choco_disconnect_AbstractConstraint_choco@@YAXPAVAbstractConstraint@@@Z 0046e2ce f   choco:const.obj
 0001:0006d32a       ?choco_connect_AbstractConstraint_choco@@YAXPAVAbstractConstraint@@@Z 0046e32a f   choco:const.obj
 0001:0006d386       ?choco_opposite_AbstractConstraint@@YAPAVAbstractConstraint@@PAV1@@Z 0046e386 f   choco:const.obj
 0001:0006d3e5       ?choco_askIfEntailed_AbstractConstraint@@YAHPAVAbstractConstraint@@@Z 0046e3e5 f   choco:const.obj
 0001:0006d456       ?choco_propagate_Ephemeral@@YAXPAVEphemeral@@@Z 0046e456 f   choco:const.obj
 0001:0006d4b2       ?choco_awakeOnInf_AbstractConstraint@@YAXPAVAbstractConstraint@@H@Z 0046e4b2 f   choco:const.obj
 0001:0006d4c6       ?choco_awakeOnSup_AbstractConstraint@@YAXPAVAbstractConstraint@@H@Z 0046e4c6 f   choco:const.obj
 0001:0006d4da       ?choco_awakeOnInst_AbstractConstraint@@YAXPAVAbstractConstraint@@H@Z 0046e4da f   choco:const.obj
 0001:0006d4ee       ?choco_awakeOnRem_AbstractConstraint@@YAXPAVAbstractConstraint@@HH@Z 0046e4ee f   choco:const.obj
 0001:0006d502       ?choco_awakeOnVar_AbstractConstraint@@YAXPAVAbstractConstraint@@H@Z 0046e502 f   choco:const.obj
 0001:0006d516       ?choco_awake_AbstractConstraint_choco@@YAXPAVAbstractConstraint@@@Z 0046e516 f   choco:const.obj
 0001:0006d52a       ?choco_awakeOnKer_AbstractConstraint@@YAXPAVAbstractConstraint@@H@Z 0046e52a f   choco:const.obj
 0001:0006d53e       ?choco_awakeOnEnv_AbstractConstraint@@YAXPAVAbstractConstraint@@H@Z 0046e53e f   choco:const.obj
 0001:0006d552       ?choco_awakeOnInstSet_AbstractConstraint@@YAXPAVAbstractConstraint@@H@Z 0046e552 f   choco:const.obj
 0001:0006d566       ?choco_testIfSatisfied_AbstractConstraint@@YAPAVClaireBoolean@@PAVAbstractConstraint@@@Z 0046e566 f   choco:const.obj
 0001:0006d5c7       ?choco_testIfCompletelyInstantiated_AbstractConstraint@@YAPAVClaireBoolean@@PAVAbstractConstraint@@@Z 0046e5c7 f   choco:const.obj
 0001:0006d628       ?choco_propagate_UnIntConstraint@@YAXPAVUnIntConstraint@@@Z 0046e628 f   choco:const.obj
 0001:0006d64f       ?choco_propagate_BinIntConstraint@@YAXPAVBinIntConstraint@@@Z 0046e64f f   choco:const.obj
 0001:0006d698       ?choco_propagate_LargeIntConstraint@@YAXPAVLargeIntConstraint@@@Z 0046e698 f   choco:const.obj
 0001:0006d6eb       ?choco_doAwake_AbstractConstraint@@YAXPAVAbstractConstraint@@@Z 0046e6eb f   choco:const.obj
 0001:0006d70d       ?choco_doPropagate_AbstractConstraint@@YAXPAVAbstractConstraint@@@Z 0046e70d f   choco:const.obj
 0001:0006d721       ?choco_doAwakeOnInf_AbstractConstraint@@YAXPAVAbstractConstraint@@H@Z 0046e721 f   choco:const.obj
 0001:0006d739       ?choco_doAwakeOnSup_AbstractConstraint@@YAXPAVAbstractConstraint@@H@Z 0046e739 f   choco:const.obj
 0001:0006d751       ?choco_doAwakeOnInst_AbstractConstraint@@YAXPAVAbstractConstraint@@H@Z 0046e751 f   choco:const.obj
 0001:0006d769       ?choco_doAwakeOnKer_AbstractConstraint@@YAXPAVAbstractConstraint@@H@Z 0046e769 f   choco:const.obj
 0001:0006d790       ?choco_doAwakeOnEnv_AbstractConstraint@@YAXPAVAbstractConstraint@@H@Z 0046e790 f   choco:const.obj
 0001:0006d7b7       ?choco_doAwakeOnInstSet_AbstractConstraint@@YAXPAVAbstractConstraint@@H@Z 0046e7b7 f   choco:const.obj
 0001:0006d7de       ?choco_doAwakeOnRem_AbstractConstraint@@YAXPAVAbstractConstraint@@HH@Z 0046e7de f   choco:const.obj
 0001:0006d7fa       ?choco_doAwakeOnVar_AbstractConstraint@@YAXPAVAbstractConstraint@@H@Z 0046e7fa f   choco:const.obj
 0001:0006d812       ?choco_askIfTrue_AbstractConstraint@@YAHPAVAbstractConstraint@@@Z 0046e812 f   choco:const.obj
 0001:0006d826       ?choco_testIfTrue_AbstractConstraint@@YAPAVClaireBoolean@@PAVAbstractConstraint@@@Z 0046e826 f   choco:const.obj
 0001:0006d857       ?choco_testIfInstantiated_AbstractConstraint@@YAPAVClaireBoolean@@PAVAbstractConstraint@@@Z 0046e857 f   choco:const.obj
 0001:0006d888       ?choco_abstractIncInf_AbstractConstraint@@YAPAVClaireBoolean@@PAVAbstractConstraint@@H@Z 0046e888 f   choco:const.obj
 0001:0006d892       ?choco_abstractDecSup_AbstractConstraint@@YAPAVClaireBoolean@@PAVAbstractConstraint@@H@Z 0046e892 f   choco:const.obj
 0001:0006d89c       ?choco_abstractInstantiate_AbstractConstraint@@YAPAVClaireBoolean@@PAVAbstractConstraint@@H@Z 0046e89c f   choco:const.obj
 0001:0006d8a6       ?choco_abstractRemoveVal_AbstractConstraint@@YAPAVClaireBoolean@@PAVAbstractConstraint@@HH@Z 0046e8a6 f   choco:const.obj
 0001:0006d8b0       ?choco_awakeOnInf_Delayer@@YAXPAVDelayer@@H@Z 0046e8b0 f   choco:const.obj
 0001:0006d9e4       ?choco_awakeOnSup_Delayer@@YAXPAVDelayer@@H@Z 0046e9e4 f   choco:const.obj
 0001:0006db18       ?choco_awakeOnInst_Delayer@@YAXPAVDelayer@@H@Z 0046eb18 f   choco:const.obj
 0001:0006dc4c       ?choco_awakeOnRem_Delayer@@YAXPAVDelayer@@HH@Z 0046ec4c f   choco:const.obj
 0001:0006dd83       ?choco_testIfSatisfied_Delayer@@YAPAVClaireBoolean@@PAVDelayer@@@Z 0046ed83 f   choco:const.obj
 0001:0006deb7       ?choco_testIfCompletelyInstantiated_Delayer@@YAPAVClaireBoolean@@PAVDelayer@@@Z 0046eeb7 f   choco:const.obj
 0001:0006dfeb       ?choco_getNbVars_Delayer@@YAHPAVDelayer@@@Z 0046efeb f   choco:const.obj
 0001:0006e109       ?choco_askIfEntailed_Delayer@@YAHPAVDelayer@@@Z 0046f109 f   choco:const.obj
 0001:0006e227       ?choco_propagate_Delayer@@YAXPAVDelayer@@@Z 0046f227 f   choco:const.obj
 0001:0006e336       ?choco_awake_Delayer_choco@@YAXPAVDelayer@@@Z 0046f336 f   choco:const.obj
 0001:0006e436       ?choco_getVar_Delayer_choco@@YAPAVAbstractVar@@PAVDelayer@@H@Z 0046f436 f   choco:const.obj
 0001:0006e552       ?choco_addIntVar_Problem@@YAXPAVProblem@@PAVIntVar@@@Z 0046f552 f   choco:const.obj
 0001:0006e67f       ?choco_connect_IntConstraint_choco@@YAXPAVIntConstraint@@@Z 0046f67f f   choco:const.obj
 0001:0006e82d       ?choco_connect_UnIntConstraint_choco@@YAXPAVUnIntConstraint@@@Z 0046f82d f   choco:const.obj
 0001:0006e95e       ?choco_connect_BinIntConstraint_choco@@YAXPAVBinIntConstraint@@@Z 0046f95e f   choco:const.obj
 0001:0006eaad       ?choco_connect_TernIntConstraint_choco@@YAXPAVTernIntConstraint@@@Z 0046faad f   choco:const.obj
 0001:0006ec1a       ?choco_connect_LargeIntConstraint_choco@@YAXPAVLargeIntConstraint@@@Z 0046fc1a f   choco:const.obj
 0001:0006ed82       ?choco_connect_CompositeConstraint_choco@@YAXPAVCompositeConstraint@@@Z 0046fd82 f   choco:const.obj
 0001:0006eebd       ?choco_connect_Delayer_choco@@YAXPAVDelayer@@@Z 0046febd f   choco:const.obj
 0001:0006f017       ?choco_connectIntVar_AbstractConstraint1@@YAXPAVAbstractConstraint@@PAVIntVar@@H@Z 00470017 f   choco:const.obj
 0001:0006f04a       ?choco_connectIntVar_AbstractConstraint2@@YAXPAVAbstractConstraint@@PAVIntVar@@HPAVClaireBoolean@@222@Z 0047004a f   choco:const.obj
 0001:0006f212       ?choco_connectIntVarEvents_IntVar_choco@@YAXPAVIntVar@@PAVClaireBoolean@@111@Z 00470212 f   choco:const.obj
 0001:0006f375       ?choco_connectEvent_VarEvent@@YAXPAVVarEvent@@HPAVClaireBoolean@@@Z 00470375 f   choco:const.obj
 0001:0006f562       ?choco_disconnectIntVar_IntVar@@YAXPAVIntVar@@H@Z 00470562 f   choco:const.obj
 0001:0006f5a3       ?choco_disconnectIntVarEvents_IntVar_choco@@YAXPAVIntVar@@HPAVClaireBoolean@@111@Z 004705a3 f   choco:const.obj
 0001:0006f716       ?choco_disconnectEvent_VarEvent@@YAXPAVVarEvent@@H@Z 00470716 f   choco:const.obj
 0001:0006f9eb       ?choco_connectSetVar_AbstractConstraint1@@YAXPAVAbstractConstraint@@PAVSetVar@@H@Z 004709eb f   choco:const.obj
 0001:0006fa18       ?choco_connectSetVar_AbstractConstraint2@@YAXPAVAbstractConstraint@@PAVSetVar@@HPAVClaireBoolean@@22@Z 00470a18 f   choco:const.obj
 0001:0006fbce       ?choco_connectSetVarEvents_SetVar_choco@@YAXPAVSetVar@@PAVClaireBoolean@@11@Z 00470bce f   choco:const.obj
 0001:0006fd0f       ?choco_disconnectSetVar_SetVar@@YAXPAVSetVar@@H@Z 00470d0f f   choco:const.obj
 0001:0006fd4a       ?choco_disconnectSetVarEvents_SetVar_choco@@YAXPAVSetVar@@HPAVClaireBoolean@@11@Z 00470d4a f   choco:const.obj
 0001:0006fe97       ?choco_reconnectSetVar_SetVar@@YAXPAVSetVar@@H@Z 00470e97 f   choco:const.obj
 0001:0006fed2       ?choco_reconnectSetVarEvents_SetVar_choco@@YAXPAVSetVar@@HPAVClaireBoolean@@11@Z 00470ed2 f   choco:const.obj
 0001:0007001f       ?choco_disconnect_UnIntConstraint_choco@@YAXPAVUnIntConstraint@@@Z 0047101f f   choco:const.obj
 0001:00070152       ?choco_disconnect_BinIntConstraint_choco@@YAXPAVBinIntConstraint@@@Z 00471152 f   choco:const.obj
 0001:000702a2       ?choco_disconnect_TernIntConstraint_choco@@YAXPAVTernIntConstraint@@@Z 004712a2 f   choco:const.obj
 0001:00070412       ?choco_disconnect_LargeIntConstraint_choco@@YAXPAVLargeIntConstraint@@@Z 00471412 f   choco:const.obj
 0001:00070586       ?choco_disconnect_Delayer_choco@@YAXPAVDelayer@@@Z 00471586 f   choco:const.obj
 0001:000706b8       ?choco_reconnect_UnIntConstraint_choco@@YAXPAVUnIntConstraint@@@Z 004716b8 f   choco:const.obj
 0001:000707eb       ?choco_reconnect_BinIntConstraint_choco@@YAXPAVBinIntConstraint@@@Z 004717eb f   choco:const.obj
 0001:0007093b       ?choco_reconnect_TernIntConstraint_choco@@YAXPAVTernIntConstraint@@@Z 0047193b f   choco:const.obj
 0001:00070aab       ?choco_reconnect_LargeIntConstraint_choco@@YAXPAVLargeIntConstraint@@@Z 00471aab f   choco:const.obj
 0001:00070c1f       ?choco_reconnect_AbstractConstraint_choco@@YAXPAVAbstractConstraint@@@Z 00471c1f f   choco:const.obj
 0001:00070c7b       ?choco_reconnectIntVar_IntVar@@YAXPAVIntVar@@H@Z 00471c7b f   choco:const.obj
 0001:00070cbc       ?choco_reconnectIntVarEvents_IntVar_choco@@YAXPAVIntVar@@HPAVClaireBoolean@@111@Z 00471cbc f   choco:const.obj
 0001:00070e2f       ?choco_reconnectEvent_VarEvent@@YAXPAVVarEvent@@H@Z 00471e2f f   choco:const.obj
 0001:00070f29       ?choco_isActive_AbstractConstraint_choco@@YAPAVClaireBoolean@@PAVAbstractConstraint@@@Z 00471f29 f   choco:const.obj
 0001:00070f73       ?choco_isActive_UnIntConstraint_choco@@YAPAVClaireBoolean@@PAVUnIntConstraint@@@Z 00471f73 f   choco:const.obj
 0001:00071071       ?choco_isActive_BinIntConstraint_choco@@YAPAVClaireBoolean@@PAVBinIntConstraint@@@Z 00472071 f   choco:const.obj
 0001:000711c4       ?choco_isActive_TernIntConstraint_choco@@YAPAVClaireBoolean@@PAVTernIntConstraint@@@Z 004721c4 f   choco:const.obj
 0001:00071350       ?choco_isActive_LargeIntConstraint_choco@@YAPAVClaireBoolean@@PAVLargeIntConstraint@@@Z 00472350 f   choco:const.obj
 0001:000713f4       ?choco_isActive_Delayer_choco@@YAPAVClaireBoolean@@PAVDelayer@@@Z 004723f4 f   choco:const.obj
 0001:0007150b       ?choco_isActive_BinCompositeConstraint_choco@@YAPAVClaireBoolean@@PAVBinCompositeConstraint@@@Z 0047250b f   choco:const.obj
 0001:00071691       ?choco_isActive_LargeCompositeConstraint_choco@@YAPAVClaireBoolean@@PAVLargeCompositeConstraint@@@Z 00472691 f   choco:const.obj
 0001:000717f8       ?choco_isActiveIntVar_IntVar@@YAPAVClaireBoolean@@PAVIntVar@@H@Z 004727f8 f   choco:const.obj
 0001:000719b3       ?choco_isActiveSetVar_SetVar@@YAPAVClaireBoolean@@PAVSetVar@@H@Z 004729b3 f   choco:const.obj
 0001:00071b36       ?choco_isActiveEvent_VarEvent@@YAPAVClaireBoolean@@PAVVarEvent@@H@Z 00472b36 f   choco:const.obj
 0001:00071bc0       ??Abag@@QAEAAHH@Z          00472bc0 f i choco:const.obj
 0001:00071be0       ?choco_selectBranchingObject_AbstractBranching_choco@@YAHPAVAbstractBranching@@@Z 00472be0 f   choco:search.obj
 0001:00071c2a       ?choco_goDownBranch_AbstractBranching_choco@@YAXPAVAbstractBranching@@HH@Z 00472c2a f   choco:search.obj
 0001:00071c7c       ?choco_traceDownBranch_AbstractBranching_choco@@YAXPAVAbstractBranching@@HH@Z 00472c7c f   choco:search.obj
 0001:00071cce       ?choco_getFirstBranch_AbstractBranching_choco@@YAHPAVAbstractBranching@@H@Z 00472cce f   choco:search.obj
 0001:00071d1e       ?choco_getNextBranch_AbstractBranching_choco@@YAHPAVAbstractBranching@@HH@Z 00472d1e f   choco:search.obj
 0001:00071d6e       ?choco_goUpBranch_AbstractBranching_choco@@YAXPAVAbstractBranching@@HH@Z 00472d6e f   choco:search.obj
 0001:00071dc0       ?choco_traceUpBranch_AbstractBranching_choco@@YAXPAVAbstractBranching@@HH@Z 00472dc0 f   choco:search.obj
 0001:00071e12       ?choco_finishedBranching_AbstractBranching_choco@@YAPAVClaireBoolean@@PAVAbstractBranching@@HH@Z 00472e12 f   choco:search.obj
 0001:00071e65       ?choco_branchOn_AbstractBranching@@YAPAVClaireBoolean@@PAVAbstractBranching@@HH@Z 00472e65 f   choco:search.obj
 0001:00071ebc       ?choco_goUpBranch_LargeBranching_choco@@YAXPAVLargeBranching@@HH@Z 00472ebc f   choco:search.obj
 0001:00071ec1       ?choco_traceUpBranch_LargeBranching_choco@@YAXPAVLargeBranching@@HH@Z 00472ec1 f   choco:search.obj
 0001:00071ec6       ?choco_getFirstBranch_LargeBranching_choco@@YAHPAVLargeBranching@@H@Z 00472ec6 f   choco:search.obj
 0001:00071ed0       ?choco_getNextBranch_LargeBranching_choco@@YAHPAVLargeBranching@@HH@Z 00472ed0 f   choco:search.obj
 0001:00071eda       ?choco_finishedBranching_LargeBranching_choco@@YAPAVClaireBoolean@@PAVLargeBranching@@HH@Z 00472eda f   choco:search.obj
 0001:00071eed       ?choco_selectBranching_CompositeBranching@@YAPAVAbstractBranching@@PAVCompositeBranching@@@Z 00472eed f   choco:search.obj
 0001:00071f35       ?choco_selectBranchingObject_CompositeBranching_choco@@YAHPAVCompositeBranching@@@Z 00472f35 f   choco:search.obj
 0001:00072074       ?choco_getFirstBranch_CompositeBranching_choco@@YAHPAVCompositeBranching@@H@Z 00473074 f   choco:search.obj
 0001:000720e0       ?choco_getNextBranch_CompositeBranching_choco@@YAHPAVCompositeBranching@@HH@Z 004730e0 f   choco:search.obj
 0001:00072150       ?choco_goUpBranch_CompositeBranching_choco@@YAXPAVCompositeBranching@@HH@Z 00473150 f   choco:search.obj
 0001:000721b3       ?choco_traceUpBranch_CompositeBranching_choco@@YAXPAVCompositeBranching@@HH@Z 004731b3 f   choco:search.obj
 0001:00072216       ?choco_goDownBranch_CompositeBranching_choco@@YAXPAVCompositeBranching@@HH@Z 00473216 f   choco:search.obj
 0001:00072279       ?choco_traceDownBranch_CompositeBranching_choco@@YAXPAVCompositeBranching@@HH@Z 00473279 f   choco:search.obj
 0001:000722dc       ?choco_finishedBranching_CompositeBranching_choco@@YAPAVClaireBoolean@@PAVCompositeBranching@@HH@Z 004732dc f   choco:search.obj
 0001:00072362       ?choco_selectVar_VarSelector@@YAHPAVVarSelector@@@Z 00473362 f   choco:search.obj
 0001:000723c3       ?choco_selectVar_MinDomain@@YAHPAVMinDomain@@@Z 004733c3 f   choco:search.obj
 0001:000725f9       ?choco_selectVar_MaxDeg@@YAHPAVMaxDeg@@@Z 004735f9 f   choco:search.obj
 0001:0007282f       ?choco_selectVar_DomDeg@@YAHPAVDomDeg@@@Z 0047382f f   choco:search.obj
 0001:00072a9c       ?choco_selectVar_StaticVarOrder@@YAHPAVStaticVarOrder@@@Z 00473a9c f   choco:search.obj
 0001:00072c3b       ?choco_isOver_ValIterator@@YAPAVClaireBoolean@@PAVValIterator@@PAVIntVar@@H@Z 00473c3b f   choco:search.obj
 0001:00072c9c       ?choco_getFirstVal_ValIterator@@YAHPAVValIterator@@PAVIntVar@@@Z 00473c9c f   choco:search.obj
 0001:00072cfa       ?choco_getNextVal_ValIterator@@YAHPAVValIterator@@PAVIntVar@@H@Z 00473cfa f   choco:search.obj
 0001:00072d58       ?choco_isOver_IncreasingDomain@@YAPAVClaireBoolean@@PAVIncreasingDomain@@PAVIntVar@@H@Z 00473d58 f   choco:search.obj
 0001:00072d73       ?choco_getFirstVal_IncreasingDomain@@YAHPAVIncreasingDomain@@PAVIntVar@@@Z 00473d73 f   choco:search.obj
 0001:00072d81       ?choco_getNextVal_IncreasingDomain@@YAHPAVIncreasingDomain@@PAVIntVar@@H@Z 00473d81 f   choco:search.obj
 0001:00072d96       ?choco_isOver_DecreasingDomain@@YAPAVClaireBoolean@@PAVDecreasingDomain@@PAVIntVar@@H@Z 00473d96 f   choco:search.obj
 0001:00072db1       ?choco_getFirstVal_DecreasingDomain@@YAHPAVDecreasingDomain@@PAVIntVar@@@Z 00473db1 f   choco:search.obj
 0001:00072dbf       ?choco_getNextVal_DecreasingDomain@@YAHPAVDecreasingDomain@@PAVIntVar@@H@Z 00473dbf f   choco:search.obj
 0001:00072dd4       ?choco_getBestVal_ValSelector@@YAHPAVValSelector@@PAVIntVar@@@Z 00473dd4 f   choco:search.obj
 0001:00072e32       ?choco_getBestVal_MidValHeuristic@@YAHPAVMidValHeuristic@@PAVIntVar@@@Z 00473e32 f   choco:search.obj
 0001:00072e59       ?choco_getBestVal_MinValHeuristic@@YAHPAVMinValHeuristic@@PAVIntVar@@@Z 00473e59 f   choco:search.obj
 0001:00072e67       ?choco_getBestVal_MaxValHeuristic@@YAHPAVMaxValHeuristic@@PAVIntVar@@@Z 00473e67 f   choco:search.obj
 0001:00072e75       ?choco_getObjectiveValue_AbstractOptimize_choco@@YAHPAVAbstractOptimize@@@Z 00473e75 f   choco:search.obj
 0001:00072ebd       ?choco_getBestObjectiveValue_AbstractOptimize@@YAHPAVAbstractOptimize@@@Z 00473ebd f   choco:search.obj
 0001:00072ef9       ?choco_getObjectiveTarget_AbstractOptimize@@YAHPAVAbstractOptimize@@@Z 00473ef9 f   choco:search.obj
 0001:00072f35       ?choco_initBounds_AbstractOptimize@@YAXPAVAbstractOptimize@@@Z 00473f35 f   choco:search.obj
 0001:00073075       ?choco_getFeasibility_GlobalSearchSolver@@YAPAVClaireBoolean@@PAVGlobalSearchSolver@@@Z 00474075 f   choco:search.obj
 0001:00073083       ?choco_mayExpandNewNode_GlobalSearchLimit@@YAPAVClaireBoolean@@PAVGlobalSearchLimit@@PAVGlobalSearchSolver@@@Z 00474083 f   choco:search.obj
 0001:0007308d       ?choco_mayExpandNewNode_NodeLimit@@YAPAVClaireBoolean@@PAVNodeLimit@@PAVGlobalSearchSolver@@@Z 0047408d f   choco:search.obj
 0001:000730a8       ?choco_mayExpandNewNode_BacktrackLimit@@YAPAVClaireBoolean@@PAVBacktrackLimit@@PAVGlobalSearchSolver@@@Z 004740a8 f   choco:search.obj
 0001:000730c3       ?choco_mayExpandNewNode_TimeLimit@@YAPAVClaireBoolean@@PAVTimeLimit@@PAVGlobalSearchSolver@@@Z 004740c3 f   choco:search.obj
 0001:000730dd       ?choco_copyParameters_GlobalSearchSolver@@YAXPAVGlobalSearchSolver@@0@Z 004740dd f   choco:search.obj
 0001:0007313f       ?choco_attach_GlobalSearchSolver@@YAXPAVGlobalSearchSolver@@PAVProblem@@@Z 0047413f f   choco:search.obj
 0001:00073156       ?choco_composeGlobalSearch_GlobalSearchSolver@@YAPAVGlobalSearchSolver@@PAV1@PAVlist@@@Z 00474156 f   choco:search.obj
 0001:00073237       ?choco_composeGlobalSearch_GlobalSearchSolver_type@@YAPAVClaireType@@PAV1@0@Z 00474237 f   choco:search.obj
 0001:0007323f       ?choco_getSmallestDomainUnassignedVar_Problem@@YAHPAVProblem@@@Z 0047423f f   choco:search.obj
 0001:00073432       ?choco_getSmallestDomainUnassignedVar_list@@YAHPAVlist@@@Z 00474432 f   choco:search.obj
 0001:00073540       ?choco_getDomOverDegBestUnassignedVar_Problem@@YAHPAVProblem@@@Z 00474540 f   choco:search.obj
 0001:00073768       ?choco_getDomOverDegBestUnassignedVar_list@@YAHPAVlist@@@Z 00474768 f   choco:search.obj
 0001:000738aa       ?choco_getMostConstrainedUnassignedVar_Problem@@YAHPAVProblem@@@Z 004748aa f   choco:search.obj
 0001:00073a91       ?choco_getMostConstrainedUnassignedVar_list@@YAHPAVlist@@@Z 00474a91 f   choco:search.obj
 0001:00073b9f       ?choco_storeCurrentSolution_Solver@@YAXPAVSolver@@@Z 00474b9f f   choco:search.obj
 0001:00073ca1       ?choco_makeSolutionFromCurrentState_Solver@@YAPAVSolution@@PAVSolver@@@Z 00474ca1 f   choco:search.obj
 0001:00073eee       ?choco_storeSolution_Solver@@YAXPAVSolver@@PAVSolution@@@Z 00474eee f   choco:search.obj
 0001:0007405c       ?choco_existsSolution_Solver@@YAPAVClaireBoolean@@PAVSolver@@@Z 0047505c f   choco:search.obj
 0001:00074075       ?choco_restoreBestSolution_Solver@@YAXPAVSolver@@@Z 00475075 f   choco:search.obj
 0001:0007417c       ?choco_restoreSolution_Solution@@YAXPAVSolution@@@Z 0047517c f   choco:search.obj
 0001:0007433a       ?choco_showSolution_Solver@@YAHPAVSolver@@@Z 0047533a f   choco:search.obj
 0001:000744ee       ?choco_explore_AbstractBranching@@YAPAVClaireBoolean@@PAVAbstractBranching@@H@Z 004754ee f   choco:search.obj
 0001:0007473b       ?choco_branchOn_LargeBranching@@YAPAVClaireBoolean@@PAVLargeBranching@@HH@Z 0047573b f   choco:search.obj
 0001:00074c3e       ?choco_branchOn_BinBranching@@YAPAVClaireBoolean@@PAVBinBranching@@HH@Z 00475c3e f   choco:search.obj
 0001:000750b9       ?choco_selectBranchingObject_SplitDomain_choco@@YAHPAVSplitDomain@@@Z 004760b9 f   choco:search.obj
 0001:0007529a       ?choco_goDownBranch_SplitDomain_choco@@YAXPAVSplitDomain@@HH@Z 0047629a f   choco:search.obj
 0001:00075422       ?choco_traceDownBranch_SplitDomain_choco@@YAXPAVSplitDomain@@HH@Z 00476422 f   choco:search.obj
 0001:00075519       ?choco_selectBranchingObject_AssignOrForbid_choco@@YAHPAVAssignOrForbid@@@Z 00476519 f   choco:search.obj
 0001:000756db       ?choco_goDownBranch_AssignOrForbid_choco@@YAXPAVAssignOrForbid@@HH@Z 004766db f   choco:search.obj
 0001:0007584e       ?choco_traceDownBranch_AssignOrForbid_choco@@YAXPAVAssignOrForbid@@HH@Z 0047684e f   choco:search.obj
 0001:00075945       ?choco_selectBranchingObject_AssignVar_choco@@YAHPAVAssignVar@@@Z 00476945 f   choco:search.obj
 0001:00075a63       ?choco_finishedBranching_AssignVar_choco@@YAPAVClaireBoolean@@PAVAssignVar@@HH@Z 00476a63 f   choco:search.obj
 0001:00075bb5       ?choco_getFirstBranch_AssignVar_choco@@YAHPAVAssignVar@@H@Z 00476bb5 f   choco:search.obj
 0001:00075ced       ?choco_getNextBranch_AssignVar_choco@@YAHPAVAssignVar@@HH@Z 00476ced f   choco:search.obj
 0001:00075e29       ?choco_goDownBranch_AssignVar_choco@@YAXPAVAssignVar@@HH@Z 00476e29 f   choco:search.obj
 0001:00075f44       ?choco_goUpBranch_AssignVar_choco@@YAXPAVAssignVar@@HH@Z 00476f44 f   choco:search.obj
 0001:00076070       ?choco_traceDownBranch_AssignVar_choco@@YAXPAVAssignVar@@HH@Z 00477070 f   choco:search.obj
 0001:000760df       ?choco_traceUpBranch_AssignVar_choco@@YAXPAVAssignVar@@HH@Z 004770df f   choco:search.obj
 0001:0007614e       ?choco_selectBranchingObject_SettleBinDisjunction_choco@@YAHPAVSettleBinDisjunction@@@Z 0047714e f   choco:search.obj
 0001:00076235       ?choco_goDownBranch_SettleBinDisjunction_choco@@YAXPAVSettleBinDisjunction@@HH@Z 00477235 f   choco:search.obj
 0001:0007643a       ?choco_traceDownBranch_SettleBinDisjunction_choco@@YAXPAVSettleBinDisjunction@@HH@Z 0047743a f   choco:search.obj
 0001:000766d6       ?choco_newTreeSearch_GlobalSearchSolver@@YAXPAVGlobalSearchSolver@@@Z 004776d6 f   choco:search.obj
 0001:00076709       ?choco_endTreeSearch_GlobalSearchSolver@@YAXPAVGlobalSearchSolver@@@Z 00477709 f   choco:search.obj
 0001:000768f7       ?choco_newNode_GlobalSearchSolver@@YAXPAVGlobalSearchSolver@@@Z 004778f7 f   choco:search.obj
 0001:00076ab9       ?choco_endNode_GlobalSearchSolver@@YAXPAVGlobalSearchSolver@@@Z 00477ab9 f   choco:search.obj
 0001:00076acd       ?choco_recordSolution_GlobalSearchSolver@@YAXPAVGlobalSearchSolver@@@Z 00477acd f   choco:search.obj
 0001:00076b4e       ?choco_postDynamicCut_GlobalSearchSolver@@YAXPAVGlobalSearchSolver@@@Z 00477b4e f   choco:search.obj
 0001:00076b53       ?choco_recordSolution_AbstractOptimize@@YAXPAVAbstractOptimize@@@Z 00477b53 f   choco:search.obj
 0001:00076d19       ?choco_setBound_AbstractOptimize@@YAXPAVAbstractOptimize@@@Z 00477d19 f   choco:search.obj
 0001:00076d9d       ?choco_setTargetBound_AbstractOptimize@@YAXPAVAbstractOptimize@@@Z 00477d9d f   choco:search.obj
 0001:00076dca       ?choco_setTargetLowerBound_AbstractOptimize@@YAXPAVAbstractOptimize@@@Z 00477dca f   choco:search.obj
 0001:00076f5a       ?choco_setTargetUpperBound_AbstractOptimize@@YAXPAVAbstractOptimize@@@Z 00477f5a f   choco:search.obj
 0001:000770ea       ?choco_postTargetBound_AbstractOptimize@@YAXPAVAbstractOptimize@@@Z 004780ea f   choco:search.obj
 0001:00077117       ?choco_postTargetLowerBound_AbstractOptimize@@YAXPAVAbstractOptimize@@@Z 00478117 f   choco:search.obj
 0001:00077221       ?choco_postTargetUpperBound_AbstractOptimize@@YAXPAVAbstractOptimize@@@Z 00478221 f   choco:search.obj
 0001:0007732b       ?choco_newTreeSearch_OptimizeWithRestarts@@YAXPAVOptimizeWithRestarts@@@Z 0047832b f   choco:search.obj
 0001:00077466       ?choco_endTreeSearch_OptimizeWithRestarts@@YAXPAVOptimizeWithRestarts@@@Z 00478466 f   choco:search.obj
 0001:000774b7       ?choco_postDynamicCut_OptimizeWithRestarts@@YAXPAVOptimizeWithRestarts@@@Z 004784b7 f   choco:search.obj
 0001:000774bc       ?choco_run_GlobalSearchSolver@@YAXPAVGlobalSearchSolver@@@Z 004784bc f   choco:search.obj
 0001:00077518       ?choco_run_Solve@@YAXPAVSolve@@@Z 00478518 f   choco:search.obj
 0001:00077a37       ?choco_run_BranchAndBound@@YAXPAVBranchAndBound@@@Z 00478a37 f   choco:search.obj
 0001:00077f4f       ?choco_postDynamicCut_BranchAndBound@@YAXPAVBranchAndBound@@@Z 00478f4f f   choco:search.obj
 0001:0007804b       ?choco_newTreeSearch_BranchAndBound@@YAXPAVBranchAndBound@@@Z 0047904b f   choco:search.obj
 0001:00078061       ?choco_endTreeSearch_BranchAndBound@@YAXPAVBranchAndBound@@@Z 00479061 f   choco:search.obj
 0001:00078141       ?choco_newLoop_OptimizeWithRestarts@@YAXPAVOptimizeWithRestarts@@@Z 00479141 f   choco:search.obj
 0001:0007817f       ?choco_endLoop_OptimizeWithRestarts@@YAXPAVOptimizeWithRestarts@@@Z 0047917f f   choco:search.obj
 0001:000783a6       ?choco_recordNoSolution_OptimizeWithRestarts@@YAXPAVOptimizeWithRestarts@@@Z 004793a6 f   choco:search.obj
 0001:0007856f       ?choco_oneMoreLoop_OptimizeWithRestarts@@YAPAVClaireBoolean@@PAVOptimizeWithRestarts@@@Z 0047956f f   choco:search.obj
 0001:0007858a       ?choco_run_OptimizeWithRestarts@@YAXPAVOptimizeWithRestarts@@@Z 0047958a f   choco:search.obj
 0001:000789f0       ?choco_makeConflictCount_void@@YAPAVConflictCount@@XZ 004799f0 f   choco:search.obj
 0001:00078bd2       ?choco_attachInvariantEngine_Problem@@YAXPAVProblem@@PAVInvariantEngine@@@Z 00479bd2 f   choco:search.obj
 0001:00078be9       ?choco_unitaryDeltaConflict_IntVar@@YAHPAVIntVar@@HHPAVAbstractConstraint@@@Z 00479be9 f   choco:search.obj
 0001:00078e2d       ?choco_deltaNbConflicts_IntVar@@YAHPAVIntVar@@HH@Z 00479e2d f   choco:search.obj
 0001:00078fbc       ?choco_getMinConflictValue_IntVar@@YAHPAVIntVar@@@Z 00479fbc f   choco:search.obj
 0001:000792dc       ?choco_computeConflictAccount_ConflictCount@@YAXPAVConflictCount@@@Z 0047a2dc f   choco:search.obj
 0001:00079947       ?choco_resetInvariants_InvariantEngine@@YAXPAVInvariantEngine@@@Z 0047a947 f   choco:search.obj
 0001:000799a3       ?choco_resetInvariants_ConflictCount@@YAXPAVConflictCount@@@Z 0047a9a3 f   choco:search.obj
 0001:00079a7e       ?choco_getLocalSearchObjectiveValue_InvariantEngine@@YAHPAVInvariantEngine@@@Z 0047aa7e f   choco:search.obj
 0001:00079adc       ?choco_getLocalSearchObjectiveValue_ConflictCount@@YAHPAVConflictCount@@@Z 0047aadc f   choco:search.obj
 0001:00079ae7       ?choco_restoreBestAssignment_LocalSearchSolver@@YAXPAVLocalSearchSolver@@@Z 0047aae7 f   choco:search.obj
 0001:00079df0       ?choco_saveAssignment_LocalSearchSolver@@YAXPAVLocalSearchSolver@@@Z 0047adf0 f   choco:search.obj
 0001:00079e6c       ?choco_setFeasibleMode_Problem@@YAXPAVProblem@@PAVClaireBoolean@@@Z 0047ae6c f   choco:search.obj
 0001:0007a2cd       ?choco_selectMoveVar_AssignmentHeuristic@@YAHPAVAssignmentHeuristic@@@Z 0047b2cd f   choco:search.obj
 0001:0007a342       ?choco_selectValue_AssignmentHeuristic@@YAHPAVAssignmentHeuristic@@PAVIntVar@@@Z 0047b342 f   choco:search.obj
 0001:0007a479       ?choco_assignOneVar_AssignmentHeuristic@@YAPAVClaireBoolean@@PAVAssignmentHeuristic@@@Z 0047b479 f   choco:search.obj
 0001:0007a5c4       ?choco_build_AssignmentHeuristic@@YAXPAVAssignmentHeuristic@@@Z 0047b5c4 f   choco:search.obj
 0001:0007a6cf       ?choco_eraseAssignment_ConflictCount@@YAXPAVConflictCount@@@Z 0047b6cf f   choco:search.obj
 0001:0007ae02       ?choco_checkCleanState_ConflictCount@@YAHPAVConflictCount@@@Z 0047be02 f   choco:search.obj
 0001:0007ae0f       ?choco_selectMoveVar_FlipNeighborhood@@YAHPAVFlipNeighborhood@@@Z 0047be0f f   choco:search.obj
 0001:0007af2f       ?choco_newValue_FlipNeighborhood@@YAHPAVFlipNeighborhood@@PAVIntVar@@@Z 0047bf2f f   choco:search.obj
 0001:0007af40       ?choco_move_FlipNeighborhood@@YAPAVClaireBoolean@@PAVFlipNeighborhood@@@Z 0047bf40 f   choco:search.obj
 0001:0007b08b       ?choco_finishedLoop_LocalSearchSolver@@YAPAVClaireBoolean@@PAVLocalSearchSolver@@@Z 0047c08b f   choco:search.obj
 0001:0007b0df       ?choco_initLoop_LocalSearchSolver@@YAXPAVLocalSearchSolver@@@Z 0047c0df f   choco:search.obj
 0001:0007b0fd       ?choco_endLoop_LocalSearchSolver@@YAXPAVLocalSearchSolver@@@Z 0047c0fd f   choco:search.obj
 0001:0007b24d       ?choco_copyParameters_LocalSearchSolver@@YAXPAVLocalSearchSolver@@0@Z 0047c24d f   choco:search.obj
 0001:0007b295       ?choco_attachLocalSearchSolver_Problem@@YAXPAVProblem@@PAVLocalSearchSolver@@@Z 0047c295 f   choco:search.obj
 0001:0007b3aa       ?choco_runLocalSearch_LocalSearchSolver@@YAXPAVLocalSearchSolver@@@Z 0047c3aa f   choco:search.obj
 0001:0007b57b       ?choco_initIterations_MultipleDescent@@YAXPAVMultipleDescent@@@Z 0047c57b f   choco:search.obj
 0001:0007b741       ?choco_finishedIterations_LocalSearchSolver@@YAPAVClaireBoolean@@PAVLocalSearchSolver@@@Z 0047c741 f   choco:search.obj
 0001:0007b78f       ?choco_oneMoreMove_LocalSearchSolver@@YAXPAVLocalSearchSolver@@@Z 0047c78f f   choco:search.obj
 0001:0007b7a3       ?choco_becomesAConflict_AbstractConstraint@@YAXPAVAbstractConstraint@@PAVConflictCount@@@Z 0047c7a3 f   choco:search.obj
 0001:0007b92d       ?choco_becomesAConflict_UnIntConstraint@@YAXPAVUnIntConstraint@@PAVConflictCount@@@Z 0047c92d f   choco:search.obj
 0001:0007ba3a       ?choco_becomesAConflict_BinIntConstraint@@YAXPAVBinIntConstraint@@PAVConflictCount@@@Z 0047ca3a f   choco:search.obj
 0001:0007bb63       ?choco_becomesAConflict_TernIntConstraint@@YAXPAVTernIntConstraint@@PAVConflictCount@@@Z 0047cb63 f   choco:search.obj
 0001:0007bca8       ?choco_becomesAConflict_LargeIntConstraint@@YAXPAVLargeIntConstraint@@PAVConflictCount@@@Z 0047cca8 f   choco:search.obj
 0001:0007be28       ?choco_becomesSatisfied_AbstractConstraint@@YAXPAVAbstractConstraint@@PAVConflictCount@@@Z 0047ce28 f   choco:search.obj
 0001:0007bfb2       ?choco_becomesSatisfied_UnIntConstraint@@YAXPAVUnIntConstraint@@PAVConflictCount@@@Z 0047cfb2 f   choco:search.obj
 0001:0007c0bf       ?choco_becomesSatisfied_BinIntConstraint@@YAXPAVBinIntConstraint@@PAVConflictCount@@@Z 0047d0bf f   choco:search.obj
 0001:0007c1e8       ?choco_becomesSatisfied_TernIntConstraint@@YAXPAVTernIntConstraint@@PAVConflictCount@@@Z 0047d1e8 f   choco:search.obj
 0001:0007c32d       ?choco_becomesSatisfied_LargeIntConstraint@@YAXPAVLargeIntConstraint@@PAVConflictCount@@@Z 0047d32d f   choco:search.obj
 0001:0007c4ad       ?choco_addOneConflict_ConflictCount@@YAXPAVConflictCount@@PAVIntVar@@@Z 0047d4ad f   choco:search.obj
 0001:0007c5c4       ?choco_removeOneConflict_ConflictCount@@YAXPAVConflictCount@@PAVIntVar@@@Z 0047d5c4 f   choco:search.obj
 0001:0007c603       ?choco_postAssignVal_ConflictCount@@YAXPAVConflictCount@@PAVIntVar@@H@Z 0047d603 f   choco:search.obj
 0001:0007cc29       ?choco_postUnAssignVal_ConflictCount@@YAXPAVConflictCount@@PAVIntVar@@@Z 0047dc29 f   choco:search.obj
 0001:0007d211       ?choco_postChangeVal_ConflictCount@@YAXPAVConflictCount@@PAVIntVar@@HH@Z 0047e211 f   choco:search.obj
 0001:0007d7b0       ?claire__sup_equal_IntVar1@@YAPAVGreaterOrEqualxc@@PAVIntVar@@H@Z 0047e7b0 f   choco:opapi.obj
 0001:0007d8c0       ?claire__sup_IntVar1@@YAPAVGreaterOrEqualxc@@PAVIntVar@@H@Z 0047e8c0 f   choco:opapi.obj
 0001:0007d9d3       ?claire__inf_equal_IntVar1@@YAPAVLessOrEqualxc@@PAVIntVar@@H@Z 0047e9d3 f   choco:opapi.obj
 0001:0007dae3       ?claire__inf_IntVar1@@YAPAVLessOrEqualxc@@PAVIntVar@@H@Z 0047eae3 f   choco:opapi.obj
 0001:0007dbf6       ?claire__equal_equal_IntVar1@@YAPAVEqualxc@@PAVIntVar@@H@Z 0047ebf6 f   choco:opapi.obj
 0001:0007dd06       ?claire__I_equal_equal_IntVar1@@YAPAVNotEqualxc@@PAVIntVar@@H@Z 0047ed06 f   choco:opapi.obj
 0001:0007de16       ?claire__sup_equal_integer1@@YAPAVLessOrEqualxc@@HPAVIntVar@@@Z 0047ee16 f   choco:opapi.obj
 0001:0007de2b       ?claire__sup_integer2@@YAPAVLessOrEqualxc@@HPAVIntVar@@@Z 0047ee2b f   choco:opapi.obj
 0001:0007de40       ?claire__inf_equal_integer2@@YAPAVGreaterOrEqualxc@@HPAVIntVar@@@Z 0047ee40 f   choco:opapi.obj
 0001:0007de55       ?claire__inf_integer2@@YAPAVGreaterOrEqualxc@@HPAVIntVar@@@Z 0047ee55 f   choco:opapi.obj
 0001:0007de6a       ?claire__equal_equal_integer1@@YAPAVEqualxc@@HPAVIntVar@@@Z 0047ee6a f   choco:opapi.obj
 0001:0007de7f       ?claire__I_equal_equal_integer1@@YAPAVNotEqualxc@@HPAVIntVar@@@Z 0047ee7f f   choco:opapi.obj
 0001:0007de94       ?claire__equal_equal_IntVar2@@YAPAVEqualxyc@@PAVIntVar@@0@Z 0047ee94 f   choco:opapi.obj
 0001:0007dfad       ?claire__I_equal_equal_IntVar2@@YAPAVNotEqualxyc@@PAVIntVar@@0@Z 0047efad f   choco:opapi.obj
 0001:0007e0c6       ?claire__inf_equal_IntVar2@@YAPAVGreaterOrEqualxyc@@PAVIntVar@@0@Z 0047f0c6 f   choco:opapi.obj
 0001:0007e1df       ?claire__sup_equal_IntVar2@@YAPAVGreaterOrEqualxyc@@PAVIntVar@@0@Z 0047f1df f   choco:opapi.obj
 0001:0007e2f8       ?claire__sup_IntVar2@@YAPAVGreaterOrEqualxyc@@PAVIntVar@@0@Z 0047f2f8 f   choco:opapi.obj
 0001:0007e411       ?claire__inf_IntVar2@@YAPAVGreaterOrEqualxyc@@PAVIntVar@@0@Z 0047f411 f   choco:opapi.obj
 0001:0007e52a       ?claire_self_print_UnTerm_choco@@YAHPAVUnTerm@@@Z 0047f52a f   choco:opapi.obj
 0001:0007e6bf       ?claire_self_print_BinTerm_choco@@YAHPAVBinTerm@@@Z 0047f6bf f   choco:opapi.obj
 0001:0007e8c2       ?choco_sumTerms_list@@YAPAVTerm@@PAVlist@@@Z 0047f8c2 f   choco:opapi.obj
 0001:0007e9df       ?claire__star_integer2@@YAPAVLinTerm@@HPAVIntVar@@@Z 0047f9df f   choco:opapi.obj
 0001:0007eb20       ?claire__star_IntVar@@YAPAVLinTerm@@PAVIntVar@@H@Z 0047fb20 f   choco:opapi.obj
 0001:0007ec61       ?claire__star_integer3@@YAPAVLinTerm@@HPAV1@@Z 0047fc61 f   choco:opapi.obj
 0001:0007eccc       ?claire__star_LinTerm@@YAPAVLinTerm@@PAV1@H@Z 0047fccc f   choco:opapi.obj
 0001:0007ed27       ?claire__plus_IntVar1@@YAPAVUnTerm@@PAVIntVar@@H@Z 0047fd27 f   choco:opapi.obj
 0001:0007ee37       ?claire__plus_integer2@@YAPAVUnTerm@@HPAVIntVar@@@Z 0047fe37 f   choco:opapi.obj
 0001:0007ee4c       ?claire__plus_IntVar2@@YAPAVBinTerm@@PAVIntVar@@0@Z 0047fe4c f   choco:opapi.obj
 0001:0007ef5c       ?claire__plus_UnTerm1@@YAPAVUnTerm@@PAV1@H@Z 0047ff5c f   choco:opapi.obj
 0001:0007ef73       ?claire__plus_integer3@@YAPAVUnTerm@@HPAV1@@Z 0047ff73 f   choco:opapi.obj
 0001:0007ef88       ?claire__plus_UnTerm2@@YAPAVBinTerm@@PAVUnTerm@@PAVIntVar@@@Z 0047ff88 f   choco:opapi.obj
 0001:0007f0b2       ?claire__plus_IntVar3@@YAPAVBinTerm@@PAVIntVar@@PAVUnTerm@@@Z 004800b2 f   choco:opapi.obj
 0001:0007f0c7       ?claire__plus_UnTerm3@@YAPAVBinTerm@@PAVUnTerm@@0@Z 004800c7 f   choco:opapi.obj
 0001:0007f207       ?claire__plus_BinTerm1@@YAPAVBinTerm@@PAV1@H@Z 00480207 f   choco:opapi.obj
 0001:0007f21e       ?claire__plus_integer4@@YAPAVBinTerm@@HPAV1@@Z 0048021e f   choco:opapi.obj
 0001:0007f233       ?claire__plus_BinTerm2@@YAPAVLinTerm@@PAVBinTerm@@PAVIntVar@@@Z 00480233 f   choco:opapi.obj
 0001:0007f45a       ?claire__plus_IntVar4@@YAPAVLinTerm@@PAVIntVar@@PAVBinTerm@@@Z 0048045a f   choco:opapi.obj
 0001:0007f46f       ?claire__plus_BinTerm3@@YAPAVLinTerm@@PAVBinTerm@@PAVUnTerm@@@Z 0048046f f   choco:opapi.obj
 0001:0007f6ca       ?claire__plus_UnTerm4@@YAPAVLinTerm@@PAVUnTerm@@PAVBinTerm@@@Z 004806ca f   choco:opapi.obj
 0001:0007f6df       ?claire__plus_BinTerm4@@YAPAVLinTerm@@PAVBinTerm@@0@Z 004806df f   choco:opapi.obj
 0001:0007f981       ?claire__plus_LinTerm1@@YAPAVLinTerm@@PAV1@H@Z 00480981 f   choco:opapi.obj
 0001:0007f998       ?claire__plus_integer5@@YAPAVLinTerm@@HPAV1@@Z 00480998 f   choco:opapi.obj
 0001:0007f9ad       ?claire__plus_LinTerm2@@YAPAVLinTerm@@PAV1@PAVIntVar@@@Z 004809ad f   choco:opapi.obj
 0001:0007fad1       ?claire__plus_IntVar5@@YAPAVLinTerm@@PAVIntVar@@PAV1@@Z 00480ad1 f   choco:opapi.obj
 0001:0007fae6       ?claire__plus_LinTerm3@@YAPAVLinTerm@@PAV1@PAVUnTerm@@@Z 00480ae6 f   choco:opapi.obj
 0001:0007fc47       ?claire__plus_UnTerm5@@YAPAVLinTerm@@PAVUnTerm@@PAV1@@Z 00480c47 f   choco:opapi.obj
 0001:0007fc5c       ?claire__plus_LinTerm4@@YAPAVLinTerm@@PAV1@PAVBinTerm@@@Z 00480c5c f   choco:opapi.obj
 0001:0007fe87       ?claire__plus_BinTerm5@@YAPAVLinTerm@@PAVBinTerm@@PAV1@@Z 00480e87 f   choco:opapi.obj
 0001:0007fe9c       ?claire__plus_LinTerm5@@YAPAVLinTerm@@PAV1@0@Z 00480e9c f   choco:opapi.obj
 0001:00080007       ?claire__dash_IntVar1@@YAPAVUnTerm@@PAVIntVar@@@Z 00481007 f   choco:opapi.obj
 0001:00080119       ?claire__dash_UnTerm1@@YAPAVUnTerm@@PAV1@@Z 00481119 f   choco:opapi.obj
 0001:00080153       ?claire__dash_BinTerm1@@YAPAVBinTerm@@PAV1@@Z 00481153 f   choco:opapi.obj
 0001:000801b1       ?claire__dash_LinTerm1@@YAPAVLinTerm@@PAV1@@Z 004811b1 f   choco:opapi.obj
 0001:0008031e       ?claire__dash_IntVar2@@YAPAVUnTerm@@PAVIntVar@@H@Z 0048131e f   choco:opapi.obj
 0001:00080335       ?claire__dash_UnTerm2@@YAPAVUnTerm@@PAV1@H@Z 00481335 f   choco:opapi.obj
 0001:0008034c       ?claire__dash_BinTerm2@@YAPAVBinTerm@@PAV1@H@Z 0048134c f   choco:opapi.obj
 0001:00080363       ?claire__dash_LinTerm2@@YAPAVLinTerm@@PAV1@H@Z 00481363 f   choco:opapi.obj
 0001:0008037a       ?claire__dash_integer4@@YAPAVUnTerm@@HPAVIntVar@@@Z 0048137a f   choco:opapi.obj
 0001:0008047b       ?claire__dash_IntVar3@@YAPAVBinTerm@@PAVIntVar@@0@Z 0048147b f   choco:opapi.obj
 0001:0008057c       ?claire__dash_UnTerm3@@YAPAVBinTerm@@PAVUnTerm@@PAVIntVar@@@Z 0048157c f   choco:opapi.obj
 0001:0008067d       ?claire__dash_BinTerm3@@YAPAVLinTerm@@PAVBinTerm@@PAVIntVar@@@Z 0048167d f   choco:opapi.obj
 0001:0008077e       ?claire__dash_LinTerm3@@YAPAVLinTerm@@PAV1@PAVIntVar@@@Z 0048177e f   choco:opapi.obj
 0001:0008087f       ?claire__dash_integer5@@YAPAVUnTerm@@HPAV1@@Z 0048187f f   choco:opapi.obj
 0001:00080980       ?claire__dash_IntVar4@@YAPAVBinTerm@@PAVIntVar@@PAVUnTerm@@@Z 00481980 f   choco:opapi.obj
 0001:00080a81       ?claire__dash_UnTerm4@@YAPAVBinTerm@@PAVUnTerm@@0@Z 00481a81 f   choco:opapi.obj
 0001:00080b82       ?claire__dash_BinTerm4@@YAPAVLinTerm@@PAVBinTerm@@PAVUnTerm@@@Z 00481b82 f   choco:opapi.obj
 0001:00080c83       ?claire__dash_LinTerm4@@YAPAVLinTerm@@PAV1@PAVUnTerm@@@Z 00481c83 f   choco:opapi.obj
 0001:00080d84       ?claire__dash_integer6@@YAPAVBinTerm@@HPAV1@@Z 00481d84 f   choco:opapi.obj
 0001:00080e85       ?claire__dash_IntVar5@@YAPAVLinTerm@@PAVIntVar@@PAVBinTerm@@@Z 00481e85 f   choco:opapi.obj
 0001:00080f86       ?claire__dash_UnTerm5@@YAPAVLinTerm@@PAVUnTerm@@PAVBinTerm@@@Z 00481f86 f   choco:opapi.obj
 0001:00081087       ?claire__dash_BinTerm5@@YAPAVLinTerm@@PAVBinTerm@@0@Z 00482087 f   choco:opapi.obj
 0001:00081188       ?claire__dash_LinTerm5@@YAPAVLinTerm@@PAV1@PAVBinTerm@@@Z 00482188 f   choco:opapi.obj
 0001:00081289       ?claire__dash_integer7@@YAPAVLinTerm@@HPAV1@@Z 00482289 f   choco:opapi.obj
 0001:0008138a       ?claire__dash_IntVar6@@YAPAVLinTerm@@PAVIntVar@@PAV1@@Z 0048238a f   choco:opapi.obj
 0001:0008148b       ?claire__dash_UnTerm6@@YAPAVLinTerm@@PAVUnTerm@@PAV1@@Z 0048248b f   choco:opapi.obj
 0001:0008158c       ?claire__dash_BinTerm6@@YAPAVLinTerm@@PAVBinTerm@@PAV1@@Z 0048258c f   choco:opapi.obj
 0001:0008168d       ?claire__dash_LinTerm6@@YAPAVLinTerm@@PAV1@0@Z 0048268d f   choco:opapi.obj
 0001:0008178e       ?claire__sup_equal_integer2@@YAPAVIntConstraint@@HPAVUnTerm@@@Z 0048278e f   choco:opapi.obj
 0001:00081891       ?claire__sup_equal_integer3@@YAPAVIntConstraint@@HPAVBinTerm@@@Z 00482891 f   choco:opapi.obj
 0001:00081994       ?claire__sup_equal_integer4@@YAPAVIntConstraint@@HPAVLinTerm@@@Z 00482994 f   choco:opapi.obj
 0001:00081a97       ?claire__sup_equal_IntVar3@@YAPAVIntConstraint@@PAVIntVar@@PAVUnTerm@@@Z 00482a97 f   choco:opapi.obj
 0001:00081baa       ?claire__sup_equal_IntVar4@@YAPAVIntConstraint@@PAVIntVar@@PAVBinTerm@@@Z 00482baa f   choco:opapi.obj
 0001:00081cbd       ?claire__sup_equal_IntVar5@@YAPAVIntConstraint@@PAVIntVar@@PAVLinTerm@@@Z 00482cbd f   choco:opapi.obj
 0001:00081dd0       ?claire__sup_equal_UnTerm1@@YAPAVIntConstraint@@PAVUnTerm@@PAVBinTerm@@@Z 00482dd0 f   choco:opapi.obj
 0001:00081ee3       ?claire__sup_equal_UnTerm2@@YAPAVIntConstraint@@PAVUnTerm@@PAVLinTerm@@@Z 00482ee3 f   choco:opapi.obj
 0001:00081ff6       ?claire__sup_equal_BinTerm1@@YAPAVIntConstraint@@PAVBinTerm@@PAVLinTerm@@@Z 00482ff6 f   choco:opapi.obj
 0001:00082109       ?claire__sup_equal_UnTerm3@@YAPAVUnIntConstraint@@PAVUnTerm@@H@Z 00483109 f   choco:opapi.obj
 0001:00082275       ?claire__sup_equal_UnTerm4@@YAPAVIntConstraint@@PAVUnTerm@@PAVIntVar@@@Z 00483275 f   choco:opapi.obj
 0001:00082388       ?claire__sup_equal_UnTerm5@@YAPAVIntConstraint@@PAVUnTerm@@0@Z 00483388 f   choco:opapi.obj
 0001:00082628       ?claire__sup_equal_BinTerm2@@YAPAVIntConstraint@@PAVBinTerm@@H@Z 00483628 f   choco:opapi.obj
 0001:000828c5       ?claire__sup_equal_BinTerm3@@YAPAVLinComb@@PAVBinTerm@@PAVIntVar@@@Z 004838c5 f   choco:opapi.obj
 0001:00082ac2       ?claire__sup_equal_BinTerm4@@YAPAVLinComb@@PAVBinTerm@@PAVUnTerm@@@Z 00483ac2 f   choco:opapi.obj
 0001:00082ce8       ?claire__sup_equal_BinTerm5@@YAPAVLinComb@@PAVBinTerm@@0@Z 00483ce8 f   choco:opapi.obj
 0001:00082f4d       ?claire__sup_equal_LinTerm1@@YAPAVLinComb@@PAVLinTerm@@H@Z 00483f4d f   choco:opapi.obj
 0001:00083061       ?claire__sup_equal_LinTerm2@@YAPAVLinComb@@PAVLinTerm@@PAVIntVar@@@Z 00484061 f   choco:opapi.obj
 0001:000831a6       ?claire__sup_equal_LinTerm3@@YAPAVLinComb@@PAVLinTerm@@PAVUnTerm@@@Z 004841a6 f   choco:opapi.obj
 0001:00083313       ?claire__sup_equal_LinTerm4@@YAPAVLinComb@@PAVLinTerm@@PAVBinTerm@@@Z 00484313 f   choco:opapi.obj
 0001:000834de       ?claire__sup_equal_LinTerm5@@YAPAVLinComb@@PAVLinTerm@@0@Z 004844de f   choco:opapi.obj
 0001:000836ae       ?claire__sup_integer3@@YAPAVIntConstraint@@HPAVUnTerm@@@Z 004846ae f   choco:opapi.obj
 0001:000837b1       ?claire__sup_integer4@@YAPAVIntConstraint@@HPAVBinTerm@@@Z 004847b1 f   choco:opapi.obj
 0001:000838b4       ?claire__sup_integer5@@YAPAVIntConstraint@@HPAVLinTerm@@@Z 004848b4 f   choco:opapi.obj
 0001:000839b7       ?claire__sup_IntVar3@@YAPAVIntConstraint@@PAVIntVar@@PAVUnTerm@@@Z 004849b7 f   choco:opapi.obj
 0001:00083aba       ?claire__sup_IntVar4@@YAPAVIntConstraint@@PAVIntVar@@PAVBinTerm@@@Z 00484aba f   choco:opapi.obj
 0001:00083bbd       ?claire__sup_IntVar5@@YAPAVIntConstraint@@PAVIntVar@@PAVLinTerm@@@Z 00484bbd f   choco:opapi.obj
 0001:00083cc0       ?claire__sup_UnTerm1@@YAPAVIntConstraint@@PAVUnTerm@@H@Z 00484cc0 f   choco:opapi.obj
 0001:00083cd8       ?claire__sup_BinTerm1@@YAPAVIntConstraint@@PAVBinTerm@@H@Z 00484cd8 f   choco:opapi.obj
 0001:00083cf0       ?claire__sup_LinTerm1@@YAPAVIntConstraint@@PAVLinTerm@@H@Z 00484cf0 f   choco:opapi.obj
 0001:00083d08       ?claire__sup_UnTerm2@@YAPAVIntConstraint@@PAVUnTerm@@PAVIntVar@@@Z 00484d08 f   choco:opapi.obj
 0001:00083e0b       ?claire__sup_BinTerm2@@YAPAVIntConstraint@@PAVBinTerm@@PAVIntVar@@@Z 00484e0b f   choco:opapi.obj
 0001:00083f0e       ?claire__sup_LinTerm2@@YAPAVIntConstraint@@PAVLinTerm@@PAVIntVar@@@Z 00484f0e f   choco:opapi.obj
 0001:00084011       ?claire__sup_UnTerm3@@YAPAVIntConstraint@@PAVUnTerm@@0@Z 00485011 f   choco:opapi.obj
 0001:00084114       ?claire__sup_BinTerm3@@YAPAVIntConstraint@@PAVBinTerm@@PAVUnTerm@@@Z 00485114 f   choco:opapi.obj
 0001:00084217       ?claire__sup_LinTerm3@@YAPAVIntConstraint@@PAVLinTerm@@PAVUnTerm@@@Z 00485217 f   choco:opapi.obj
 0001:0008431a       ?claire__sup_UnTerm4@@YAPAVIntConstraint@@PAVUnTerm@@PAVBinTerm@@@Z 0048531a f   choco:opapi.obj
 0001:0008441d       ?claire__sup_BinTerm4@@YAPAVIntConstraint@@PAVBinTerm@@0@Z 0048541d f   choco:opapi.obj
 0001:00084520       ?claire__sup_LinTerm4@@YAPAVIntConstraint@@PAVLinTerm@@PAVBinTerm@@@Z 00485520 f   choco:opapi.obj
 0001:00084623       ?claire__sup_UnTerm5@@YAPAVIntConstraint@@PAVUnTerm@@PAVLinTerm@@@Z 00485623 f   choco:opapi.obj
 0001:00084726       ?claire__sup_BinTerm5@@YAPAVIntConstraint@@PAVBinTerm@@PAVLinTerm@@@Z 00485726 f   choco:opapi.obj
 0001:00084829       ?claire__sup_LinTerm5@@YAPAVIntConstraint@@PAVLinTerm@@0@Z 00485829 f   choco:opapi.obj
 0001:0008492c       ?claire__inf_equal_integer3@@YAPAVIntConstraint@@HPAVUnTerm@@@Z 0048592c f   choco:opapi.obj
 0001:00084941       ?claire__inf_equal_integer4@@YAPAVIntConstraint@@HPAVBinTerm@@@Z 00485941 f   choco:opapi.obj
 0001:00084956       ?claire__inf_equal_integer5@@YAPAVIntConstraint@@HPAVLinTerm@@@Z 00485956 f   choco:opapi.obj
 0001:0008496b       ?claire__inf_equal_IntVar3@@YAPAVIntConstraint@@PAVIntVar@@PAVUnTerm@@@Z 0048596b f   choco:opapi.obj
 0001:00084a7e       ?claire__inf_equal_IntVar4@@YAPAVIntConstraint@@PAVIntVar@@PAVBinTerm@@@Z 00485a7e f   choco:opapi.obj
 0001:00084a93       ?claire__inf_equal_IntVar5@@YAPAVIntConstraint@@PAVIntVar@@PAVLinTerm@@@Z 00485a93 f   choco:opapi.obj
 0001:00084aa8       ?claire__inf_equal_UnTerm1@@YAPAVIntConstraint@@PAVUnTerm@@H@Z 00485aa8 f   choco:opapi.obj
 0001:00084abd       ?claire__inf_equal_BinTerm1@@YAPAVIntConstraint@@PAVBinTerm@@H@Z 00485abd f   choco:opapi.obj
 0001:00084ad2       ?claire__inf_equal_LinTerm1@@YAPAVIntConstraint@@PAVLinTerm@@H@Z 00485ad2 f   choco:opapi.obj
 0001:00084ae7       ?claire__inf_equal_UnTerm2@@YAPAVIntConstraint@@PAVUnTerm@@PAVIntVar@@@Z 00485ae7 f   choco:opapi.obj
 0001:00084afc       ?claire__inf_equal_BinTerm2@@YAPAVIntConstraint@@PAVBinTerm@@PAVIntVar@@@Z 00485afc f   choco:opapi.obj
 0001:00084b11       ?claire__inf_equal_LinTerm2@@YAPAVIntConstraint@@PAVLinTerm@@PAVIntVar@@@Z 00485b11 f   choco:opapi.obj
 0001:00084b26       ?claire__inf_equal_UnTerm3@@YAPAVIntConstraint@@PAVUnTerm@@0@Z 00485b26 f   choco:opapi.obj
 0001:00084b3b       ?claire__inf_equal_BinTerm3@@YAPAVIntConstraint@@PAVBinTerm@@PAVUnTerm@@@Z 00485b3b f   choco:opapi.obj
 0001:00084b50       ?claire__inf_equal_LinTerm3@@YAPAVIntConstraint@@PAVLinTerm@@PAVUnTerm@@@Z 00485b50 f   choco:opapi.obj
 0001:00084b65       ?claire__inf_equal_UnTerm4@@YAPAVIntConstraint@@PAVUnTerm@@PAVBinTerm@@@Z 00485b65 f   choco:opapi.obj
 0001:00084b7a       ?claire__inf_equal_BinTerm4@@YAPAVIntConstraint@@PAVBinTerm@@0@Z 00485b7a f   choco:opapi.obj
 0001:00084b8f       ?claire__inf_equal_LinTerm4@@YAPAVIntConstraint@@PAVLinTerm@@PAVBinTerm@@@Z 00485b8f f   choco:opapi.obj
 0001:00084ba4       ?claire__inf_equal_UnTerm5@@YAPAVIntConstraint@@PAVUnTerm@@PAVLinTerm@@@Z 00485ba4 f   choco:opapi.obj
 0001:00084bb9       ?claire__inf_equal_BinTerm5@@YAPAVIntConstraint@@PAVBinTerm@@PAVLinTerm@@@Z 00485bb9 f   choco:opapi.obj
 0001:00084bce       ?claire__inf_equal_LinTerm5@@YAPAVIntConstraint@@PAVLinTerm@@0@Z 00485bce f   choco:opapi.obj
 0001:00084be3       ?claire__inf_integer3@@YAPAVIntConstraint@@HPAVUnTerm@@@Z 00485be3 f   choco:opapi.obj
 0001:00084ce6       ?claire__inf_integer4@@YAPAVIntConstraint@@HPAVBinTerm@@@Z 00485ce6 f   choco:opapi.obj
 0001:00084de9       ?claire__inf_integer5@@YAPAVIntConstraint@@HPAVLinTerm@@@Z 00485de9 f   choco:opapi.obj
 0001:00084eec       ?claire__inf_IntVar3@@YAPAVIntConstraint@@PAVIntVar@@PAVUnTerm@@@Z 00485eec f   choco:opapi.obj
 0001:00084fef       ?claire__inf_IntVar4@@YAPAVIntConstraint@@PAVIntVar@@PAVBinTerm@@@Z 00485fef f   choco:opapi.obj
 0001:000850f2       ?claire__inf_IntVar5@@YAPAVIntConstraint@@PAVIntVar@@PAVLinTerm@@@Z 004860f2 f   choco:opapi.obj
 0001:000851f5       ?claire__inf_UnTerm1@@YAPAVIntConstraint@@PAVUnTerm@@H@Z 004861f5 f   choco:opapi.obj
 0001:0008520d       ?claire__inf_BinTerm1@@YAPAVIntConstraint@@PAVBinTerm@@H@Z 0048620d f   choco:opapi.obj
 0001:00085225       ?claire__inf_LinTerm1@@YAPAVIntConstraint@@PAVLinTerm@@H@Z 00486225 f   choco:opapi.obj
 0001:0008523d       ?claire__inf_UnTerm2@@YAPAVIntConstraint@@PAVUnTerm@@PAVIntVar@@@Z 0048623d f   choco:opapi.obj
 0001:00085340       ?claire__inf_BinTerm2@@YAPAVIntConstraint@@PAVBinTerm@@PAVIntVar@@@Z 00486340 f   choco:opapi.obj
 0001:00085443       ?claire__inf_LinTerm2@@YAPAVIntConstraint@@PAVLinTerm@@PAVIntVar@@@Z 00486443 f   choco:opapi.obj
 0001:00085546       ?claire__inf_UnTerm3@@YAPAVIntConstraint@@PAVUnTerm@@0@Z 00486546 f   choco:opapi.obj
 0001:00085649       ?claire__inf_BinTerm3@@YAPAVIntConstraint@@PAVBinTerm@@PAVUnTerm@@@Z 00486649 f   choco:opapi.obj
 0001:0008574c       ?claire__inf_LinTerm3@@YAPAVIntConstraint@@PAVLinTerm@@PAVUnTerm@@@Z 0048674c f   choco:opapi.obj
 0001:0008584f       ?claire__inf_UnTerm4@@YAPAVIntConstraint@@PAVUnTerm@@PAVBinTerm@@@Z 0048684f f   choco:opapi.obj
 0001:00085952       ?claire__inf_BinTerm4@@YAPAVIntConstraint@@PAVBinTerm@@0@Z 00486952 f   choco:opapi.obj
 0001:00085a55       ?claire__inf_LinTerm4@@YAPAVIntConstraint@@PAVLinTerm@@PAVBinTerm@@@Z 00486a55 f   choco:opapi.obj
 0001:00085b58       ?claire__inf_UnTerm5@@YAPAVIntConstraint@@PAVUnTerm@@PAVLinTerm@@@Z 00486b58 f   choco:opapi.obj
 0001:00085c5b       ?claire__inf_BinTerm5@@YAPAVIntConstraint@@PAVBinTerm@@PAVLinTerm@@@Z 00486c5b f   choco:opapi.obj
 0001:00085d5e       ?claire__inf_LinTerm5@@YAPAVIntConstraint@@PAVLinTerm@@0@Z 00486d5e f   choco:opapi.obj
 0001:00085e61       ?claire__equal_equal_integer2@@YAPAVIntConstraint@@HPAVUnTerm@@@Z 00486e61 f   choco:opapi.obj
 0001:00085e76       ?claire__equal_equal_integer3@@YAPAVIntConstraint@@HPAVBinTerm@@@Z 00486e76 f   choco:opapi.obj
 0001:00085e8b       ?claire__equal_equal_integer4@@YAPAVIntConstraint@@HPAVLinTerm@@@Z 00486e8b f   choco:opapi.obj
 0001:00085ea0       ?claire__equal_equal_IntVar3@@YAPAVIntConstraint@@PAVIntVar@@PAVUnTerm@@@Z 00486ea0 f   choco:opapi.obj
 0001:00085eb5       ?claire__equal_equal_IntVar4@@YAPAVIntConstraint@@PAVIntVar@@PAVBinTerm@@@Z 00486eb5 f   choco:opapi.obj
 0001:00085eca       ?claire__equal_equal_IntVar5@@YAPAVIntConstraint@@PAVIntVar@@PAVLinTerm@@@Z 00486eca f   choco:opapi.obj
 0001:00085edf       ?claire__equal_equal_UnTerm1@@YAPAVIntConstraint@@PAVUnTerm@@PAVBinTerm@@@Z 00486edf f   choco:opapi.obj
 0001:00085ef4       ?claire__equal_equal_UnTerm2@@YAPAVIntConstraint@@PAVUnTerm@@PAVLinTerm@@@Z 00486ef4 f   choco:opapi.obj
 0001:00085f09       ?claire__equal_equal_BinTerm1@@YAPAVIntConstraint@@PAVBinTerm@@PAVLinTerm@@@Z 00486f09 f   choco:opapi.obj
 0001:00085f1e       ?claire__equal_equal_UnTerm3@@YAPAVUnIntConstraint@@PAVUnTerm@@H@Z 00486f1e f   choco:opapi.obj
 0001:00086058       ?claire__equal_equal_UnTerm4@@YAPAVIntConstraint@@PAVUnTerm@@PAVIntVar@@@Z 00487058 f   choco:opapi.obj
 0001:000861fb       ?claire__equal_equal_UnTerm5@@YAPAVBinIntConstraint@@PAVUnTerm@@0@Z 004871fb f   choco:opapi.obj
 0001:00086323       ?claire__equal_equal_BinTerm2@@YAPAVIntConstraint@@PAVBinTerm@@H@Z 00487323 f   choco:opapi.obj
 0001:0008658a       ?claire__equal_equal_BinTerm3@@YAPAVLinComb@@PAVBinTerm@@PAVIntVar@@@Z 0048758a f   choco:opapi.obj
 0001:00086787       ?claire__equal_equal_BinTerm4@@YAPAVLinComb@@PAVBinTerm@@PAVUnTerm@@@Z 00487787 f   choco:opapi.obj
 0001:000869ad       ?claire__equal_equal_BinTerm5@@YAPAVLinComb@@PAVBinTerm@@0@Z 004879ad f   choco:opapi.obj
 0001:00086c12       ?claire__equal_equal_LinTerm1@@YAPAVLinComb@@PAVLinTerm@@H@Z 00487c12 f   choco:opapi.obj
 0001:00086d26       ?claire__equal_equal_LinTerm2@@YAPAVLinComb@@PAVLinTerm@@PAVIntVar@@@Z 00487d26 f   choco:opapi.obj
 0001:00086e6b       ?claire__equal_equal_LinTerm3@@YAPAVLinComb@@PAVLinTerm@@PAVUnTerm@@@Z 00487e6b f   choco:opapi.obj
 0001:00086fd8       ?claire__equal_equal_LinTerm4@@YAPAVLinComb@@PAVLinTerm@@PAVBinTerm@@@Z 00487fd8 f   choco:opapi.obj
 0001:000871a3       ?claire__equal_equal_LinTerm5@@YAPAVLinComb@@PAVLinTerm@@0@Z 004881a3 f   choco:opapi.obj
 0001:00087373       ?claire__I_equal_equal_integer2@@YAPAVIntConstraint@@HPAVUnTerm@@@Z 00488373 f   choco:opapi.obj
 0001:00087388       ?claire__I_equal_equal_integer3@@YAPAVIntConstraint@@HPAVBinTerm@@@Z 00488388 f   choco:opapi.obj
 0001:0008739d       ?claire__I_equal_equal_integer4@@YAHHPAVLinTerm@@@Z 0048839d f   choco:opapi.obj
 0001:000873c0       ?claire__I_equal_equal_IntVar3@@YAPAVIntConstraint@@PAVIntVar@@PAVUnTerm@@@Z 004883c0 f   choco:opapi.obj
 0001:000873d5       ?claire__I_equal_equal_IntVar4@@YAHPAVIntVar@@PAVBinTerm@@@Z 004883d5 f   choco:opapi.obj
 0001:000873f8       ?claire__I_equal_equal_IntVar5@@YAHPAVIntVar@@PAVLinTerm@@@Z 004883f8 f   choco:opapi.obj
 0001:0008741b       ?claire__I_equal_equal_UnTerm1@@YAHPAVUnTerm@@PAVBinTerm@@@Z 0048841b f   choco:opapi.obj
 0001:0008743e       ?claire__I_equal_equal_UnTerm2@@YAHPAVUnTerm@@PAVLinTerm@@@Z 0048843e f   choco:opapi.obj
 0001:00087461       ?claire__I_equal_equal_BinTerm1@@YAHPAVBinTerm@@PAVLinTerm@@@Z 00488461 f   choco:opapi.obj
 0001:00087484       ?claire__I_equal_equal_UnTerm3@@YAPAVUnIntConstraint@@PAVUnTerm@@H@Z 00488484 f   choco:opapi.obj
 0001:000875be       ?claire__I_equal_equal_UnTerm4@@YAPAVIntConstraint@@PAVUnTerm@@PAVIntVar@@@Z 004885be f   choco:opapi.obj
 0001:00087761       ?claire__I_equal_equal_UnTerm5@@YAPAVIntConstraint@@PAVUnTerm@@0@Z 00488761 f   choco:opapi.obj
 0001:0008793a       ?claire__I_equal_equal_BinTerm2@@YAPAVIntConstraint@@PAVBinTerm@@H@Z 0048893a f   choco:opapi.obj
 0001:00087b0d       ?claire__I_equal_equal_BinTerm3@@YAPAVLinComb@@PAVBinTerm@@PAVIntVar@@@Z 00488b0d f   choco:opapi.obj
 0001:00087d0a       ?claire__I_equal_equal_BinTerm4@@YAPAVLinComb@@PAVBinTerm@@PAVUnTerm@@@Z 00488d0a f   choco:opapi.obj
 0001:00087f30       ?claire__I_equal_equal_BinTerm5@@YAPAVLinComb@@PAVBinTerm@@0@Z 00488f30 f   choco:opapi.obj
 0001:00088195       ?claire__I_equal_equal_LinTerm1@@YAPAVLinComb@@PAVLinTerm@@H@Z 00489195 f   choco:opapi.obj
 0001:000882a9       ?claire__I_equal_equal_LinTerm2@@YAPAVLinComb@@PAVLinTerm@@PAVIntVar@@@Z 004892a9 f   choco:opapi.obj
 0001:000883ee       ?claire__I_equal_equal_LinTerm3@@YAPAVLinComb@@PAVLinTerm@@PAVUnTerm@@@Z 004893ee f   choco:opapi.obj
 0001:0008855b       ?claire__I_equal_equal_LinTerm4@@YAPAVLinComb@@PAVLinTerm@@PAVBinTerm@@@Z 0048955b f   choco:opapi.obj
 0001:00088726       ?claire__I_equal_equal_LinTerm5@@YAPAVLinComb@@PAVLinTerm@@0@Z 00489726 f   choco:opapi.obj
 0001:000888f6       ?claire_or_LargeDisjunction1@@YAPAVLargeDisjunction@@PAV1@0@Z 004898f6 f   choco:opapi.obj
 0001:00088a3f       ?claire_or_Disjunction1@@YAPAVLargeDisjunction@@PAVDisjunction@@0@Z 00489a3f f   choco:opapi.obj
 0001:00088bec       ?claire_or_LargeDisjunction2@@YAPAVLargeDisjunction@@PAV1@PAVDisjunction@@@Z 00489bec f   choco:opapi.obj
 0001:00088d43       ?claire_or_Disjunction2@@YAPAVLargeDisjunction@@PAVDisjunction@@PAV1@@Z 00489d43 f   choco:opapi.obj
 0001:00088e9a       ?claire_or_Disjunction3@@YAPAVLargeDisjunction@@PAVDisjunction@@PAVAbstractConstraint@@@Z 00489e9a f   choco:opapi.obj
 0001:0008901c       ?claire_or_LargeDisjunction3@@YAPAVLargeDisjunction@@PAV1@PAVAbstractConstraint@@@Z 0048a01c f   choco:opapi.obj
 0001:00089133       ?claire_or_AbstractConstraint1@@YAPAVLargeDisjunction@@PAVAbstractConstraint@@PAVDisjunction@@@Z 0048a133 f   choco:opapi.obj
 0001:00089148       ?claire_or_AbstractConstraint2@@YAPAVLargeDisjunction@@PAVAbstractConstraint@@PAV1@@Z 0048a148 f   choco:opapi.obj
 0001:0008915d       ?claire_or_AbstractConstraint3@@YAPAVDisjunction@@PAVAbstractConstraint@@0@Z 0048a15d f   choco:opapi.obj
 0001:0008928b       ?claire_or_list@@YAPAVLargeDisjunction@@PAVlist@@@Z 0048a28b f   choco:opapi.obj
 0001:00089468       ?claire_and_Conjunction1@@YAPAVLargeConjunction@@PAVConjunction@@0@Z 0048a468 f   choco:opapi.obj
 0001:00089615       ?claire_and_LargeConjunction1@@YAPAVLargeConjunction@@PAV1@0@Z 0048a615 f   choco:opapi.obj
 0001:0008975e       ?claire_and_LargeConjunction2@@YAPAVLargeConjunction@@PAV1@PAVConjunction@@@Z 0048a75e f   choco:opapi.obj
 0001:000898b5       ?claire_and_Conjunction2@@YAPAVLargeConjunction@@PAVConjunction@@PAV1@@Z 0048a8b5 f   choco:opapi.obj
 0001:00089a0c       ?claire_and_Conjunction3@@YAPAVLargeConjunction@@PAVConjunction@@PAVAbstractConstraint@@@Z 0048aa0c f   choco:opapi.obj
 0001:00089b8e       ?claire_and_LargeConjunction3@@YAPAVLargeConjunction@@PAV1@PAVAbstractConstraint@@@Z 0048ab8e f   choco:opapi.obj
 0001:00089ca5       ?claire_and_AbstractConstraint1@@YAPAVLargeConjunction@@PAVAbstractConstraint@@PAVConjunction@@@Z 0048aca5 f   choco:opapi.obj
 0001:00089cba       ?claire_and_AbstractConstraint2@@YAPAVLargeConjunction@@PAVAbstractConstraint@@PAV1@@Z 0048acba f   choco:opapi.obj
 0001:00089ccf       ?claire_and_AbstractConstraint3@@YAPAVConjunction@@PAVAbstractConstraint@@0@Z 0048accf f   choco:opapi.obj
 0001:00089dfd       ?claire_and_list@@YAPAVLargeConjunction@@PAVlist@@@Z 0048adfd f   choco:opapi.obj
 0001:00089fda       ?claire_implies_AbstractConstraint@@YAPAVCompositeConstraint@@PAVAbstractConstraint@@0@Z 0048afda f   choco:opapi.obj
 0001:0008a112       ?claire_ifThen_AbstractConstraint@@YAPAVGuard@@PAVAbstractConstraint@@0@Z 0048b112 f   choco:opapi.obj
 0001:0008a240       ?claire_ifOnlyIf_AbstractConstraint@@YAPAVEquiv@@PAVAbstractConstraint@@0@Z 0048b240 f   choco:opapi.obj
 0001:0008a36e       ?choco_makeCardinalityConstraint_list@@YAPAVCardinality@@PAVlist@@PAVIntVar@@PAVClaireBoolean@@2@Z 0048b36e f   choco:opapi.obj
 0001:0008a545       ?choco_card_list1@@YAPAVCardinality@@PAVlist@@PAVIntVar@@@Z 0048b545 f   choco:opapi.obj
 0001:0008a567       ?choco_atleast_list1@@YAPAVCardinality@@PAVlist@@PAVIntVar@@@Z 0048b567 f   choco:opapi.obj
 0001:0008a589       ?choco_atmost_list1@@YAPAVCardinality@@PAVlist@@PAVIntVar@@@Z 0048b589 f   choco:opapi.obj
 0001:0008a5ab       ?choco_card_list2@@YAPAVCardinality@@PAVlist@@H@Z 0048b5ab f   choco:opapi.obj
 0001:0008a6ac       ?choco_atleast_list2@@YAPAVCardinality@@PAVlist@@H@Z 0048b6ac f   choco:opapi.obj
 0001:0008a7ad       ?choco_atmost_list2@@YAPAVCardinality@@PAVlist@@H@Z 0048b7ad f   choco:opapi.obj
 0001:0008a8ae       ?choco_makeOccurConstraint_OccurTerm@@YAPAVOccurrence@@PAVOccurTerm@@PAVIntVar@@PAVClaireBoolean@@2@Z 0048b8ae f   choco:opapi.obj
 0001:0008adc4       ?choco_occur_integer@@YAPAVOccurTerm@@HPAVlist@@@Z 0048bdc4 f   choco:opapi.obj
 0001:0008aedc       ?claire__equal_equal_OccurTerm1@@YAPAVOccurrence@@PAVOccurTerm@@PAVIntVar@@@Z 0048bedc f   choco:opapi.obj
 0001:0008aefe       ?claire__equal_equal_IntVar6@@YAPAVOccurrence@@PAVIntVar@@PAVOccurTerm@@@Z 0048befe f   choco:opapi.obj
 0001:0008af13       ?claire__equal_equal_OccurTerm2@@YAPAVOccurrence@@PAVOccurTerm@@H@Z 0048bf13 f   choco:opapi.obj
 0001:0008b021       ?claire__equal_equal_integer5@@YAPAVOccurrence@@HPAVOccurTerm@@@Z 0048c021 f   choco:opapi.obj
 0001:0008b036       ?claire__sup_equal_OccurTerm1@@YAPAVOccurrence@@PAVOccurTerm@@PAVIntVar@@@Z 0048c036 f   choco:opapi.obj
 0001:0008b058       ?claire__sup_equal_OccurTerm2@@YAPAVOccurrence@@PAVOccurTerm@@H@Z 0048c058 f   choco:opapi.obj
 0001:0008b166       ?claire__inf_equal_OccurTerm1@@YAPAVOccurrence@@PAVOccurTerm@@PAVIntVar@@@Z 0048c166 f   choco:opapi.obj
 0001:0008b188       ?claire__inf_equal_OccurTerm2@@YAPAVOccurrence@@PAVOccurTerm@@H@Z 0048c188 f   choco:opapi.obj
 0001:0008b296       ?claire__sup_equal_IntVar6@@YAPAVOccurrence@@PAVIntVar@@PAVOccurTerm@@@Z 0048c296 f   choco:opapi.obj
 0001:0008b2ab       ?claire__sup_equal_integer5@@YAPAVOccurrence@@HPAVOccurTerm@@@Z 0048c2ab f   choco:opapi.obj
 0001:0008b2c0       ?claire__inf_equal_IntVar6@@YAPAVOccurrence@@PAVIntVar@@PAVOccurTerm@@@Z 0048c2c0 f   choco:opapi.obj
 0001:0008b2d5       ?claire__inf_equal_integer6@@YAPAVOccurrence@@HPAVOccurTerm@@@Z 0048c2d5 f   choco:opapi.obj
 0001:0008b2ea       ?choco_getNth_list1@@YAPAVEltTerm@@PAVlist@@PAVUnTerm@@@Z 0048c2ea f   choco:opapi.obj
 0001:0008b457       ?choco_getNth_list2@@YAPAVEltTerm@@PAVlist@@PAVIntVar@@@Z 0048c457 f   choco:opapi.obj
 0001:0008b570       ?claire__equal_equal_EltTerm1@@YAPAVElt@@PAVEltTerm@@PAVIntVar@@@Z 0048c570 f   choco:opapi.obj
 0001:0008b670       ?claire__equal_equal_IntVar7@@YAPAVElt@@PAVIntVar@@PAVEltTerm@@@Z 0048c670 f   choco:opapi.obj
 0001:0008b770       ?claire__equal_equal_EltTerm2@@YAPAVElt@@PAVEltTerm@@H@Z 0048c770 f   choco:opapi.obj
 0001:0008b894       ?claire__equal_equal_integer6@@YAPAVElt@@HPAVEltTerm@@@Z 0048c894 f   choco:opapi.obj
 0001:0008b9b8       ?choco_makeElt2Term_table@@YAPAVElt2Term@@PAVtable@@HHPAVIntVar@@1@Z 0048c9b8 f   choco:opapi.obj
 0001:0008baec       ?choco_getNth_table@@YAPAVElt2Term@@PAVtable@@PAVIntVar@@1@Z 0048caec f   choco:opapi.obj
 0001:0008bb90       ?claire__equal_equal_Elt2Term1@@YAPAVElt2@@PAVElt2Term@@PAVIntVar@@@Z 0048cb90 f   choco:opapi.obj
 0001:0008bc9e       ?claire__equal_equal_IntVar8@@YAPAVElt2@@PAVIntVar@@PAVElt2Term@@@Z 0048cc9e f   choco:opapi.obj
 0001:0008bdac       ?claire__equal_equal_Elt2Term2@@YAPAVElt2@@PAVElt2Term@@H@Z 0048cdac f   choco:opapi.obj
 0001:0008bede       ?claire__equal_equal_integer7@@YAPAVElt2@@HPAVElt2Term@@@Z 0048cede f   choco:opapi.obj
 0001:0008c010       ?choco_makeProblem_string@@YAPAVProblem@@PADH@Z 0048d010 f   choco:chocapi.obj
 0001:0008c1e5       ?choco_getProblem_IntVar@@YAPAVProblem@@PAVIntVar@@@Z 0048d1e5 f   choco:chocapi.obj
 0001:0008c1f0       ?choco_getProblem_AbstractConstraint@@YAPAVProblem@@PAVAbstractConstraint@@@Z 0048d1f0 f   choco:chocapi.obj
 0001:0008c3da       ?choco_getActiveProblem_void@@YAPAVProblem@@XZ 0048d3da f   choco:chocapi.obj
 0001:0008c3f7       ?choco_setActiveProblem_Problem@@YAXPAVProblem@@@Z 0048d3f7 f   choco:chocapi.obj
 0001:0008c416       ?choco_discardProblem_Problem@@YAXPAVProblem@@@Z 0048d416 f   choco:chocapi.obj
 0001:0008c44d       ?choco_getPropagationEngine_Problem@@YAPAVPropagationEngine@@PAVProblem@@@Z 0048d44d f   choco:chocapi.obj
 0001:0008c458       ?choco_setDelayedLinearConstraintPropagation_ChocEngine@@YAXPAVChocEngine@@PAVClaireBoolean@@@Z 0048d458 f   choco:chocapi.obj
 0001:0008c47e       ?choco_makeBoundIntVar_Problem1@@YAPAVIntVar@@PAVProblem@@PADHH@Z 0048d47e f   choco:chocapi.obj
 0001:0008c837       ?choco_makeBoundIntVar_Problem2@@YAPAVIntVar@@PAVProblem@@HH@Z 0048d837 f   choco:chocapi.obj
 0001:0008c855       ?choco_makeBoundIntVar_Problem3@@YAPAVIntVar@@PAVProblem@@PAD@Z 0048d855 f   choco:chocapi.obj
 0001:0008c86e       ?choco_makeConstantIntVar_integer@@YAPAVIntVar@@H@Z 0048d86e f   choco:chocapi.obj
 0001:0008cc44       ?choco_makeIntVar_Problem1@@YAPAVIntVar@@PAVProblem@@PADHH@Z 0048dc44 f   choco:chocapi.obj
 0001:0008d034       ?choco_makeIntVar_Problem2@@YAPAVIntVar@@PAVProblem@@HH@Z 0048e034 f   choco:chocapi.obj
 0001:0008d052       ?choco_makeIntVar_Problem3@@YAPAVIntVar@@PAVProblem@@PAD@Z 0048e052 f   choco:chocapi.obj
 0001:0008d06b       ?choco_makeIntVar_Problem4@@YAPAVIntVar@@PAVProblem@@PADPAVlist@@@Z 0048e06b f   choco:chocapi.obj
 0001:0008d30d       ?choco_makeIntVar_Problem5@@YAPAVIntVar@@PAVProblem@@PAVlist@@@Z 0048e30d f   choco:chocapi.obj
 0001:0008d327       ?choco_makeSetVar_Problem1@@YAPAVSetVar@@PAVProblem@@PADHH@Z 0048e327 f   choco:chocapi.obj
 0001:0008d53e       ?choco_makeSetVar_Problem2@@YAPAVSetVar@@PAVProblem@@HH@Z 0048e53e f   choco:chocapi.obj
 0001:0008d55c       ?choco_makeSetVar_Problem3@@YAPAVSetVar@@PAVProblem@@PADHHPAVIntVar@@@Z 0048e55c f   choco:chocapi.obj
 0001:0008d688       ?choco_makeSetVar_Problem4@@YAPAVSetVar@@PAVProblem@@HHPAVIntVar@@@Z 0048e688 f   choco:chocapi.obj
 0001:0008d6aa       ?choco_makeBinTruthTest_method@@YAPAVTruthTest@@PAVmethod@@@Z 0048e6aa f   choco:chocapi.obj
 0001:0008d7b0       ?choco_makeBinRelation_integer1@@YAPAVTruthTable2D@@HHHH@Z 0048e7b0 f   choco:chocapi.obj
 0001:0008d924       ?choco_makeBinRelation_integer2@@YAPAVTruthTable2D@@HHHHPAVlist@@@Z 0048e924 f   choco:chocapi.obj
 0001:0008dc36       ?choco_binConstraint_IntVar1@@YAPAVCSPBinConstraint@@PAVIntVar@@0PAVBinRelation@@PAVClaireBoolean@@H@Z 0048ec36 f   choco:chocapi.obj
 0001:0008dd01       ?choco_binConstraint_IntVar2@@YAPAVCSPBinConstraint@@PAVIntVar@@0PAVBinRelation@@PAVClaireBoolean@@@Z 0048ed01 f   choco:chocapi.obj
 0001:0008dd23       ?choco_binConstraint_IntVar3@@YAPAVCSPBinConstraint@@PAVIntVar@@0PAVBinRelation@@H@Z 0048ed23 f   choco:chocapi.obj
 0001:0008dd47       ?choco_binConstraint_IntVar4@@YAPAVCSPBinConstraint@@PAVIntVar@@0PAVBinRelation@@@Z 0048ed47 f   choco:chocapi.obj
 0001:0008dd6b       ?choco_feasPairConstraint_IntVar1@@YAPAVCSPBinConstraint@@PAVIntVar@@0PAVlist@@H@Z 0048ed6b f   choco:chocapi.obj
 0001:0008deaa       ?choco_infeasPairConstraint_IntVar1@@YAPAVCSPBinConstraint@@PAVIntVar@@0PAVlist@@H@Z 0048eeaa f   choco:chocapi.obj
 0001:0008dfe9       ?choco_feasBinTestConstraint_IntVar1@@YAPAVCSPBinConstraint@@PAVIntVar@@0PAVmethod@@H@Z 0048efe9 f   choco:chocapi.obj
 0001:0008e100       ?choco_infeasBinTestConstraint_IntVar1@@YAPAVCSPBinConstraint@@PAVIntVar@@0PAVmethod@@H@Z 0048f100 f   choco:chocapi.obj
 0001:0008e217       ?choco_feasPairConstraint_IntVar2@@YAPAVCSPBinConstraint@@PAVIntVar@@0PAVlist@@@Z 0048f217 f   choco:chocapi.obj
 0001:0008e235       ?choco_infeasPairConstraint_IntVar2@@YAPAVCSPBinConstraint@@PAVIntVar@@0PAVlist@@@Z 0048f235 f   choco:chocapi.obj
 0001:0008e253       ?choco_feasBinTestConstraint_IntVar2@@YAPAVCSPBinConstraint@@PAVIntVar@@0PAVmethod@@@Z 0048f253 f   choco:chocapi.obj
 0001:0008e271       ?choco_infeasBinTestConstraint_IntVar2@@YAPAVCSPBinConstraint@@PAVIntVar@@0PAVmethod@@@Z 0048f271 f   choco:chocapi.obj
 0001:0008e28f       ?choco_feasTupleConstraint_list@@YAPAVCSPLargeConstraint@@PAVlist@@0@Z 0048f28f f   choco:chocapi.obj
 0001:0008e2ab       ?choco_infeasTupleConstraint_list@@YAPAVCSPLargeConstraint@@PAVlist@@0@Z 0048f2ab f   choco:chocapi.obj
 0001:0008e2c7       ?choco_feasTestConstraint_list@@YAPAVCSPLargeConstraint@@PAVlist@@PAVmethod@@@Z 0048f2c7 f   choco:chocapi.obj
 0001:0008e491       ?claire_self_print_LinTerm_choco@@YAXPAVLinTerm@@@Z 0048f491 f   choco:chocapi.obj
 0001:0008e5d8       ?claire_scalar_list@@YAPAVLinTerm@@PAVlist@@0@Z 0048f5d8 f   choco:chocapi.obj
 0001:0008e7b0       ?choco_sumVars_list@@YAPAVLinTerm@@PAVlist@@@Z 0048f7b0 f   choco:chocapi.obj
 0001:0008e939       ?choco_allDifferent_list@@YAPAVAllDiff@@PAVlist@@@Z 0048f939 f   choco:chocapi.obj
 0001:0008eaed       ?choco_post_Problem@@YAXPAVProblem@@PAVAbstractConstraint@@@Z 0048faed f   choco:chocapi.obj
 0001:0008edc1       ?choco_setMin_IntVar@@YAXPAVIntVar@@H@Z 0048fdc1 f   choco:chocapi.obj
 0001:0008edea       ?choco_setMax_IntVar@@YAXPAVIntVar@@H@Z 0048fdea f   choco:chocapi.obj
 0001:0008ee13       ?choco_setVal_IntVar@@YAXPAVIntVar@@H@Z 0048fe13 f   choco:chocapi.obj
 0001:0008ee2a       ?choco_remVal_IntVar@@YAXPAVIntVar@@H@Z 0048fe2a f   choco:chocapi.obj
 0001:0008ee53       ?choco_setBranch_Disjunction@@YAXPAVDisjunction@@HPAVClaireBoolean@@@Z 0048fe53 f   choco:chocapi.obj
 0001:0008f111       ?choco_setBranch_LargeDisjunction@@YAXPAVLargeDisjunction@@HPAVClaireBoolean@@@Z 00490111 f   choco:chocapi.obj
 0001:0008f500       ?choco_setBranch_Cardinality@@YAXPAVCardinality@@HPAVClaireBoolean@@@Z 00490500 f   choco:chocapi.obj
 0001:0008fc2f       ?choco_propagate_Problem@@YAXPAVProblem@@@Z 00490c2f f   choco:chocapi.obj
 0001:0008fd11       ?choco_setActive_AbstractConstraint@@YAXPAVAbstractConstraint@@@Z 00490d11 f   choco:chocapi.obj
 0001:0008fe3c       ?choco_setPassive_AbstractConstraint@@YAXPAVAbstractConstraint@@@Z 00490e3c f   choco:chocapi.obj
 0001:0009008d       ?choco_getProblem_Solver@@YAPAVProblem@@PAVSolver@@@Z 0049108d f   choco:chocapi.obj
 0001:00090098       ?choco_getSearchManager_AbstractBranching@@YAPAVGlobalSearchSolver@@PAVAbstractBranching@@@Z 00491098 f   choco:chocapi.obj
 0001:000900a3       ?choco_makeMinDomVarHeuristic_void@@YAHXZ 004910a3 f   choco:chocapi.obj
 0001:000901b5       ?choco_makeDomDegVarHeuristic_void@@YAHXZ 004911b5 f   choco:chocapi.obj
 0001:000902c7       ?choco_makeMaxDegVarHeuristic_void@@YAHXZ 004912c7 f   choco:chocapi.obj
 0001:000903d9       ?choco_makeStaticVarHeuristic_list@@YAHPAVlist@@@Z 004913d9 f   choco:chocapi.obj
 0001:0009055b       ?choco_makeMinDomVarHeuristic_list@@YAPAVMinDomain@@PAVlist@@@Z 0049155b f   choco:chocapi.obj
 0001:000906c7       ?choco_makeDomDegVarHeuristic_list@@YAPAVDomDeg@@PAVlist@@@Z 004916c7 f   choco:chocapi.obj
 0001:00090833       ?choco_makeMaxDegVarHeuristic_list@@YAPAVMaxDeg@@PAVlist@@@Z 00491833 f   choco:chocapi.obj
 0001:0009099f       ?choco_makeIncValIterator_void@@YAHXZ 0049199f f   choco:chocapi.obj
 0001:00090ab1       ?choco_makeDecValIterator_void@@YAHXZ 00491ab1 f   choco:chocapi.obj
 0001:00090bc3       ?choco_makeMinValSelector_void@@YAHXZ 00491bc3 f   choco:chocapi.obj
 0001:00090cd5       ?choco_makeMaxValSelector_void@@YAHXZ 00491cd5 f   choco:chocapi.obj
 0001:00090de7       ?choco_makeMidValSelector_void@@YAHXZ 00491de7 f   choco:chocapi.obj
 0001:00090ef9       ?choco_makeAssignVarBranching_VarSelector1@@YAPAVAssignVar@@PAVVarSelector@@PAVValIterator@@@Z 00491ef9 f   choco:chocapi.obj
 0001:0009102d       ?choco_makeAssignVarBranching_VarSelector2@@YAPAVAssignVar@@PAVVarSelector@@@Z 0049202d f   choco:chocapi.obj
 0001:00091137       ?choco_makeAssignVarBranching_void@@YAPAVAssignVar@@XZ 00492137 f   choco:chocapi.obj
 0001:0009125a       ?choco_makeSplitDomBranching_VarSelector1@@YAPAVSplitDomain@@PAVVarSelector@@PAVValSelector@@H@Z 0049225a f   choco:chocapi.obj
 0001:00091396       ?choco_makeSplitDomBranching_VarSelector2@@YAPAVSplitDomain@@PAVVarSelector@@H@Z 00492396 f   choco:chocapi.obj
 0001:000914a3       ?choco_makeSplitDomBranching_VarSelector3@@YAPAVSplitDomain@@PAVVarSelector@@@Z 004924a3 f   choco:chocapi.obj
 0001:000915af       ?choco_makeSplitDomBranching_void@@YAPAVSplitDomain@@XZ 004925af f   choco:chocapi.obj
 0001:000916d4       ?choco_makeAssignOrForbidBranching_VarSelector@@YAPAVAssignOrForbid@@PAVVarSelector@@PAVValSelector@@@Z 004926d4 f   choco:chocapi.obj
 0001:00091808       ?choco_makeDisjunctionBranching_Problem@@YAPAVSettleBinDisjunction@@PAVProblem@@@Z 00492808 f   choco:chocapi.obj
 0001:000919a2       ?choco_makeDefaultBranchingList_Problem@@YAPAVlist@@PAVProblem@@@Z 004929a2 f   choco:chocapi.obj
 0001:00091b71       ?choco_makeGlobalSearchSolver_boolean1@@YAPAVSolve@@PAVClaireBoolean@@PAVlist@@@Z 00492b71 f   choco:chocapi.obj
 0001:00091ca7       ?choco_makeGlobalSearchMaximizer_IntVar1@@YAPAVAbstractOptimize@@PAVIntVar@@PAVClaireBoolean@@PAVlist@@@Z 00492ca7 f   choco:chocapi.obj
 0001:00091e3e       ?choco_makeGlobalSearchMinimizer_IntVar1@@YAPAVAbstractOptimize@@PAVIntVar@@PAVClaireBoolean@@PAVlist@@@Z 00492e3e f   choco:chocapi.obj
 0001:00091fd5       ?choco_makeGlobalSearchSolver_boolean2@@YAPAVSolve@@PAVClaireBoolean@@@Z 00492fd5 f   choco:chocapi.obj
 0001:000921b2       ?choco_makeGlobalSearchMaximizer_IntVar2@@YAPAVAbstractOptimize@@PAVIntVar@@PAVClaireBoolean@@@Z 004931b2 f   choco:chocapi.obj
 0001:00092392       ?choco_makeGlobalSearchMinimizer_IntVar2@@YAPAVAbstractOptimize@@PAVIntVar@@PAVClaireBoolean@@@Z 00493392 f   choco:chocapi.obj
 0001:00092572       ?choco_makeBacktrackLimit_integer@@YAPAVNodeLimit@@H@Z 00493572 f   choco:chocapi.obj
 0001:00092586       ?choco_makeNodeLimit_integer@@YAPAVBacktrackLimit@@H@Z 00493586 f   choco:chocapi.obj
 0001:0009259a       ?choco_setSearchLimit_GlobalSearchSolver@@YAXPAVGlobalSearchSolver@@PAVGlobalSearchLimit@@@Z 0049359a f   choco:chocapi.obj
 0001:0009269b       ?choco_solve_Problem1@@YAPAVClaireBoolean@@PAVProblem@@PAV1@@Z 0049369b f   choco:chocapi.obj
 0001:0009287a       ?choco_minimize_Problem1@@YAHPAVProblem@@PAVIntVar@@PAVClaireBoolean@@@Z 0049387a f   choco:chocapi.obj
 0001:00092a64       ?choco_maximize_Problem1@@YAHPAVProblem@@PAVIntVar@@PAVClaireBoolean@@@Z 00493a64 f   choco:chocapi.obj
 0001:00092c4e       ?choco_solve_Problem2@@YAPAVClaireBoolean@@PAVProblem@@PAVlist@@PAV1@@Z 00493c4e f   choco:chocapi.obj
 0001:00092d72       ?choco_minimize_Problem2@@YAHPAVProblem@@PAVIntVar@@PAVlist@@PAVClaireBoolean@@@Z 00493d72 f   choco:chocapi.obj
 0001:00092eb2       ?choco_maximize_Problem2@@YAHPAVProblem@@PAVIntVar@@PAVlist@@PAVClaireBoolean@@@Z 00493eb2 f   choco:chocapi.obj
 0001:00092ff2       ?choco_setMaxPrintDepth_GlobalSearchSolver@@YAXPAVGlobalSearchSolver@@H@Z 00493ff2 f   choco:chocapi.obj
 0001:00093000       ?choco_setMaxSolutionStorage_GlobalSearchSolver@@YAXPAVGlobalSearchSolver@@H@Z 00494000 f   choco:chocapi.obj
 0001:0009300e       ?choco_setVarsToShow_GlobalSearchSolver@@YAXPAVGlobalSearchSolver@@PAVlist@@@Z 0049400e f   choco:chocapi.obj
 0001:00093025       ?choco_getNbSol_GlobalSearchSolver@@YAHPAVGlobalSearchSolver@@@Z 00494025 f   choco:chocapi.obj
 0001:00093030       ?choco_getProblem_AbstractBranching@@YAPAVProblem@@PAVAbstractBranching@@@Z 00494030 f   choco:chocapi.obj
 0001:0009303e       ?choco_getGlobalSearchSolver_Problem@@YAPAVGlobalSearchSolver@@PAVProblem@@@Z 0049403e f   choco:chocapi.obj
 0001:00093049       ?choco_setNodeLimit_GlobalSearchSolver@@YAXPAVGlobalSearchSolver@@H@Z 00494049 f   choco:chocapi.obj
 0001:0009315e       ?choco_setTimeLimit_GlobalSearchSolver@@YAXPAVGlobalSearchSolver@@H@Z 0049415e f   choco:chocapi.obj
 0001:00093273       ?choco_setBacktrackLimit_GlobalSearchSolver@@YAXPAVGlobalSearchSolver@@H@Z 00494273 f   choco:chocapi.obj
 0001:00093388       ?choco_setMaxNbBk_GlobalSearchSolver@@YAXPAVGlobalSearchSolver@@H@Z 00494388 f   choco:chocapi.obj
 0001:0009339d       ?choco_assignVal_IntVar@@YAXPAVIntVar@@H@Z 0049439d f   choco:chocapi.obj
 0001:00093615       ?choco_unassignVal_IntVar@@YAXPAVIntVar@@@Z 00494615 f   choco:chocapi.obj
 0001:00093822       ?choco_changeVal_IntVar@@YAXPAVIntVar@@H@Z 00494822 f   choco:chocapi.obj
 0001:00093aa5       ?choco_setMaxNbLocalSearch_Problem@@YAXPAVProblem@@H@Z 00494aa5 f   choco:chocapi.obj
 0001:00093ab6       ?choco_setMaxNbLocalMoves_Problem@@YAXPAVProblem@@H@Z 00494ab6 f   choco:chocapi.obj
 0001:00093ac7       ?choco_move_Problem1@@YAHPAVProblem@@@Z 00494ac7 f   choco:chocapi.obj
 0001:00093c03       ?choco_move_Problem2@@YAHPAVProblem@@PAVConstructiveHeuristic@@PAVMoveNeighborhood@@@Z 00494c03 f   choco:chocapi.obj
 0001:00093d80       ?choco_computeVarIdxInOpposite_SetConstraint@@YAHPAVSetConstraint@@H@Z 00494d80 f   choco:setconst.obj
 0001:00093d88       ?choco_testIfCompletelyInstantiated_UnSetConstraint@@YAPAVClaireBoolean@@PAVUnSetConstraint@@@Z 00494d88 f   choco:setconst.obj
 0001:00093ebc       ?choco_getNbVars_UnSetConstraint@@YAHPAVUnSetConstraint@@@Z 00494ebc f   choco:setconst.obj
 0001:00093ec6       ?choco_getVar_UnSetConstraint_choco@@YAPAVAbstractVar@@PAVUnSetConstraint@@H@Z 00494ec6 f   choco:setconst.obj
 0001:00093f34       ?choco_connect_UnSetConstraint_choco@@YAXPAVUnSetConstraint@@@Z 00494f34 f   choco:setconst.obj
 0001:00094065       ?choco_disconnect_UnSetConstraint_choco@@YAXPAVUnSetConstraint@@@Z 00495065 f   choco:setconst.obj
 0001:00094198       ?choco_reconnect_UnSetConstraint_choco@@YAXPAVUnSetConstraint@@@Z 00495198 f   choco:setconst.obj
 0001:000942cb       ?choco_assignIndices_UnSetConstraint@@YAHPAVUnSetConstraint@@PAVAbstractConstraint@@H@Z 004952cb f   choco:setconst.obj
 0001:000943ff       ?choco_getConstraintIdx_UnSetConstraint@@YAHPAVUnSetConstraint@@H@Z 004953ff f   choco:setconst.obj
 0001:0009447e       ?choco_setConstraintIndex_UnSetConstraint@@YAXPAVUnSetConstraint@@HH@Z 0049547e f   choco:setconst.obj
 0001:000944f3       ?choco_isActive_UnSetConstraint_choco@@YAPAVClaireBoolean@@PAVUnSetConstraint@@@Z 004954f3 f   choco:setconst.obj
 0001:000945f1       ?choco_testIfCompletelyInstantiated_BinSetIntConstraint@@YAPAVClaireBoolean@@PAVBinSetIntConstraint@@@Z 004955f1 f   choco:setconst.obj
 0001:000947b2       ?choco_getNbVars_BinSetIntConstraint@@YAHPAVBinSetIntConstraint@@@Z 004957b2 f   choco:setconst.obj
 0001:000947bc       ?choco_getVar_BinSetIntConstraint_choco@@YAPAVAbstractVar@@PAVBinSetIntConstraint@@H@Z 004957bc f   choco:setconst.obj
 0001:0009484d       ?choco_connect_BinSetIntConstraint_choco@@YAXPAVBinSetIntConstraint@@@Z 0049584d f   choco:setconst.obj
 0001:0009499c       ?choco_disconnect_BinSetIntConstraint_choco@@YAXPAVBinSetIntConstraint@@@Z 0049599c f   choco:setconst.obj
 0001:00094aec       ?choco_reconnect_BinSetIntConstraint_choco@@YAXPAVBinSetIntConstraint@@@Z 00495aec f   choco:setconst.obj
 0001:00094c3c       ?choco_assignIndices_BinSetIntConstraint@@YAHPAVBinSetIntConstraint@@PAVAbstractConstraint@@H@Z 00495c3c f   choco:setconst.obj
 0001:00094db3       ?choco_getConstraintIdx_BinSetIntConstraint@@YAHPAVBinSetIntConstraint@@H@Z 00495db3 f   choco:setconst.obj
 0001:00094e42       ?choco_setConstraintIndex_BinSetIntConstraint@@YAXPAVBinSetIntConstraint@@HH@Z 00495e42 f   choco:setconst.obj
 0001:00094ec9       ?choco_isActive_BinSetIntConstraint_choco@@YAPAVClaireBoolean@@PAVBinSetIntConstraint@@@Z 00495ec9 f   choco:setconst.obj
 0001:0009501c       ?choco_testIfCompletelyInstantiated_BinSetConstraint@@YAPAVClaireBoolean@@PAVBinSetConstraint@@@Z 0049601c f   choco:setconst.obj
 0001:000951dd       ?choco_getNbVars_BinSetConstraint@@YAHPAVBinSetConstraint@@@Z 004961dd f   choco:setconst.obj
 0001:000951e7       ?choco_getVar_BinSetConstraint_choco@@YAPAVAbstractVar@@PAVBinSetConstraint@@H@Z 004961e7 f   choco:setconst.obj
 0001:00095278       ?choco_connect_BinSetConstraint_choco@@YAXPAVBinSetConstraint@@@Z 00496278 f   choco:setconst.obj
 0001:000953c7       ?choco_disconnect_BinSetConstraint_choco@@YAXPAVBinSetConstraint@@@Z 004963c7 f   choco:setconst.obj
 0001:00095517       ?choco_reconnect_BinSetConstraint_choco@@YAXPAVBinSetConstraint@@@Z 00496517 f   choco:setconst.obj
 0001:00095667       ?choco_assignIndices_BinSetConstraint@@YAHPAVBinSetConstraint@@PAVAbstractConstraint@@H@Z 00496667 f   choco:setconst.obj
 0001:000957de       ?choco_getConstraintIdx_BinSetConstraint@@YAHPAVBinSetConstraint@@H@Z 004967de f   choco:setconst.obj
 0001:0009586d       ?choco_setConstraintIndex_BinSetConstraint@@YAXPAVBinSetConstraint@@HH@Z 0049686d f   choco:setconst.obj
 0001:000958f4       ?choco_isActive_BinSetConstraint_choco@@YAPAVClaireBoolean@@PAVBinSetConstraint@@@Z 004968f4 f   choco:setconst.obj
 0001:00095a47       ?choco_testIfCompletelyInstantiated_TernSetConstraint@@YAPAVClaireBoolean@@PAVTernSetConstraint@@@Z 00496a47 f   choco:setconst.obj
 0001:00095c7a       ?choco_getNbVars_TernSetConstraint@@YAHPAVTernSetConstraint@@@Z 00496c7a f   choco:setconst.obj
 0001:00095c84       ?choco_getVar_TernSetConstraint_choco@@YAPAVAbstractVar@@PAVTernSetConstraint@@H@Z 00496c84 f   choco:setconst.obj
 0001:00095d29       ?choco_connect_TernSetConstraint_choco@@YAXPAVTernSetConstraint@@@Z 00496d29 f   choco:setconst.obj
 0001:00095e96       ?choco_disconnect_TernSetConstraint_choco@@YAXPAVTernSetConstraint@@@Z 00496e96 f   choco:setconst.obj
 0001:00096006       ?choco_reconnect_TernSetConstraint_choco@@YAXPAVTernSetConstraint@@@Z 00497006 f   choco:setconst.obj
 0001:00096176       ?choco_assignIndices_TernSetConstraint@@YAHPAVTernSetConstraint@@PAVAbstractConstraint@@H@Z 00497176 f   choco:setconst.obj
 0001:00096331       ?choco_getConstraintIdx_TernSetConstraint@@YAHPAVTernSetConstraint@@H@Z 00497331 f   choco:setconst.obj
 0001:000963d1       ?choco_setConstraintIndex_TernSetConstraint@@YAXPAVTernSetConstraint@@HH@Z 004973d1 f   choco:setconst.obj
 0001:0009646b       ?choco_isActive_TernSetConstraint_choco@@YAPAVClaireBoolean@@PAVTernSetConstraint@@@Z 0049746b f   choco:setconst.obj
 0001:000965f7       ?choco_awakeOnKer_SetCard@@YAXPAVSetCard@@H@Z 004975f7 f   choco:setconst.obj
 0001:0009685c       ?choco_awakeOnEnv_SetCard@@YAXPAVSetCard@@H@Z 0049785c f   choco:setconst.obj
 0001:00096ac1       ?choco_awakeOnInstSet_SetCard@@YAXPAVSetCard@@H@Z 00497ac1 f   choco:setconst.obj
 0001:00096c12       ?choco_awakeOnInf_SetCard@@YAXPAVSetCard@@H@Z 00497c12 f   choco:setconst.obj
 0001:00096e45       ?choco_awakeOnSup_SetCard@@YAXPAVSetCard@@H@Z 00497e45 f   choco:setconst.obj
 0001:00097078       ?choco_awakeOnInst_SetCard@@YAXPAVSetCard@@H@Z 00498078 f   choco:setconst.obj
 0001:0009708d       ?choco_awakeOnRem_SetCard@@YAXPAVSetCard@@HH@Z 0049808d f   choco:setconst.obj
 0001:00097092       ?choco_awakeOnVar_SetCard@@YAXPAVSetCard@@H@Z 00498092 f   choco:setconst.obj
 0001:000973e8       ?choco_askIfEntailed_SetCard@@YAHPAVSetCard@@@Z 004983e8 f   choco:setconst.obj
 0001:0009760d       ?choco_testIfSatisfied_SetCard@@YAPAVClaireBoolean@@PAVSetCard@@@Z 0049860d f   choco:setconst.obj
 0001:00097762       ?choco_propagate_SetCard@@YAXPAVSetCard@@@Z 00498762 f   choco:setconst.obj
 0001:00097a84       ?choco_awake_SetCard_choco@@YAXPAVSetCard@@@Z 00498a84 f   choco:setconst.obj
 0001:00097c1b       ?choco_setCard_SetVar@@YAPAVSetCard@@PAVSetVar@@PAVIntVar@@@Z 00498c1b f   choco:setconst.obj
 0001:00097d2b       ?choco_awakeOnKer_MemberC@@YAXPAVMemberC@@H@Z 00498d2b f   choco:setconst.obj
 0001:00097d30       ?choco_awakeOnEnv_MemberC@@YAXPAVMemberC@@H@Z 00498d30 f   choco:setconst.obj
 0001:00097e74       ?choco_awakeOnInstSet_MemberC@@YAXPAVMemberC@@H@Z 00498e74 f   choco:setconst.obj
 0001:00097fbf       ?choco_askIfEntailed_MemberC@@YAHPAVMemberC@@@Z 00498fbf f   choco:setconst.obj
 0001:00098189       ?choco_testIfSatisfied_MemberC@@YAPAVClaireBoolean@@PAVMemberC@@@Z 00499189 f   choco:setconst.obj
 0001:000982c7       ?choco_propagate_MemberC@@YAXPAVMemberC@@@Z 004992c7 f   choco:setconst.obj
 0001:000983c5       ?choco_awake_MemberC_choco@@YAXPAVMemberC@@@Z 004993c5 f   choco:setconst.obj
 0001:000984c3       ?choco_memberOf_SetVar1@@YAPAVMemberC@@PAVSetVar@@H@Z 004994c3 f   choco:setconst.obj
 0001:000985d3       ?choco_awakeOnKer_NotMemberC@@YAXPAVNotMemberC@@H@Z 004995d3 f   choco:setconst.obj
 0001:0009871d       ?choco_awakeOnEnv_NotMemberC@@YAXPAVNotMemberC@@H@Z 0049971d f   choco:setconst.obj
 0001:00098722       ?choco_awakeOnInstSet_NotMemberC@@YAXPAVNotMemberC@@H@Z 00499722 f   choco:setconst.obj
 0001:00098874       ?choco_askIfEntailed_NotMemberC@@YAHPAVNotMemberC@@@Z 00499874 f   choco:setconst.obj
 0001:00098a3e       ?choco_testIfSatisfied_NotMemberC@@YAPAVClaireBoolean@@PAVNotMemberC@@@Z 00499a3e f   choco:setconst.obj
 0001:00098b76       ?choco_propagate_NotMemberC@@YAXPAVNotMemberC@@@Z 00499b76 f   choco:setconst.obj
 0001:00098c74       ?choco_awake_NotMemberC_choco@@YAXPAVNotMemberC@@@Z 00499c74 f   choco:setconst.obj
 0001:00098d72       ?choco_notMemberOf_SetVar1@@YAPAVNotMemberC@@PAVSetVar@@H@Z 00499d72 f   choco:setconst.obj
 0001:00098e82       ?choco_opposite_MemberC@@YAPAVNotMemberC@@PAVMemberC@@@Z 00499e82 f   choco:setconst.obj
 0001:00098f97       ?choco_opposite_NotMemberC@@YAPAVMemberC@@PAVNotMemberC@@@Z 00499f97 f   choco:setconst.obj
 0001:000990ac       ?choco_awakeOnKer_MemberX@@YAXPAVMemberX@@H@Z 0049a0ac f   choco:setconst.obj
 0001:000990b1       ?choco_awakeOnEnv_MemberX@@YAXPAVMemberX@@H@Z 0049a0b1 f   choco:setconst.obj
 0001:0009951b       ?choco_awakeOnInstSet_MemberX@@YAXPAVMemberX@@H@Z 0049a51b f   choco:setconst.obj
 0001:00099530       ?choco_awakeOnInst_MemberX@@YAXPAVMemberX@@H@Z 0049a530 f   choco:setconst.obj
 0001:00099630       ?choco_awakeOnVar_MemberX@@YAXPAVMemberX@@H@Z 0049a630 f   choco:setconst.obj
 0001:00099a1f       ?choco_awakeOnSup_MemberX@@YAXPAVMemberX@@H@Z 0049aa1f f   choco:setconst.obj
 0001:00099a34       ?choco_awakeOnInf_MemberX@@YAXPAVMemberX@@H@Z 0049aa34 f   choco:setconst.obj
 0001:00099a49       ?choco_awakeOnRem_MemberX@@YAXPAVMemberX@@HH@Z 0049aa49 f   choco:setconst.obj
 0001:00099a5e       ?choco_askIfEntailed_MemberX@@YAHPAVMemberX@@@Z 0049aa5e f   choco:setconst.obj
 0001:00099ebf       ?choco_testIfSatisfied_MemberX@@YAPAVClaireBoolean@@PAVMemberX@@@Z 0049aebf f   choco:setconst.obj
 0001:0009a001       ?choco_propagate_MemberX@@YAXPAVMemberX@@@Z 0049b001 f   choco:setconst.obj
 0001:0009a014       ?choco_awake_MemberX_choco@@YAXPAVMemberX@@@Z 0049b014 f   choco:setconst.obj
 0001:0009a027       ?choco_memberOf_SetVar2@@YAPAVMemberX@@PAVSetVar@@PAVIntVar@@@Z 0049b027 f   choco:setconst.obj
 0001:0009a137       ?choco_awakeOnKer_NotMemberX@@YAXPAVNotMemberX@@H@Z 0049b137 f   choco:setconst.obj
 0001:0009a148       ?choco_awakeOnEnv_NotMemberX@@YAXPAVNotMemberX@@H@Z 0049b148 f   choco:setconst.obj
 0001:0009a14d       ?choco_awakeOnInstSet_NotMemberX@@YAXPAVNotMemberX@@H@Z 0049b14d f   choco:setconst.obj
 0001:0009a565       ?choco_awakeOnSup_NotMemberX@@YAXPAVNotMemberX@@H@Z 0049b565 f   choco:setconst.obj
 0001:0009a57a       ?choco_awakeOnInst_NotMemberX@@YAXPAVNotMemberX@@H@Z 0049b57a f   choco:setconst.obj
 0001:0009a58f       ?choco_awakeOnRem_NotMemberX@@YAXPAVNotMemberX@@HH@Z 0049b58f f   choco:setconst.obj
 0001:0009a5a4       ?choco_awakeOnVar_NotMemberX@@YAXPAVNotMemberX@@H@Z 0049b5a4 f   choco:setconst.obj
 0001:0009a5b5       ?choco_askIfEntailed_NotMemberX@@YAHPAVNotMemberX@@@Z 0049b5b5 f   choco:setconst.obj
 0001:0009aa16       ?choco_testIfSatisfied_NotMemberX@@YAPAVClaireBoolean@@PAVNotMemberX@@@Z 0049ba16 f   choco:setconst.obj
 0001:0009ab52       ?choco_propagate_NotMemberX@@YAXPAVNotMemberX@@@Z 0049bb52 f   choco:setconst.obj
 0001:0009afc9       ?choco_awake_NotMemberX_choco@@YAXPAVNotMemberX@@@Z 0049bfc9 f   choco:setconst.obj
 0001:0009afda       ?choco_opposite_MemberX@@YAPAVNotMemberX@@PAVMemberX@@@Z 0049bfda f   choco:setconst.obj
 0001:0009b0ef       ?choco_opposite_NotMemberX@@YAPAVMemberX@@PAVNotMemberX@@@Z 0049c0ef f   choco:setconst.obj
 0001:0009b204       ?choco_notMemberOf_SetVar2@@YAPAVNotMemberX@@PAVSetVar@@PAVIntVar@@@Z 0049c204 f   choco:setconst.obj
 0001:0009b314       ?choco_awakeOnKer_SetIntersection@@YAXPAVSetIntersection@@H@Z 0049c314 f   choco:setconst.obj
 0001:0009b87b       ?choco_awakeOnEnv_SetIntersection@@YAXPAVSetIntersection@@H@Z 0049c87b f   choco:setconst.obj
 0001:0009bd72       ?choco_awakeOnInstSet_SetIntersection@@YAXPAVSetIntersection@@H@Z 0049cd72 f   choco:setconst.obj
 0001:0009bd97       ?choco_testIfSatisfied_SetIntersection@@YAPAVClaireBoolean@@PAVSetIntersection@@@Z 0049cd97 f   choco:setconst.obj
 0001:0009c160       ?choco_propagate_SetIntersection@@YAXPAVSetIntersection@@@Z 0049d160 f   choco:setconst.obj
 0001:0009c80e       ?choco_awake_SetIntersection_choco@@YAXPAVSetIntersection@@@Z 0049d80e f   choco:setconst.obj
 0001:0009c81f       ?choco_setintersection_SetVar@@YAPAVSetIntersection@@PAVSetVar@@00@Z 0049d81f f   choco:setconst.obj
 0001:0009c937       ?choco_awakeOnKer_SetUnion@@YAXPAVSetUnion@@H@Z 0049d937 f   choco:setconst.obj
 0001:0009ccdd       ?choco_awakeOnEnv_SetUnion@@YAXPAVSetUnion@@H@Z 0049dcdd f   choco:setconst.obj
 0001:0009d48d       ?choco_awakeOnInstSet_SetUnion@@YAXPAVSetUnion@@H@Z 0049e48d f   choco:setconst.obj
 0001:0009d4b2       ?choco_testIfSatisfied_SetUnion@@YAPAVClaireBoolean@@PAVSetUnion@@@Z 0049e4b2 f   choco:setconst.obj
 0001:0009d911       ?choco_propagate_SetUnion@@YAXPAVSetUnion@@@Z 0049e911 f   choco:setconst.obj
 0001:0009dfe8       ?choco_awake_SetUnion_choco@@YAXPAVSetUnion@@@Z 0049efe8 f   choco:setconst.obj
 0001:0009dff9       ?choco_setunion_SetVar@@YAPAVSetUnion@@PAVSetVar@@00@Z 0049eff9 f   choco:setconst.obj
 0001:0009e111       ?choco_awakeOnKer_SubSet@@YAXPAVSubSet@@H@Z 0049f111 f   choco:setconst.obj
 0001:0009e2a4       ?choco_awakeOnEnv_SubSet@@YAXPAVSubSet@@H@Z 0049f2a4 f   choco:setconst.obj
 0001:0009e49e       ?choco_awakeOnInstSet_SubSet@@YAXPAVSubSet@@H@Z 0049f49e f   choco:setconst.obj
 0001:0009e4c3       ?choco_askIfEntailed_SubSet@@YAHPAVSubSet@@@Z 0049f4c3 f   choco:setconst.obj
 0001:0009e7bd       ?choco_testIfSatisfied_SubSet@@YAPAVClaireBoolean@@PAVSubSet@@@Z 0049f7bd f   choco:setconst.obj
 0001:0009e9b0       ?choco_propagate_SubSet@@YAXPAVSubSet@@@Z 0049f9b0 f   choco:setconst.obj
 0001:0009ec2c       ?choco_awake_SubSet_choco@@YAXPAVSubSet@@@Z 0049fc2c f   choco:setconst.obj
 0001:0009ec3d       ?choco_subset_SetVar@@YAPAVSubSet@@PAVSetVar@@0@Z 0049fc3d f   choco:setconst.obj
 0001:0009ed4d       ?choco_awakeOnKer_DisjointSets@@YAXPAVDisjointSets@@H@Z 0049fd4d f   choco:setconst.obj
 0001:0009ef71       ?choco_awakeOnEnv_DisjointSets@@YAXPAVDisjointSets@@H@Z 0049ff71 f   choco:setconst.obj
 0001:0009ef76       ?choco_awakeOnInstSet_DisjointSets@@YAXPAVDisjointSets@@H@Z 0049ff76 f   choco:setconst.obj
 0001:0009ef8b       ?choco_askIfEntailed_DisjointSets@@YAHPAVDisjointSets@@@Z 0049ff8b f   choco:setconst.obj
 0001:0009f294       ?choco_testIfSatisfied_DisjointSets@@YAPAVClaireBoolean@@PAVDisjointSets@@@Z 004a0294 f   choco:setconst.obj
 0001:0009f4a4       ?choco_propagate_DisjointSets@@YAXPAVDisjointSets@@@Z 004a04a4 f   choco:setconst.obj
 0001:0009f6b9       ?choco_awake_DisjointSets_choco@@YAXPAVDisjointSets@@@Z 004a06b9 f   choco:setconst.obj
 0001:0009f6ca       ?choco_disjoint_SetVar@@YAPAVDisjointSets@@PAVSetVar@@0@Z 004a06ca f   choco:setconst.obj
 0001:0009f7da       ?choco_awakeOnKer_OverlappingSets@@YAXPAVOverlappingSets@@H@Z 004a07da f   choco:setconst.obj
 0001:0009fae7       ?choco_awakeOnEnv_OverlappingSets@@YAXPAVOverlappingSets@@H@Z 004a0ae7 f   choco:setconst.obj
 0001:0009fe3a       ?choco_awakeOnInstSet_OverlappingSets@@YAXPAVOverlappingSets@@H@Z 004a0e3a f   choco:setconst.obj
 0001:0009fe4f       ?choco_askIfEntailed_OverlappingSets@@YAHPAVOverlappingSets@@@Z 004a0e4f f   choco:setconst.obj
 0001:000a0158       ?choco_testIfSatisfied_OverlappingSets@@YAPAVClaireBoolean@@PAVOverlappingSets@@@Z 004a1158 f   choco:setconst.obj
 0001:000a0351       ?choco_propagate_OverlappingSets@@YAXPAVOverlappingSets@@@Z 004a1351 f   choco:setconst.obj
 0001:000a0364       ?choco_awake_OverlappingSets_choco@@YAXPAVOverlappingSets@@@Z 004a1364 f   choco:setconst.obj
 0001:000a0669       ?choco_overlap_SetVar@@YAPAVOverlappingSets@@PAVSetVar@@0@Z 004a1669 f   choco:setconst.obj
 0001:000a0779       ?choco_opposite_DisjointSets@@YAPAVOverlappingSets@@PAVDisjointSets@@@Z 004a1779 f   choco:setconst.obj
 0001:000a088e       ?choco_opposite_OverlappingSets@@YAPAVDisjointSets@@PAVOverlappingSets@@@Z 004a188e f   choco:setconst.obj
 0001:000a09b0       ?choco_closeBoolConstraint_BinCompositeConstraint@@YAXPAVBinCompositeConstraint@@@Z 004a19b0 f   choco:boolconst.obj
 0001:000a0aa0       ?choco_knownStatus_BinBoolConstraint@@YAPAVClaireBoolean@@PAVBinBoolConstraint@@H@Z 004a1aa0 f   choco:boolconst.obj
 0001:000a0abf       ?choco_getStatus_BinBoolConstraint@@YAPAVClaireBoolean@@PAVBinBoolConstraint@@H@Z 004a1abf f   choco:boolconst.obj
 0001:000a0ade       ?choco_knownTargetStatus_BinBoolConstraint@@YAPAVClaireBoolean@@PAVBinBoolConstraint@@H@Z 004a1ade f   choco:boolconst.obj
 0001:000a0afd       ?choco_getTargetStatus_BinBoolConstraint@@YAPAVClaireBoolean@@PAVBinBoolConstraint@@H@Z 004a1afd f   choco:boolconst.obj
 0001:000a0b1c       ?choco_setStatus_BinBoolConstraint@@YAXPAVBinBoolConstraint@@HPAVClaireBoolean@@@Z 004a1b1c f   choco:boolconst.obj
 0001:000a0ca2       ?choco_setTargetStatus_BinBoolConstraint@@YAXPAVBinBoolConstraint@@HPAVClaireBoolean@@@Z 004a1ca2 f   choco:boolconst.obj
 0001:000a0e2b       ?choco_closeBoolConstraint_LargeCompositeConstraint@@YAXPAVLargeCompositeConstraint@@@Z 004a1e2b f   choco:boolconst.obj
 0001:000a0e65       ?choco_knownStatus_LargeBoolConstraint@@YAPAVClaireBoolean@@PAVLargeBoolConstraint@@H@Z 004a1e65 f   choco:boolconst.obj
 0001:000a0ebb       ?choco_getStatus_LargeBoolConstraint@@YAPAVClaireBoolean@@PAVLargeBoolConstraint@@H@Z 004a1ebb f   choco:boolconst.obj
 0001:000a0f14       ?choco_knownTargetStatus_LargeBoolConstraint@@YAPAVClaireBoolean@@PAVLargeBoolConstraint@@H@Z 004a1f14 f   choco:boolconst.obj
 0001:000a0f6d       ?choco_getTargetStatus_LargeBoolConstraint@@YAPAVClaireBoolean@@PAVLargeBoolConstraint@@H@Z 004a1f6d f   choco:boolconst.obj
 0001:000a0fc6       ?choco_setStatus_LargeBoolConstraint@@YAXPAVLargeBoolConstraint@@HPAVClaireBoolean@@@Z 004a1fc6 f   choco:boolconst.obj
 0001:000a12ba       ?choco_setTargetStatus_LargeBoolConstraint@@YAXPAVLargeBoolConstraint@@HPAVClaireBoolean@@@Z 004a22ba f   choco:boolconst.obj
 0001:000a15b1       ?choco_assignIndices_BinBoolConstraintWCounterOpp@@YAHPAVBinBoolConstraintWCounterOpp@@PAVAbstractConstraint@@H@Z 004a25b1 f   choco:boolconst.obj
 0001:000a18cc       ?choco_closeBoolConstraintWCounterOpp_BinBoolConstraintWCounterOpp@@YAXPAVBinBoolConstraintWCounterOpp@@@Z 004a28cc f   choco:boolconst.obj
 0001:000a1c04       ?choco_assignIndices_LargeBoolConstraintWCounterOpp@@YAHPAVLargeBoolConstraintWCounterOpp@@PAVAbstractConstraint@@H@Z 004a2c04 f   choco:boolconst.obj
 0001:000a1ee2       ?choco_closeBoolConstraintWCounterOpp_LargeBoolConstraintWCounterOpp@@YAXPAVLargeBoolConstraintWCounterOpp@@@Z 004a2ee2 f   choco:boolconst.obj
 0001:000a2191       ?claire_self_print_Disjunction_choco@@YAXPAVDisjunction@@@Z 004a3191 f   choco:boolconst.obj
 0001:000a22dc       ?choco_checkStatus_Disjunction@@YAXPAVDisjunction@@H@Z 004a32dc f   choco:boolconst.obj
 0001:000a27f8       ?choco_awakeOnInf_Disjunction@@YAXPAVDisjunction@@H@Z 004a37f8 f   choco:boolconst.obj
 0001:000a29c7       ?choco_awakeOnSup_Disjunction@@YAXPAVDisjunction@@H@Z 004a39c7 f   choco:boolconst.obj
 0001:000a2b96       ?choco_awakeOnInst_Disjunction@@YAXPAVDisjunction@@H@Z 004a3b96 f   choco:boolconst.obj
 0001:000a2d65       ?choco_awakeOnRem_Disjunction@@YAXPAVDisjunction@@HH@Z 004a3d65 f   choco:boolconst.obj
 0001:000a2f3a       ?choco_awakeOnEnv_Disjunction@@YAXPAVDisjunction@@H@Z 004a3f3a f   choco:boolconst.obj
 0001:000a30eb       ?choco_awakeOnKer_Disjunction@@YAXPAVDisjunction@@H@Z 004a40eb f   choco:boolconst.obj
 0001:000a329c       ?choco_awakeOnInstSet_Disjunction@@YAXPAVDisjunction@@H@Z 004a429c f   choco:boolconst.obj
 0001:000a344d       ?choco_askIfEntailed_Disjunction@@YAHPAVDisjunction@@@Z 004a444d f   choco:boolconst.obj
 0001:000a39cf       ?choco_testIfSatisfied_Disjunction@@YAPAVClaireBoolean@@PAVDisjunction@@@Z 004a49cf f   choco:boolconst.obj
 0001:000a3b8f       ?choco_propagate_Disjunction@@YAXPAVDisjunction@@@Z 004a4b8f f   choco:boolconst.obj
 0001:000a3bcf       ?claire_self_print_Guard_choco@@YAXPAVGuard@@@Z 004a4bcf f   choco:boolconst.obj
 0001:000a3d1a       ?choco_checkStatus_Guard@@YAXPAVGuard@@H@Z 004a4d1a f   choco:boolconst.obj
 0001:000a4199       ?choco_awakeOnInf_Guard@@YAXPAVGuard@@H@Z 004a5199 f   choco:boolconst.obj
 0001:000a42e8       ?choco_awakeOnSup_Guard@@YAXPAVGuard@@H@Z 004a52e8 f   choco:boolconst.obj
 0001:000a4437       ?choco_awakeOnInst_Guard@@YAXPAVGuard@@H@Z 004a5437 f   choco:boolconst.obj
 0001:000a4586       ?choco_awakeOnRem_Guard@@YAXPAVGuard@@HH@Z 004a5586 f   choco:boolconst.obj
 0001:000a46d8       ?choco_awakeOnKer_Guard@@YAXPAVGuard@@H@Z 004a56d8 f   choco:boolconst.obj
 0001:000a4818       ?choco_awakeOnEnv_Guard@@YAXPAVGuard@@H@Z 004a5818 f   choco:boolconst.obj
 0001:000a4958       ?choco_awakeOnInstSet_Guard@@YAXPAVGuard@@H@Z 004a5958 f   choco:boolconst.obj
 0001:000a4a98       ?choco_propagate_Guard@@YAXPAVGuard@@@Z 004a5a98 f   choco:boolconst.obj
 0001:000a4bcb       ?choco_awake_Guard_choco@@YAXPAVGuard@@@Z 004a5bcb f   choco:boolconst.obj
 0001:000a4cf2       ?choco_askIfEntailed_Guard@@YAHPAVGuard@@@Z 004a5cf2 f   choco:boolconst.obj
 0001:000a5280       ?choco_testIfSatisfied_Guard@@YAPAVClaireBoolean@@PAVGuard@@@Z 004a6280 f   choco:boolconst.obj
 0001:000a543a       ?claire_self_print_Equiv_choco@@YAXPAVEquiv@@@Z 004a643a f   choco:boolconst.obj
 0001:000a5585       ?choco_checkStatus_Equiv@@YAXPAVEquiv@@H@Z 004a6585 f   choco:boolconst.obj
 0001:000a5adb       ?choco_awakeOnInf_Equiv@@YAXPAVEquiv@@H@Z 004a6adb f   choco:boolconst.obj
 0001:000a5d7f       ?choco_awakeOnSup_Equiv@@YAXPAVEquiv@@H@Z 004a6d7f f   choco:boolconst.obj
 0001:000a6023       ?choco_awakeOnInst_Equiv@@YAXPAVEquiv@@H@Z 004a7023 f   choco:boolconst.obj
 0001:000a62c7       ?choco_awakeOnRem_Equiv@@YAXPAVEquiv@@HH@Z 004a72c7 f   choco:boolconst.obj
 0001:000a657b       ?choco_awakeOnKer_Equiv@@YAXPAVEquiv@@H@Z 004a757b f   choco:boolconst.obj
 0001:000a67df       ?choco_awakeOnEnv_Equiv@@YAXPAVEquiv@@H@Z 004a77df f   choco:boolconst.obj
 0001:000a6a43       ?choco_awakeOnInstSet_Equiv@@YAXPAVEquiv@@H@Z 004a7a43 f   choco:boolconst.obj
 0001:000a6ca7       ?choco_propagate_Equiv@@YAXPAVEquiv@@@Z 004a7ca7 f   choco:boolconst.obj
 0001:000a6f0f       ?choco_askIfEntailed_Equiv@@YAHPAVEquiv@@@Z 004a7f0f f   choco:boolconst.obj
 0001:000a748c       ?choco_testIfSatisfied_Equiv@@YAPAVClaireBoolean@@PAVEquiv@@@Z 004a848c f   choco:boolconst.obj
 0001:000a7621       ?claire_self_print_Conjunction_choco@@YAXPAVConjunction@@@Z 004a8621 f   choco:boolconst.obj
 0001:000a776c       ?choco_awakeOnInf_Conjunction@@YAXPAVConjunction@@H@Z 004a876c f   choco:boolconst.obj
 0001:000a78d5       ?choco_awakeOnSup_Conjunction@@YAXPAVConjunction@@H@Z 004a88d5 f   choco:boolconst.obj
 0001:000a7a3e       ?choco_awakeOnInst_Conjunction@@YAXPAVConjunction@@H@Z 004a8a3e f   choco:boolconst.obj
 0001:000a7ba7       ?choco_awakeOnRem_Conjunction@@YAXPAVConjunction@@HH@Z 004a8ba7 f   choco:boolconst.obj
 0001:000a7d15       ?choco_awakeOnKer_Conjunction@@YAXPAVConjunction@@H@Z 004a8d15 f   choco:boolconst.obj
 0001:000a7e60       ?choco_awakeOnEnv_Conjunction@@YAXPAVConjunction@@H@Z 004a8e60 f   choco:boolconst.obj
 0001:000a7fab       ?choco_awakeOnInstSet_Conjunction@@YAXPAVConjunction@@H@Z 004a8fab f   choco:boolconst.obj
 0001:000a80f6       ?choco_propagate_Conjunction@@YAXPAVConjunction@@@Z 004a90f6 f   choco:boolconst.obj
 0001:000a823e       ?choco_awake_Conjunction_choco@@YAXPAVConjunction@@@Z 004a923e f   choco:boolconst.obj
 0001:000a8368       ?choco_askIfEntailed_Conjunction@@YAHPAVConjunction@@@Z 004a9368 f   choco:boolconst.obj
 0001:000a88df       ?choco_testIfSatisfied_Conjunction@@YAPAVClaireBoolean@@PAVConjunction@@@Z 004a98df f   choco:boolconst.obj
 0001:000a8aa0       ?claire_self_print_LargeConjunction_choco@@YAXPAVLargeConjunction@@@Z 004a9aa0 f   choco:boolconst.obj
 0001:000a8b33       ?choco_awakeOnInf_LargeConjunction@@YAXPAVLargeConjunction@@H@Z 004a9b33 f   choco:boolconst.obj
 0001:000a8cd7       ?choco_awakeOnSup_LargeConjunction@@YAXPAVLargeConjunction@@H@Z 004a9cd7 f   choco:boolconst.obj
 0001:000a8e7b       ?choco_awakeOnInst_LargeConjunction@@YAXPAVLargeConjunction@@H@Z 004a9e7b f   choco:boolconst.obj
 0001:000a901f       ?choco_awakeOnRem_LargeConjunction@@YAXPAVLargeConjunction@@HH@Z 004aa01f f   choco:boolconst.obj
 0001:000a91c8       ?choco_awakeOnKer_LargeConjunction@@YAXPAVLargeConjunction@@H@Z 004aa1c8 f   choco:boolconst.obj
 0001:000a935d       ?choco_awakeOnEnv_LargeConjunction@@YAXPAVLargeConjunction@@H@Z 004aa35d f   choco:boolconst.obj
 0001:000a94f2       ?choco_awakeOnInstSet_LargeConjunction@@YAXPAVLargeConjunction@@H@Z 004aa4f2 f   choco:boolconst.obj
 0001:000a9687       ?choco_propagate_LargeConjunction@@YAXPAVLargeConjunction@@@Z 004aa687 f   choco:boolconst.obj
 0001:000a9815       ?choco_awake_LargeConjunction_choco@@YAXPAVLargeConjunction@@@Z 004aa815 f   choco:boolconst.obj
 0001:000a9993       ?choco_askIfEntailed_LargeConjunction@@YAHPAVLargeConjunction@@@Z 004aa993 f   choco:boolconst.obj
 0001:000aa0f6       ?choco_testIfSatisfied_LargeConjunction@@YAPAVClaireBoolean@@PAVLargeConjunction@@@Z 004ab0f6 f   choco:boolconst.obj
 0001:000aa2a9       ?claire_self_print_LargeDisjunction_choco@@YAXPAVLargeDisjunction@@@Z 004ab2a9 f   choco:boolconst.obj
 0001:000aa33c       ?choco_checkNbFalseStatus_LargeDisjunction@@YAXPAVLargeDisjunction@@@Z 004ab33c f   choco:boolconst.obj
 0001:000aa857       ?choco_checkStatus_LargeDisjunction@@YAXPAVLargeDisjunction@@H@Z 004ab857 f   choco:boolconst.obj
 0001:000aaf39       ?choco_awakeOnInf_LargeDisjunction@@YAXPAVLargeDisjunction@@H@Z 004abf39 f   choco:boolconst.obj
 0001:000ab21a       ?choco_awakeOnSup_LargeDisjunction@@YAXPAVLargeDisjunction@@H@Z 004ac21a f   choco:boolconst.obj
 0001:000ab4fb       ?choco_awakeOnInst_LargeDisjunction@@YAXPAVLargeDisjunction@@H@Z 004ac4fb f   choco:boolconst.obj
 0001:000ab7dc       ?choco_awakeOnRem_LargeDisjunction@@YAXPAVLargeDisjunction@@HH@Z 004ac7dc f   choco:boolconst.obj
 0001:000abac2       ?choco_awakeOnKer_LargeDisjunction@@YAXPAVLargeDisjunction@@H@Z 004acac2 f   choco:boolconst.obj
 0001:000abd95       ?choco_awakeOnEnv_LargeDisjunction@@YAXPAVLargeDisjunction@@H@Z 004acd95 f   choco:boolconst.obj
 0001:000ac068       ?choco_awakeOnInstSet_LargeDisjunction@@YAXPAVLargeDisjunction@@H@Z 004ad068 f   choco:boolconst.obj
 0001:000ac33b       ?choco_askIfEntailed_LargeDisjunction@@YAHPAVLargeDisjunction@@@Z 004ad33b f   choco:boolconst.obj
 0001:000ac54e       ?choco_testIfSatisfied_LargeDisjunction@@YAPAVClaireBoolean@@PAVLargeDisjunction@@@Z 004ad54e f   choco:boolconst.obj
 0001:000ac709       ?choco_propagate_LargeDisjunction@@YAXPAVLargeDisjunction@@@Z 004ad709 f   choco:boolconst.obj
 0001:000ac7be       ?choco_awake_LargeDisjunction_choco@@YAXPAVLargeDisjunction@@@Z 004ad7be f   choco:boolconst.obj
 0001:000ac7db       ?choco_getCardVar_Cardinality@@YAPAVIntVar@@PAVCardinality@@@Z 004ad7db f   choco:boolconst.obj
 0001:000ac7ff       ?choco_getCardVarIdx_Cardinality@@YAHPAVCardinality@@@Z 004ad7ff f   choco:boolconst.obj
 0001:000ac813       ?claire_self_print_Cardinality_choco@@YAXPAVCardinality@@@Z 004ad813 f   choco:boolconst.obj
 0001:000ac9b4       ?choco_awakeOnNbTrue_Cardinality@@YAXPAVCardinality@@@Z 004ad9b4 f   choco:boolconst.obj
 0001:000acb07       ?choco_awakeOnNbFalse_Cardinality@@YAXPAVCardinality@@@Z 004adb07 f   choco:boolconst.obj
 0001:000acc5f       ?choco_checkStatus_Cardinality@@YAXPAVCardinality@@H@Z 004adc5f f   choco:boolconst.obj
 0001:000ad293       ?choco_awakeOnInf_Cardinality@@YAXPAVCardinality@@H@Z 004ae293 f   choco:boolconst.obj
 0001:000ad596       ?choco_awakeOnSup_Cardinality@@YAXPAVCardinality@@H@Z 004ae596 f   choco:boolconst.obj
 0001:000ad899       ?choco_awakeOnInst_Cardinality@@YAXPAVCardinality@@H@Z 004ae899 f   choco:boolconst.obj
 0001:000adba7       ?choco_awakeOnRem_Cardinality@@YAXPAVCardinality@@HH@Z 004aeba7 f   choco:boolconst.obj
 0001:000adea4       ?choco_awakeOnKer_Cardinality@@YAXPAVCardinality@@H@Z 004aeea4 f   choco:boolconst.obj
 0001:000ae165       ?choco_awakeOnEnv_Cardinality@@YAXPAVCardinality@@H@Z 004af165 f   choco:boolconst.obj
 0001:000ae426       ?choco_awakeOnInstSet_Cardinality@@YAXPAVCardinality@@H@Z 004af426 f   choco:boolconst.obj
 0001:000ae6e7       ?choco_awake_Cardinality_choco@@YAXPAVCardinality@@@Z 004af6e7 f   choco:boolconst.obj
 0001:000ae799       ?choco_propagate_Cardinality@@YAXPAVCardinality@@@Z 004af799 f   choco:boolconst.obj
 0001:000ae866       ?choco_testIfSatisfied_Cardinality@@YAPAVClaireBoolean@@PAVCardinality@@@Z 004af866 f   choco:boolconst.obj
 0001:000aeb96       ?choco_askIfEntailed_Cardinality@@YAHPAVCardinality@@@Z 004afb96 f   choco:boolconst.obj
 0001:000af682       ?choco_opposite_Guard@@YAPAVConjunction@@PAVGuard@@@Z 004b0682 f   choco:boolconst.obj
 0001:000af813       ?choco_opposite_Conjunction@@YAPAVDisjunction@@PAVConjunction@@@Z 004b0813 f   choco:boolconst.obj
 0001:000afa04       ?choco_opposite_Disjunction@@YAPAVConjunction@@PAVDisjunction@@@Z 004b0a04 f   choco:boolconst.obj
 0001:000afbf5       ?choco_opposite_LargeDisjunction@@YAPAVLargeConjunction@@PAVLargeDisjunction@@@Z 004b0bf5 f   choco:boolconst.obj
 0001:000afdb3       ?choco_opposite_LargeConjunction@@YAPAVLargeDisjunction@@PAVLargeConjunction@@@Z 004b0db3 f   choco:boolconst.obj
 0001:000aff71       ?choco_opposite_GreaterOrEqualxc@@YAPAVLessOrEqualxc@@PAVGreaterOrEqualxc@@@Z 004b0f71 f   choco:boolconst.obj
 0001:000b0089       ?choco_opposite_LessOrEqualxc@@YAPAVGreaterOrEqualxc@@PAVLessOrEqualxc@@@Z 004b1089 f   choco:boolconst.obj
 0001:000b01a1       ?choco_opposite_Equalxc@@YAPAVNotEqualxc@@PAVEqualxc@@@Z 004b11a1 f   choco:boolconst.obj
 0001:000b02b6       ?choco_opposite_NotEqualxc@@YAPAVEqualxc@@PAVNotEqualxc@@@Z 004b12b6 f   choco:boolconst.obj
 0001:000b03cb       ?choco_opposite_Equalxyc@@YAPAVNotEqualxyc@@PAVEqualxyc@@@Z 004b13cb f   choco:boolconst.obj
 0001:000b04ec       ?choco_opposite_NotEqualxyc@@YAPAVEqualxyc@@PAVNotEqualxyc@@@Z 004b14ec f   choco:boolconst.obj
 0001:000b060d       ?choco_opposite_GreaterOrEqualxyc@@YAPAVGreaterOrEqualxyc@@PAV1@@Z 004b160d f   choco:boolconst.obj
 0001:000b0733       ?choco_computeVarIdxInOpposite_GreaterOrEqualxyc@@YAHPAVGreaterOrEqualxyc@@H@Z 004b1733 f   choco:boolconst.obj
 0001:000b0755       ?choco_computeVarIdxInOpposite_AbstractConstraint@@YAHPAVAbstractConstraint@@H@Z 004b1755 f   choco:boolconst.obj
 0001:000b07b3       ?choco_computeVarIdxInOpposite_IntConstraint@@YAHPAVIntConstraint@@H@Z 004b17b3 f   choco:boolconst.obj
 0001:000b07bb       ?choco_computeVarIdxInOpposite_BinCompositeConstraint@@YAHPAVBinCompositeConstraint@@H@Z 004b17bb f   choco:boolconst.obj
 0001:000b0927       ?choco_computeVarIdxInOpposite_LargeCompositeConstraint@@YAHPAVLargeCompositeConstraint@@H@Z 004b1927 f   choco:boolconst.obj
 0001:000b0b60       ?claire_self_print_Elt_choco@@YAXPAVElt@@@Z 004b1b60 f   choco:intconst2.obj
 0001:000b0ce0       ?choco_makeEltConstraint_list@@YAPAVElt@@PAVlist@@PAVIntVar@@1H@Z 004b1ce0 f   choco:intconst2.obj
 0001:000b0e0a       ?choco_updateValueFromIndex_Elt@@YAXPAVElt@@@Z 004b1e0a f   choco:intconst2.obj
 0001:000b1d39       ?choco_updateIndexFromValue_Elt@@YAXPAVElt@@@Z 004b2d39 f   choco:intconst2.obj
 0001:000b20fe       ?choco_awake_Elt_choco@@YAXPAVElt@@@Z 004b30fe f   choco:intconst2.obj
 0001:000b2288       ?choco_propagate_Elt@@YAXPAVElt@@@Z 004b3288 f   choco:intconst2.obj
 0001:000b22a5       ?choco_awakeOnInf_Elt@@YAXPAVElt@@H@Z 004b32a5 f   choco:intconst2.obj
 0001:000b22ca       ?choco_awakeOnSup_Elt@@YAXPAVElt@@H@Z 004b32ca f   choco:intconst2.obj
 0001:000b22ef       ?choco_awakeOnInst_Elt@@YAXPAVElt@@H@Z 004b32ef f   choco:intconst2.obj
 0001:000b241d       ?choco_awakeOnRem_Elt@@YAXPAVElt@@HH@Z 004b341d f   choco:intconst2.obj
 0001:000b2442       ?choco_askIfEntailed_Elt@@YAHPAVElt@@@Z 004b3442 f   choco:intconst2.obj
 0001:000b2bee       ?choco_testIfSatisfied_Elt@@YAPAVClaireBoolean@@PAVElt@@@Z 004b3bee f   choco:intconst2.obj
 0001:000b2c23       ?claire_self_print_Elt2_choco@@YAXPAVElt2@@@Z 004b3c23 f   choco:intconst2.obj
 0001:000b2dcc       ?choco_makeElt2Constraint_table@@YAPAVElt2@@PAVtable@@HHPAVIntVar@@11@Z 004b3dcc f   choco:intconst2.obj
 0001:000b2f0a       ?choco_updateValueFromIndex_Elt2@@YAXPAVElt2@@@Z 004b3f0a f   choco:intconst2.obj
 0001:000b3b3b       ?choco_updateIndexFromValue_Elt2@@YAXPAVElt2@@@Z 004b4b3b f   choco:intconst2.obj
 0001:000b6576       ?choco_awake_Elt2_choco@@YAXPAVElt2@@@Z 004b7576 f   choco:intconst2.obj
 0001:000b8e20       ?choco_propagate_Elt2@@YAXPAVElt2@@@Z 004b9e20 f   choco:intconst2.obj
 0001:000b8e3d       ?choco_awakeOnInf_Elt2@@YAXPAVElt2@@H@Z 004b9e3d f   choco:intconst2.obj
 0001:000b8e62       ?choco_awakeOnSup_Elt2@@YAXPAVElt2@@H@Z 004b9e62 f   choco:intconst2.obj
 0001:000b8e87       ?choco_awakeOnInst_Elt2@@YAXPAVElt2@@H@Z 004b9e87 f   choco:intconst2.obj
 0001:000b8eac       ?choco_awakeOnRem_Elt2@@YAXPAVElt2@@HH@Z 004b9eac f   choco:intconst2.obj
 0001:000b9132       ?choco_askIfEntailed_Elt2@@YAHPAVElt2@@@Z 004ba132 f   choco:intconst2.obj
 0001:000bab59       ?choco_testIfSatisfied_Elt2@@YAPAVClaireBoolean@@PAVElt2@@@Z 004bbb59 f   choco:intconst2.obj
 0001:000bab94       ?claire_self_print_AllDiff_choco@@YAXPAVAllDiff@@@Z 004bbb94 f   choco:intconst2.obj
 0001:000bacab       ?choco_awakeOnInf_AllDiff@@YAXPAVAllDiff@@H@Z 004bbcab f   choco:intconst2.obj
 0001:000bacb0       ?choco_awakeOnSup_AllDiff@@YAXPAVAllDiff@@H@Z 004bbcb0 f   choco:intconst2.obj
 0001:000bacb5       ?choco_awakeOnRem_AllDiff@@YAXPAVAllDiff@@HH@Z 004bbcb5 f   choco:intconst2.obj
 0001:000bacba       ?choco_awakeOnInst_AllDiff@@YAXPAVAllDiff@@H@Z 004bbcba f   choco:intconst2.obj
 0001:000bae6c       ?choco_propagate_AllDiff@@YAXPAVAllDiff@@@Z 004bbe6c f   choco:intconst2.obj
 0001:000bb084       ?choco_testIfSatisfied_AllDiff@@YAPAVClaireBoolean@@PAVAllDiff@@@Z 004bc084 f   choco:intconst2.obj
 0001:000bb141       ?choco_askIfEntailed_AllDiff@@YAHPAVAllDiff@@@Z 004bc141 f   choco:intconst2.obj
 0001:000bb2db       ?claire_self_print_Occurrence_choco@@YAXPAVOccurrence@@@Z 004bc2db f   choco:intconst2.obj
 0001:000bb4f8       ?choco_checkNbPossible_Occurrence_choco@@YAXPAVOccurrence@@@Z 004bc4f8 f   choco:intconst2.obj
 0001:000bb6e4       ?choco_checkNbSure_Occurrence_choco@@YAXPAVOccurrence@@@Z 004bc6e4 f   choco:intconst2.obj
 0001:000bb90a       ?choco_update_Occurrence@@YAXPAVOccurrence@@@Z 004bc90a f   choco:intconst2.obj
 0001:000bb94a       ?choco_propagate_Occurrence@@YAXPAVOccurrence@@@Z 004bc94a f   choco:intconst2.obj
 0001:000bbf3c       ?choco_awake_Occurrence_choco@@YAXPAVOccurrence@@@Z 004bcf3c f   choco:intconst2.obj
 0001:000bc001       ?choco_awakeOnInf_Occurrence@@YAXPAVOccurrence@@H@Z 004bd001 f   choco:intconst2.obj
 0001:000bc361       ?choco_awakeOnSup_Occurrence@@YAXPAVOccurrence@@H@Z 004bd361 f   choco:intconst2.obj
 0001:000bc6c1       ?choco_awakeOnInst_Occurrence@@YAXPAVOccurrence@@H@Z 004bd6c1 f   choco:intconst2.obj
 0001:000bcba7       ?choco_awakeOnRem_Occurrence@@YAXPAVOccurrence@@HH@Z 004bdba7 f   choco:intconst2.obj
 0001:000bce31       ?choco_testIfSatisfied_Occurrence@@YAPAVClaireBoolean@@PAVOccurrence@@@Z 004bde31 f   choco:intconst2.obj
 0001:000bcee4       ?choco_askIfEntailed_Occurrence@@YAHPAVOccurrence@@@Z 004bdee4 f   choco:intconst2.obj
 0001:000bd190       ?choco_getTruthValue_BinRelation@@YAPAVClaireBoolean@@PAVBinRelation@@HH@Z 004be190 f   choco:intconst1.obj
 0001:000bd1f4       ?choco_getTruthValue_TruthTest@@YAPAVClaireBoolean@@PAVTruthTest@@HH@Z 004be1f4 f   choco:intconst1.obj
 0001:000bd21f       ?claire_self_print_TruthTest_choco@@YAXPAVTruthTest@@@Z 004be21f f   choco:intconst1.obj
 0001:000bd25f       ?choco_getTruthValue_TruthTable2D@@YAPAVClaireBoolean@@PAVTruthTable2D@@HH@Z 004be25f f   choco:intconst1.obj
 0001:000bd35e       ?choco_setTruePair_TruthTable2D@@YAXPAVTruthTable2D@@HH@Z 004be35e f   choco:intconst1.obj
 0001:000bd45c       ?claire_self_print_TruthTable2D_choco@@YAXPAVTruthTable2D@@@Z 004be45c f   choco:intconst1.obj
 0001:000bd4a6       ?claire_self_print_CSPBinConstraint_choco@@YAXPAVCSPBinConstraint@@@Z 004be4a6 f   choco:intconst1.obj
 0001:000bd66d       ?choco_testIfSatisfied_CSPBinConstraint@@YAPAVClaireBoolean@@PAVCSPBinConstraint@@@Z 004be66d f   choco:intconst1.obj
 0001:000bd7d5       ?choco_opposite_CSPBinConstraint@@YAPAVCSPBinConstraint@@PAV1@@Z 004be7d5 f   choco:intconst1.obj
 0001:000bd8f3       ?choco_awakeOnInst_CSPBinConstraint@@YAXPAVCSPBinConstraint@@H@Z 004be8f3 f   choco:intconst1.obj
 0001:000bdfe3       ?choco_see_CSPBinConstraint@@YAXPAVCSPBinConstraint@@@Z 004befe3 f   choco:intconst1.obj
 0001:000bef04       ?choco_makeAC3BinConstraint_IntVar@@YAPAVAC3BinConstraint@@PAVIntVar@@0PAVClaireBoolean@@PAVBinRelation@@@Z 004bff04 f   choco:intconst1.obj
 0001:000bf02f       ?choco_reviseV2_AC3BinConstraint@@YAXPAVAC3BinConstraint@@@Z 004c002f f   choco:intconst1.obj
 0001:000bfc4f       ?choco_reviseV1_AC3BinConstraint@@YAXPAVAC3BinConstraint@@@Z 004c0c4f f   choco:intconst1.obj
 0001:000c086f       ?choco_awakeOnInf_AC3BinConstraint@@YAXPAVAC3BinConstraint@@H@Z 004c186f f   choco:intconst1.obj
 0001:000c2236       ?choco_awakeOnSup_AC3BinConstraint@@YAXPAVAC3BinConstraint@@H@Z 004c3236 f   choco:intconst1.obj
 0001:000c3bfd       ?choco_awakeOnRem_AC3BinConstraint@@YAXPAVAC3BinConstraint@@HH@Z 004c4bfd f   choco:intconst1.obj
 0001:000c55c1       ?choco_awakeOnVar_AC3BinConstraint@@YAXPAVAC3BinConstraint@@H@Z 004c65c1 f   choco:intconst1.obj
 0001:000c6f88       ?choco_propagate_AC3BinConstraint@@YAXPAVAC3BinConstraint@@@Z 004c7f88 f   choco:intconst1.obj
 0001:000c8940       ?choco_makeAC4BinConstraint_IntVar@@YAPAVAC4BinConstraint@@PAVIntVar@@0PAVClaireBoolean@@PAVBinRelation@@@Z 004c9940 f   choco:intconst1.obj
 0001:000c9352       ?choco_decrementNbSupportV1_AC4BinConstraint@@YAXPAVAC4BinConstraint@@H@Z 004ca352 f   choco:intconst1.obj
 0001:000c95a8       ?choco_decrementNbSupportV2_AC4BinConstraint@@YAXPAVAC4BinConstraint@@H@Z 004ca5a8 f   choco:intconst1.obj
 0001:000c97fe       ?choco_resetNbSupportV1_AC4BinConstraint@@YAXPAVAC4BinConstraint@@H@Z 004ca7fe f   choco:intconst1.obj
 0001:000c9caa       ?choco_resetNbSupportV2_AC4BinConstraint@@YAXPAVAC4BinConstraint@@H@Z 004cacaa f   choco:intconst1.obj
 0001:000ca156       ?choco_propagate_AC4BinConstraint@@YAXPAVAC4BinConstraint@@@Z 004cb156 f   choco:intconst1.obj
 0001:000ca5ab       ?choco_awakeOnRem_AC4BinConstraint@@YAXPAVAC4BinConstraint@@HH@Z 004cb5ab f   choco:intconst1.obj
 0001:000cab61       ?choco_awakeOnInst_AC4BinConstraint@@YAXPAVAC4BinConstraint@@H@Z 004cbb61 f   choco:intconst1.obj
 0001:000cb14c       ?choco_awakeOnInf_AC4BinConstraint@@YAXPAVAC4BinConstraint@@H@Z 004cc14c f   choco:intconst1.obj
 0001:000cb7b0       ?choco_awakeOnSup_AC4BinConstraint@@YAXPAVAC4BinConstraint@@H@Z 004cc7b0 f   choco:intconst1.obj
 0001:000cbe14       ?choco_awakeOnVar_AC4BinConstraint@@YAXPAVAC4BinConstraint@@H@Z 004cce14 f   choco:intconst1.obj
 0001:000cc3d6       ?choco_makeAC2001BinConstraint_IntVar@@YAPAVAC2001BinConstraint@@PAVIntVar@@0PAVClaireBoolean@@PAVBinRelation@@@Z 004cd3d6 f   choco:intconst1.obj
 0001:000cc56d       ?choco_reviseV2_AC2001BinConstraint@@YAXPAVAC2001BinConstraint@@@Z 004cd56d f   choco:intconst1.obj
 0001:000cc970       ?choco_reviseV1_AC2001BinConstraint@@YAXPAVAC2001BinConstraint@@@Z 004cd970 f   choco:intconst1.obj
 0001:000ccd73       ?choco_updateSupportVal1_AC2001BinConstraint@@YAXPAVAC2001BinConstraint@@H@Z 004cdd73 f   choco:intconst1.obj
 0001:000cd085       ?choco_updateSupportVal2_AC2001BinConstraint@@YAXPAVAC2001BinConstraint@@H@Z 004ce085 f   choco:intconst1.obj
 0001:000cd397       ?choco_awakeOnInf_AC2001BinConstraint@@YAXPAVAC2001BinConstraint@@H@Z 004ce397 f   choco:intconst1.obj
 0001:000cdad3       ?choco_awakeOnSup_AC2001BinConstraint@@YAXPAVAC2001BinConstraint@@H@Z 004cead3 f   choco:intconst1.obj
 0001:000ce20f       ?choco_awakeOnInst_AC2001BinConstraint@@YAXPAVAC2001BinConstraint@@H@Z 004cf20f f   choco:intconst1.obj
 0001:000ce8fc       ?choco_awakeOnRem_AC2001BinConstraint@@YAXPAVAC2001BinConstraint@@HH@Z 004cf8fc f   choco:intconst1.obj
 0001:000cf038       ?choco_awakeOnVar_AC2001BinConstraint@@YAXPAVAC2001BinConstraint@@H@Z 004d0038 f   choco:intconst1.obj
 0001:000cf774       ?choco_propagate_AC2001BinConstraint@@YAXPAVAC2001BinConstraint@@@Z 004d0774 f   choco:intconst1.obj
 0001:000cfea0       ?choco_awake_AC2001BinConstraint_choco@@YAXPAVAC2001BinConstraint@@@Z 004d0ea0 f   choco:intconst1.obj
 0001:000d1eb6       ?choco_tupleConstraint_list@@YAPAVCSPLargeConstraint@@PAVlist@@PAVClaireBoolean@@0@Z 004d2eb6 f   choco:intconst1.obj
 0001:000d2150       ?choco_awakeOnInf_CSPLargeConstraint@@YAXPAVCSPLargeConstraint@@H@Z 004d3150 f   choco:intconst1.obj
 0001:000d2167       ?choco_awakeOnSup_CSPLargeConstraint@@YAXPAVCSPLargeConstraint@@H@Z 004d3167 f   choco:intconst1.obj
 0001:000d217e       ?choco_awakeOnRem_CSPLargeConstraint@@YAXPAVCSPLargeConstraint@@HH@Z 004d317e f   choco:intconst1.obj
 0001:000d2195       ?choco_awakeOnInst_CSPLargeConstraint@@YAXPAVCSPLargeConstraint@@H@Z 004d3195 f   choco:intconst1.obj
 0001:000d21ac       ?choco_propagate_CSPLargeConstraint@@YAXPAVCSPLargeConstraint@@@Z 004d31ac f   choco:intconst1.obj
 0001:000d2e15       ?claire_self_print_GreaterOrEqualxc_choco@@YAXPAVGreaterOrEqualxc@@@Z 004d3e15 f   choco:intconst1.obj
 0001:000d2e55       ?claire_self_print_LessOrEqualxc_choco@@YAXPAVLessOrEqualxc@@@Z 004d3e55 f   choco:intconst1.obj
 0001:000d2e95       ?claire_self_print_Equalxc_choco@@YAXPAVEqualxc@@@Z 004d3e95 f   choco:intconst1.obj
 0001:000d2ed5       ?claire_self_print_NotEqualxc_choco@@YAXPAVNotEqualxc@@@Z 004d3ed5 f   choco:intconst1.obj
 0001:000d2f15       ?choco_awakeOnInf_Equalxc@@YAXPAVEqualxc@@H@Z 004d3f15 f   choco:intconst1.obj
 0001:000d3013       ?choco_awakeOnSup_Equalxc@@YAXPAVEqualxc@@H@Z 004d4013 f   choco:intconst1.obj
 0001:000d3111       ?choco_awakeOnInst_Equalxc@@YAXPAVEqualxc@@H@Z 004d4111 f   choco:intconst1.obj
 0001:000d320f       ?choco_propagate_Equalxc@@YAXPAVEqualxc@@@Z 004d420f f   choco:intconst1.obj
 0001:000d330d       ?choco_askIfEntailed_Equalxc@@YAHPAVEqualxc@@@Z 004d430d f   choco:intconst1.obj
 0001:000d348c       ?choco_testIfSatisfied_Equalxc@@YAPAVClaireBoolean@@PAVEqualxc@@@Z 004d448c f   choco:intconst1.obj
 0001:000d34aa       ?choco_awakeOnInf_GreaterOrEqualxc@@YAXPAVGreaterOrEqualxc@@H@Z 004d44aa f   choco:intconst1.obj
 0001:000d35c5       ?choco_awakeOnSup_GreaterOrEqualxc@@YAXPAVGreaterOrEqualxc@@H@Z 004d45c5 f   choco:intconst1.obj
 0001:000d36e0       ?choco_awakeOnInst_GreaterOrEqualxc@@YAXPAVGreaterOrEqualxc@@H@Z 004d46e0 f   choco:intconst1.obj
 0001:000d37f0       ?choco_propagate_GreaterOrEqualxc@@YAXPAVGreaterOrEqualxc@@@Z 004d47f0 f   choco:intconst1.obj
 0001:000d390b       ?choco_askIfEntailed_GreaterOrEqualxc@@YAHPAVGreaterOrEqualxc@@@Z 004d490b f   choco:intconst1.obj
 0001:000d3a47       ?choco_testIfSatisfied_GreaterOrEqualxc@@YAPAVClaireBoolean@@PAVGreaterOrEqualxc@@@Z 004d4a47 f   choco:intconst1.obj
 0001:000d3a65       ?choco_awakeOnInf_LessOrEqualxc@@YAXPAVLessOrEqualxc@@H@Z 004d4a65 f   choco:intconst1.obj
 0001:000d3b80       ?choco_awakeOnSup_LessOrEqualxc@@YAXPAVLessOrEqualxc@@H@Z 004d4b80 f   choco:intconst1.obj
 0001:000d3c9b       ?choco_awakeOnInst_LessOrEqualxc@@YAXPAVLessOrEqualxc@@H@Z 004d4c9b f   choco:intconst1.obj
 0001:000d3dab       ?choco_propagate_LessOrEqualxc@@YAXPAVLessOrEqualxc@@@Z 004d4dab f   choco:intconst1.obj
 0001:000d3ec6       ?choco_askIfEntailed_LessOrEqualxc@@YAHPAVLessOrEqualxc@@@Z 004d4ec6 f   choco:intconst1.obj
 0001:000d4002       ?choco_testIfSatisfied_LessOrEqualxc@@YAPAVClaireBoolean@@PAVLessOrEqualxc@@@Z 004d5002 f   choco:intconst1.obj
 0001:000d4020       ?choco_awakeOnInf_NotEqualxc@@YAXPAVNotEqualxc@@H@Z 004d5020 f   choco:intconst1.obj
 0001:000d4130       ?choco_awakeOnSup_NotEqualxc@@YAXPAVNotEqualxc@@H@Z 004d5130 f   choco:intconst1.obj
 0001:000d4240       ?choco_awakeOnInst_NotEqualxc@@YAXPAVNotEqualxc@@H@Z 004d5240 f   choco:intconst1.obj
 0001:000d4265       ?choco_propagate_NotEqualxc@@YAXPAVNotEqualxc@@@Z 004d5265 f   choco:intconst1.obj
 0001:000d4375       ?choco_askIfEntailed_NotEqualxc@@YAHPAVNotEqualxc@@@Z 004d5375 f   choco:intconst1.obj
 0001:000d44f4       ?choco_testIfSatisfied_NotEqualxc@@YAPAVClaireBoolean@@PAVNotEqualxc@@@Z 004d54f4 f   choco:intconst1.obj
 0001:000d4512       ?claire_self_print_Equalxyc_choco@@YAXPAVEqualxyc@@@Z 004d5512 f   choco:intconst1.obj
 0001:000d4571       ?claire_self_print_NotEqualxyc_choco@@YAXPAVNotEqualxyc@@@Z 004d5571 f   choco:intconst1.obj
 0001:000d45d0       ?claire_self_print_GreaterOrEqualxyc_choco@@YAXPAVGreaterOrEqualxyc@@@Z 004d55d0 f   choco:intconst1.obj
 0001:000d462f       ?choco_propagate_Equalxyc@@YAXPAVEqualxyc@@@Z 004d562f f   choco:intconst1.obj
 0001:000d4ec7       ?choco_askIfEntailed_Equalxyc@@YAHPAVEqualxyc@@@Z 004d5ec7 f   choco:intconst1.obj
 0001:000d4f8b       ?choco_testIfSatisfied_Equalxyc@@YAPAVClaireBoolean@@PAVEqualxyc@@@Z 004d5f8b f   choco:intconst1.obj
 0001:000d4fb2       ?choco_awakeOnInf_Equalxyc@@YAXPAVEqualxyc@@H@Z 004d5fb2 f   choco:intconst1.obj
 0001:000d511d       ?choco_awakeOnSup_Equalxyc@@YAXPAVEqualxyc@@H@Z 004d611d f   choco:intconst1.obj
 0001:000d5288       ?choco_awakeOnInst_Equalxyc@@YAXPAVEqualxyc@@H@Z 004d6288 f   choco:intconst1.obj
 0001:000d53c9       ?choco_awakeOnRem_Equalxyc@@YAXPAVEqualxyc@@HH@Z 004d63c9 f   choco:intconst1.obj
 0001:000d5522       ?choco_propagate_NotEqualxyc@@YAXPAVNotEqualxyc@@@Z 004d6522 f   choco:intconst1.obj
 0001:000d5543       ?choco_awakeOnInf_NotEqualxyc@@YAXPAVNotEqualxyc@@H@Z 004d6543 f   choco:intconst1.obj
 0001:000d5762       ?choco_awakeOnSup_NotEqualxyc@@YAXPAVNotEqualxyc@@H@Z 004d6762 f   choco:intconst1.obj
 0001:000d5981       ?choco_awakeOnInst_NotEqualxyc@@YAXPAVNotEqualxyc@@H@Z 004d6981 f   choco:intconst1.obj
 0001:000d5ba0       ?choco_askIfEntailed_NotEqualxyc@@YAHPAVNotEqualxyc@@@Z 004d6ba0 f   choco:intconst1.obj
 0001:000d5c64       ?choco_testIfSatisfied_NotEqualxyc@@YAPAVClaireBoolean@@PAVNotEqualxyc@@@Z 004d6c64 f   choco:intconst1.obj
 0001:000d5c8b       ?choco_propagate_GreaterOrEqualxyc@@YAXPAVGreaterOrEqualxyc@@@Z 004d6c8b f   choco:intconst1.obj
 0001:000d5cac       ?choco_awakeOnInf_GreaterOrEqualxyc@@YAXPAVGreaterOrEqualxyc@@H@Z 004d6cac f   choco:intconst1.obj
 0001:000d5e05       ?choco_awakeOnSup_GreaterOrEqualxyc@@YAXPAVGreaterOrEqualxyc@@H@Z 004d6e05 f   choco:intconst1.obj
 0001:000d5f5e       ?choco_awakeOnInst_GreaterOrEqualxyc@@YAXPAVGreaterOrEqualxyc@@H@Z 004d6f5e f   choco:intconst1.obj
 0001:000d60ea       ?choco_askIfEntailed_GreaterOrEqualxyc@@YAHPAVGreaterOrEqualxyc@@@Z 004d70ea f   choco:intconst1.obj
 0001:000d615a       ?choco_testIfSatisfied_GreaterOrEqualxyc@@YAPAVClaireBoolean@@PAVGreaterOrEqualxyc@@@Z 004d715a f   choco:intconst1.obj
 0001:000d6181       ?claire_self_print_LinComb_choco@@YAXPAVLinComb@@@Z 004d7181 f   choco:intconst1.obj
 0001:000d62e3       ?choco_makeLinComb_list@@YAPAVLinComb@@PAVlist@@0HH@Z 004d72e3 f   choco:intconst1.obj
 0001:000d656f       ?choco_getNbVars_LinComb@@YAHPAVLinComb@@@Z 004d756f f   choco:intconst1.obj
 0001:000d657a       ?choco_assignIndices_LinComb@@YAHPAVLinComb@@PAVAbstractConstraint@@H@Z 004d757a f   choco:intconst1.obj
 0001:000d671f       ?choco_opposite_LinComb@@YAPAVLinComb@@PAV1@@Z 004d771f f   choco:intconst1.obj
 0001:000d69eb       ?choco_computeVarIdxInOpposite_LinComb@@YAHPAVLinComb@@H@Z 004d79eb f   choco:intconst1.obj
 0001:000d6a47       ?choco_computeUpperBound_LinComb_choco@@YAHPAVLinComb@@@Z 004d7a47 f   choco:intconst1.obj
 0001:000d6b29       ?choco_computeLowerBound_LinComb_choco@@YAHPAVLinComb@@@Z 004d7b29 f   choco:intconst1.obj
 0001:000d6c0b       ?choco_propagateNewLowerBound_LinComb_choco@@YAPAVClaireBoolean@@PAVLinComb@@H@Z 004d7c0b f   choco:intconst1.obj
 0001:000d6db2       ?choco_propagateNewUpperBound_LinComb_choco@@YAPAVClaireBoolean@@PAVLinComb@@H@Z 004d7db2 f   choco:intconst1.obj
 0001:000d6f59       ?choco_filterOnImprovedLowerBound_LinComb@@YAPAVClaireBoolean@@PAVLinComb@@@Z 004d7f59 f   choco:intconst1.obj
 0001:000d7146       ?choco_filterOnImprovedUpperBound_LinComb@@YAPAVClaireBoolean@@PAVLinComb@@@Z 004d8146 f   choco:intconst1.obj
 0001:000d725b       ?choco_filter_LinComb@@YAXPAVLinComb@@PAVClaireBoolean@@H@Z 004d825b f   choco:intconst1.obj
 0001:000d7553       ?choco_propagate_LinComb@@YAXPAVLinComb@@@Z 004d8553 f   choco:intconst1.obj
 0001:000d75d2       ?choco_awake_LinComb_choco@@YAXPAVLinComb@@@Z 004d85d2 f   choco:intconst1.obj
 0001:000d75eb       ?choco_askIfEntailed_LinComb@@YAHPAVLinComb@@@Z 004d85eb f   choco:intconst1.obj
 0001:000d7777       ?choco_testIfSatisfied_LinComb@@YAPAVClaireBoolean@@PAVLinComb@@@Z 004d8777 f   choco:intconst1.obj
 0001:000d7864       ?choco_abstractIncInf_LinComb@@YAPAVClaireBoolean@@PAVLinComb@@H@Z 004d8864 f   choco:intconst1.obj
 0001:000d7a61       ?choco_abstractDecSup_LinComb@@YAPAVClaireBoolean@@PAVLinComb@@H@Z 004d8a61 f   choco:intconst1.obj
 0001:000d7c5e       ?choco_abstractInstantiate_LinComb@@YAPAVClaireBoolean@@PAVLinComb@@H@Z 004d8c5e f   choco:intconst1.obj
 0001:000d7e4a       ?choco_abstractRemoveVal_LinComb@@YAPAVClaireBoolean@@PAVLinComb@@HH@Z 004d8e4a f   choco:intconst1.obj
 0001:000d8047       ?choco_awakeOnInf_LinComb@@YAXPAVLinComb@@H@Z 004d9047 f   choco:intconst1.obj
 0001:000d8083       ?choco_awakeOnSup_LinComb@@YAXPAVLinComb@@H@Z 004d9083 f   choco:intconst1.obj
 0001:000d80bf       ?choco_awakeOnInst_LinComb@@YAXPAVLinComb@@H@Z 004d90bf f   choco:intconst1.obj
 0001:000d80f0       ?choco_isInstantiated_AbstractVar_choco@@YAPAVClaireBoolean@@PAVAbstractVar@@@Z 004d90f0 f   choco:var.obj
 0001:000d80fa       ?choco_getConstraint_AbstractVar@@YAPAVAbstractConstraint@@PAVAbstractVar@@H@Z 004d90fa f   choco:var.obj
 0001:000d811f       ?choco_getDegree_AbstractVar@@YAHPAVAbstractVar@@@Z 004d911f f   choco:var.obj
 0001:000d812d       ?claire_self_print_IntVar_choco@@YAXPAVIntVar@@@Z 004d912d f   choco:var.obj
 0001:000d82fa       ?choco_closeIntVar_IntVar@@YAXPAVIntVar@@HHH@Z 004d92fa f   choco:var.obj
 0001:000d8658       ?choco_updateInf_IntVar1_choco@@YAPAVClaireBoolean@@PAVIntVar@@H@Z 004d9658 f   choco:var.obj
 0001:000d8867       ?choco_updateSup_IntVar1_choco@@YAPAVClaireBoolean@@PAVIntVar@@H@Z 004d9867 f   choco:var.obj
 0001:000d8a76       ?choco_instantiate_IntVar1@@YAPAVClaireBoolean@@PAVIntVar@@H@Z 004d9a76 f   choco:var.obj
 0001:000d8d4d       ?choco_removeVal_IntVar1_choco@@YAPAVClaireBoolean@@PAVIntVar@@H@Z 004d9d4d f   choco:var.obj
 0001:000d8fa8       ?claire_domain_IntVar@@YAPAVClaireType@@PAVIntVar@@@Z 004d9fa8 f   choco:var.obj
 0001:000d910e       ?choco_isInstantiatedTo_IntVar_choco@@YAPAVClaireBoolean@@PAVIntVar@@H@Z 004da10e f   choco:var.obj
 0001:000d9126       ?choco_canBeInstantiatedTo_IntVar_choco@@YAPAVClaireBoolean@@PAVIntVar@@H@Z 004da126 f   choco:var.obj
 0001:000d92c5       ?choco_canBeEqualTo_IntVar_choco@@YAPAVClaireBoolean@@PAVIntVar@@0@Z 004da2c5 f   choco:var.obj
 0001:000d981b       ?choco_domainIncludedIn_IntVar_choco@@YAPAVClaireBoolean@@PAVIntVar@@PAVlist@@@Z 004da81b f   choco:var.obj
 0001:000d998e       ?choco_canBeInstantiatedIn_IntVar_choco@@YAPAVClaireBoolean@@PAVIntVar@@PAVlist@@@Z 004da98e f   choco:var.obj
 0001:000d9c50       ?choco_hasExactDomain_IntVar_choco@@YAPAVClaireBoolean@@PAVIntVar@@@Z 004dac50 f   choco:var.obj
 0001:000d9c8f       ?claire_random_IntVar@@YAHPAVIntVar@@@Z 004dac8f f   choco:var.obj
 0001:000d9dc0       ?choco_getNextDomainValue_IntVar@@YAHPAVIntVar@@H@Z 004dadc0 f   choco:var.obj
 0001:000d9f03       ?choco_getPrevDomainValue_IntVar@@YAHPAVIntVar@@H@Z 004daf03 f   choco:var.obj
 0001:000da046       ?choco_getInf_IntVar_choco@@YAHPAVIntVar@@@Z 004db046 f   choco:var.obj
 0001:000da054       ?choco_getSup_IntVar_choco@@YAHPAVIntVar@@@Z 004db054 f   choco:var.obj
 0001:000da062       ?choco_isInstantiated_IntVar_choco@@YAPAVClaireBoolean@@PAVIntVar@@@Z 004db062 f   choco:var.obj
 0001:000da076       ?choco_getValue_IntVar@@YAHPAVIntVar@@@Z 004db076 f   choco:var.obj
 0001:000da081       ?choco_getDomainSize_IntVar@@YAHPAVIntVar@@@Z 004db081 f   choco:var.obj
 0001:000da0d6       ?choco_updateInf_IntVar2_choco@@YAPAVClaireBoolean@@PAVIntVar@@HH@Z 004db0d6 f   choco:var.obj
 0001:000da28e       ?choco_updateSup_IntVar2_choco@@YAPAVClaireBoolean@@PAVIntVar@@HH@Z 004db28e f   choco:var.obj
 0001:000da446       ?choco_removeVal_IntVar2_choco@@YAPAVClaireBoolean@@PAVIntVar@@HH@Z 004db446 f   choco:var.obj
 0001:000da6c3       ?choco_instantiate_IntVar2@@YAPAVClaireBoolean@@PAVIntVar@@HH@Z 004db6c3 f   choco:var.obj
 0001:000da815       ?choco_removeInterval_IntVar@@YAPAVClaireBoolean@@PAVIntVar@@HHH@Z 004db815 f   choco:var.obj
 0001:000da946       ?choco_restrictTo_IntVar@@YAXPAVIntVar@@PAVlist@@H@Z 004db946 f   choco:var.obj
 0001:000daa8b       ?claire_self_print_SetVar_choco@@YAXPAVSetVar@@@Z 004dba8b f   choco:var.obj
 0001:000dac08       ?choco_getDomainKernel_SetVar@@YAPAVlist@@PAVSetVar@@@Z 004dbc08 f   choco:var.obj
 0001:000dad3c       ?choco_getDomainEnveloppe_SetVar@@YAPAVlist@@PAVSetVar@@@Z 004dbd3c f   choco:var.obj
 0001:000dae70       ?choco_getDomainKernelSize_SetVar@@YAHPAVSetVar@@@Z 004dbe70 f   choco:var.obj
 0001:000daf8e       ?choco_getDomainEnveloppeSize_SetVar@@YAHPAVSetVar@@@Z 004dbf8e f   choco:var.obj
 0001:000db0ac       ?choco_getDomainEnveloppeInf_SetVar@@YAHPAVSetVar@@@Z 004dc0ac f   choco:var.obj
 0001:000db1ca       ?choco_getDomainEnveloppeSup_SetVar@@YAHPAVSetVar@@@Z 004dc1ca f   choco:var.obj
 0001:000db2e8       ?choco_getDomainKernelInf_SetVar@@YAHPAVSetVar@@@Z 004dc2e8 f   choco:var.obj
 0001:000db406       ?choco_getDomainKernelSup_SetVar@@YAHPAVSetVar@@@Z 004dc406 f   choco:var.obj
 0001:000db524       ?choco_isInstantiated_SetVar_choco@@YAPAVClaireBoolean@@PAVSetVar@@@Z 004dc524 f   choco:var.obj
 0001:000db6a5       ?choco_isInstantiatedTo_SetVar_choco@@YAPAVClaireBoolean@@PAVSetVar@@PAVlist@@@Z 004dc6a5 f   choco:var.obj
 0001:000db874       ?choco_getValue_SetVar@@YAPAVlist@@PAVSetVar@@@Z 004dc874 f   choco:var.obj
 0001:000db885       ?choco_isInDomainEnveloppe_SetVar@@YAPAVClaireBoolean@@PAVSetVar@@H@Z 004dc885 f   choco:var.obj
 0001:000db9be       ?choco_isInDomainKernel_SetVar@@YAPAVClaireBoolean@@PAVSetVar@@H@Z 004dc9be f   choco:var.obj
 0001:000dbaf7       ?choco_canBeInstantiatedTo_SetVar_choco@@YAPAVClaireBoolean@@PAVSetVar@@PAVbag@@@Z 004dcaf7 f   choco:var.obj
 0001:000dbdbe       ?choco_canBeEqualTo_SetVar_choco@@YAPAVClaireBoolean@@PAVSetVar@@0@Z 004dcdbe f   choco:var.obj
 0001:000dc0d2       ?choco_addSetVar_Problem@@YAXPAVProblem@@PAVSetVar@@@Z 004dd0d2 f   choco:var.obj
 0001:000dc20a       ?choco_closeSetVar_SetVar@@YAXPAVSetVar@@HH@Z 004dd20a f   choco:var.obj
 0001:000dc38e       ?choco_addToKernel_SetVar@@YAPAVClaireBoolean@@PAVSetVar@@HH@Z 004dd38e f   choco:var.obj
 0001:000dc5d7       ?choco_remFromEnveloppe_SetVar@@YAPAVClaireBoolean@@PAVSetVar@@HH@Z 004dd5d7 f   choco:var.obj
 0001:000dc826       ?choco_setIn_SetVar@@YAXPAVSetVar@@H@Z 004dd826 f   choco:var.obj
 0001:000dc83d       ?choco_setOut_SetVar@@YAXPAVSetVar@@H@Z 004dd83d f   choco:var.obj
 0001:000dc860       ?claire_self_print_Instantiation_choco@@YAXPAVInstantiation@@@Z 004dd860 f   choco:prop.obj
 0001:000dc872       ?claire_self_print_InstInt_choco@@YAXPAVInstInt@@@Z 004dd872 f   choco:prop.obj
 0001:000dc9ca       ?claire_self_print_InstSet_choco@@YAXPAVInstSet@@@Z 004dd9ca f   choco:prop.obj
 0001:000dcb40       ?claire_self_print_BoundUpdate_choco@@YAXPAVBoundUpdate@@@Z 004ddb40 f   choco:prop.obj
 0001:000dcb52       ?claire_self_print_IncInf_choco@@YAXPAVIncInf@@@Z 004ddb52 f   choco:prop.obj
 0001:000dccc9       ?claire_self_print_DecSup_choco@@YAXPAVDecSup@@@Z 004ddcc9 f   choco:prop.obj
 0001:000dce40       ?claire_self_print_IncKer_choco@@YAXPAVIncKer@@@Z 004dde40 f   choco:prop.obj
 0001:000dcfd1       ?claire_self_print_DecEnv_choco@@YAXPAVDecEnv@@@Z 004ddfd1 f   choco:prop.obj
 0001:000dd162       ?claire_self_print_ValueRemovals_choco@@YAXPAVValueRemovals@@@Z 004de162 f   choco:prop.obj
 0001:000dd3cf       ?claire_self_print_ConstAwakeEvent_choco@@YAXPAVConstAwakeEvent@@@Z 004de3cf f   choco:prop.obj
 0001:000dd549       ?choco_raiseContradiction_PropagationEngine1@@YAXPAVPropagationEngine@@@Z 004de549 f   choco:prop.obj
 0001:000dd6d4       ?choco_raiseContradiction_PropagationEngine2@@YAXPAVPropagationEngine@@PAVEphemeral@@@Z 004de6d4 f   choco:prop.obj
 0001:000dd85d       ?choco_getContradictionCause_PropagationEngine@@YAPAVEphemeral@@PAVPropagationEngine@@@Z 004de85d f   choco:prop.obj
 0001:000dd868       ?choco_raiseContradiction_AbstractVar@@YAXPAVAbstractVar@@@Z 004de868 f   choco:prop.obj
 0001:000dd95d       ?choco_raiseContradiction_AbstractConstraint@@YAXPAVAbstractConstraint@@@Z 004de95d f   choco:prop.obj
 0001:000dda5a       ?choco_raiseContradiction_Problem@@YAXPAVProblem@@@Z 004dea5a f   choco:prop.obj
 0001:000ddb49       ?choco_makeChocEngine_integer@@YAPAVChocEngine@@H@Z 004deb49 f   choco:prop.obj
 0001:000de466       ?choco_attachPropagationEngine_Problem@@YAXPAVProblem@@PAVPropagationEngine@@@Z 004df466 f   choco:prop.obj
 0001:000de47d       ?choco_isEmpty_EventQueue@@YAPAVClaireBoolean@@PAVEventQueue@@@Z 004df47d f   choco:prop.obj
 0001:000de498       ?choco_isEmpty_InstantiationStack@@YAPAVClaireBoolean@@PAVInstantiationStack@@@Z 004df498 f   choco:prop.obj
 0001:000de4b3       ?choco_popNextEvent_BoundEventQueue@@YAPAVBoundUpdate@@PAVBoundEventQueue@@@Z 004df4b3 f   choco:prop.obj
 0001:000de52a       ?choco_popNextEvent_RemovalEventQueue@@YAPAVValueRemovals@@PAVRemovalEventQueue@@@Z 004df52a f   choco:prop.obj
 0001:000de5a1       ?choco_popNextEvent_InstantiationStack@@YAPAVInstantiation@@PAVInstantiationStack@@@Z 004df5a1 f   choco:prop.obj
 0001:000de6cd       ?choco_nextEventPostIndex_BoundEventQueue@@YAHPAVBoundEventQueue@@@Z 004df6cd f   choco:prop.obj
 0001:000de76e       ?choco_nextEventPostIndex_RemovalEventQueue@@YAHPAVRemovalEventQueue@@@Z 004df76e f   choco:prop.obj
 0001:000de8b5       ?choco_raiseOverflowWarning_PropagationEngine@@YAXPAVPropagationEngine@@@Z 004df8b5 f   choco:prop.obj
 0001:000de915       ?choco_nextEventPostIndex_InstantiationStack@@YAHPAVInstantiationStack@@@Z 004df915 f   choco:prop.obj
 0001:000dea8f       ?choco_flushEventQueue_BoundEventQueue@@YAXPAVBoundEventQueue@@@Z 004dfa8f f   choco:prop.obj
 0001:000dec23       ?choco_flushEventQueue_RemovalEventQueue@@YAXPAVRemovalEventQueue@@@Z 004dfc23 f   choco:prop.obj
 0001:000dedac       ?choco_flushEventQueue_ConstAwakeEventQueue@@YAXPAVConstAwakeEventQueue@@@Z 004dfdac f   choco:prop.obj
 0001:000dee9b       ?choco_checkCleanState_ChocEngine@@YAHPAVChocEngine@@@Z 004dfe9b f   choco:prop.obj
 0001:000deea8       ?choco_pushWorld_Problem@@YAXPAVProblem@@@Z 004dfea8 f   choco:prop.obj
 0001:000df04b       ?choco_popWorld_Problem@@YAXPAVProblem@@@Z 004e004b f   choco:prop.obj
 0001:000df055       ?choco_setWorld_Problem@@YAXPAVProblem@@H@Z 004e0055 f   choco:prop.obj
 0001:000df066       ?choco_commitWorld_Problem@@YAXPAVProblem@@@Z 004e0066 f   choco:prop.obj
 0001:000df070       ?choco_flushCurrentOpenEvents_ChocEngine@@YAHPAVChocEngine@@@Z 004e0070 f   choco:prop.obj
 0001:000df203       ?choco_postInstInt_PropagationEngine@@YAXPAVPropagationEngine@@PAVIntVar@@H@Z 004e0203 f   choco:prop.obj
 0001:000df275       ?choco_postRemoveVal_PropagationEngine@@YAXPAVPropagationEngine@@PAVIntVar@@HH@Z 004e0275 f   choco:prop.obj
 0001:000df2eb       ?choco_postUpdateInf_PropagationEngine@@YAXPAVPropagationEngine@@PAVIntVar@@H@Z 004e02eb f   choco:prop.obj
 0001:000df35d       ?choco_postUpdateSup_PropagationEngine@@YAXPAVPropagationEngine@@PAVIntVar@@H@Z 004e035d f   choco:prop.obj
 0001:000df3cf       ?choco_postUpdateKer_PropagationEngine@@YAXPAVPropagationEngine@@PAVSetVar@@H@Z 004e03cf f   choco:prop.obj
 0001:000df441       ?choco_postUpdateEnv_PropagationEngine@@YAXPAVPropagationEngine@@PAVSetVar@@H@Z 004e0441 f   choco:prop.obj
 0001:000df4b3       ?choco_postInstSet_PropagationEngine@@YAXPAVPropagationEngine@@PAVSetVar@@H@Z 004e04b3 f   choco:prop.obj
 0001:000df525       ?choco_postConstAwake_PropagationEngine@@YAXPAVPropagationEngine@@PAVAbstractConstraint@@PAVClaireBoolean@@@Z 004e0525 f   choco:prop.obj
 0001:000df5a6       ?choco_postInstantiateEvt_ChocEngine@@YAXPAVChocEngine@@PAVInstantiation@@H@Z 004e05a6 f   choco:prop.obj
 0001:000df87e       ?choco_postInstInt_ChocEngine@@YAXPAVChocEngine@@PAVIntVar@@H@Z 004e087e f   choco:prop.obj
 0001:000df975       ?choco_postInstSet_ChocEngine@@YAXPAVChocEngine@@PAVSetVar@@H@Z 004e0975 f   choco:prop.obj
 0001:000dfa6c       ?choco_postRemoveVal_ChocEngine@@YAXPAVChocEngine@@PAVIntVar@@HH@Z 004e0a6c f   choco:prop.obj
 0001:000dff13       ?choco_postBoundEvent_ChocEngine@@YAXPAVChocEngine@@PAVBoundUpdate@@H@Z 004e0f13 f   choco:prop.obj
 0001:000e0027       ?choco_postUpdateInf_ChocEngine@@YAXPAVChocEngine@@PAVIntVar@@H@Z 004e1027 f   choco:prop.obj
 0001:000e011e       ?choco_postUpdateSup_ChocEngine@@YAXPAVChocEngine@@PAVIntVar@@H@Z 004e111e f   choco:prop.obj
 0001:000e0215       ?choco_postUpdateKer_ChocEngine@@YAXPAVChocEngine@@PAVSetVar@@H@Z 004e1215 f   choco:prop.obj
 0001:000e030c       ?choco_postUpdateEnv_ChocEngine@@YAXPAVChocEngine@@PAVSetVar@@H@Z 004e130c f   choco:prop.obj
 0001:000e0403       ?choco_getQueue_ChocEngine@@YAPAVConstAwakeEventQueue@@PAVChocEngine@@PAVConstAwakeEvent@@@Z 004e1403 f   choco:prop.obj
 0001:000e0467       ?choco_registerEvent_ChocEngine@@YAXPAVChocEngine@@PAVConstAwakeEvent@@@Z 004e1467 f   choco:prop.obj
 0001:000e0626       ?choco_postConstAwake_ChocEngine@@YAPAVClaireBoolean@@PAVChocEngine@@PAVAbstractConstraint@@PAV1@@Z 004e1626 f   choco:prop.obj
 0001:000e07db       ?choco_remove_ConstAwakeEventQueue@@YAXPAVConstAwakeEventQueue@@PAVConstAwakeEvent@@@Z 004e17db f   choco:prop.obj
 0001:000e0918       ?choco_constAwake_AbstractConstraint@@YAXPAVAbstractConstraint@@PAVClaireBoolean@@@Z 004e1918 f   choco:prop.obj
 0001:000e0a47       ?choco_popSomeEvents_InstantiationStack@@YAXPAVInstantiationStack@@@Z 004e1a47 f   choco:prop.obj
 0001:000e0c66       ?choco_propagateEvent_Instantiation_choco@@YAXPAVInstantiation@@@Z 004e1c66 f   choco:prop.obj
 0001:000e0fd6       ?choco_popSomeEvents_RemovalEventQueue@@YAXPAVRemovalEventQueue@@@Z 004e1fd6 f   choco:prop.obj
 0001:000e105d       ?choco_propagateEvent_ValueRemovals_choco@@YAXPAVValueRemovals@@PAVRemovalEventQueue@@@Z 004e205d f   choco:prop.obj
 0001:000e1451       ?choco_popSomeEvents_BoundEventQueue@@YAXPAVBoundEventQueue@@@Z 004e2451 f   choco:prop.obj
 0001:000e14d8       ?choco_propagateEvent_BoundUpdate_choco@@YAXPAVBoundUpdate@@PAVBoundEventQueue@@@Z 004e24d8 f   choco:prop.obj
 0001:000e1b74       ?choco_isEmpty_ConstAwakeEventQueue@@YAPAVClaireBoolean@@PAVConstAwakeEventQueue@@@Z 004e2b74 f   choco:prop.obj
 0001:000e1b8d       ?choco_popSomeEvents_ConstAwakeEventQueue@@YAXPAVConstAwakeEventQueue@@@Z 004e2b8d f   choco:prop.obj
 0001:000e1d18       ?choco_popNextEvent_ConstAwakeEventQueue@@YAPAVConstAwakeEvent@@PAVConstAwakeEventQueue@@@Z 004e2d18 f   choco:prop.obj
 0001:000e1e89       ?choco_propagateEvent_ConstAwakeEvent_choco@@YAXPAVConstAwakeEvent@@@Z 004e2e89 f   choco:prop.obj
 0001:000e1fd4       ?choco_popSomeEvents_EventCollection@@YAXPAVEventCollection@@@Z 004e2fd4 f   choco:prop.obj
 0001:000e2019       ?choco_getNextActiveEventQueue_PropagationEngine_choco@@YAHPAVPropagationEngine@@@Z 004e3019 f   choco:prop.obj
 0001:000e2063       ?choco_getNextActiveConstraintEventQueue_ChocEngine@@YAHPAVChocEngine@@@Z 004e3063 f   choco:prop.obj
 0001:000e2220       ?choco_getNextActiveVariableEventQueue_ChocEngine@@YAHPAVChocEngine@@@Z 004e3220 f   choco:prop.obj
 0001:000e22c6       ?choco_getNextActiveEventQueue_ChocEngine_choco@@YAHPAVChocEngine@@@Z 004e32c6 f   choco:prop.obj
 0001:000e2760       ?choco_domainSequence_AbstractIntDomain_choco@@YAPAVlist@@PAVAbstractIntDomain@@@Z 004e3760 f   choco:dom.obj
 0001:000e27cb       ?choco_domainSet_AbstractIntDomain_choco@@YAPAVset@@PAVAbstractIntDomain@@@Z 004e37cb f   choco:dom.obj
 0001:000e2836       ?choco_getDomainInf_AbstractIntDomain_choco@@YAHPAVAbstractIntDomain@@@Z 004e3836 f   choco:dom.obj
 0001:000e2894       ?choco_getDomainSup_AbstractIntDomain_choco@@YAHPAVAbstractIntDomain@@@Z 004e3894 f   choco:dom.obj
 0001:000e28f2       ?choco_updateDomainInf_AbstractIntDomain_choco@@YAHPAVAbstractIntDomain@@H@Z 004e38f2 f   choco:dom.obj
 0001:000e2950       ?choco_updateDomainSup_AbstractIntDomain_choco@@YAHPAVAbstractIntDomain@@H@Z 004e3950 f   choco:dom.obj
 0001:000e29ae       ?choco_containsValInDomain_AbstractIntDomain_choco@@YAPAVClaireBoolean@@PAVAbstractIntDomain@@H@Z 004e39ae f   choco:dom.obj
 0001:000e2a0f       ?choco_removeDomainVal_AbstractIntDomain_choco@@YAPAVClaireBoolean@@PAVAbstractIntDomain@@H@Z 004e3a0f f   choco:dom.obj
 0001:000e2a70       ?choco_restrict_AbstractIntDomain_choco@@YAXPAVAbstractIntDomain@@H@Z 004e3a70 f   choco:dom.obj
 0001:000e2acc       ?choco_getDomainCard_AbstractIntDomain_choco@@YAHPAVAbstractIntDomain@@@Z 004e3acc f   choco:dom.obj
 0001:000e2b2d       ?choco_getNextValue_AbstractIntDomain_choco@@YAHPAVAbstractIntDomain@@H@Z 004e3b2d f   choco:dom.obj
 0001:000e2b8b       ?choco_getPrevValue_AbstractIntDomain_choco@@YAHPAVAbstractIntDomain@@H@Z 004e3b8b f   choco:dom.obj
 0001:000e2be9       ?claire_self_print_LinkedListIntDomain_choco@@YAXPAVLinkedListIntDomain@@@Z 004e3be9 f   choco:dom.obj
 0001:000e2e01       ?choco_makeLinkedListIntDomain_integer@@YAPAVLinkedListIntDomain@@HH@Z 004e3e01 f   choco:dom.obj
 0001:000e306c       ?claire_random_LinkedListIntDomain@@YAHPAVLinkedListIntDomain@@@Z 004e406c f   choco:dom.obj
 0001:000e30cd       ?choco_domainSet_LinkedListIntDomain_choco@@YAPAVset@@PAVLinkedListIntDomain@@@Z 004e40cd f   choco:dom.obj
 0001:000e31b2       ?choco_domainSequence_LinkedListIntDomain_choco@@YAPAVlist@@PAVLinkedListIntDomain@@@Z 004e41b2 f   choco:dom.obj
 0001:000e3297       ?choco_getDomainInf_LinkedListIntDomain_choco@@YAHPAVLinkedListIntDomain@@@Z 004e4297 f   choco:dom.obj
 0001:000e32c3       ?choco_getDomainSup_LinkedListIntDomain_choco@@YAHPAVLinkedListIntDomain@@@Z 004e42c3 f   choco:dom.obj
 0001:000e3317       ?choco_isIncludedIn_LinkedListIntDomain@@YAPAVClaireBoolean@@PAVLinkedListIntDomain@@PAVlist@@@Z 004e4317 f   choco:dom.obj
 0001:000e34bf       ?choco_getDomainCard_LinkedListIntDomain_choco@@YAHPAVLinkedListIntDomain@@@Z 004e44bf f   choco:dom.obj
 0001:000e34ca       ?choco_containsValInDomain_LinkedListIntDomain_choco@@YAPAVClaireBoolean@@PAVLinkedListIntDomain@@H@Z 004e44ca f   choco:dom.obj
 0001:000e3514       ?choco_getNextValue_LinkedListIntDomain_choco@@YAHPAVLinkedListIntDomain@@H@Z 004e4514 f   choco:dom.obj
 0001:000e3553       ?choco_getPrevValue_LinkedListIntDomain_choco@@YAHPAVLinkedListIntDomain@@H@Z 004e4553 f   choco:dom.obj
 0001:000e35b3       ?choco_removeDomainVal_LinkedListIntDomain_choco@@YAPAVClaireBoolean@@PAVLinkedListIntDomain@@H@Z 004e45b3 f   choco:dom.obj
 0001:000e38f2       ?choco_restrict_LinkedListIntDomain_choco@@YAXPAVLinkedListIntDomain@@H@Z 004e48f2 f   choco:dom.obj
 0001:000e3c13       ?choco_updateDomainInf_LinkedListIntDomain_choco@@YAHPAVLinkedListIntDomain@@H@Z 004e4c13 f   choco:dom.obj
 0001:000e3e66       ?choco_updateDomainSup_LinkedListIntDomain_choco@@YAHPAVLinkedListIntDomain@@H@Z 004e4e66 f   choco:dom.obj
 0001:000e41c6       ?choco_getKernel_AbstractSetDomain@@YAPAVlist@@PAVAbstractSetDomain@@@Z 004e51c6 f   choco:dom.obj
 0001:000e4231       ?choco_getEnveloppe_AbstractSetDomain@@YAPAVlist@@PAVAbstractSetDomain@@@Z 004e5231 f   choco:dom.obj
 0001:000e429c       ?choco_getKernelSize_AbstractSetDomain@@YAHPAVAbstractSetDomain@@@Z 004e529c f   choco:dom.obj
 0001:000e42a7       ?choco_getEnveloppeSize_AbstractSetDomain@@YAHPAVAbstractSetDomain@@@Z 004e52a7 f   choco:dom.obj
 0001:000e42b2       ?choco_getKernelInf_AbstractSetDomain@@YAHPAVAbstractSetDomain@@@Z 004e52b2 f   choco:dom.obj
 0001:000e4310       ?choco_getKernelSup_AbstractSetDomain@@YAHPAVAbstractSetDomain@@@Z 004e5310 f   choco:dom.obj
 0001:000e436e       ?choco_getEnveloppeInf_AbstractSetDomain@@YAHPAVAbstractSetDomain@@@Z 004e536e f   choco:dom.obj
 0001:000e43cc       ?choco_getEnveloppeSup_AbstractSetDomain@@YAHPAVAbstractSetDomain@@@Z 004e53cc f   choco:dom.obj
 0001:000e442a       ?choco_isInEnveloppe_AbstractSetDomain@@YAPAVClaireBoolean@@PAVAbstractSetDomain@@H@Z 004e542a f   choco:dom.obj
 0001:000e448b       ?choco_isInKernel_AbstractSetDomain@@YAPAVClaireBoolean@@PAVAbstractSetDomain@@H@Z 004e548b f   choco:dom.obj
 0001:000e44ec       ?choco_updateKernel_AbstractSetDomain@@YAPAVClaireBoolean@@PAVAbstractSetDomain@@H@Z 004e54ec f   choco:dom.obj
 0001:000e454d       ?choco_updateEnveloppe_AbstractSetDomain@@YAPAVClaireBoolean@@PAVAbstractSetDomain@@H@Z 004e554d f   choco:dom.obj
 0001:000e45ae       ?choco_getKernel_BitSetDomain@@YAPAVlist@@PAVBitSetDomain@@@Z 004e55ae f   choco:dom.obj
 0001:000e474a       ?choco_getEnveloppe_BitSetDomain@@YAPAVlist@@PAVBitSetDomain@@@Z 004e574a f   choco:dom.obj
 0001:000e48e6       ?choco_getKernelSize_BitSetDomain@@YAHPAVBitSetDomain@@@Z 004e58e6 f   choco:dom.obj
 0001:000e48f1       ?choco_getEnveloppeSize_BitSetDomain@@YAHPAVBitSetDomain@@@Z 004e58f1 f   choco:dom.obj
 0001:000e48fc       ?choco_getKernelInf_BitSetDomain@@YAHPAVBitSetDomain@@@Z 004e58fc f   choco:dom.obj
 0001:000e4979       ?choco_getKernelSup_BitSetDomain@@YAHPAVBitSetDomain@@@Z 004e5979 f   choco:dom.obj
 0001:000e49f6       ?choco_getEnveloppeInf_BitSetDomain@@YAHPAVBitSetDomain@@@Z 004e59f6 f   choco:dom.obj
 0001:000e4a73       ?choco_getEnveloppeSup_BitSetDomain@@YAHPAVBitSetDomain@@@Z 004e5a73 f   choco:dom.obj
 0001:000e4af0       ?choco_isInEnveloppe_BitSetDomain@@YAPAVClaireBoolean@@PAVBitSetDomain@@H@Z 004e5af0 f   choco:dom.obj
 0001:000e4b0e       ?choco_isInKernel_BitSetDomain@@YAPAVClaireBoolean@@PAVBitSetDomain@@H@Z 004e5b0e f   choco:dom.obj
 0001:000e4b2c       ?choco_makeBitSetDomain_integer@@YAPAVBitSetDomain@@HH@Z 004e5b2c f   choco:dom.obj
 0001:000e4fce       ?choco_updateKernel_BitSetDomain@@YAPAVClaireBoolean@@PAVBitSetDomain@@H@Z 004e5fce f   choco:dom.obj
 0001:000e5206       ?choco_updateEnveloppe_BitSetDomain@@YAPAVClaireBoolean@@PAVBitSetDomain@@H@Z 004e6206 f   choco:dom.obj
 0001:000e543e       ?choco_makeBitListSetDomain_integer@@YAPAVBitListSetDomain@@HH@Z 004e643e f   choco:dom.obj
 0001:000e57b6       ?choco_getKernel_BitListSetDomain@@YAPAVlist@@PAVBitListSetDomain@@@Z 004e67b6 f   choco:dom.obj
 0001:000e58b4       ?choco_getEnveloppe_BitListSetDomain@@YAPAVlist@@PAVBitListSetDomain@@@Z 004e68b4 f   choco:dom.obj
 0001:000e59b2       ?choco_getKernelSize_BitListSetDomain@@YAHPAVBitListSetDomain@@@Z 004e69b2 f   choco:dom.obj
 0001:000e59bd       ?choco_getEnveloppeSize_BitListSetDomain@@YAHPAVBitListSetDomain@@@Z 004e69bd f   choco:dom.obj
 0001:000e59c8       ?choco_getKernelInf_BitListSetDomain@@YAHPAVBitListSetDomain@@@Z 004e69c8 f   choco:dom.obj
 0001:000e5ace       ?choco_getKernelSup_BitListSetDomain@@YAHPAVBitListSetDomain@@@Z 004e6ace f   choco:dom.obj
 0001:000e5bd4       ?choco_getEnveloppeInf_BitListSetDomain@@YAHPAVBitListSetDomain@@@Z 004e6bd4 f   choco:dom.obj
 0001:000e5cda       ?choco_getEnveloppeSup_BitListSetDomain@@YAHPAVBitListSetDomain@@@Z 004e6cda f   choco:dom.obj
 0001:000e5de0       ?choco_isInEnveloppe_BitListSetDomain@@YAPAVClaireBoolean@@PAVBitListSetDomain@@H@Z 004e6de0 f   choco:dom.obj
 0001:000e5ee1       ?choco_isInKernel_BitListSetDomain@@YAPAVClaireBoolean@@PAVBitListSetDomain@@H@Z 004e6ee1 f   choco:dom.obj
 0001:000e5fe2       ?choco_updateKernel_BitListSetDomain@@YAPAVClaireBoolean@@PAVBitListSetDomain@@H@Z 004e6fe2 f   choco:dom.obj
 0001:000e61f9       ?choco_updateEnveloppe_BitListSetDomain@@YAPAVClaireBoolean@@PAVBitListSetDomain@@H@Z 004e71f9 f   choco:dom.obj
 0001:000e6410       ?choco_showChocoLicense_void@@YAXXZ 004e7410 f   choco:model.obj
 0001:000e6475       ?choco_makeSolution_Solver@@YAPAVSolution@@PAVSolver@@H@Z 004e7475 f   choco:model.obj
 0001:000e65c5       ?choco_getIntVar_Problem@@YAPAVIntVar@@PAVProblem@@H@Z 004e75c5 f   choco:model.obj
 0001:000e65ea       ?choco_getSetVar_Problem@@YAPAVSetVar@@PAVProblem@@H@Z 004e75ea f   choco:model.obj
 0001:000e6610       ?choco_div_dash_integer@@YAHHH@Z 004e7610 f   choco:chocutils.obj
 0001:000e6676       ?choco_div_plus_integer@@YAHHH@Z 004e7676 f   choco:chocutils.obj
 0001:000e66dc       ?claire_max_integer2@@YAHHH@Z 004e76dc f   choco:chocutils.obj
 0001:000e670c       ?claire_min_integer2@@YAHHH@Z 004e770c f   choco:chocutils.obj
 0001:000e673c       ?claire_max_bag@@YAHPAVbag@@@Z 004e773c f   choco:chocutils.obj
 0001:000e67b8       ?claire_min_bag@@YAHPAVbag@@@Z 004e77b8 f   choco:chocutils.obj
 0001:000e6834       ?claire_sum_bag@@YAHPAVbag@@@Z 004e7834 f   choco:chocutils.obj
 0001:000e689d       ?claire_product_bag@@YAHPAVbag@@@Z 004e789d f   choco:chocutils.obj
 0001:000e6907       ?claire_count_any@@YAHH@Z  004e7907 f   choco:chocutils.obj
 0001:000e6a73       ?claire_abs_integer@@YAHH@Z 004e7a73 f   choco:chocutils.obj
 0001:000e6aa3       ?claire_abs_float_@@YAHH@Z 004e7aa3 f   choco:chocutils.obj
 0001:000e6ad0       ?claire_abs_float@@YANN@Z  004e7ad0 f   choco:chocutils.obj
 0001:000e6b28       ?claire_stringFormat_integer@@YAPADHH@Z 004e7b28 f   choco:chocutils.obj
 0001:000e6da9       ?claire_stringFormat_string@@YAPADPADH@Z 004e7da9 f   choco:chocutils.obj
 0001:000e6ef5       ?claire_random_list@@YAHPAVlist@@@Z 004e7ef5 f   choco:chocutils.obj
 0001:000e6f2f       ?claire_random_Interval@@YAHPAVInterval@@@Z 004e7f2f f   choco:chocutils.obj
 0001:000e6f54       ?claire_random_integer2@@YAHHH@Z 004e7f54 f   choco:chocutils.obj
 0001:000e6f70       ?claire__7_plus_Interval1@@YAPAVlist@@PAVInterval@@0@Z 004e7f70 f   choco:chocutils.obj
 0001:000e70a7       ?claire__7_plus_Interval2@@YAPAVlist@@PAVInterval@@PAVset@@@Z 004e80a7 f   choco:chocutils.obj
 0001:000e71cc       ?claire__7_plus_set2@@YAPAVlist@@PAVset@@PAVInterval@@@Z 004e81cc f   choco:chocutils.obj
 0001:000e72f1       ?claire_integer_I_boolean@@YAHPAVClaireBoolean@@@Z 004e82f1 f   choco:chocutils.obj
 0001:000e7318       ?choco_knownInt_integer@@YAPAVClaireBoolean@@H@Z 004e8318 f   choco:chocutils.obj
 0001:000e732e       ?claire_self_print_StoredInt_choco@@YAXPAVStoredInt@@@Z 004e832e f   choco:chocutils.obj
 0001:000e7342       ?claire_write_StoredInt@@YAXPAVStoredInt@@H@Z 004e8342 f   choco:chocutils.obj
 0001:000e7530       ?claire_read_StoredInt@@YAHPAVStoredInt@@@Z 004e8530 f   choco:chocutils.obj
 0001:000e753b       ?choco_make2DBoolMatrix_integer@@YAPAVBoolMatrix2D@@HHHHPAVClaireBoolean@@0@Z 004e853b f   choco:chocutils.obj
 0001:000e76ad       ?choco_make2DIntMatrix_integer@@YAPAVIntMatrix2D@@HHHHHPAVClaireBoolean@@@Z 004e86ad f   choco:chocutils.obj
 0001:000e7810       ?choco_makeNDBoolMatrix_list@@YAPAVBoolMatrixND@@PAVlist@@PAVClaireBoolean@@1@Z 004e8810 f   choco:chocutils.obj
 0001:000e7af1       ?choco_makeNDIntMatrix_list@@YAPAVIntMatrixND@@PAVlist@@HPAVClaireBoolean@@@Z 004e8af1 f   choco:chocutils.obj
 0001:000e7dc3       ?choco_flatIndex_Matrix2D@@YAHPAVMatrix2D@@HH@Z 004e8dc3 f   choco:chocutils.obj
 0001:000e7de7       ?claire_read_BoolMatrix2D@@YAPAVClaireBoolean@@PAVBoolMatrix2D@@HH@Z 004e8de7 f   choco:chocutils.obj
 0001:000e7e18       ?claire_store_BoolMatrix2D@@YAXPAVBoolMatrix2D@@HHPAVClaireBoolean@@@Z 004e8e18 f   choco:chocutils.obj
 0001:000e7e5b       ?claire_read_IntMatrix2D@@YAHPAVIntMatrix2D@@HH@Z 004e8e5b f   choco:chocutils.obj
 0001:000e7e7d       ?claire_store_IntMatrix2D@@YAXPAVIntMatrix2D@@HHH@Z 004e8e7d f   choco:chocutils.obj
 0001:000e7eb1       ?choco_flatIndex_MatrixND@@YAHPAVMatrixND@@PAVlist@@@Z 004e8eb1 f   choco:chocutils.obj
 0001:000e7f56       ?claire_read_BoolMatrixND@@YAPAVClaireBoolean@@PAVBoolMatrixND@@PAVlist@@@Z 004e8f56 f   choco:chocutils.obj
 0001:000e7f83       ?claire_store_BoolMatrixND@@YAXPAVBoolMatrixND@@PAVlist@@PAVClaireBoolean@@@Z 004e8f83 f   choco:chocutils.obj
 0001:000e7fc2       ?claire_read_IntMatrixND@@YAHPAVIntMatrixND@@PAVlist@@@Z 004e8fc2 f   choco:chocutils.obj
 0001:000e7fe0       ?claire_store_IntMatrixND@@YAXPAVIntMatrixND@@PAVlist@@H@Z 004e8fe0 f   choco:chocutils.obj
 0001:000e8010       ?choco_getOriginalMin_IntSetAnnotation@@YAHPAVIntSetAnnotation@@@Z 004e9010 f   choco:chocutils.obj
 0001:000e801b       ?choco_getOriginalMax_IntSetAnnotation@@YAHPAVIntSetAnnotation@@@Z 004e901b f   choco:chocutils.obj
 0001:000e8030       ?choco_getIntAnnotation_IntSetIntAnnotation@@YAHPAVIntSetIntAnnotation@@H@Z 004e9030 f   choco:chocutils.obj
 0001:000e8047       ?choco_setIntAnnotation_IntSetIntAnnotation@@YAXPAVIntSetIntAnnotation@@HH@Z 004e9047 f   choco:chocutils.obj
 0001:000e815e       ?choco_makeIntSetIntAnnotation_integer@@YAPAVIntSetIntAnnotation@@HHH@Z 004e915e f   choco:chocutils.obj
 0001:000e8297       ?choco_getBoolAnnotation_IntSetBoolAnnotation@@YAPAVClaireBoolean@@PAVIntSetBoolAnnotation@@H@Z 004e9297 f   choco:chocutils.obj
 0001:000e82be       ?choco_setBoolAnnotation_IntSetBoolAnnotation@@YAXPAVIntSetBoolAnnotation@@HPAVClaireBoolean@@@Z 004e92be f   choco:chocutils.obj
 0001:000e8423       ?choco_makeIntSetBoolAnnotation_integer@@YAPAVIntSetBoolAnnotation@@HHPAVClaireBoolean@@@Z 004e9423 f   choco:chocutils.obj
 0001:000e856b       ?choco_makeIndexesTable_type@@YAPAVtable@@PAVClaireType@@@Z 004e956b f   choco:chocutils.obj
 0001:000e85c4       ?choco_makeBipartiteSet_type@@YAPAVBipartiteSet@@PAVClaireType@@H@Z 004e95c4 f   choco:chocutils.obj
 0001:000e86fe       ?choco_swap_BipartiteSet@@YAXPAVBipartiteSet@@HH@Z 004e96fe f   choco:chocutils.obj
 0001:000e8883       ?choco_moveLeft_BipartiteSet@@YAXPAVBipartiteSet@@H@Z 004e9883 f   choco:chocutils.obj
 0001:000e8939       ?choco_moveRight_BipartiteSet@@YAXPAVBipartiteSet@@H@Z 004e9939 f   choco:chocutils.obj
 0001:000e89ec       ?choco_moveAllLeft_BipartiteSet@@YAXPAVBipartiteSet@@@Z 004e99ec f   choco:chocutils.obj
 0001:000e89ff       ?choco_moveAllRight_BipartiteSet@@YAXPAVBipartiteSet@@@Z 004e99ff f   choco:chocutils.obj
 0001:000e8a0e       ?choco_addRight_BipartiteSet@@YAXPAVBipartiteSet@@H@Z 004e9a0e f   choco:chocutils.obj
 0001:000e8ba5       ?choco_addLeft_BipartiteSet@@YAXPAVBipartiteSet@@H@Z 004e9ba5 f   choco:chocutils.obj
 0001:000e8bca       ?choco_isLeft_BipartiteSet@@YAPAVClaireBoolean@@PAVBipartiteSet@@H@Z 004e9bca f   choco:chocutils.obj
 0001:000e8c7b       ?choco_isIn_BipartiteSet@@YAPAVClaireBoolean@@PAVBipartiteSet@@H@Z 004e9c7b f   choco:chocutils.obj
 0001:000e8c9e       ?choco_getNbLeft_BipartiteSet@@YAHPAVBipartiteSet@@@Z 004e9c9e f   choco:chocutils.obj
 0001:000e8ca9       ?choco_getNbRight_BipartiteSet@@YAHPAVBipartiteSet@@@Z 004e9ca9 f   choco:chocutils.obj
 0001:000e8cbc       ?choco_getNbObjects_BipartiteSet@@YAHPAVBipartiteSet@@@Z 004e9cbc f   choco:chocutils.obj
 0001:000e8cc9       ?choco_getObject_BipartiteSet@@YAHPAVBipartiteSet@@H@Z 004e9cc9 f   choco:chocutils.obj
 0001:000e8ce1       ?choco_leftPart_BipartiteSet@@YAPAVset@@PAVBipartiteSet@@@Z 004e9ce1 f   choco:chocutils.obj
 0001:000e8e39       ?choco_rightPart_BipartiteSet@@YAPAVset@@PAVBipartiteSet@@@Z 004e9e39 f   choco:chocutils.obj
 0001:000e8f98       ?choco_getBitCount_integer@@YAHH@Z 004e9f98 f   choco:chocutils.obj
 0001:000e8ff3       ?choco_getMinBitIndex_integer@@YAHH@Z 004e9ff3 f   choco:chocutils.obj
 0001:000e902f       ?choco_getMaxBitIndex_integer@@YAHH@Z 004ea02f f   choco:chocutils.obj
 0001:000e906b       ?choco_makeAllOnesBitVector_integer@@YAHH@Z 004ea06b f   choco:chocutils.obj
 0001:000e9096       ?choco_getBitVectorList_integer@@YAPAVlist@@HPAV1@@Z 004ea096 f   choco:chocutils.obj
 0001:000e9139       ?choco_isInBitVectorList_integer@@YAPAVClaireBoolean@@HPAVlist@@@Z 004ea139 f   choco:chocutils.obj
 0001:000e9186       ?choco_addToBitVectorList_integer@@YAPAVClaireBoolean@@HPAVlist@@@Z 004ea186 f   choco:chocutils.obj
 0001:000e9325       ?choco_remFromBitVectorList_integer@@YAPAVClaireBoolean@@HPAVlist@@@Z 004ea325 f   choco:chocutils.obj
 0001:000e94c4       ?choco_getBitVectorListCount_list@@YAHPAVlist@@@Z 004ea4c4 f   choco:chocutils.obj
 0001:000e9553       ?choco_getBitVectorInf_list@@YAHPAVlist@@@Z 004ea553 f   choco:chocutils.obj
 0001:000e9604       ?choco_getBitVectorSup_list@@YAHPAVlist@@@Z 004ea604 f   choco:chocutils.obj
 0001:000e96c0       ?metaLoad@iceClass@@QAEXXZ 004ea6c0 f   ice:ice.obj
 0001:000edc40       ?claire_showIglooLicense_void@@YAHXZ 004eec40 f   ice:matching.obj
 0001:000edc76       ?ice_getSize_IntCollection@@YAHPAVIntCollection@@@Z 004eec76 f   ice:matching.obj
 0001:000edc81       ?claire_close_IntStack@@YAPAVIntStack@@PAV1@@Z 004eec81 f   ice:matching.obj
 0001:000edca6       ?claire_set_I_IntStack@@YAHPAVIntStack@@@Z 004eeca6 f   ice:matching.obj
 0001:000eddfc       ?ice_clear_IntStack@@YAXPAVIntStack@@@Z 004eedfc f   ice:matching.obj
 0001:000ede0b       ?ice_pop_IntStack@@YAHPAVIntStack@@@Z 004eee0b f   ice:matching.obj
 0001:000ede36       ?ice_push_IntStack@@YAXPAVIntStack@@H@Z 004eee36 f   ice:matching.obj
 0001:000ede61       ?claire_close_IntQueue@@YAPAVIntQueue@@PAV1@@Z 004eee61 f   ice:matching.obj
 0001:000edea8       ?ice_push_IntQueue@@YAXPAVIntQueue@@H@Z 004eeea8 f   ice:matching.obj
 0001:000edf4f       ?ice_pop_IntQueue@@YAHPAVIntQueue@@@Z 004eef4f f   ice:matching.obj
 0001:000edfcd       ?ice_init_IntQueue@@YAXPAVIntQueue@@@Z 004eefcd f   ice:matching.obj
 0001:000ee030       ?ice_showRefAssignment_AbstractBipartiteGraph@@YAXPAVAbstractBipartiteGraph@@@Z 004ef030 f   ice:matching.obj
 0001:000ee1e3       ?ice_showSCCDecomposition_AbstractBipartiteGraph@@YAXPAVAbstractBipartiteGraph@@@Z 004ef1e3 f   ice:matching.obj
 0001:000ee510       ?ice_mayMatch_AbstractBipartiteGraph@@YAPAVlist@@PAVAbstractBipartiteGraph@@H@Z 004ef510 f   ice:matching.obj
 0001:000ee7e3       ?ice_mayInverseMatch_AbstractBipartiteGraph@@YAPAVlist@@PAVAbstractBipartiteGraph@@H@Z 004ef7e3 f   ice:matching.obj
 0001:000ee951       ?ice_match_AbstractBipartiteGraph@@YAHPAVAbstractBipartiteGraph@@H@Z 004ef951 f   ice:matching.obj
 0001:000ee962       ?choco_checkFlow_AbstractBipartiteGraph@@YAXPAVAbstractBipartiteGraph@@@Z 004ef962 f   ice:matching.obj
 0001:000ee999       ?ice_mayGrowFlowToSink_AbstractBipartiteGraph@@YAPAVClaireBoolean@@PAVAbstractBipartiteGraph@@H@Z 004ef999 f   ice:matching.obj
 0001:000ee9b5       ?ice_mayGrowFlowBetween_AbstractBipartiteGraph@@YAPAVClaireBoolean@@PAVAbstractBipartiteGraph@@HH@Z 004ef9b5 f   ice:matching.obj
 0001:000ee9d3       ?ice_mayDiminishFlowBetween_AbstractBipartiteGraph@@YAPAVClaireBoolean@@PAVAbstractBipartiteGraph@@HH@Z 004ef9d3 f   ice:matching.obj
 0001:000ee9f1       ?ice_inverseMatch_AbstractBipartiteMatching@@YAHPAVAbstractBipartiteMatching@@H@Z 004ef9f1 f   ice:matching.obj
 0001:000eea02       ?ice_increaseMatchingSize_AbstractBipartiteMatching@@YAXPAVAbstractBipartiteMatching@@H@Z 004efa02 f   ice:matching.obj
 0001:000eeb01       ?ice_decreaseMatchingSize_AbstractBipartiteMatching@@YAXPAVAbstractBipartiteMatching@@H@Z 004efb01 f   ice:matching.obj
 0001:000eec00       ?ice_deleteMatch_AbstractBipartiteMatching@@YAXPAVAbstractBipartiteMatching@@HH@Z 004efc00 f   ice:matching.obj
 0001:000eeef8       ?ice_putRefMatch_AbstractBipartiteMatching@@YAXPAVAbstractBipartiteMatching@@HH@Z 004efef8 f   ice:matching.obj
 0001:000ef0e8       ?ice_setMatch_AbstractBipartiteMatching@@YAXPAVAbstractBipartiteMatching@@HH@Z 004f00e8 f   ice:matching.obj
 0001:000ef7d2       ?ice_mayDiminishFlowFromSource_AbstractBipartiteMatching@@YAPAVClaireBoolean@@PAVAbstractBipartiteMatching@@H@Z 004f07d2 f   ice:matching.obj
 0001:000ef7ee       ?ice_mayGrowFlowFromSource_AbstractBipartiteMatching@@YAPAVClaireBoolean@@PAVAbstractBipartiteMatching@@H@Z 004f07ee f   ice:matching.obj
 0001:000ef80a       ?ice_mustGrowFlowFromSource_AbstractBipartiteMatching@@YAPAVClaireBoolean@@PAVAbstractBipartiteMatching@@H@Z 004f080a f   ice:matching.obj
 0001:000ef814       ?ice_setMatch_AbstractBipartiteFlow@@YAXPAVAbstractBipartiteFlow@@HH@Z 004f0814 f   ice:matching.obj
 0001:000efe96       ?ice_deleteMatch_AbstractBipartiteFlow@@YAXPAVAbstractBipartiteFlow@@HH@Z 004f0e96 f   ice:matching.obj
 0001:000f01bf       ?ice_putRefMatch_AbstractBipartiteFlow@@YAXPAVAbstractBipartiteFlow@@HH@Z 004f11bf f   ice:matching.obj
 0001:000f02bc       ?ice_mayDiminishFlowFromSource_AbstractBipartiteFlow@@YAPAVClaireBoolean@@PAVAbstractBipartiteFlow@@H@Z 004f12bc f   ice:matching.obj
 0001:000f02e3       ?ice_mayGrowFlowFromSource_AbstractBipartiteFlow@@YAPAVClaireBoolean@@PAVAbstractBipartiteFlow@@H@Z 004f12e3 f   ice:matching.obj
 0001:000f030a       ?ice_mustGrowFlowFromSource_AbstractBipartiteFlow@@YAPAVClaireBoolean@@PAVAbstractBipartiteFlow@@H@Z 004f130a f   ice:matching.obj
 0001:000f0331       ?ice_increaseMatchingSize_AbstractBipartiteFlow@@YAXPAVAbstractBipartiteFlow@@H@Z 004f1331 f   ice:matching.obj
 0001:000f0557       ?ice_decreaseMatchingSize_AbstractBipartiteFlow@@YAXPAVAbstractBipartiteFlow@@H@Z 004f1557 f   ice:matching.obj
 0001:000f077d       ?ice_findAlternatingPath_AbstractBipartiteMatching@@YAHPAVAbstractBipartiteMatching@@@Z 004f177d f   ice:matching.obj
 0001:000f0ad2       ?choco_augment_AbstractBipartiteMatching@@YAXPAVAbstractBipartiteMatching@@H@Z 004f1ad2 f   ice:matching.obj
 0001:000f0fcf       ?ice_augmentFlow_AbstractBipartiteMatching_ice@@YAXPAVAbstractBipartiteMatching@@@Z 004f1fcf f   ice:matching.obj
 0001:000f1081       ?ice_findAlternatingPath_AbstractBipartiteFlow@@YAHPAVAbstractBipartiteFlow@@@Z 004f2081 f   ice:matching.obj
 0001:000f140a       ?choco_augment_AbstractBipartiteFlow@@YAXPAVAbstractBipartiteFlow@@H@Z 004f240a f   ice:matching.obj
 0001:000f19ac       ?ice_augmentFlow_AbstractBipartiteFlow_ice@@YAXPAVAbstractBipartiteFlow@@@Z 004f29ac f   ice:matching.obj
 0001:000f1a5e       ?ice_turnIntoCompatibleFlow_AbstractBipartiteFlow@@YAXPAVAbstractBipartiteFlow@@@Z 004f2a5e f   ice:matching.obj
 0001:000f1b53       ?ice_circulate_AbstractBipartiteFlow@@YAXPAVAbstractBipartiteFlow@@H@Z 004f2b53 f   ice:matching.obj
 0001:000f20c2       ?ice_findAlternatingCycle_AbstractBipartiteFlow@@YAHPAVAbstractBipartiteFlow@@@Z 004f30c2 f   ice:matching.obj
 0001:000f23bc       ?ice_initSCCGraph_AbstractBipartiteGraph@@YAXPAVAbstractBipartiteGraph@@@Z 004f33bc f   ice:matching.obj
 0001:000f254d       ?ice_addComponentVertex_AbstractBipartiteGraph@@YAXPAVAbstractBipartiteGraph@@@Z 004f354d f   ice:matching.obj
 0001:000f2561       ?ice_addComponentEdge_AbstractBipartiteGraph@@YAXPAVAbstractBipartiteGraph@@HH@Z 004f3561 f   ice:matching.obj
 0001:000f26dd       ?ice_firstPassDFS_AbstractBipartiteMatching@@YAXPAVAbstractBipartiteMatching@@@Z 004f36dd f   ice:matching.obj
 0001:000f277b       ?ice_firstDFSearch_AbstractBipartiteMatching@@YAXPAVAbstractBipartiteMatching@@H@Z 004f377b f   ice:matching.obj
 0001:000f2927       ?ice_secondPassDFS_AbstractBipartiteMatching@@YAXPAVAbstractBipartiteMatching@@@Z 004f3927 f   ice:matching.obj
 0001:000f29e3       ?ice_secondDFSearch_AbstractBipartiteMatching@@YAXPAVAbstractBipartiteMatching@@H@Z 004f39e3 f   ice:matching.obj
 0001:000f2ed0       ?ice_firstPassDFS_AbstractBipartiteFlow@@YAXPAVAbstractBipartiteFlow@@@Z 004f3ed0 f   ice:matching.obj
 0001:000f2f6e       ?ice_firstDFSearch_AbstractBipartiteFlow@@YAXPAVAbstractBipartiteFlow@@H@Z 004f3f6e f   ice:matching.obj
 0001:000f3135       ?ice_secondPassDFS_AbstractBipartiteFlow@@YAXPAVAbstractBipartiteFlow@@@Z 004f4135 f   ice:matching.obj
 0001:000f31f1       ?ice_secondDFSearch_AbstractBipartiteFlow@@YAXPAVAbstractBipartiteFlow@@H@Z 004f41f1 f   ice:matching.obj
 0001:000f36f7       ?ice_removeUselessEdges_AbstractBipartiteMatching@@YAXPAVAbstractBipartiteMatching@@@Z 004f46f7 f   ice:matching.obj
 0001:000f3b5c       ?ice_removeUselessEdges_AbstractBipartiteFlow@@YAXPAVAbstractBipartiteFlow@@@Z 004f4b5c f   ice:matching.obj
 0001:000f3fb8       ?choco_propagate_AbstractBipartiteGraph@@YAXPAVAbstractBipartiteGraph@@@Z 004f4fb8 f   ice:matching.obj
 0001:000f3fda       ?choco_getPriority_AbstractBipartiteGraph_ice@@YAHPAVAbstractBipartiteGraph@@@Z 004f4fda f   ice:matching.obj
 0001:000f3fe4       ?choco_closeAssignmentConstraint_AbstractBipartiteGraph@@YAXPAVAbstractBipartiteGraph@@@Z 004f4fe4 f   ice:matching.obj
 0001:000f4398       ?claire_self_print_CompleteAllDiff_ice@@YAHPAVCompleteAllDiff@@@Z 004f5398 f   ice:matching.obj
 0001:000f4514       ?choco_completeAllDiff_list@@YAPAVCompleteAllDiff@@PAVlist@@@Z 004f5514 f   ice:matching.obj
 0001:000f479d       ?ice_setEdgeAndPublish_CompleteAllDiff@@YAXPAVCompleteAllDiff@@HH@Z 004f579d f   ice:matching.obj
 0001:000f4eef       ?choco_deleteEdgeAndPublish_CompleteAllDiff@@YAXPAVCompleteAllDiff@@HH@Z 004f5eef f   ice:matching.obj
 0001:000f5224       ?choco_awakeOnRem_CompleteAllDiff@@YAXPAVCompleteAllDiff@@HH@Z 004f6224 f   ice:matching.obj
 0001:000f5552       ?choco_awakeOnVar_CompleteAllDiff@@YAXPAVCompleteAllDiff@@H@Z 004f6552 f   ice:matching.obj
 0001:000f59ee       ?choco_awakeOnInf_CompleteAllDiff@@YAXPAVCompleteAllDiff@@H@Z 004f69ee f   ice:matching.obj
 0001:000f5d68       ?choco_awakeOnSup_CompleteAllDiff@@YAXPAVCompleteAllDiff@@H@Z 004f6d68 f   ice:matching.obj
 0001:000f60e1       ?choco_awakeOnInst_CompleteAllDiff@@YAXPAVCompleteAllDiff@@H@Z 004f70e1 f   ice:matching.obj
 0001:000f6133       ?choco_awake_CompleteAllDiff_ice@@YAXPAVCompleteAllDiff@@@Z 004f7133 f   ice:matching.obj
 0001:000f6144       ?claire_self_print_Permutation_ice@@YAHPAVPermutation@@@Z 004f7144 f   ice:matching.obj
 0001:000f6352       ?ice_setEdgeAndPublish_Permutation@@YAXPAVPermutation@@HHPAVClaireBoolean@@@Z 004f7352 f   ice:matching.obj
 0001:000f6b87       ?choco_deleteEdgeAndPublish_Permutation1@@YAXPAVPermutation@@HHPAVClaireBoolean@@@Z 004f7b87 f   ice:matching.obj
 0001:000f6f01       ?choco_deleteEdgeAndPublish_Permutation2@@YAXPAVPermutation@@HH@Z 004f7f01 f   ice:matching.obj
 0001:000f726e       ?choco_awakeOnRem_Permutation@@YAXPAVPermutation@@HH@Z 004f826e f   ice:matching.obj
 0001:000f72d7       ?choco_awakeOnVar_Permutation@@YAXPAVPermutation@@H@Z 004f82d7 f   ice:matching.obj
 0001:000f74f2       ?choco_awakeOnInf_Permutation@@YAXPAVPermutation@@H@Z 004f84f2 f   ice:matching.obj
 0001:000f75e0       ?choco_awakeOnSup_Permutation@@YAXPAVPermutation@@H@Z 004f85e0 f   ice:matching.obj
 0001:000f76cc       ?choco_awakeOnInst_Permutation@@YAXPAVPermutation@@H@Z 004f86cc f   ice:matching.obj
 0001:000f776c       ?choco_awake_Permutation_ice@@YAXPAVPermutation@@@Z 004f876c f   ice:matching.obj
 0001:000f79c3       ?choco_permutation_list@@YAPAVPermutation@@PAVlist@@0@Z 004f89c3 f   ice:matching.obj
 0001:000f7c30       ?claire_self_print_GlobalCardinality_ice@@YAHPAVGlobalCardinality@@@Z 004f8c30 f   ice:matching.obj
 0001:000f7dac       ?choco_deleteEdgeAndPublish_GlobalCardinality@@YAXPAVGlobalCardinality@@HH@Z 004f8dac f   ice:matching.obj
 0001:000f8112       ?ice_setEdgeAndPublish_GlobalCardinality@@YAXPAVGlobalCardinality@@HH@Z 004f9112 f   ice:matching.obj
 0001:000f87de       ?choco_awakeOnRem_GlobalCardinality@@YAXPAVGlobalCardinality@@HH@Z 004f97de f   ice:matching.obj
 0001:000f8813       ?choco_awakeOnVar_GlobalCardinality@@YAXPAVGlobalCardinality@@H@Z 004f9813 f   ice:matching.obj
 0001:000f8d0d       ?choco_awakeOnInf_GlobalCardinality@@YAXPAVGlobalCardinality@@H@Z 004f9d0d f   ice:matching.obj
 0001:000f90e4       ?choco_awakeOnSup_GlobalCardinality@@YAXPAVGlobalCardinality@@H@Z 004fa0e4 f   ice:matching.obj
 0001:000f94bb       ?choco_awakeOnInst_GlobalCardinality@@YAXPAVGlobalCardinality@@H@Z 004fa4bb f   ice:matching.obj
 0001:000f9d4b       ?choco_awake_GlobalCardinality_ice@@YAXPAVGlobalCardinality@@@Z 004fad4b f   ice:matching.obj
 0001:000f9df0       ?choco_gcc_list1@@YAPAVGlobalCardinality@@PAVlist@@0@Z 004fadf0 f   ice:matching.obj
 0001:000f9e0e       ?choco_gcc_list2@@YAPAVGlobalCardinality@@PAVlist@@HH0@Z 004fae0e f   ice:matching.obj
 0001:000fa0c1       ?ice_checkComponentOrder_AbstractBipartiteMatching@@YAXPAVAbstractBipartiteMatching@@@Z 004fb0c1 f   ice:matching.obj
 0001:000fa980       ?ice_getTotalPenaltyVar_AbstractWCSP@@YAPAVIntVar@@PAVAbstractWCSP@@@Z 004fb980 f   ice:wcsp.obj
 0001:000fa9a3       ?ice_getSubConst_AbstractWCSP@@YAPAVAbstractConstraint@@PAVAbstractWCSP@@H@Z 004fb9a3 f   ice:wcsp.obj
 0001:000fa9c3       ?ice_getSubConstPenalty_AbstractWCSP@@YAHPAVAbstractWCSP@@H@Z 004fb9c3 f   ice:wcsp.obj
 0001:000fa9d4       ?ice_getSubVar_AbstractWCSP@@YAPAVIntVar@@PAVAbstractWCSP@@H@Z 004fb9d4 f   ice:wcsp.obj
 0001:000fa9f9       ?ice_getNbSubVars_AbstractWCSP@@YAHPAVAbstractWCSP@@@Z 004fb9f9 f   ice:wcsp.obj
 0001:000faa04       ?ice_getNbSubConst_AbstractWCSP@@YAHPAVAbstractWCSP@@@Z 004fba04 f   ice:wcsp.obj
 0001:000faa0f       ?ice_getNbSubConstLinkedTo_AbstractWCSP@@YAHPAVAbstractWCSP@@H@Z 004fba0f f   ice:wcsp.obj
 0001:000faa34       ?ice_getSubConstIndex_AbstractWCSP@@YAHPAVAbstractWCSP@@HH@Z 004fba34 f   ice:wcsp.obj
 0001:000faa64       ?ice_getIndex_AbstractWCSP@@YAHPAVAbstractWCSP@@PAVIntVar@@@Z 004fba64 f   ice:wcsp.obj
 0001:000fab83       ?ice_addVar_AbstractWCSP@@YAXPAVAbstractWCSP@@PAVIntVar@@@Z 004fbb83 f   ice:wcsp.obj
 0001:000facc7       ?ice_getUnInstantiatedVarIdx_AbstractWCSP@@YAHPAVAbstractWCSP@@H@Z 004fbcc7 f   ice:wcsp.obj
 0001:000fade3       ?ice_initWCSPNetwork_AbstractWCSP@@YAXPAVAbstractWCSP@@PAVlist@@@Z 004fbde3 f   ice:wcsp.obj
 0001:000fb27e       ?ice_display_AdditiveWCSP@@YAHPAVAdditiveWCSP@@@Z 004fc27e f   ice:wcsp.obj
 0001:000fb44a       ?choco_additiveWCSP_list@@YAPAVAdditiveWCSP@@PAVlist@@0PAVIntVar@@@Z 004fc44a f   ice:wcsp.obj
 0001:000fb8a7       ?ice_getNbUnInstantiatedVars_AdditiveWCSP@@YAHPAVAdditiveWCSP@@H@Z 004fc8a7 f   ice:wcsp.obj
 0001:000fb8b8       ?ice_getInconsistencyCount_AdditiveWCSP@@YAHPAVAdditiveWCSP@@HH@Z 004fc8b8 f   ice:wcsp.obj
 0001:000fb906       ?ice_setInconsistencyCount_AdditiveWCSP@@YAXPAVAdditiveWCSP@@HHH@Z 004fc906 f   ice:wcsp.obj
 0001:000fba72       ?ice_increaseInconsistencyCount_AdditiveWCSP@@YAPAVClaireBoolean@@PAVAdditiveWCSP@@HHH@Z 004fca72 f   ice:wcsp.obj
 0001:000fbc73       ?ice_makeInconsistencyCount_AdditiveWCSP@@YAXPAVAdditiveWCSP@@@Z 004fcc73 f   ice:wcsp.obj
 0001:000fbe61       ?choco_awakeOnInst_AdditiveWCSP@@YAXPAVAdditiveWCSP@@H@Z 004fce61 f   ice:wcsp.obj
 0001:000fc364       ?ice_updateIC_AdditiveWCSP@@YAPAVClaireBoolean@@PAVAdditiveWCSP@@HH@Z 004fd364 f   ice:wcsp.obj
 0001:000fca3c       ?ice_recomputeVarPenalty_AdditiveWCSP@@YAPAVClaireBoolean@@PAVAdditiveWCSP@@H@Z 004fda3c f   ice:wcsp.obj
 0001:000fd03b       ?ice_getVarPenalty_AdditiveWCSP@@YAHPAVAdditiveWCSP@@H@Z 004fe03b f   ice:wcsp.obj
 0001:000fd04c       ?choco_awakeOnRem_AdditiveWCSP@@YAXPAVAdditiveWCSP@@HH@Z 004fe04c f   ice:wcsp.obj
 0001:000fd098       ?choco_awakeOnVar_AdditiveWCSP@@YAXPAVAdditiveWCSP@@H@Z 004fe098 f   ice:wcsp.obj
 0001:000fd11c       ?choco_awakeOnInf_AdditiveWCSP@@YAXPAVAdditiveWCSP@@H@Z 004fe11c f   ice:wcsp.obj
 0001:000fd13c       ?choco_awakeOnSup_AdditiveWCSP@@YAXPAVAdditiveWCSP@@H@Z 004fe13c f   ice:wcsp.obj
 0001:000fd171       ?choco_getPriority_AdditiveWCSP_ice@@YAHPAVAdditiveWCSP@@@Z 004fe171 f   ice:wcsp.obj
 0001:000fd17b       ?choco_propagate_AdditiveWCSP@@YAXPAVAdditiveWCSP@@@Z 004fe17b f   ice:wcsp.obj
 0001:000fdb50       ?choco_awake_AdditiveWCSP_ice@@YAXPAVAdditiveWCSP@@@Z 004feb50 f   ice:wcsp.obj
 0001:000fe00a       ?choco_testIfSatisfied_AdditiveWCSP@@YAPAVClaireBoolean@@PAVAdditiveWCSP@@@Z 004ff00a f   ice:wcsp.obj
 0001:000fe1a0       ?bootstrap@KernelClass@@QAEXXZ 004ff1a0 f   Kernel:Kernel.obj
 0001:001002b0       ?metaLoad@KernelClass@@QAEXXZ 005012b0 f   Kernel:Kernel.obj
 0001:00102900       ?copy_string@@YAPADPAD@Z   00503900 f   Kernel:Clstring.obj
 0001:00102960       ?equal_string@@YAPAVClaireBoolean@@PAD0@Z 00503960 f   Kernel:Clstring.obj
 0001:001029a0       ?princ_string@@YAXPAD@Z    005039a0 f   Kernel:Clstring.obj
 0001:001029d0       ?self_print_string@@YAXPAD@Z 005039d0 f   Kernel:Clstring.obj
 0001:00102a70       ?append_string@@YAPADPAD0@Z 00503a70 f   Kernel:Clstring.obj
 0001:00102b30       ?integer_I_string@@YAHPAD@Z 00503b30 f   Kernel:Clstring.obj
 0001:00102b50       ?substring_string@@YAPADPADHH@Z 00503b50 f   Kernel:Clstring.obj
 0001:00102be0       ?get_string@@YAHPADPAVClaireChar@@@Z 00503be0 f   Kernel:Clstring.obj
 0001:00102c10       ?_less_string@@YAPAVClaireBoolean@@PAD0@Z 00503c10 f   Kernel:Clstring.obj
 0001:00102c50       ?included_string@@YAHPAD0PAVClaireBoolean@@@Z 00503c50 f   Kernel:Clstring.obj
 0001:00102cd0       ?nth_string@@YAPAVClaireChar@@PADH@Z 00503cd0 f   Kernel:Clstring.obj
 0001:00102d30       ?nth_set_string@@YAXPADHPAVClaireChar@@@Z 00503d30 f   Kernel:Clstring.obj
 0001:00102d80       ?shrink_string@@YAPADPADH@Z 00503d80 f   Kernel:Clstring.obj
 0001:00102dd0       ?value_string@@YAHPAD@Z    00503dd0 f   Kernel:Clstring.obj
 0001:00102df0       ?value_module@@YAHPAVmodule@@PAD@Z 00503df0 f   Kernel:Clstring.obj
 0001:00102e10       ?get_symbol_module@@YAHPAVmodule@@PAD@Z 00503e10 f   Kernel:Clstring.obj
 0001:00102e40       ?date_I_integer@@YAPADH@Z  00503e40 f   Kernel:Clstring.obj
 0001:00102e70       ?getenv_string@@YAPADPAD@Z 00503e70 f   Kernel:Clstring.obj
 0001:00102e90       ?make@module@@SAPAV1@PADPAV1@@Z 00503e90 f   Kernel:Clstring.obj
 0001:00102f00       ?hash@module@@QAEIPAD@Z    00503f00 f   Kernel:Clstring.obj
 0001:00102f40       ?lookup@module@@QAEPAVsymbol@@PAD@Z 00503f40 f   Kernel:Clstring.obj
 0001:00102fe0       ?getSymbol@module@@QAEPAVsymbol@@PADPAV1@@Z 00503fe0 f   Kernel:Clstring.obj
 0001:00103030       ?initModule@NameSpace@@QAEXPADPAVmodule@@@Z 00504030 f   Kernel:Clstring.obj
 0001:00103050       ?initModule@NameSpace@@QAEXPADPAVmodule@@PAVlist@@02@Z 00504050 f   Kernel:Clstring.obj
 0001:001030e0       ?begin_module@@YAXPAVmodule@@@Z 005040e0 f   Kernel:Clstring.obj
 0001:00103110       ?end_module@@YAXPAVmodule@@@Z 00504110 f   Kernel:Clstring.obj
 0001:00103160       ?make@symbol@@SAPAV1@PADPAVmodule@@1@Z 00504160 f   Kernel:Clstring.obj
 0001:00103240       ?getValue@symbol@@QAEHXZ   00504240 f   Kernel:Clstring.obj
 0001:00103280       ?symbolDebug@@YAXPAVsymbol@@@Z 00504280 f   Kernel:Clstring.obj
 0001:001032f0       ?symbol_I_string@@YAPAVsymbol@@PADPAVmodule@@@Z 005042f0 f   Kernel:Clstring.obj
 0001:00103310       ?put_symbol@@YAHPAVsymbol@@H@Z 00504310 f   Kernel:Clstring.obj
 0001:00103320       ?get_symbol@@YAHPAVsymbol@@@Z 00504320 f   Kernel:Clstring.obj
 0001:00103340       ?append_symbol@@YAPAVsymbol@@PAV1@H@Z 00504340 f   Kernel:Clstring.obj
 0001:00103460       ?princ_symbol@@YAXPAVsymbol@@@Z 00504460 f   Kernel:Clstring.obj
 0001:001034c0       ?defined_symbol@@YAPAVmodule@@PAVsymbol@@@Z 005044c0 f   Kernel:Clstring.obj
 0001:001034d0       ?module_I_symbol@@YAPAVmodule@@PAVsymbol@@@Z 005044d0 f   Kernel:Clstring.obj
 0001:001034e0       ?string_I_symbol@@YAPADPAVsymbol@@@Z 005044e0 f   Kernel:Clstring.obj
 0001:001034f0       ?gensym_string@@YAPAVsymbol@@PAD@Z 005044f0 f   Kernel:Clstring.obj
 0001:001036d0       ?integer_I_symbol@@YAHPAVsymbol@@@Z 005046d0 f   Kernel:Clstring.obj
 0001:00103740       ?princ_integer@@YAXH@Z     00504740 f   Kernel:Clstring.obj
 0001:00103760       ?ch_sign@@YAHH@Z           00504760 f   Kernel:Clstring.obj
 0001:00103770       ?_7_integer@@YAHHH@Z       00504770 f   Kernel:Clstring.obj
 0001:001037a0       ?mod_integer@@YAHHH@Z      005047a0 f   Kernel:Clstring.obj
 0001:001037d0       ?_exp_integer@@YAHHH@Z     005047d0 f   Kernel:Clstring.obj
 0001:00103820       ?exp2_integer@@YAHH@Z      00504820 f   Kernel:Clstring.obj
 0001:00103850       ?char_I_integer@@YAPAVClaireChar@@H@Z 00504850 f   Kernel:Clstring.obj
 0001:001038a0       ?string_I_integer@@YAPADH@Z 005048a0 f   Kernel:Clstring.obj
 0001:001038d0       ?make_string_integer@@YAPADHPAVClaireChar@@@Z 005048d0 f   Kernel:Clstring.obj
 0001:00103930       ?make_string_list@@YAPADPAVlist@@@Z 00504930 f   Kernel:Clstring.obj
 0001:001039b0       ?times_integer@@YAHHH@Z    005049b0 f   Kernel:Clstring.obj
 0001:00103a10       ?random_integer@@YAHH@Z    00504a10 f   Kernel:Clstring.obj
 0001:00103a40       ?princ_int@@YAXH@Z         00504a40 f   Kernel:Clstring.obj
 0001:00103a60       ?to_float_@@YAHH@Z         00504a60 f   Kernel:Clstring.obj
 0001:00103ad0       ?to_float@@YANH@Z          00504ad0 f   Kernel:Clstring.obj
 0001:00103ae0       ?integer_I_float_@@YAHH@Z  00504ae0 f   Kernel:Clstring.obj
 0001:00103b10       ?integer_I_float@@YAHN@Z   00504b10 f   Kernel:Clstring.obj
 0001:00103bf0       ?_inf_float@@YAPAVClaireBoolean@@NN@Z 00504bf0 f   Kernel:Clstring.obj
 0001:00103c10       ?_inf_equal_float@@YAPAVClaireBoolean@@NN@Z 00504c10 f   Kernel:Clstring.obj
 0001:00103c30       ?_sup_float@@YAPAVClaireBoolean@@NN@Z 00504c30 f   Kernel:Clstring.obj
 0001:00103c50       ?_sup_equal_float@@YAPAVClaireBoolean@@NN@Z 00504c50 f   Kernel:Clstring.obj
 0001:00103c70       ?_inf_float_@@YAPAVClaireBoolean@@HH@Z 00504c70 f   Kernel:Clstring.obj
 0001:00103cb0       ?_inf_equal_float_@@YAPAVClaireBoolean@@HH@Z 00504cb0 f   Kernel:Clstring.obj
 0001:00103cf0       ?_sup_float_@@YAPAVClaireBoolean@@HH@Z 00504cf0 f   Kernel:Clstring.obj
 0001:00103d30       ?_sup_equal_float_@@YAPAVClaireBoolean@@HH@Z 00504d30 f   Kernel:Clstring.obj
 0001:00103d70       ?princ_float@@YAXN@Z       00504d70 f   Kernel:Clstring.obj
 0001:00103d90       ?princ_float_@@YAXH@Z      00504d90 f   Kernel:Clstring.obj
 0001:00103dc0       ?checkNextFree@@YAXXZ      00504dc0 f   Kernel:Clalloc.OBJ
 0001:00103df0       ?GC_DEBUG@@YAHH@Z          00504df0 f   Kernel:Clalloc.OBJ
 0001:00103e00       ?init@ClaireAllocation@@QAEXXZ 00504e00 f   Kernel:Clalloc.OBJ
 0001:00104040       ?log2up@ClaireAllocation@@SAHH@Z 00505040 f   Kernel:Clalloc.OBJ
 0001:00104060       ?newChunk@ClaireAllocation@@AAEHH@Z 00505060 f   Kernel:Clalloc.OBJ
 0001:001041f0       ?newShort@ClaireAllocation@@AAEHH@Z 005051f0 f   Kernel:Clalloc.OBJ
 0001:00104290       ?newLong@ClaireAllocation@@AAEHH@Z 00505290 f   Kernel:Clalloc.OBJ
 0001:001042e0       ?makeStatic@ClaireAllocation@@QAEPAVClaireAny@@H@Z 005052e0 f   Kernel:Clalloc.OBJ
 0001:00104310       ?makeAny@ClaireAllocation@@QAEPAVClaireAny@@H@Z 00505310 f   Kernel:Clalloc.OBJ
 0001:00104370       ?makeString@ClaireAllocation@@QAEPADH@Z 00505370 f   Kernel:Clalloc.OBJ
 0001:001043b0       ?makeArray@ClaireAllocation@@QAEPAHHPAVClaireType@@@Z 005053b0 f   Kernel:Clalloc.OBJ
 0001:00104410       ?makeContent@ClaireAllocation@@QAEPAHH@Z 00505410 f   Kernel:Clalloc.OBJ
 0001:00104440       ?import@ClaireAllocation@@QAEHPAVClaireClass@@PAH@Z 00505440 f   Kernel:Clalloc.OBJ
 0001:001044e0       ?makeFunction@ClaireAllocation@@QAEPAVClaireFunction@@P6AHH@ZPAD@Z 005054e0 f   Kernel:Clalloc.OBJ
 0001:00104510       ?error_undefined_function@@YAHXZ 00505510 f   Kernel:Clalloc.OBJ
 0001:00104530       ?make_function_string@@YAPAVClaireFunction@@PAD@Z 00505530 f   Kernel:Clalloc.OBJ
 0001:00104550       ?freeChunk@ClaireAllocation@@AAEHH@Z 00505550 f   Kernel:Clalloc.OBJ
 0001:001045d0       ?freeLoop@ClaireAllocation@@AAEHH@Z 005055d0 f   Kernel:Clalloc.OBJ
 0001:00104680       ?freeSimple@ClaireAllocation@@AAEHHH@Z 00505680 f   Kernel:Clalloc.OBJ
 0001:001046d0       ?mergeRight@ClaireAllocation@@AAEHHHH@Z 005056d0 f   Kernel:Clalloc.OBJ
 0001:00104740       ?mergeLeft@ClaireAllocation@@AAEHHHH@Z 00505740 f   Kernel:Clalloc.OBJ
 0001:001047b0       ?freeObject@ClaireAllocation@@AAEXH@Z 005057b0 f   Kernel:Clalloc.OBJ
 0001:00104810       ?freeString@ClaireAllocation@@AAEXPAD@Z 00505810 f   Kernel:Clalloc.OBJ
 0001:00104850       ?freeChain@@YAXXZ          00505850 f   Kernel:Clalloc.OBJ
 0001:001048b0       ?gc@ClaireAllocation@@QAEXPAD@Z 005058b0 f   Kernel:Clalloc.OBJ
 0001:00104a00       ?markHash@ClaireAllocation@@AAEXXZ 00505a00 f   Kernel:Clalloc.OBJ
 0001:00104ac0       ?markStack@ClaireAllocation@@AAEXXZ 00505ac0 f   Kernel:Clalloc.OBJ
 0001:00104bb0       ?markPushed@ClaireAllocation@@AAEXH@Z 00505bb0 f   Kernel:Clalloc.OBJ
 0001:00104c10       ?mark@ClaireAllocation@@AAEXH@Z 00505c10 f   Kernel:Clalloc.OBJ
 0001:00104d10       ?markAny@ClaireAllocation@@AAEXPAVClaireAny@@@Z 00505d10 f   Kernel:Clalloc.OBJ
 0001:00104da0       ?markObject@ClaireAllocation@@AAEXPAVClaireObject@@@Z 00505da0 f   Kernel:Clalloc.OBJ
 0001:00104ea0       ?markPrimitive@ClaireAllocation@@AAEXPAVClairePrimitive@@@Z 00505ea0 f   Kernel:Clalloc.OBJ
 0001:00104f30       ?markBag@ClaireAllocation@@AAEXPAVbag@@@Z 00505f30 f   Kernel:Clalloc.OBJ
 0001:00104fd0       ?markString@ClaireAllocation@@AAEXPAD@Z 00505fd0 f   Kernel:Clalloc.OBJ
 0001:00105010       ?markArray@ClaireAllocation@@AAEXPAH@Z 00506010 f   Kernel:Clalloc.OBJ
 0001:00105070       ?sweepChunk@ClaireAllocation@@AAEXXZ 00506070 f   Kernel:Clalloc.OBJ
 0001:001050e0       ?sweepObject@ClaireAllocation@@AAEXXZ 005060e0 f   Kernel:Clalloc.OBJ
 0001:00105170       ?checkOID@@YAXH@Z          00506170 f   Kernel:Clalloc.OBJ
 0001:00105230       ?kill@ClaireAllocation@@QAEXH@Z 00506230 f   Kernel:Clalloc.OBJ
 0001:001053c0       ?kill_I_any@@YAXH@Z        005063c0 f   Kernel:Clalloc.OBJ
 0001:001053e0       ?claire_gc@@YAXXZ          005063e0 f   Kernel:Clalloc.OBJ
 0001:00105400       ?GC_OBJ_F@@YAPAVClaireObject@@PAV1@@Z 00506400 f   Kernel:Clalloc.OBJ
 0001:00105430       ?GC_OID@@YAHH@Z            00506430 f   Kernel:Clalloc.OBJ
 0001:00105480       ?GC__OID@@YAXHH@Z          00506480 f   Kernel:Clalloc.OBJ
 0001:001054c0       ?GC_STRING@@YAPADPAD@Z     005064c0 f   Kernel:Clalloc.OBJ
 0001:00105510       ?GC__STRING@@YAXPADH@Z     00506510 f   Kernel:Clalloc.OBJ
 0001:00105560       ?GC_ARRAY@@YAPAHPAH@Z      00506560 f   Kernel:Clalloc.OBJ
 0001:001055a0       ?gc_error@@YAHXZ           005065a0 f   Kernel:Clalloc.OBJ
 0001:001055c0       ?GC_RESERVE@@YAXH@Z        005065c0 f   Kernel:Clalloc.OBJ
 0001:00105640       ?memStat@ClaireAllocation@@QAEXXZ 00506640 f   Kernel:Clalloc.OBJ
 0001:001059a0       ?memList@ClaireAllocation@@QAEPAVlist@@PAVClaireBoolean@@@Z 005069a0 f   Kernel:Clalloc.OBJ
 0001:00105a70       ?claire_stat@@YAXXZ        00506a70 f   Kernel:Clalloc.OBJ
 0001:00105a80       ?claire_mem@@YAHH@Z        00506a80 f   Kernel:Clalloc.OBJ
 0001:00105b60       ?quickSort@bag@@SAXPAHHH@Z 00506b60 f   Kernel:Clbag.OBJ
 0001:00105c80       ?quickClean@bag@@SAHPAHH@Z 00506c80 f   Kernel:Clbag.OBJ
 0001:00105de0       ?clone@bag@@QAEPAVlist@@XZ 00506de0 f   Kernel:Clbag.OBJ
 0001:00105df0       ?clone@bag@@QAEPAVlist@@PAVClaireType@@@Z 00506df0 f   Kernel:Clbag.OBJ
 0001:00105ef0       ?copy_bag@@YAPAVbag@@PAV1@@Z 00506ef0 f   Kernel:Clbag.OBJ
 0001:00105fb0       ?empty_bag@@YAPAVbag@@PAV1@@Z 00506fb0 f   Kernel:Clbag.OBJ
 0001:00106040       ?delete_bag@@YAPAVbag@@PAV1@H@Z 00507040 f   Kernel:Clbag.OBJ
 0001:00106130       ?of_bag@@YAPAVClaireType@@PAVbag@@@Z 00507130 f   Kernel:Clbag.OBJ
 0001:00106150       ?cast_I_bag@@YAPAVbag@@PAV1@PAVClaireType@@@Z 00507150 f   Kernel:Clbag.OBJ
 0001:00106160       ?empty@list@@SAPAV1@XZ     00507160 f   Kernel:Clbag.OBJ
 0001:001061e0       ?empty@list@@SAPAV1@PAVClaireType@@@Z 005071e0 f   Kernel:Clbag.OBJ
 0001:00106260       ?make@list@@SAPAV1@H@Z     00507260 f   Kernel:Clbag.OBJ
 0001:001062e0       ?make@list@@SAPAV1@HH@Z    005072e0 f   Kernel:Clbag.OBJ
 0001:00106360       ?alloc@list@@SAPAV1@HZZ    00507360 f   Kernel:Clbag.OBJ
 0001:00106400       ?alloc@list@@SAPAV1@PAVClaireType@@HZZ 00507400 f   Kernel:Clbag.OBJ
 0001:001064a0       ?domain@list@@SAPAV1@HZZ   005074a0 f   Kernel:Clbag.OBJ
 0001:00106550       ?addFast@list@@QAEPAV1@H@Z 00507550 f   Kernel:Clbag.OBJ
 0001:001065b0       ?equalList@list@@QAEPAVClaireBoolean@@PAV1@@Z 005075b0 f   Kernel:Clbag.OBJ
 0001:00106620       ?memq@list@@QAEPAVClaireBoolean@@H@Z 00507620 f   Kernel:Clbag.OBJ
 0001:00106660       ?contain_ask_list@@YAPAVClaireBoolean@@PAVlist@@H@Z 00507660 f   Kernel:Clbag.OBJ
 0001:001066f0       ?add_list@@YAPAVlist@@PAV1@H@Z 005076f0 f   Kernel:Clbag.OBJ
 0001:00106740       ?add_I_list@@YAPAVlist@@PAV1@H@Z 00507740 f   Kernel:Clbag.OBJ
 0001:00106750       ?cons_any@@YAPAVlist@@HPAV1@@Z 00507750 f   Kernel:Clbag.OBJ
 0001:00106830       ?make_list_integer@@YAPAVlist@@HH@Z 00507830 f   Kernel:Clbag.OBJ
 0001:001068f0       ?index_list@@YAHPAVlist@@H@Z 005078f0 f   Kernel:Clbag.OBJ
 0001:00106950       ?add_star_list@@YAPAVlist@@PAV1@0@Z 00507950 f   Kernel:Clbag.OBJ
 0001:00106a50       ?append_list@@YAPAVlist@@PAV1@0@Z 00507a50 f   Kernel:Clbag.OBJ
 0001:00106b80       ?add_at_list@@YAPAVlist@@PAV1@HH@Z 00507b80 f   Kernel:Clbag.OBJ
 0001:00106c50       ?delete_at_list@@YAPAVlist@@PAV1@H@Z 00507c50 f   Kernel:Clbag.OBJ
 0001:00106cb0       ?skip_list@@YAPAVlist@@PAV1@H@Z 00507cb0 f   Kernel:Clbag.OBJ
 0001:00106d40       ?cdr_list@@YAPAVlist@@PAV1@@Z 00507d40 f   Kernel:Clbag.OBJ
 0001:00106e00       ?shrink_list@@YAPAVbag@@PAV1@H@Z 00507e00 f   Kernel:Clbag.OBJ
 0001:00106e40       ?empty@set@@SAPAV1@XZ      00507e40 f   Kernel:Clbag.OBJ
 0001:00106ec0       ?empty@set@@SAPAV1@PAVClaireType@@@Z 00507ec0 f   Kernel:Clbag.OBJ
 0001:00106f40       ?alloc@set@@SAPAV1@HZZ     00507f40 f   Kernel:Clbag.OBJ
 0001:00106f80       ?alloc@set@@SAPAV1@PAVClaireType@@HZZ 00507f80 f   Kernel:Clbag.OBJ
 0001:00106fc0       ?addFast@set@@QAEPAV1@H@Z  00507fc0 f   Kernel:Clbag.OBJ
 0001:00107150       ?equalSet@set@@QAEPAVClaireBoolean@@PAV1@@Z 00508150 f   Kernel:Clbag.OBJ
 0001:00107210       ?contain_ask_set@@YAPAVClaireBoolean@@PAVset@@H@Z 00508210 f   Kernel:Clbag.OBJ
 0001:001072e0       ?add_set@@YAPAVset@@PAV1@H@Z 005082e0 f   Kernel:Clbag.OBJ
 0001:00107330       ?add_I_set@@YAPAVset@@PAV1@H@Z 00508330 f   Kernel:Clbag.OBJ
 0001:00107340       ?_exp_set@@YAPAVset@@PAV1@0@Z 00508340 f   Kernel:Clbag.OBJ
 0001:001074e0       ?append_set@@YAPAVset@@PAV1@0@Z 005084e0 f   Kernel:Clbag.OBJ
 0001:001077c0       ?set_I_bag@@YAPAVset@@PAVbag@@@Z 005087c0 f   Kernel:Clbag.OBJ
 0001:00107830       ?list_I_set@@YAPAVlist@@PAVset@@@Z 00508830 f   Kernel:Clbag.OBJ
 0001:00107850       ?sequence_integer@@YAPAVset@@HH@Z 00508850 f   Kernel:Clbag.OBJ
 0001:00107930       ?empty@tuple@@SAPAV1@XZ    00508930 f   Kernel:Clbag.OBJ
 0001:001079b0       ?alloc@tuple@@SAPAV1@HZZ   005089b0 f   Kernel:Clbag.OBJ
 0001:00107a50       ?allocStack@tuple@@SAPAV1@HZZ 00508a50 f   Kernel:Clbag.OBJ
 0001:00107ae0       ?tuple_I_list@@YAPAVtuple@@PAVlist@@@Z 00508ae0 f   Kernel:Clbag.OBJ
 0001:00107b00       ?list_I_tuple@@YAPAVlist@@PAVtuple@@@Z 00508b00 f   Kernel:Clbag.OBJ
 0001:00107b20       ?addFast@tuple@@QAEPAV1@H@Z 00508b20 f   Kernel:Clbag.OBJ
 0001:00107b30       ?copyIfNeeded@tuple@@QAEPAV1@XZ 00508b30 f   Kernel:Clbag.OBJ
 0001:00107b60       ?copy_array@@YAPAHPAH@Z    00508b60 f   Kernel:Clbag.OBJ
 0001:00107ba0       ?length_array@@YAHPAH@Z    00508ba0 f   Kernel:Clbag.OBJ
 0001:00107bb0       ?of_array@@YAPAVClaireType@@PAH@Z 00508bb0 f   Kernel:Clbag.OBJ
 0001:00107bc0       ?make_array_integer@@YAPAHHPAVClaireType@@H@Z 00508bc0 f   Kernel:Clbag.OBJ
 0001:00107c70       ?nth_get_array@@YAHPAHH@Z  00508c70 f   Kernel:Clbag.OBJ
 0001:00107d10       ?nth_put_array@@YAXPAHHH@Z 00508d10 f   Kernel:Clbag.OBJ
 0001:00107d60       ?list_I_array@@YAPAVlist@@PAH@Z 00508d60 f   Kernel:Clbag.OBJ
 0001:00107ee0       ?array_I_list@@YAPAHPAVlist@@@Z 00508ee0 f   Kernel:Clbag.OBJ
 0001:00107f60       ?contain_ask_array@@YAPAVClaireBoolean@@PAHH@Z 00508f60 f   Kernel:Clbag.OBJ
 0001:00108090       ?contains@ClaireCollection@@QAEPAVClaireBoolean@@H@Z 00509090 f   Kernel:Clreflect.obj
 0001:00108190       ?copy_object@@YAPAVClaireObject@@PAV1@@Z 00509190 f   Kernel:Clreflect.obj
 0001:001081c0       ?equal@@YAPAVClaireBoolean@@HH@Z 005091c0 f   Kernel:Clreflect.obj
 0001:001082d0       ?slot_get_object@@YAHPAVClaireObject@@HPAVClaireClass@@@Z 005092d0 f   Kernel:Clreflect.obj
 0001:00108490       ?belong_to@@YAPAVClaireBoolean@@HH@Z 00509490 f   Kernel:Clreflect.obj
 0001:00108520       ?hash_list@@YAHPAVlist@@H@Z 00509520 f   Kernel:Clreflect.obj
 0001:00108550       ?boolean_I_ClaireAny@@YAPAVClaireBoolean@@PAVClaireAny@@@Z 00509550 f   Kernel:Clreflect.obj
 0001:001085a0       ?boolean_I_any@@YAPAVClaireBoolean@@H@Z 005095a0 f   Kernel:Clreflect.obj
 0001:001085e0       ?CL_Address@@YAHH@Z        005095e0 f   Kernel:Clreflect.obj
 0001:001085f0       ?CL_Oid@@YAPADH@Z          005095f0 f   Kernel:Clreflect.obj
 0001:00108620       ?CL_Oid_inv@@YAHPAD@Z      00509620 f   Kernel:Clreflect.obj
 0001:00108640       ??RClaireClass@@QAEPAVClaireObject@@H@Z 00509640 f   Kernel:Clreflect.obj
 0001:00108670       ??RClaireClass@@QAEPAVClaireObject@@HH@Z 00509670 f   Kernel:Clreflect.obj
 0001:001086b0       ??RClaireClass@@QAEPAVClaireObject@@HHH@Z 005096b0 f   Kernel:Clreflect.obj
 0001:00108700       ?make@ClaireClass@@SAPAV1@PAVClaireAny@@@Z 00509700 f   Kernel:Clreflect.obj
 0001:00108780       ?make@ClaireClass@@SAPAV1@PAD@Z 00509780 f   Kernel:Clreflect.obj
 0001:00108800       ?make@ClaireClass@@SAPAV1@PADPAV1@PAVmodule@@@Z 00509800 f   Kernel:Clreflect.obj
 0001:00108890       ?instantiate@ClaireClass@@QAEPAVClaireObject@@H@Z 00509890 f   Kernel:Clreflect.obj
 0001:001088b0       ?instantiate@ClaireClass@@QAEPAVClaireObject@@XZ 005098b0 f   Kernel:Clreflect.obj
 0001:00108a20       ?instantiate@ClaireClass@@QAEPAVthing@@PADPAVmodule@@@Z 00509a20 f   Kernel:Clreflect.obj
 0001:00108b20       ?genealogy@ClaireClass@@QAEXXZ 00509b20 f   Kernel:Clreflect.obj
 0001:00108bc0       ?addSlot@ClaireClass@@QAEPAVslot@@PAVproperty@@PAVClaireType@@HH@Z 00509bc0 f   Kernel:Clreflect.obj
 0001:00109010       ?nBits@ClaireClass@@QAEHH@Z 0050a010 f   Kernel:Clreflect.obj
 0001:00109070       ?totalBits@ClaireClass@@QAEHXZ 0050a070 f   Kernel:Clreflect.obj
 0001:001090e0       ?encode@ClaireClass@@QAEXXZ 0050a0e0 f   Kernel:Clreflect.obj
 0001:001090f0       ?recode@ClaireClass@@QAEXH@Z 0050a0f0 f   Kernel:Clreflect.obj
 0001:00109160       ?nodeCode@ClaireClass@@QAEXHHHH@Z 0050a160 f   Kernel:Clreflect.obj
 0001:001091d0       ?add_slot_class@@YAXPAVClaireClass@@PAVproperty@@PAVClaireType@@HH@Z 0050a1d0 f   Kernel:Clreflect.obj
 0001:001091f0       ?new_object_class@@YAPAVClaireObject@@PAVClaireClass@@@Z 0050a1f0 f   Kernel:Clreflect.obj
 0001:00109200       ?new_thing_class@@YAPAVthing@@PAVClaireClass@@PAVsymbol@@@Z 0050a200 f   Kernel:Clreflect.obj
 0001:00109220       ?class_I_symbol@@YAPAVClaireClass@@PAVsymbol@@PAV1@@Z 0050a220 f   Kernel:Clreflect.obj
 0001:00109240       ?sort_I_class@@YAPAVClaireClass@@PAV1@@Z 0050a240 f   Kernel:Clreflect.obj
 0001:001092b0       ?make@property@@SAPAV1@PADPAVmodule@@@Z 0050a2b0 f   Kernel:Clreflect.obj
 0001:00109310       ?make@property@@SAPAV1@PADHPAVmodule@@@Z 0050a310 f   Kernel:Clreflect.obj
 0001:00109330       ?make@property@@SAPAV1@PADHPAVmodule@@H@Z 0050a330 f   Kernel:Clreflect.obj
 0001:00109360       ?make@property@@SAPAV1@PADHPAVmodule@@PAVClaireClass@@H@Z 0050a360 f   Kernel:Clreflect.obj
 0001:00109390       ?make@operation@@SAPAV1@PADPAVmodule@@H@Z 0050a390 f   Kernel:Clreflect.obj
 0001:001093d0       ?make@operation@@SAPAV1@PADHPAVmodule@@H@Z 0050a3d0 f   Kernel:Clreflect.obj
 0001:00109410       ??Rproperty@@QAEHH@Z       0050a410 f   Kernel:Clreflect.obj
 0001:00109440       ??Rproperty@@QAEHHH@Z      0050a440 f   Kernel:Clreflect.obj
 0001:00109490       ??Rproperty@@QAEHHHH@Z     0050a490 f   Kernel:Clreflect.obj
 0001:00109500       ??Rproperty@@QAEHHHHH@Z    0050a500 f   Kernel:Clreflect.obj
 0001:00109590       ??Rproperty@@QAEHHHHHH@Z   0050a590 f   Kernel:Clreflect.obj
 0001:00109640       ??Rproperty@@QAEHHHHHHH@Z  0050a640 f   Kernel:Clreflect.obj
 0001:00109710       ??Rproperty@@QAEHHHHHHHH@Z 0050a710 f   Kernel:Clreflect.obj
 0001:00109800       ??Rproperty@@QAEHHHHHHHHH@Z 0050a800 f   Kernel:Clreflect.obj
 0001:00109910       ??Rproperty@@QAEHHHHHHHHHH@Z 0050a910 f   Kernel:Clreflect.obj
 0001:00109a50       ??Rproperty@@QAEHHHHHHHHHHH@Z 0050aa50 f   Kernel:Clreflect.obj
 0001:00109bb0       ?super@property@@QAEHPAVClaireClass@@H@Z 0050abb0 f   Kernel:Clreflect.obj
 0001:00109bf0       ?stack_apply@property@@QAEHH@Z 0050abf0 f   Kernel:Clreflect.obj
 0001:00109c60       ?addMethod@property@@QAEPAVmethod@@PAVlist@@PAVClaireType@@HPAVClaireFunction@@@Z 0050ac60 f   Kernel:Clreflect.obj
 0001:00109d90       ?addFloatMethod@property@@QAEPAVmethod@@PAVlist@@PAVClaireType@@HPAVClaireFunction@@2@Z 0050ad90 f   Kernel:Clreflect.obj
 0001:00109dc0       ?inlineDef@method@@QAEPAV1@PAD@Z 0050adc0 f   Kernel:Clreflect.obj
 0001:00109de0       ?add_method_property@@YAPAVmethod@@PAVproperty@@PAVlist@@PAVClaireType@@HH@Z 0050ade0 f   Kernel:Clreflect.obj
 0001:00109e20       ?expand@table@@QAEHH@Z     0050ae20 f   Kernel:Clreflect.obj
 0001:00109f00       ?insertHash@table@@QAEHPAVlist@@HH@Z 0050af00 f   Kernel:Clreflect.obj
 0001:00109fb0       ?index_table@@YAHPAVtable@@H@Z 0050afb0 f   Kernel:Clreflect.obj
 0001:0010a1d0       ?index_table2@@YAHPAVtable@@HH@Z 0050b1d0 f   Kernel:Clreflect.obj
 0001:0010a360       ?get@ClairePort@@UAEDXZ    0050b360 f   Kernel:Clport.obj
 0001:0010a370       ?put@ClairePort@@UAEXD@Z   0050b370 f   Kernel:Clport.obj
 0001:0010a380       ?put@ClairePort@@UAEXH@Z   0050b380 f   Kernel:Clport.obj
 0001:0010a390       ?put@ClairePort@@UAEXN@Z   0050b390 f   Kernel:Clport.obj
 0001:0010a3a0       ?flush@ClairePort@@UAEXXZ  0050b3a0 f   Kernel:Clport.obj
 0001:0010a3b0       ?pclose@ClairePort@@UAEXXZ 0050b3b0 f   Kernel:Clport.obj
 0001:0010a3c0       ?debugSee@ClairePort@@UAEXXZ 0050b3c0 f   Kernel:Clport.obj
 0001:0010a3d0       ?getNext@ClairePort@@QAEHXZ 0050b3d0 f   Kernel:Clport.obj
 0001:0010a3e0       ?make@ClairePort@@SAPAV1@PAU_iobuf@@@Z 0050b3e0 f   Kernel:Clport.obj
 0001:0010a410       ?get@CPFile@@UAEDXZ        0050b410 f i Kernel:Clport.obj
 0001:0010a440       ?debugSee@CPFile@@UAEXXZ   0050b440 f i Kernel:Clport.obj
 0001:0010a450       ?put@CPFile@@UAEXD@Z       0050b450 f i Kernel:Clport.obj
 0001:0010a490       ?put@CPFile@@UAEXH@Z       0050b490 f i Kernel:Clport.obj
 0001:0010a4b0       ?put@CPFile@@UAEXN@Z       0050b4b0 f i Kernel:Clport.obj
 0001:0010a5e0       ?flush@CPFile@@UAEXXZ      0050b5e0 f i Kernel:Clport.obj
 0001:0010a5f0       ?pclose@CPFile@@UAEXXZ     0050b5f0 f i Kernel:Clport.obj
 0001:0010a600       ?use_as_output_port@@YAPAVClairePort@@PAV1@@Z 0050b600 f   Kernel:Clport.obj
 0001:0010a620       ?fclose_port@@YAXPAVClairePort@@@Z 0050b620 f   Kernel:Clport.obj
 0001:0010a650       ?free_I_port@@YAXPAVClairePort@@@Z 0050b650 f   Kernel:Clport.obj
 0001:0010a660       ?putc_char@@YAXPAVClaireChar@@PAVClairePort@@@Z 0050b660 f   Kernel:Clport.obj
 0001:0010a680       ?getc_port@@YAPAVClaireChar@@PAVClairePort@@@Z 0050b680 f   Kernel:Clport.obj
 0001:0010a6a0       ?flush_port@@YAXPAVClairePort@@@Z 0050b6a0 f   Kernel:Clport.obj
 0001:0010a6b0       ?fopen_string@@YAPAVClairePort@@PAD0@Z 0050b6b0 f   Kernel:Clport.obj
 0001:0010a730       ?port_I_void@@YAPAVClairePort@@XZ 0050b730 f   Kernel:Clport.obj
 0001:0010a780       ?debugSee@CPStringOut@@UAEXXZ 0050b780 f i Kernel:Clport.obj
 0001:0010a790       ?put@CPStringOut@@UAEXD@Z  0050b790 f i Kernel:Clport.obj
 0001:0010a7c0       ?put@CPStringOut@@UAEXH@Z  0050b7c0 f i Kernel:Clport.obj
 0001:0010a820       ?put@CPStringOut@@UAEXN@Z  0050b820 f i Kernel:Clport.obj
 0001:0010a980       ?port_I_string@@YAPAVClairePort@@PAD@Z 0050b980 f   Kernel:Clport.obj
 0001:0010a9c0       ?debugSee@CPStringIn@@UAEXXZ 0050b9c0 f i Kernel:Clport.obj
 0001:0010a9d0       ?get@CPStringIn@@UAEDXZ    0050b9d0 f i Kernel:Clport.obj
 0001:0010a9f0       ?pushback_port@@YAXPAVClairePort@@H@Z 0050b9f0 f   Kernel:Clport.obj
 0001:0010aa00       ?string_I_port@@YAPADPAVClairePort@@@Z 0050ba00 f   Kernel:Clport.obj
 0001:0010aa30       ?length_port@@YAHPAVClairePort@@@Z 0050ba30 f   Kernel:Clport.obj
 0001:0010aa50       ?set_length_port@@YAXPAVClairePort@@H@Z 0050ba50 f   Kernel:Clport.obj
 0001:0010aa70       ?alpha_char@@YAPAVClaireBoolean@@PAVClaireChar@@@Z 0050ba70 f   Kernel:Clport.obj
 0001:0010aae0       ?read_string_port@@YAPADPAVClairePort@@@Z 0050bae0 f   Kernel:Clport.obj
 0001:0010ab80       ?read_ident_port@@YAHPAVClairePort@@@Z 0050bb80 f   Kernel:Clport.obj
 0001:0010acd0       ?read_number_port@@YAHPAVClairePort@@@Z 0050bcd0 f   Kernel:Clport.obj
 0001:0010af50       ?read_thing_port@@YAHPAVClairePort@@PAVmodule@@PAVClaireChar@@1@Z 0050bf50 f   Kernel:Clport.obj
 0001:0010b3d0       ?init@ClaireChar@@SAXXZ    0050c3d0 f   Kernel:Clport.obj
 0001:0010b420       ?princ_char@@YAXPAVClaireChar@@@Z 0050c420 f   Kernel:Clport.obj
 0001:0010b440       ?c_princ_c@@YAXPAVClaireChar@@@Z 0050c440 f   Kernel:Clport.obj
 0001:0010b6e0       ?c_princ_string@@YAXPAD@Z  0050c6e0 f   Kernel:Clport.obj
 0001:0010b710       ?c_princ_symbol@@YAXPAVsymbol@@@Z 0050c710 f   Kernel:Clport.obj
 0001:0010b750       ?integer_I_char@@YAHPAVClaireChar@@@Z 0050c750 f   Kernel:Clport.obj
 0001:0010b760       ?time_set_void@@YAXXZ      0050c760 f   Kernel:Clport.obj
 0001:0010b7d0       ?time_get_void@@YAHXZ      0050c7d0 f   Kernel:Clport.obj
 0001:0010b840       ?time_read_void@@YAHXZ     0050c840 f   Kernel:Clport.obj
 0001:0010b8b0       ?time_show_void@@YAXXZ     0050c8b0 f   Kernel:Clport.obj
 0001:0010b960       ?claire_shell@@YAXPAD@Z    0050c960 f   Kernel:Clport.obj
 0001:0010b970       ?PRstart@@YAPAVPRcount@@PAV1@@Z 0050c970 f   Kernel:Clport.obj
 0001:0010b9c0       ?PRend@@YAXPAVPRcount@@@Z  0050c9c0 f   Kernel:Clport.obj
 0001:0010ba10       ?PRloop@@YAXPAVPRcount@@@Z 0050ca10 f   Kernel:Clport.obj
 0001:0010ba20       ?close_exception@@YAHPAVClaireException@@@Z 0050ca20 f   Kernel:Clenv.obj
 0001:0010ba50       ?safe_exception@@YAHPAVClaireException@@@Z 0050ca50 f   Kernel:Clenv.obj
 0001:0010ba80       ??0ClaireHandler@@QAE@XZ   0050ca80 f   Kernel:Clenv.obj
 0001:0010bb10       ?catchIt@ClaireHandler@@QAEXXZ 0050cb10 f   Kernel:Clenv.obj
 0001:0010bb80       ?Cerror@@YAHHHH@Z          0050cb80 f   Kernel:Clenv.obj
 0001:0010bc60       ?my_handler@@YAXH@Z        0050cc60 f   Kernel:Clenv.obj
 0001:0010bc80       ?make@system_error@@SAPAV1@HHH@Z 0050cc80 f   Kernel:Clenv.obj
 0001:0010bcb0       ?run@ClaireResource@@SAXXZ 0050ccb0 f   Kernel:Clenv.obj
 0001:0010be10       ?init@ClaireResource@@QAEXXZ 0050ce10 f   Kernel:Clenv.obj
 0001:0010be30       ?magicInit@ClaireResource@@QAEXXZ 0050ce30 f   Kernel:Clenv.obj
 0001:0010bfb0       ?makeCode@ClaireResource@@QAEHHHH@Z 0050cfb0 f   Kernel:Clenv.obj
 0001:0010bfd0       ?hashOid@ClaireResource@@QAEHHH@Z 0050cfd0 f   Kernel:Clenv.obj
 0001:0010c0d0       ?init@ClaireEnvironment@@QAEXXZ 0050d0d0 f   Kernel:Clenv.obj
 0001:0010c140       ?abort@ClaireEnvironment@@QAEXXZ 0050d140 f   Kernel:Clenv.obj
 0001:0010c160       ?restore_state_void@@YAXXZ 0050d160 f   Kernel:Clenv.obj
 0001:0010c1a0       ?bufferCopy@ClaireEnvironment@@QAEPADXZ 0050d1a0 f   Kernel:Clenv.obj
 0001:0010c1f0       ?pushInteger@ClaireEnvironment@@QAEXH@Z 0050d1f0 f   Kernel:Clenv.obj
 0001:0010c280       ?localString@ClaireEnvironment@@QAEPADPAD@Z 0050d280 f   Kernel:Clenv.obj
 0001:0010c2b0       ?Cpointer@@YAHHPAVClaireClass@@@Z 0050d2b0 f   Kernel:Clenv.obj
 0001:0010c330       ?reset_stack@@YAHHH@Z      0050d330 f   Kernel:Clenv.obj
 0001:0010c350       ?stack_add@@YAXH@Z         0050d350 f   Kernel:Clenv.obj
 0001:0010c390       ?fcall1@@YAHPAVClaireFunction@@PAVClaireClass@@H1@Z 0050d390 f   Kernel:Clenv.obj
 0001:0010c4a0       ?fcall2@@YAHPAVClaireFunction@@PAVClaireClass@@H1H1@Z 0050d4a0 f   Kernel:Clenv.obj
 0001:0010c610       ?fcall3@@YAHPAVClaireFunction@@PAVClaireClass@@H1H1H1@Z 0050d610 f   Kernel:Clenv.obj
 0001:0010c7d0       ?stack_apply_function@@YAHPAVClaireFunction@@PAVlist@@HH@Z 0050d7d0 f   Kernel:Clenv.obj
 0001:0010ee60       ?string_I_function@@YAPADPAVClaireFunction@@@Z 0050fe60 f   Kernel:Clenv.obj
 0001:0010ee70       ?store_list@@YAHPAVlist@@HHPAVClaireBoolean@@@Z 0050fe70 f   Kernel:Clenv.obj
 0001:0010eef0       ?store_array@@YAHPAHHHPAVClaireBoolean@@@Z 0050fef0 f   Kernel:Clenv.obj
 0001:0010f010       ?store_object@@YAHPAVClaireObject@@HPAVClaireClass@@HPAVClaireBoolean@@@Z 00510010 f   Kernel:Clenv.obj
 0001:0010f240       ?store_add@@YAPAVlist@@PAV1@H@Z 00510240 f   Kernel:Clenv.obj
 0001:0010f2b0       ?world_push@@YAXXZ         005102b0 f   Kernel:Clenv.obj
 0001:0010f380       ?world_pop@@YAXXZ          00510380 f   Kernel:Clenv.obj
 0001:0010f470       ?world_remove@@YAXXZ       00510470 f   Kernel:Clenv.obj
 0001:0010f510       ?world_slaughter@@YAXXZ    00510510 f   Kernel:Clenv.obj
 0001:0010f5c0       ?world_number@@YAHXZ       005105c0 f   Kernel:Clenv.obj
 0001:0010f5d0       ?world_get_id@@YAHXZ       005105d0 f   Kernel:Clenv.obj
 0001:0010f5e0       ?C_to_Claire@@YAPAVlist@@HQAPAD@Z 005105e0 f   Console:clConsole.obj
 0001:0010f690       _main                      00510690 f   Console:clConsole.obj
 0001:0010f890       ?CL_exit@@YAXH@Z           00510890 f   Console:clConsole.obj
 0001:0010f8a0       ?CL_system@@YAXPAD@Z       005108a0 f   Console:clConsole.obj
 0001:0010f8b0       ?CL_alloc@@YAPAXH@Z        005108b0 f   Console:clConsole.obj
 0001:0010f8e0       ?topLevel@@YAXPAVmeta_reader@@@Z 005108e0 f   Console:clConsole.obj
 0001:0010fc10       ?InspectLoop@@YAHPAVlist@@@Z 00510c10 f   Console:clConsole.obj
 0001:0010fc40       ?loadInit@@YAXXZ           00510c40 f   Console:clConsole.obj
 0001:0010fcc0       ?DebugLoop@@YAXXZ          00510cc0 f   Console:clConsole.obj
 0001:0010fd10       ?StepLoop@@YAHXZ           00510d10 f   Console:clConsole.obj
 0001:0010fd80       ?CommandLoopVoid@@YAPADXZ  00510d80 f   Console:clConsole.obj
 0001:0010fe10       ?default_main@@YAXXZ       00510e10 f   Console:clConsole.obj
 0001:0010ff40       ?see@@YAXHH@Z              00510f40 f   Console:clConsole.obj
 0001:001102b0       ?see@@YAXH@Z               005112b0 f   Console:clConsole.obj
 0001:001102c0       ?see@@YAXPADHH@Z           005112c0 f   Console:clConsole.obj
 0001:00110300       ?seeIt@@YAXPADH@Z          00511300 f   Console:clConsole.obj
 0001:00110330       ?see@@YAXPADH@Z            00511330 f   Console:clConsole.obj
 0001:00110350       _mainCRTStartup            00511350 f   LIBC:crt0.obj
 0001:0011042f       __amsg_exit                0051142f f   LIBC:crt0.obj
 0001:00110480       _strlen                    00511480 f   LIBC:strlen.obj
 0001:001104fb       __fpmath                   005114fb f   LIBC:fpinit.obj
 0001:00110512       __fpclear                  00511512 f   LIBC:fpinit.obj
 0001:00110513       __cfltcvt_init             00511513 f   LIBC:fpinit.obj
 0001:0011054b       ___setfflag                0051154b f   LIBC:fpinit.obj
 0001:0011055c       _longjmp                   0051155c f   LIBC:longjmp.obj
 0001:001105d8       __setjmp3                  005115d8 f   LIBC:setjmp3.obj
 0001:00110660       __CIpow                    00511660 f   LIBC:pow.obj
 0001:00110679       _pow                       00511679 f   LIBC:pow.obj
 0001:0011087d       _srand                     0051187d f   LIBC:rand.obj
 0001:00110887       _rand                      00511887 f   LIBC:rand.obj
 0001:001108a5       _strtol                    005118a5 f   LIBC:strtol.obj
 0001:00110ac4       _strtoul                   00511ac4 f   LIBC:strtol.obj
 0001:00110adb       _asctime                   00511adb f   LIBC:asctime.obj
 0001:00110bb1       _localtime                 00511bb1 f   LIBC:localtim.obj
 0001:00110d11       _time                      00511d11 f   LIBC:time.obj
 0001:00110ded       _getenv                    00511ded f   LIBC:getenv.obj
 0001:00110e6a       _printf                    00511e6a f   LIBC:printf.obj
 0001:00110e9b       _floor                     00511e9b f   LIBC:floor.obj
 0001:00110f6c       __ftol                     00511f6c f   LIBC:ftol.obj
 0001:00110f93       ??2@YAPAXI@Z               00511f93 f   LIBC:new.obj
 0001:00110fa1       _sprintf                   00511fa1 f   LIBC:sprintf.obj
 0001:00110ff3       _sscanf                    00511ff3 f   LIBC:sscanf.obj
 0001:00111027       __filbuf                   00512027 f   LIBC:_filbuf.obj
 0001:00111100       __flsbuf                   00512100 f   LIBC:_flsbuf.obj
 0001:00111215       _fprintf                   00512215 f   LIBC:fprintf.obj
 0001:00111247       _ceil                      00512247 f   LIBC:ceil.obj
 0001:00111316       _fflush                    00512316 f   LIBC:fflush.obj
 0001:00111351       __flush                    00512351 f   LIBC:fflush.obj
 0001:001113ad       __flushall                 005123ad f   LIBC:fflush.obj
 0001:00111423       _fclose                    00512423 f   LIBC:fclose.obj
 0001:00111479       __fsopen                   00512479 f   LIBC:fopen.obj
 0001:00111499       _fopen                     00512499 f   LIBC:fopen.obj
 0001:001114ac       _clock                     005124ac f   LIBC:clock.obj
 0001:001114ef       ___inittime                005124ef f   LIBC:clock.obj
 0001:00111524       _abort                     00512524 f   LIBC:abort.obj
 0001:0011153b       _signal                    0051253b f   LIBC:winsig.obj
 0001:0011167f       _raise                     0051267f f   LIBC:winsig.obj
 0001:001117f1       __cinit                    005127f1 f   LIBC:crt0dat.obj
 0001:0011181e       _exit                      0051281e f   LIBC:crt0dat.obj
 0001:0011182f       __exit                     0051282f f   LIBC:crt0dat.obj
 0001:00111840       __cexit                    00512840 f   LIBC:crt0dat.obj
 0001:0011184f       __c_exit                   0051284f f   LIBC:crt0dat.obj
 0001:00111911       ___initstdio               00512911 f   LIBC:_file.obj
 0001:001119b6       ___endstdio                005129b6 f   LIBC:_file.obj
 0001:001119ca       _atol                      005129ca f   LIBC:atox.obj
 0001:00111a55       _atoi                      00512a55 f   LIBC:atox.obj
 0001:00111a60       __atoi64                   00512a60 f   LIBC:atox.obj
 0001:00111b1a       _system                    00512b1a f   LIBC:system.obj
 0001:00111bb0       _malloc                    00512bb0 f   LIBC:malloc.obj
 0001:00111bc2       __nh_malloc                00512bc2 f   LIBC:malloc.obj
 0001:00111bee       __heap_alloc               00512bee f   LIBC:malloc.obj
 0001:00111c24       __XcptFilter               00512c24 f   LIBC:winxfltr.obj
 0001:00111da8       __setenvp                  00512da8 f   LIBC:stdenvp.obj
 0001:00111e61       __setargv                  00512e61 f   LIBC:stdargv.obj
 0001:001120ae       ___crtGetEnvironmentStringsA 005130ae f   LIBC:a_env.obj
 0001:001121e0       __ioinit                   005131e0 f   LIBC:ioinit.obj
 0001:0011238b       __ioterm                   0051338b f   LIBC:ioinit.obj
 0001:001123ae       __heap_init                005133ae f   LIBC:heapinit.obj
 0001:001123ea       __heap_term                005133ea f   LIBC:heapinit.obj
 0001:00112460       __global_unwind2           00513460 f   LIBC:exsup.obj
 0001:001124a2       __local_unwind2            005134a2 f   LIBC:exsup.obj
 0001:001124fa       __NLG_Return2              005134fa f   LIBC:exsup.obj
 0001:0011250a       __abnormal_termination     0051350a f   LIBC:exsup.obj
 0001:0011252d       __NLG_Notify1              0051352d f   LIBC:exsup.obj
 0001:00112536       __NLG_Notify               00513536 f   LIBC:exsup.obj
 0001:00112549       __NLG_Dispatch             00513549 f   LIBC:exsup.obj
 0001:00112558       __except_handler3          00513558 f   LIBC:exsup3.obj
 0001:00112615       __seh_longjmp_unwind@4     00513615 f   LIBC:exsup3.obj
 0001:00112630       __FF_MSGBANNER             00513630 f   LIBC:crt0msg.obj
 0001:00112669       __NMSG_WRITE               00513669 f   LIBC:crt0msg.obj
 0001:001127bc       __GET_RTERRMSG             005137bc f   LIBC:crt0msg.obj
 0001:001127ed       __setdefaultprecision      005137ed f   LIBC:fp8.obj
 0001:001127ff       __ms_p5_test_fdiv          005137ff f   LIBC:testfdiv.obj
 0001:0011283d       __ms_p5_mp_test_fdiv       0051383d f   LIBC:testfdiv.obj
 0001:00112866       __forcdecpt                00513866 f   LIBC:cvt.obj
 0001:001128c0       __cropzeros                005138c0 f   LIBC:cvt.obj
 0001:0011290e       __positive                 0051390e f   LIBC:cvt.obj
 0001:00112926       __fassign                  00513926 f   LIBC:cvt.obj
 0001:00112964       __cftoe                    00513964 f   LIBC:cvt.obj
 0001:00112a68       __cftof                    00513a68 f   LIBC:cvt.obj
 0001:00112b46       __cftog                    00513b46 f   LIBC:cvt.obj
 0001:00112c2b       __cfltcvt                  00513c2b f   LIBC:cvt.obj
 0001:00112ca1       __rt_probe_read4@4         00513ca1 f   LIBC:sehsupp.obj
 0001:00112d21       __fFEXP                    00513d21 f   LIBC:87tran.obj
 0001:00112d88       __rtinfpopse               00513d88 f   LIBC:87tran.obj
 0001:00112d8a       __rtinfnpopse              00513d8a f   LIBC:87tran.obj
 0001:00112d9a       __fFLN                     00513d9a f   LIBC:87tran.obj
 0001:00112e4f       __rtinfpop                 00513e4f f   LIBC:87tran.obj
 0001:00112e51       __rtinfnpop                00513e51 f   LIBC:87tran.obj
 0001:00112e6e       __ffexpm1                  00513e6e f   LIBC:87tran.obj
 0001:00112f20       __trandisp1                00513f20 f   LIBC:87disp.obj
 0001:00112f87       __trandisp2                00513f87 f   LIBC:87disp.obj
 0001:00113013       __rttospopde               00514013 f   LIBC:87disp.obj
 0001:00113018       __rttospop                 00514018 f   LIBC:87disp.obj
 0001:0011301a       __rtnospop                 0051401a f   LIBC:87disp.obj
 0001:0011301c       __rttosnpop                0051401c f   LIBC:87disp.obj
 0001:0011301d       __rtnospopde               0051401d f   LIBC:87disp.obj
 0001:00113024       __rtzeropop                00514024 f   LIBC:87disp.obj
 0001:00113026       __rtzeronpop               00514026 f   LIBC:87disp.obj
 0001:0011302b       __rtonepop                 0051402b f   LIBC:87disp.obj
 0001:0011302d       __rtonenpop                0051402d f   LIBC:87disp.obj
 0001:00113032       __tosnan1                  00514032 f   LIBC:87disp.obj
 0001:0011305d       __nosnan2                  0051405d f   LIBC:87disp.obj
 0001:0011305f       __tosnan2                  0051405f f   LIBC:87disp.obj
 0001:00113087       __nan2                     00514087 f   LIBC:87disp.obj
 0001:001130c6       __rtindfpop                005140c6 f   LIBC:87disp.obj
 0001:001130c8       __rtindfnpop               005140c8 f   LIBC:87disp.obj
 0001:001130d9       __rttosnpopde              005140d9 f   LIBC:87disp.obj
 0001:001130e3       __rtchsifneg               005140e3 f   LIBC:87disp.obj
 0001:001130f0       __startTwoArgErrorHandling 005140f0 f   LIBC:genexcep.obj
 0001:00113107       __startOneArgErrorHandling 00514107 f   LIBC:genexcep.obj
 0001:00113150       __twoToTOS                 00514150 f   LIBC:common.obj
 0001:00113165       __load_CW                  00514165 f   LIBC:common.obj
 0001:0011317c       __convertTOStoQNaN         0051417c f   LIBC:common.obj
 0001:00113195       __fload_withFB             00514195 f   LIBC:common.obj
 0001:001131d8       __checkTOS_withFB          005141d8 f   LIBC:common.obj
 0001:001131ee       __fast_exit                005141ee f   LIBC:common.obj
 0001:001131fb       __math_exit                005141fb f   LIBC:common.obj
 0001:00113225       __check_overflow_exit      00514225 f   LIBC:common.obj
 0001:00113239       __check_range_exit         00514239 f   LIBC:common.obj
 0001:001132dc       __powhlp                   005142dc f   LIBC:powhlp.obj
 0001:0011340c       __d_inttype                0051440c f   LIBC:powhlp.obj
 0001:00113471       __toupper                  00514471 f   LIBC:toupper.obj
 0001:00113479       _toupper                   00514479 f   LIBC:toupper.obj
 0001:00113545       __isctype                  00514545 f   LIBC:isctype.obj
 0001:001135ba       ___tzset                   005145ba f   LIBC:tzset.obj
 0001:001135cf       __tzset                    005145cf f   LIBC:tzset.obj
 0001:0011382d       __isindst                  0051482d f   LIBC:tzset.obj
 0001:00113b19       _gmtime                    00514b19 f   LIBC:gmtime.obj
 0001:00113c12       ___loctotime_t             00514c12 f   LIBC:dtoxtime.obj
 0001:00113cd4       __mbsnbicoll               00514cd4 f   LIBC:mbsnbico.obj
 0001:00113d13       ___wtomb_environ           00514d13 f   LIBC:wtombenv.obj
 0001:00113d81       __stbuf                    00514d81 f   LIBC:_sftbuf.obj
 0001:00113e0e       __ftbuf                    00514e0e f   LIBC:_sftbuf.obj
 0001:00113e4b       __output                   00514e4b f   LIBC:output.obj
 0001:00114655       __handle_qnan1             00515655 f   LIBC:fpexcept.obj
 0001:001146a8       __handle_qnan2             005156a8 f   LIBC:fpexcept.obj
 0001:00114707       __except1                  00515707 f   LIBC:fpexcept.obj
 0001:0011479f       __except2                  0051579f f   LIBC:fpexcept.obj
 0001:00114844       __raise_exc                00515844 f   LIBC:fpexcept.obj
 0001:00114af7       __handle_exc               00515af7 f   LIBC:fpexcept.obj
 0001:00114d0e       __umatherr                 00515d0e f   LIBC:fpexcept.obj
 0001:00114d96       __set_errno                00515d96 f   LIBC:fpexcept.obj
 0001:00114de1       __errcode                  00515de1 f   LIBC:fpexcept.obj
 0001:00114e0e       __frnd                     00515e0e f   LIBC:frnd.obj
 0001:00114e20       __set_exp                  00515e20 f   LIBC:util.obj
 0001:00114e49       __get_exp                  00515e49 f   LIBC:util.obj
 0001:00114e5d       __add_exp                  00515e5d f   LIBC:util.obj
 0001:00114e89       __set_bexp                 00515e89 f   LIBC:util.obj
 0001:00114ead       __sptype                   00515ead f   LIBC:util.obj
 0001:00114f07       __decomp                   00515f07 f   LIBC:util.obj
 0001:00114fc8       __statfp                   00515fc8 f   LIBC:fpctrl.obj
 0001:00114fd6       __clrfp                    00515fd6 f   LIBC:fpctrl.obj
 0001:00114fe5       __ctrlfp                   00515fe5 f   LIBC:fpctrl.obj
 0001:00115008       __set_statfp               00516008 f   LIBC:fpctrl.obj
 0001:0011505e       __input                    0051605e f   LIBC:input.obj
 0001:00115b0f       __read                     00516b0f f   LIBC:read.obj
 0001:00115d05       __getbuf                   00516d05 f   LIBC:_getbuf.obj
 0001:00115d49       __lseek                    00516d49 f   LIBC:lseek.obj
 0001:00115de3       __write                    00516de3 f   LIBC:write.obj
 0001:00115f90       __isatty                   00516f90 f   LIBC:isatty.obj
 0001:00115fb6       __commit                   00516fb6 f   LIBC:commit.obj
 0001:0011600d       _free                      0051700d f   LIBC:free.obj
 0001:0011603c       __close                    0051703c f   LIBC:close.obj
 0001:001160ef       __freebuf                  005170ef f   LIBC:_freebuf.obj
 0001:0011611a       __openfile                 0051711a f   LIBC:_open.obj
 0001:0011628a       __getstream                0051728a f   LIBC:stream.obj
 0001:00116310       __aulldiv                  00517310 f   LIBC:ulldiv.obj
 0001:00116380       __allmul                   00517380 f   LIBC:llmul.obj
 0001:001163b4       _calloc                    005173b4 f   LIBC:calloc.obj
 0001:00116431       __fcloseall                00517431 f   LIBC:closeall.obj
 0001:00116489       __spawnvpe                 00517489 f   LIBC:spawnvpe.obj
 0001:001165ec       __spawnve                  005175ec f   LIBC:spawnve.obj
 0001:00116786       __access                   00517786 f   LIBC:access.obj
 0001:001167ca       ?_set_new_handler@@YAP6AHI@ZP6AHI@Z@Z 005177ca f   LIBC:handler.obj
 0001:001167da       ?_query_new_handler@@YAP6AHI@ZXZ 005177da f   LIBC:handler.obj
 0001:001167e0       __callnewh                 005177e0 f   LIBC:handler.obj
 0001:001167fb       __get_sbh_threshold        005177fb f   LIBC:sbheap.obj
 0001:00116801       __set_sbh_threshold        00517801 f   LIBC:sbheap.obj
 0001:00116818       ___sbh_heap_init           00517818 f   LIBC:sbheap.obj
 0001:00116856       ___sbh_find_block          00517856 f   LIBC:sbheap.obj
 0001:00116881       ___sbh_free_block          00517881 f   LIBC:sbheap.obj
 0001:00116bac       ___sbh_alloc_block         00517bac f   LIBC:sbheap.obj
 0001:00116eb5       ___sbh_alloc_new_region    00517eb5 f   LIBC:sbheap.obj
 0001:00116f66       ___sbh_alloc_new_group     00517f66 f   LIBC:sbheap.obj
 0001:00117061       ___sbh_resize_block        00518061 f   LIBC:sbheap.obj
 0001:00117357       ___sbh_heapmin             00518357 f   LIBC:sbheap.obj
 0001:00117428       ___sbh_heap_check          00518428 f   LIBC:sbheap.obj
 0001:00117760       _strcpy                    00518760 f   LIBC:strcat.obj
 0001:00117770       _strcat                    00518770 f   LIBC:strcat.obj
 0001:00117850       __setmbcp                  00518850 f   LIBC:mbctype.obj
 0001:00117c14       __getmbcp                  00518c14 f   LIBC:mbctype.obj
 0001:00117c24       ___initmbctable            00518c24 f   LIBC:mbctype.obj
 0001:00117c40       _memcpy                    00518c40 f   LIBC:memcpy.obj
 0001:00117f75       ___crtMessageBoxA          00518f75 f   LIBC:crtmbox.obj
 0001:00118000       _strncpy                   00519000 f   LIBC:strncpy.obj
 0001:001180fe       __statusfp                 005190fe f   LIBC:ieee87.obj
 0001:00118111       __clearfp                  00519111 f   LIBC:ieee87.obj
 0001:00118125       __control87                00519125 f   LIBC:ieee87.obj
 0001:0011815a       __controlfp                0051915a f   LIBC:ieee87.obj
 0001:00118170       __fpreset                  00519170 f   LIBC:ieee87.obj
 0001:001182ea       __tolower                  005192ea f   LIBC:tolower.obj
 0001:001182f2       _tolower                   005192f2 f   LIBC:tolower.obj
 0001:001183bd       __ZeroTail                 005193bd f   LIBC:intrncvt.obj
 0001:00118406       __IncMan                   00519406 f   LIBC:intrncvt.obj
 0001:0011845c       __RoundMan                 0051945c f   LIBC:intrncvt.obj
 0001:001184e8       __CopyMan                  005194e8 f   LIBC:intrncvt.obj
 0001:00118503       __FillZeroMan              00519503 f   LIBC:intrncvt.obj
 0001:0011850f       __IsZeroMan                0051950f f   LIBC:intrncvt.obj
 0001:0011852a       __ShrMan                   0051952a f   LIBC:intrncvt.obj
 0001:001185b7       __ld12cvt                  005195b7 f   LIBC:intrncvt.obj
 0001:00118723       __ld12tod                  00519723 f   LIBC:intrncvt.obj
 0001:00118739       __ld12tof                  00519739 f   LIBC:intrncvt.obj
 0001:0011874f       __ld12told                 0051974f f   LIBC:intrncvt.obj
 0001:001187c9       __atodbl                   005197c9 f   LIBC:intrncvt.obj
 0001:001187f6       __atoldbl                  005197f6 f   LIBC:intrncvt.obj
 0001:00118824       __atoflt                   00519824 f   LIBC:intrncvt.obj
 0001:00118851       __fptostr                  00519851 f   LIBC:_fptostr.obj
 0001:001188c8       __fltout                   005198c8 f   LIBC:cfout.obj
 0001:0011892c       ___dtold                   0051992c f   LIBC:cfout.obj
 0001:001189f0       _memset                    005199f0 f   LIBC:memset.obj
 0001:00118a50       _memmove                   00519a50 f   LIBC:memmove.obj
 0001:00118d85       __fptrap                   00519d85 f   LIBC:crt0fp.obj
 0001:00118d90       _fdiv_main_routine         00519d90 f   LIBC:adj_fdiv.obj
 0001:00118ea7       __adj_fdiv_r               00519ea7 f   LIBC:adj_fdiv.obj
 0001:00119346       __fdivp_sti_st             0051a346 f   LIBC:adj_fdiv.obj
 0001:00119359       __fdivrp_sti_st            0051a359 f   LIBC:adj_fdiv.obj
 0001:0011936c       __adj_fdiv_m32             0051a36c f   LIBC:adj_fdiv.obj
 0001:001193b8       __adj_fdiv_m64             0051a3b8 f   LIBC:adj_fdiv.obj
 0001:00119404       __adj_fdiv_m16i            0051a404 f   LIBC:adj_fdiv.obj
 0001:00119438       __adj_fdiv_m32i            0051a438 f   LIBC:adj_fdiv.obj
 0001:0011946c       __adj_fdivr_m32            0051a46c f   LIBC:adj_fdiv.obj
 0001:001194b8       __adj_fdivr_m64            0051a4b8 f   LIBC:adj_fdiv.obj
 0001:00119504       __adj_fdivr_m16i           0051a504 f   LIBC:adj_fdiv.obj
 0001:00119538       __adj_fdivr_m32i           0051a538 f   LIBC:adj_fdiv.obj
 0001:0011956c       __safe_fdiv                0051a56c f   LIBC:adj_fdiv.obj
 0001:00119581       __safe_fdivr               0051a581 f   LIBC:adj_fdiv.obj
 0001:00119596       __fprem_common             0051a596 f   LIBC:adj_fdiv.obj
 0001:0011979c       __adj_fprem                0051a79c f   LIBC:adj_fdiv.obj
 0001:0011984e       __fprem1_common            0051a84e f   LIBC:adj_fdiv.obj
 0001:00119a54       __adj_fprem1               0051aa54 f   LIBC:adj_fdiv.obj
 0001:00119b09       __safe_fprem               0051ab09 f   LIBC:adj_fdiv.obj
 0001:00119b0f       __safe_fprem1              0051ab0f f   LIBC:adj_fdiv.obj
 0001:00119b15       __adj_fpatan               0051ab15 f   LIBC:adj_fdiv.obj
 0001:00119b18       __adj_fptan                0051ab18 f   LIBC:adj_fdiv.obj
 0001:00119b1b       __87except                 0051ab1b f   LIBC:87except.obj
 0001:00119beb       __copysign                 0051abeb f   LIBC:ieeemisc.obj
 0001:00119c0c       __chgsign                  0051ac0c f   LIBC:ieeemisc.obj
 0001:00119c31       __scalb                    0051ac31 f   LIBC:ieeemisc.obj
 0001:00119c47       __logb                     0051ac47 f   LIBC:ieeemisc.obj
 0001:00119d2e       __nextafter                0051ad2e f   LIBC:ieeemisc.obj
 0001:00119fc3       __finite                   0051afc3 f   LIBC:ieeemisc.obj
 0001:00119fd7       __isnan                    0051afd7 f   LIBC:ieeemisc.obj
 0001:0011a005       __fpclass                  0051b005 f   LIBC:ieeemisc.obj
 0001:0011a097       ___crtLCMapStringA         0051b097 f   LIBC:a_map.obj
 0001:0011a2e6       ___crtGetStringTypeA       0051b2e6 f   LIBC:a_str.obj
 0001:0011a430       _strcmp                    0051b430 f   LIBC:strcmp.obj
 0001:0011a4b4       ___crtCompareStringA       0051b4b4 f   LIBC:a_cmp.obj
 0001:0011a75c       ___crtsetenv               0051b75c f   LIBC:setenv.obj
 0001:0011a9a2       _wctomb                    0051b9a2 f   LIBC:wctomb.obj
 0001:0011aa10       __aullrem                  0051ba10 f   LIBC:ullrem.obj
 0001:0011aa85       __matherr                  0051ba85 f   LIBC:matherr.obj
 0001:0011aa88       _mbtowc                    0051ba88 f   LIBC:mbtowc.obj
 0001:0011ab50       _isalpha                   0051bb50 f   LIBC:_ctype.obj
 0001:0011ab7e       _isupper                   0051bb7e f   LIBC:_ctype.obj
 0001:0011aba6       _islower                   0051bba6 f   LIBC:_ctype.obj
 0001:0011abce       _isdigit                   0051bbce f   LIBC:_ctype.obj
 0001:0011abf6       _isxdigit                  0051bbf6 f   LIBC:_ctype.obj
 0001:0011ac23       _isspace                   0051bc23 f   LIBC:_ctype.obj
 0001:0011ac4b       _ispunct                   0051bc4b f   LIBC:_ctype.obj
 0001:0011ac73       _isalnum                   0051bc73 f   LIBC:_ctype.obj
 0001:0011aca1       _isprint                   0051bca1 f   LIBC:_ctype.obj
 0001:0011accf       _isgraph                   0051bccf f   LIBC:_ctype.obj
 0001:0011acfd       _iscntrl                   0051bcfd f   LIBC:_ctype.obj
 0001:0011ad25       ___isascii                 0051bd25 f   LIBC:_ctype.obj
 0001:0011ad32       ___toascii                 0051bd32 f   LIBC:_ctype.obj
 0001:0011ad3a       ___iscsymf                 0051bd3a f   LIBC:_ctype.obj
 0001:0011ad77       ___iscsym                  0051bd77 f   LIBC:_ctype.obj
 0001:0011adc0       __allshl                   0051bdc0 f   LIBC:llshl.obj
 0001:0011addf       _ungetc                    0051bddf f   LIBC:ungetc.obj
 0001:0011ae4d       __dosmaperr                0051be4d f   LIBC:dosmap.obj
 0001:0011aeb4       __alloc_osfhnd             0051beb4 f   LIBC:osfinfo.obj
 0001:0011af49       __set_osfhnd               0051bf49 f   LIBC:osfinfo.obj
 0001:0011afc0       __free_osfhnd              0051bfc0 f   LIBC:osfinfo.obj
 0001:0011b03a       __get_osfhandle            0051c03a f   LIBC:osfinfo.obj
 0001:0011b077       __open_osfhandle           0051c077 f   LIBC:osfinfo.obj
 0001:0011b114       __open                     0051c114 f   LIBC:open.obj
 0001:0011b12b       __sopen                    0051c12b f   LIBC:open.obj
 0001:0011b3e4       __mbsrchr                  0051c3e4 f   LIBC:mbsrchr.obj
 0001:0011b444       __getpath                  0051c444 f   LIBC:getpath.obj
 0001:0011b4b8       __mbschr                   0051c4b8 f   LIBC:mbschr.obj
 0001:0011b52b       __dospawn                  0051c52b f   LIBC:dospawn.obj
 0001:0011b70a       __cenvarg                  0051c70a f   LIBC:cenvarg.obj
 0001:0011b90e       ___addl                    0051c90e f   LIBC:mantold.obj
 0001:0011b92f       ___add_12                  0051c92f f   LIBC:mantold.obj
 0001:0011b98d       ___shl_12                  0051c98d f   LIBC:mantold.obj
 0001:0011b9bb       ___shr_12                  0051c9bb f   LIBC:mantold.obj
 0001:0011b9e8       ___mtold12                 0051c9e8 f   LIBC:mantold.obj
 0001:0011baaf       ___strgtold12              0051caaf f   LIBC:strgtold.obj
 0001:0011bf80       ___STRINGTOLD              0051cf80 f   LIBC:strgtold.obj
 0001:0011bfbc       _$I10_OUTPUT               0051cfbc f   LIBC:x10fout.obj
 0001:0011c24f       _ldexp                     0051d24f f   LIBC:ldexp.obj
 0001:0011c440       __alloca_probe             0051d440 f   LIBC:chkstk.obj
 0001:0011c440       __chkstk                   0051d440 f   LIBC:chkstk.obj
 0001:0011c46f       _realloc                   0051d46f f   LIBC:realloc.obj
 0001:0011c58f       __strdup                   0051d58f f   LIBC:strdup.obj
 0001:0011c5ba       __chsize                   0051d5ba f   LIBC:chsize.obj
 0001:0011c700       _strrchr                   0051d700 f   LIBC:strrchr.obj
 0001:0011c740       _strchr                    0051d740 f   LIBC:strchr.obj
 0001:0011c746       ___from_strstr_to_strchr   0051d746 f   LIBC:strchr.obj
 0001:0011c7fc       ___ld12mul                 0051d7fc f   LIBC:tenpow.obj
 0001:0011ca1c       ___multtenpow12            0051da1c f   LIBC:tenpow.obj
 0001:0011ca98       __setmode                  0051da98 f   LIBC:setmode.obj
 0001:0011cb0e       _GetCommandLineA@0         0051db0e f   kernel32:KERNEL32.dll
 0001:0011cb14       _GetVersion@0              0051db14 f   kernel32:KERNEL32.dll
 0001:0011cb1a       _ExitProcess@4             0051db1a f   kernel32:KERNEL32.dll
 0001:0011cb20       _GetTimeZoneInformation@4  0051db20 f   kernel32:KERNEL32.dll
 0001:0011cb26       _GetSystemTime@4           0051db26 f   kernel32:KERNEL32.dll
 0001:0011cb2c       _GetLocalTime@4            0051db2c f   kernel32:KERNEL32.dll
 0001:0011cb32       _GetSystemTimeAsFileTime@4 0051db32 f   kernel32:KERNEL32.dll
 0001:0011cb38       _GetLastError@0            0051db38 f   kernel32:KERNEL32.dll
 0001:0011cb3e       _SetConsoleCtrlHandler@8   0051db3e f   kernel32:KERNEL32.dll
 0001:0011cb44       _TerminateProcess@8        0051db44 f   kernel32:KERNEL32.dll
 0001:0011cb4a       _GetCurrentProcess@0       0051db4a f   kernel32:KERNEL32.dll
 0001:0011cb50       _HeapAlloc@12              0051db50 f   kernel32:KERNEL32.dll
 0001:0011cb56       _UnhandledExceptionFilter@4 0051db56 f   kernel32:KERNEL32.dll
 0001:0011cb5c       _GetModuleFileNameA@12     0051db5c f   kernel32:KERNEL32.dll
 0001:0011cb62       _FreeEnvironmentStringsA@4 0051db62 f   kernel32:KERNEL32.dll
 0001:0011cb68       _FreeEnvironmentStringsW@4 0051db68 f   kernel32:KERNEL32.dll
 0001:0011cb6e       _WideCharToMultiByte@32    0051db6e f   kernel32:KERNEL32.dll
 0001:0011cb74       _GetEnvironmentStrings@0   0051db74 f   kernel32:KERNEL32.dll
 0001:0011cb7a       _GetEnvironmentStringsW@0  0051db7a f   kernel32:KERNEL32.dll
 0001:0011cb80       _SetHandleCount@4          0051db80 f   kernel32:KERNEL32.dll
 0001:0011cb86       _GetStdHandle@4            0051db86 f   kernel32:KERNEL32.dll
 0001:0011cb8c       _GetFileType@4             0051db8c f   kernel32:KERNEL32.dll
 0001:0011cb92       _GetStartupInfoA@4         0051db92 f   kernel32:KERNEL32.dll
 0001:0011cb98       _HeapDestroy@4             0051db98 f   kernel32:KERNEL32.dll
 0001:0011cb9e       _HeapCreate@12             0051db9e f   kernel32:KERNEL32.dll
 0001:0011cba4       _VirtualFree@12            0051dba4 f   kernel32:KERNEL32.dll
 0001:0011cbaa       _HeapFree@12               0051dbaa f   kernel32:KERNEL32.dll
 0001:0011cbb0       _RtlUnwind@16              0051dbb0 f   kernel32:KERNEL32.dll
 0001:0011cbb6       _WriteFile@20              0051dbb6 f   kernel32:KERNEL32.dll
 0001:0011cbbc       _GetProcAddress@8          0051dbbc f   kernel32:KERNEL32.dll
 0001:0011cbc2       _GetModuleHandleA@4        0051dbc2 f   kernel32:KERNEL32.dll
 0001:0011cbc8       _RaiseException@16         0051dbc8 f   kernel32:KERNEL32.dll
 0001:0011cbce       _ReadFile@20               0051dbce f   kernel32:KERNEL32.dll
 0001:0011cbd4       _SetFilePointer@16         0051dbd4 f   kernel32:KERNEL32.dll
 0001:0011cbda       _FlushFileBuffers@4        0051dbda f   kernel32:KERNEL32.dll
 0001:0011cbe0       _CloseHandle@4             0051dbe0 f   kernel32:KERNEL32.dll
 0001:0011cbe6       _GetFileAttributesA@4      0051dbe6 f   kernel32:KERNEL32.dll
 0001:0011cbec       _VirtualAlloc@16           0051dbec f   kernel32:KERNEL32.dll
 0001:0011cbf2       _HeapReAlloc@16            0051dbf2 f   kernel32:KERNEL32.dll
 0001:0011cbf8       _IsBadWritePtr@8           0051dbf8 f   kernel32:KERNEL32.dll
 0001:0011cbfe       _GetCPInfo@8               0051dbfe f   kernel32:KERNEL32.dll
 0001:0011cc04       _GetACP@0                  0051dc04 f   kernel32:KERNEL32.dll
 0001:0011cc0a       _GetOEMCP@0                0051dc0a f   kernel32:KERNEL32.dll
 0001:0011cc10       _LoadLibraryA@4            0051dc10 f   kernel32:KERNEL32.dll
 0001:0011cc16       _MultiByteToWideChar@24    0051dc16 f   kernel32:KERNEL32.dll
 0001:0011cc1c       _LCMapStringA@24           0051dc1c f   kernel32:KERNEL32.dll
 0001:0011cc22       _LCMapStringW@24           0051dc22 f   kernel32:KERNEL32.dll
 0001:0011cc28       _GetStringTypeA@20         0051dc28 f   kernel32:KERNEL32.dll
 0001:0011cc2e       _GetStringTypeW@16         0051dc2e f   kernel32:KERNEL32.dll
 0001:0011cc34       _CompareStringA@24         0051dc34 f   kernel32:KERNEL32.dll
 0001:0011cc3a       _CompareStringW@24         0051dc3a f   kernel32:KERNEL32.dll
 0001:0011cc40       _SetEnvironmentVariableA@8 0051dc40 f   kernel32:KERNEL32.dll
 0001:0011cc46       _SetStdHandle@8            0051dc46 f   kernel32:KERNEL32.dll
 0001:0011cc4c       _CreateFileA@28            0051dc4c f   kernel32:KERNEL32.dll
 0001:0011cc52       _GetExitCodeProcess@8      0051dc52 f   kernel32:KERNEL32.dll
 0001:0011cc58       _WaitForSingleObject@8     0051dc58 f   kernel32:KERNEL32.dll
 0001:0011cc5e       _CreateProcessA@40         0051dc5e f   kernel32:KERNEL32.dll
 0001:0011cc64       _SetEndOfFile@4            0051dc64 f   kernel32:KERNEL32.dll
 0002:00000020       __real@8@bfff8000000000000000 00566020     Core:function.obj
 0002:00000028       __real@8@00000000000000000000 00566028     choco:chocutils.obj
 0002:00000030       ??_7CPFile@@6B@            00566030     Kernel:Clport.obj
 0002:00000050       __real@8@400fc350000000000000 00566050     Kernel:Clport.obj
 0002:00000058       __real@8@3feb8637bd05af6c6800 00566058     Kernel:Clport.obj
 0002:00000060       ??_7CPStringOut@@6B@       00566060     Kernel:Clport.obj
 0002:00000080       __real@8@3feea7c5ac471b478800 00566080     Kernel:Clport.obj
 0002:00000088       ??_7CPStringIn@@6B@        00566088     Kernel:Clport.obj
 0002:000000a8       __real@8@4002a000000000000000 005660a8     Kernel:Clport.obj
 0002:000000c0       __real@8@3fff8000000000000000 005660c0     LIBC:floor.obj
 0002:000000c8       ??_C@_07OOMJ@cmd?4exe?$AA@ 005660c8     LIBC:system.obj
 0002:000000d0       ??_C@_0M@IPJP@command?4com?$AA@ 005660d0     LIBC:system.obj
 0002:000000dc       ??_C@_02JMK@?1c?$AA@       005660dc     LIBC:system.obj
 0002:000000e0       ??_C@_07KFDO@COMSPEC?$AA@  005660e0     LIBC:system.obj
 0002:000000e8       ??_C@_0P@GGKG@runtime?5error?5?$AA@ 005660e8     LIBC:crt0msg.obj
 0002:000000f8       ??_C@_02PIMC@?$AN?6?$AA@   005660f8     LIBC:crt0msg.obj
 0002:000000fc       ??_C@_0O@DELO@TLOSS?5error?$AN?6?$AA@ 005660fc     LIBC:crt0msg.obj
 0002:0000010c       ??_C@_0N@OMLL@SING?5error?$AN?6?$AA@ 0056610c     LIBC:crt0msg.obj
 0002:0000011c       ??_C@_0P@OJAK@DOMAIN?5error?$AN?6?$AA@ 0056611c     LIBC:crt0msg.obj
 0002:0000012c       ??_C@_0CF@EANP@R6028?$AN?6?9?5unable?5to?5initialize?5he@ 0056612c     LIBC:crt0msg.obj
 0002:00000154       ??_C@_0DF@ECGN@R6027?$AN?6?9?5not?5enough?5space?5for?5lo@ 00566154     LIBC:crt0msg.obj
 0002:0000018c       ??_C@_0DF@FKAC@R6026?$AN?6?9?5not?5enough?5space?5for?5st@ 0056618c     LIBC:crt0msg.obj
 0002:000001c4       ??_C@_0CG@DPMN@R6025?$AN?6?9?5pure?5virtual?5function?5c@ 005661c4     LIBC:crt0msg.obj
 0002:000001ec       ??_C@_0DF@CKIP@R6024?$AN?6?9?5not?5enough?5space?5for?5_o@ 005661ec     LIBC:crt0msg.obj
 0002:00000224       ??_C@_0CJ@GGOE@R6019?$AN?6?9?5unable?5to?5open?5console?5@ 00566224     LIBC:crt0msg.obj
 0002:00000250       ??_C@_0CB@LBOB@R6018?$AN?6?9?5unexpected?5heap?5error?$AN?6@ 00566250     LIBC:crt0msg.obj
 0002:00000274       ??_C@_0CN@FPEG@R6017?$AN?6?9?5unexpected?5multithread?5@ 00566274     LIBC:crt0msg.obj
 0002:000002a4       ??_C@_0CM@OBIC@R6016?$AN?6?9?5not?5enough?5space?5for?5th@ 005662a4     LIBC:crt0msg.obj
 0002:000002d0       ??_C@_0CB@HPAL@?$AN?6abnormal?5program?5termination?$AN?6@ 005662d0     LIBC:crt0msg.obj
 0002:000002f4       ??_C@_0CM@JOOB@R6009?$AN?6?9?5not?5enough?5space?5for?5en@ 005662f4     LIBC:crt0msg.obj
 0002:00000320       ??_C@_0CK@OIBL@R6008?$AN?6?9?5not?5enough?5space?5for?5ar@ 00566320     LIBC:crt0msg.obj
 0002:0000034c       ??_C@_0CF@LKPB@R6002?$AN?6?9?5floating?5point?5not?5load@ 0056634c     LIBC:crt0msg.obj
 0002:00000374       ??_C@_0CF@JPDF@Microsoft?5Visual?5C?$CL?$CL?5Runtime?5Lib@ 00566374     LIBC:crt0msg.obj
 0002:0000039c       ??_C@_02JJJH@?6?6?$AA@     0056639c     LIBC:crt0msg.obj
 0002:000003a0       ??_C@_0BK@DEOK@Runtime?5Error?$CB?6?6Program?3?5?$AA@ 005663a0     LIBC:crt0msg.obj
 0002:000003bc       ??_C@_0BH@NNCD@?$DMprogram?5name?5unknown?$DO?$AA@ 005663bc     LIBC:crt0msg.obj
 0002:000003d8       __real@8@4015800bf60000000000 005663d8     LIBC:testfdiv.obj
 0002:000003e0       __real@8@4014bffffc0000000000 005663e0     LIBC:testfdiv.obj
 0002:000003e8       ??_C@_0BK@JEGK@IsProcessorFeaturePresent?$AA@ 005663e8     LIBC:testfdiv.obj
 0002:00000404       ??_C@_08OBID@KERNEL32?$AA@ 00566404     LIBC:testfdiv.obj
 0002:00000410       ??_C@_05OFLO@e?$CL000?$AA@ 00566410     LIBC:cvt.obj
 0002:00000438       __DEFAULT_CW_in_mem        00566438     LIBC:common.obj
 0002:0000043a       __pi_by_2_to_61            0056643a     LIBC:common.obj
 0002:00000478       __real@8@40008000000000000000 00566478     LIBC:powhlp.obj
 0002:00000480       ___dnames                  00566480     LIBC:timeset.obj
 0002:00000498       ___mnames                  00566498     LIBC:timeset.obj
 0002:000004c0       ??_C@_02JHIA@TZ?$AA@       005664c0     LIBC:tzset.obj
 0002:000004c4       ___lookuptable             005664c4     LIBC:output.obj
 0002:00000520       ??_C@_1O@POHA@?$AA?$CI?$AAn?$AAu?$AAl?$AAl?$AA?$CJ?$AA?$AA@ 00566520     LIBC:output.obj
 0002:00000530       ??_C@_06ONKE@?$CInull?$CJ?$AA@ 00566530     LIBC:output.obj
 0002:00000538       ??_C@_03GAFO@_yn?$AA@      00566538     LIBC:fpexcept.obj
 0002:0000053c       ??_C@_03GNLD@_y1?$AA@      0056653c     LIBC:fpexcept.obj
 0002:00000540       ??_C@_03MHCE@_y0?$AA@      00566540     LIBC:fpexcept.obj
 0002:00000544       ??_C@_05PAK@frexp?$AA@     00566544     LIBC:fpexcept.obj
 0002:0000054c       ??_C@_04JKCH@fmod?$AA@     0056654c     LIBC:fpexcept.obj
 0002:00000554       ??_C@_06GGHF@_hypot?$AA@   00566554     LIBC:fpexcept.obj
 0002:0000055c       ??_C@_05JNMC@_cabs?$AA@    0056655c     LIBC:fpexcept.obj
 0002:00000564       ??_C@_05MEKH@ldexp?$AA@    00566564     LIBC:fpexcept.obj
 0002:0000056c       ??_C@_04KAOJ@modf?$AA@     0056656c     LIBC:fpexcept.obj
 0002:00000574       ??_C@_04EHAJ@fabs?$AA@     00566574     LIBC:fpexcept.obj
 0002:0000057c       ??_C@_05MFBN@floor?$AA@    0056657c     LIBC:fpexcept.obj
 0002:00000584       ??_C@_04JJMP@ceil?$AA@     00566584     LIBC:fpexcept.obj
 0002:0000058c       ??_C@_03JLPI@tan?$AA@      0056658c     LIBC:fpexcept.obj
 0002:00000590       ??_C@_03DLFL@cos?$AA@      00566590     LIBC:fpexcept.obj
 0002:00000594       ??_C@_03JAMN@sin?$AA@      00566594     LIBC:fpexcept.obj
 0002:00000598       ??_C@_05BFPO@atan2?$AA@    00566598     LIBC:fpexcept.obj
 0002:000005a0       ??_C@_04OAMO@acos?$AA@     005665a0     LIBC:fpexcept.obj
 0002:000005a8       ??_C@_04ELFI@asin?$AA@     005665a8     LIBC:fpexcept.obj
 0002:000005b0       ??_C@_04LFAD@tanh?$AA@     005665b0     LIBC:fpexcept.obj
 0002:000005b8       ??_C@_04PFKD@cosh?$AA@     005665b8     LIBC:fpexcept.obj
 0002:000005c0       ??_C@_04NPAI@sinh?$AA@     005665c0     LIBC:fpexcept.obj
 0002:000005c8       ??_C@_05IJHH@log10?$AA@    005665c8     LIBC:fpexcept.obj
 0002:000005d0       ??_C@_03EGFG@pow?$AA@      005665d0     LIBC:fpexcept.obj
 0002:000005d4       ??_C@_03CDGJ@exp?$AA@      005665d4     LIBC:fpexcept.obj
 0002:000005d8       ??_C@_04LNMG@PATH?$AA@     005665d8     LIBC:spawnvpe.obj
 0002:000005e0       ??_C@_04GGNP@?4com?$AA@    005665e0     LIBC:spawnve.obj
 0002:000005e8       ??_C@_04NFOM@?4exe?$AA@    005665e8     LIBC:spawnve.obj
 0002:000005f0       ??_C@_04KBDN@?4bat?$AA@    005665f0     LIBC:spawnve.obj
 0002:000005f8       ??_C@_04LFKF@?4cmd?$AA@    005665f8     LIBC:spawnve.obj
 0002:00000600       ??_C@_02OFKN@?4?2?$AA@     00566600     LIBC:spawnve.obj
 0002:00000604       ??_C@_0BD@NJFP@GetLastActivePopup?$AA@ 00566604     LIBC:crtmbox.obj
 0002:00000618       ??_C@_0BA@GILI@GetActiveWindow?$AA@ 00566618     LIBC:crtmbox.obj
 0002:00000628       ??_C@_0M@PKCK@MessageBoxA?$AA@ 00566628     LIBC:crtmbox.obj
 0002:00000634       ??_C@_0L@HKL@user32?4dll?$AA@ 00566634     LIBC:crtmbox.obj
 0002:00000640       ??_C@_01A@?$AA?$AA@        00566640     LIBC:a_map.obj
 0002:00000644       ??_C@_13A@?$AA?$AA?$AA?$AA@ 00566644     LIBC:a_map.obj
 0002:00000688       ??_C@_06PAPI@1?$CDQNAN?$AA@ 00566688     LIBC:x10fout.obj
 0002:00000690       ??_C@_05BGNL@1?$CDINF?$AA@ 00566690     LIBC:x10fout.obj
 0002:00000698       ??_C@_05EDPF@1?$CDIND?$AA@ 00566698     LIBC:x10fout.obj
 0002:000006a0       ??_C@_06LKFM@1?$CDSNAN?$AA@ 005666a0     LIBC:x10fout.obj
 0003:00000000       ___xc_a                    00567000     LIBC:crt0init.obj
 0003:00000104       ___xc_z                    00567104     LIBC:crt0init.obj
 0003:00000208       ___xi_a                    00567208     LIBC:crt0init.obj
 0003:0000041c       ___xi_z                    0056741c     LIBC:crt0init.obj
 0003:00000520       ___xp_a                    00567520     LIBC:crt0init.obj
 0003:00000728       ___xp_z                    00567728     LIBC:crt0init.obj
 0003:0000082c       ___xt_a                    0056782c     LIBC:crt0init.obj
 0003:00000930       ___xt_z                    00567930     LIBC:crt0init.obj
 0003:00000c64       ??_C@_0L@OLJE@list_I_set?$AA@ 00567c64     Core:Core.obj
 0003:00000c70       ??_C@_0BA@LHMA@list_I_set_type?$AA@ 00567c70     Core:Core.obj
 0003:00000c80       ??_C@_09FNBG@set_I_bag?$AA@ 00567c80     Core:Core.obj
 0003:00000c8c       ??_C@_0P@HGKD@set_I_bag_type?$AA@ 00567c8c     Core:Core.obj
 0003:00000c9c       ??_C@_0N@HGK@array_I_list?$AA@ 00567c9c     Core:Core.obj
 0003:00000cac       ??_C@_0BC@FKPE@array_I_list_type?$AA@ 00567cac     Core:Core.obj
 0003:00000cc0       ??_C@_0N@LOKI@list_I_array?$AA@ 00567cc0     Core:Core.obj
 0003:00000cd0       ??_C@_0BC@MGGD@list_I_array_type?$AA@ 00567cd0     Core:Core.obj
 0003:00000ce4       ??_C@_0P@CAAH@make_set_array?$AA@ 00567ce4     Core:Core.obj
 0003:00000cf4       ??_C@_0BE@KMK@make_set_array_type?$AA@ 00567cf4     Core:Core.obj
 0003:00000d08       ??_C@_0BD@FNGP@make_list_integer2?$AA@ 00567d08     Core:Core.obj
 0003:00000d1c       ??_C@_0BI@GHEA@make_list_integer2_type?$AA@ 00567d1c     Core:Core.obj
 0003:00000d34       ??_C@_0BD@GHHO@make_array_integer?$AA@ 00567d34     Core:Core.obj
 0003:00000d48       ??_C@_0BI@KGAO@make_array_integer_type?$AA@ 00567d48     Core:Core.obj
 0003:00000d60       ??_C@_09FLED@nth_array?$AA@ 00567d60     Core:Core.obj
 0003:00000d6c       ??_C@_0P@PJC@nth_array_type?$AA@ 00567d6c     Core:Core.obj
 0003:00000d7c       ??_C@_0O@KJIF@nth_get_array?$AA@ 00567d7c     Core:Core.obj
 0003:00000d8c       ??_C@_0BD@HOPA@nth_get_array_type?$AA@ 00567d8c     Core:Core.obj
 0003:00000da0       ??_C@_0BE@MAPI@meet_arg_types_type?$AA@ 00567da0     Core:Core.obj
 0003:00000db4       ??_C@_0BF@BPEJ@second_arg_type_type?$AA@ 00567db4     Core:Core.obj
 0003:00000dcc       ??_C@_0BF@PBAF@first_arg_type_type2?$AA@ 00567dcc     Core:Core.obj
 0003:00000de4       ??_C@_0BE@LLNM@first_arg_type_type?$AA@ 00567de4     Core:Core.obj
 0003:00000df8       ??_C@_0BI@FHIB@abstract_type_operation?$AA@ 00567df8     Core:Core.obj
 0003:00000e10       ??_C@_0BC@DIMO@abstract_type_set?$AA@ 00567e10     Core:Core.obj
 0003:00000e24       ??_C@_0BB@DADD@make_set_integer?$AA@ 00567e24     Core:Core.obj
 0003:00000e38       ??_C@_0N@NNLE@integer?$CB_set?$AA@ 00567e38     Core:Core.obj
 0003:00000e48       ??_C@_08CCAE@the_type?$AA@ 00567e48     Core:Core.obj
 0003:00000e54       ??_C@_0N@OAIN@unique?$DP_type?$AA@ 00567e54     Core:Core.obj
 0003:00000e64       ??_C@_06PKHF@?$EA_type?$AA@ 00567e64     Core:Core.obj
 0003:00000e6c       ??_C@_0BA@KIDM@of_extract_type?$AA@ 00567e6c     Core:Core.obj
 0003:00000e7c       ??_C@_0M@BOPH@member_type?$AA@ 00567e7c     Core:Core.obj
 0003:00000e88       ??_C@_07OHEO@?$DM?$DN_type?$AA@ 00567e88     Core:Core.obj
 0003:00000e90       ??_C@_08HPIG@?$DM?$DNt_type?$AA@ 00567e90     Core:Core.obj
 0003:00000e9c       ??_C@_09JOLC@?$DM?$DNt_tuple?$AA@ 00567e9c     Core:Core.obj
 0003:00000ea8       ??_C@_0O@NMGC@?$DM?$DNt_Reference?$AA@ 00567ea8     Core:Core.obj
 0003:00000eb8       ??_C@_09NDCF@?$DM?$DNt_Param?$AA@ 00567eb8     Core:Core.obj
 0003:00000ec4       ??_C@_0M@BGKC@?$DM?$DNt_subtype?$AA@ 00567ec4     Core:Core.obj
 0003:00000ed0       ??_C@_0N@OGIA@?$DM?$DNt_Interval?$AA@ 00567ed0     Core:Core.obj
 0003:00000ee0       ??_C@_09FJEN@?$DM?$DNt_Union?$AA@ 00567ee0     Core:Core.obj
 0003:00000eec       ??_C@_09DNCI@?$DM?$DNt_class?$AA@ 00567eec     Core:Core.obj
 0003:00000ef8       ??_C@_08BGDN@?$DM?$DNt_bag2?$AA@ 00567ef8     Core:Core.obj
 0003:00000f04       ??_C@_03JPD@?$DM?$DNt?$AA@ 00567f04     Core:Core.obj
 0003:00000f08       ??_C@_09FBKM@Uall_list?$AA@ 00567f08     Core:Core.obj
 0003:00000f14       ??_C@_06BGHF@?$FO_list?$AA@ 00567f14     Core:Core.obj
 0003:00000f1c       ??_C@_0L@MNBO@join_class?$AA@ 00567f1c     Core:Core.obj
 0003:00000f28       ??_C@_06HALG@?$FO_type?$AA@ 00567f28     Core:Core.obj
 0003:00000f30       ??_C@_0O@PHCC@glb_Reference?$AA@ 00567f30     Core:Core.obj
 0003:00000f40       ??_C@_09LDOH@glb_tuple?$AA@ 00567f40     Core:Core.obj
 0003:00000f4c       ??_C@_0M@FMAG@glb_subtype?$AA@ 00567f4c     Core:Core.obj
 0003:00000f58       ??_C@_09POHA@glb_Param?$AA@ 00567f58     Core:Core.obj
 0003:00000f64       ??_C@_09BAHN@glb_class?$AA@ 00567f64     Core:Core.obj
 0003:00000f70       ??_C@_0N@KGMK@glb_Interval?$AA@ 00567f70     Core:Core.obj
 0003:00000f80       ??_C@_09HEBI@glb_Union?$AA@ 00567f80     Core:Core.obj
 0003:00000f8c       ??_C@_07NCFD@glb_set?$AA@  00567f8c     Core:Core.obj
 0003:00000f94       ??_C@_03ELBJ@glb?$AA@      00567f94     Core:Core.obj
 0003:00000f98       ??_C@_06FLPG@?2_type?$AA@  00567f98     Core:Core.obj
 0003:00000fa0       ??_C@_01PCFE@?2?$AA@       00567fa0     Core:Core.obj
 0003:00000fa4       ??_C@_07LJCG@but_any?$AA@  00567fa4     Core:Core.obj
 0003:00000fac       ??_C@_0N@KICC@but_any_type?$AA@ 00567fac     Core:Core.obj
 0003:00000fbc       ??_C@_03MOAA@but?$AA@      00567fbc     Core:Core.obj
 0003:00000fc0       ??_C@_0L@OBIP@?4?4_integer?$AA@ 00567fc0     Core:Core.obj
 0003:00000fcc       ??_C@_0BA@JKFK@?4?4_integer_type?$AA@ 00567fcc     Core:Core.obj
 0003:00000fdc       ??_C@_06GDFH@U_type?$AA@   00567fdc     Core:Core.obj
 0003:00000fe4       ??_C@_0M@JHBD@class?$CB_type?$AA@ 00567fe4     Core:Core.obj
 0003:00000ff0       ??_C@_0M@LCGE@member?$DP_any?$AA@ 00567ff0     Core:Core.obj
 0003:00000ffc       ??_C@_0L@LDEJ@size_tuple?$AA@ 00567ffc     Core:Core.obj
 0003:00001008       ??_C@_0L@EGIF@set?$CB_tuple?$AA@ 00568008     Core:Core.obj
 0003:00001014       ??_C@_0N@ELGM@size_subtype?$AA@ 00568014     Core:Core.obj
 0003:00001024       ??_C@_0N@HAJJ@set?$CB_subtype?$AA@ 00568024     Core:Core.obj
 0003:00001034       ??_C@_0L@PONO@size_Param?$AA@ 00568034     Core:Core.obj
 0003:00001040       ??_C@_0L@LBC@set?$CB_Param?$AA@ 00568040     Core:Core.obj
 0003:0000104c       ??_C@_0O@EONN@size_Interval?$AA@ 0056804c     Core:Core.obj
 0003:0000105c       ??_C@_0O@HCOG@set?$CB_Interval?$AA@ 0056805c     Core:Core.obj
 0003:0000106c       ??_C@_0L@HELG@size_Union?$AA@ 0056806c     Core:Core.obj
 0003:00001078       ??_C@_0L@IBHK@set?$CB_Union?$AA@ 00568078     Core:Core.obj
 0003:00001084       ??_C@_0L@BAND@size_class?$AA@ 00568084     Core:Core.obj
 0003:00001090       ??_C@_0L@OFBP@set?$CB_class?$AA@ 00568090     Core:Core.obj
 0003:0000109c       ??_C@_0BA@DDMA@size_list2_Core?$AA@ 0056809c     Core:Core.obj
 0003:000010ac       ??_C@_08FCFG@size_set?$AA@ 005680ac     Core:Core.obj
 0003:000010b8       ??_C@_08MFKN@set?$CB_set?$AA@ 005680b8     Core:Core.obj
 0003:000010c4       ??_C@_0BA@EFPD@size_collection?$AA@ 005680c4     Core:Core.obj
 0003:000010d4       ??_C@_0BA@GHDH@set?$CB_collection?$AA@ 005680d4     Core:Core.obj
 0003:000010e4       ??_C@_0M@KMAP@?$EA_Reference?$AA@ 005680e4     Core:Core.obj
 0003:000010f0       ??_C@_0O@CCEA@get_Reference?$AA@ 005680f0     Core:Core.obj
 0003:00001100       ??_C@_0BK@NBMF@self_print_Reference_Core?$AA@ 00568100     Core:Core.obj
 0003:0000111c       ??_C@_09NCBE@Reference?$AA@ 0056811c     Core:Core.obj
 0003:00001128       ??_C@_0O@0finite?$DP_tuple?$AA@ 00568128     Core:Core.obj
 0003:00001138       ??_C@_08DIEE@nth_type?$AA@ 00568138     Core:Core.obj
 0003:00001144       ??_C@_0O@MOLA@param_I_class?$AA@ 00568144     Core:Core.obj
 0003:00001154       ??_C@_0L@LLJE@nth_class2?$AA@ 00568154     Core:Core.obj
 0003:00001160       ??_C@_0L@EECN@nth_class1?$AA@ 00568160     Core:Core.obj
 0003:0000116c       ??_C@_0BA@EFOB@finite?$DP_subtype?$AA@ 0056816c     Core:Core.obj
 0003:0000117c       ??_C@_0BI@BJFK@self_print_subtype_Core?$AA@ 0056817c     Core:Core.obj
 0003:00001194       ??_C@_07BNAO@subtype?$AA@  00568194     Core:Core.obj
 0003:0000119c       ??_C@_0O@ENJG@finite?$DP_Param?$AA@ 0056819c     Core:Core.obj
 0003:000011ac       ??_C@_0BG@OHEF@self_print_Param_Core?$AA@ 005681ac     Core:Core.obj
 0003:000011c4       ??_C@_05FIKC@Param?$AA@    005681c4     Core:Core.obj
 0003:000011cc       ??_C@_0L@DHBB@?9?9_integer?$AA@ 005681cc     Core:Core.obj
 0003:000011d8       ??_C@_0BB@GEND@finite?$DP_Interval?$AA@ 005681d8     Core:Core.obj
 0003:000011ec       ??_C@_0BJ@BOAN@self_print_Interval_Core?$AA@ 005681ec     Core:Core.obj
 0003:00001208       ??_C@_08JAIL@Interval?$AA@ 00568208     Core:Core.obj
 0003:00001214       ??_C@_0O@MHPO@finite?$DP_Union?$AA@ 00568214     Core:Core.obj
 0003:00001224       ??_C@_0BG@DMOJ@self_print_Union_Core?$AA@ 00568224     Core:Core.obj
 0003:0000123c       ??_C@_05NCMK@Union?$AA@    0056823c     Core:Core.obj
 0003:00001244       ??_C@_04FCOP@Type?$AA@     00568244     Core:Core.obj
 0003:0000124c       ??_C@_09LKED@Ztype_any?$AA@ 0056824c     Core:Core.obj
 0003:00001258       ??_C@_06JKHK@?$CF_any1?$AA@ 00568258     Core:Core.obj
 0003:00001260       ??_C@_0L@GJMF@sort?$CB_type?$AA@ 00568260     Core:Core.obj
 0003:0000126c       ??_C@_0L@GJI@?$DNtype?$DP_any?$AA@ 0056826c     Core:Core.obj
 0003:00001278       ??_C@_06IEBC@?$DNtype?$DP?$AA@ 00568278     Core:Core.obj
 0003:00001280       ??_C@_0O@ILGP@enumerate_any?$AA@ 00568280     Core:Core.obj
 0003:00001290       ??_C@_0N@MMBH@finite?$DP_type?$AA@ 00568290     Core:Core.obj
 0003:000012a0       ??_C@_02CKJF@?9?9?$AA@     005682a0     Core:Core.obj
 0003:000012a4       ??_C@_04CJLB@arg2?$AA@     005682a4     Core:Core.obj
 0003:000012ac       ??_C@_04NGAI@arg1?$AA@     005682ac     Core:Core.obj
 0003:000012b4       ??_C@_0L@GAIN@CL_Oid_inv?$AA@ 005682b4     Core:Core.obj
 0003:000012c0       ??_C@_06KFID@CL_Oid?$AA@   005682c0     Core:Core.obj
 0003:000012c8       ??_C@_0L@OGGN@CL_Address?$AA@ 005682c8     Core:Core.obj
 0003:000012d4       ??_C@_07LLDL@?$DM?$DN_char?$AA@ 005682d4     Core:Core.obj
 0003:000012dc       ??_C@_0BF@KLFB@self_print_char_Core?$AA@ 005682dc     Core:Core.obj
 0003:000012f4       ??_C@_0BG@CDC@self_print_array_Core?$AA@ 005682f4     Core:Core.obj
 0003:0000130c       ??_C@_0L@IEIC@nth?$DN_array?$AA@ 0056830c     Core:Core.obj
 0003:00001318       ??_C@_0P@BNEM@difference_set?$AA@ 00568318     Core:Core.obj
 0003:00001328       ??_C@_0BH@JIDD@make_copy_list_integer?$AA@ 00568328     Core:Core.obj
 0003:00001340       ??_C@_0M@BCMO@tuple?$CB_list?$AA@ 00568340     Core:Core.obj
 0003:0000134c       ??_C@_09HBHA@skip_list?$AA@ 0056834c     Core:Core.obj
 0003:00001358       ??_C@_0BE@KPNG@build_powerset_list?$AA@ 00568358     Core:Core.obj
 0003:0000136c       ??_C@_0P@MIKK@quicksort_list?$AA@ 0056836c     Core:Core.obj
 0003:0000137c       ??_C@_0M@JKCB@sort_method?$AA@ 0056837c     Core:Core.obj
 0003:00001388       ??_C@_0O@KGPG@hashsize_list?$AA@ 00568388     Core:Core.obj
 0003:00001398       ??_C@_0BB@COCB@hashlist_integer?$AA@ 00568398     Core:Core.obj
 0003:000013ac       ??_C@_08NGLN@car_list?$AA@ 005683ac     Core:Core.obj
 0003:000013b8       ??_C@_0N@DKCJ@nth_set_list?$AA@ 005683b8     Core:Core.obj
 0003:000013c8       ??_C@_0M@GNH@rmlast_list?$AA@ 005683c8     Core:Core.obj
 0003:000013d4       ??_C@_09EPDO@last_list?$AA@ 005683d4     Core:Core.obj
 0003:000013e0       ??_C@_0P@FANO@last_list_type?$AA@ 005683e0     Core:Core.obj
 0003:000013f0       ??_C@_06GNMK@?1?$CL_bag?$AA@ 005683f0     Core:Core.obj
 0003:000013f8       ??_C@_0L@ODFF@max_method?$AA@ 005683f8     Core:Core.obj
 0003:00001404       ??_C@_0BA@ILLH@max_method_type?$AA@ 00568404     Core:Core.obj
 0003:00001414       ??_C@_0L@MDBK@min_method?$AA@ 00568414     Core:Core.obj
 0003:00001420       ??_C@_0BA@HIIO@min_method_type?$AA@ 00568420     Core:Core.obj
 0003:00001430       ??_C@_0M@LMHJ@nth_get_bag?$AA@ 00568430     Core:Core.obj
 0003:0000143c       ??_C@_07EBBH@nth_bag?$AA@  0056843c     Core:Core.obj
 0003:00001444       ??_C@_0N@MIJJ@nth_bag_type?$AA@ 00568444     Core:Core.obj
 0003:00001454       ??_C@_0L@LNGN@length_bag?$AA@ 00568454     Core:Core.obj
 0003:00001460       ??_C@_0O@IKHB@string?$CB_float?$AA@ 00568460     Core:Core.obj
 0003:00001470       ??_C@_0P@PKGH@string?$CB_float_?$AA@ 00568470     Core:Core.obj
 0003:00001480       ??_C@_0L@FMEO@atan_float?$AA@ 00568480     Core:Core.obj
 0003:0000148c       ??_C@_0M@BALB@atan_float_?$AA@ 0056848c     Core:Core.obj
 0003:00001498       ??_C@_09EGDP@log_float?$AA@ 00568498     Core:Core.obj
 0003:000014a4       ??_C@_0L@BMKL@log_float_?$AA@ 005684a4     Core:Core.obj
 0003:000014b0       ??_C@_0L@BBEP@_exp_float?$AA@ 005684b0     Core:Core.obj
 0003:000014bc       ??_C@_0M@DGPM@_exp_float_?$AA@ 005684bc     Core:Core.obj
 0003:000014c8       ??_C@_0L@OOMA@sqrt_float?$AA@ 005684c8     Core:Core.obj
 0003:000014d4       ??_C@_0M@OMAD@sqrt_float_?$AA@ 005684d4     Core:Core.obj
 0003:000014e0       ??_C@_08KKAD@?9_float2?$AA@ 005684e0     Core:Core.obj
 0003:000014ec       ??_C@_09JBEH@?9_float2_?$AA@ 005684ec     Core:Core.obj
 0003:000014f8       ??_C@_08ENFJ@_7_float?$AA@ 005684f8     Core:Core.obj
 0003:00001504       ??_C@_09LBKA@_7_float_?$AA@ 00568504     Core:Core.obj
 0003:00001510       ??_C@_0M@FCJC@_star_float?$AA@ 00568510     Core:Core.obj
 0003:0000151c       ??_C@_0N@EELP@_star_float_?$AA@ 0056851c     Core:Core.obj
 0003:0000152c       ??_C@_0M@DMHL@_dash_float?$AA@ 0056852c     Core:Core.obj
 0003:00001538       ??_C@_0N@MGNB@_dash_float_?$AA@ 00568538     Core:Core.obj
 0003:00001548       ??_C@_0M@HINB@_plus_float?$AA@ 00568548     Core:Core.obj
 0003:00001554       ??_C@_0N@JMJF@_plus_float_?$AA@ 00568554     Core:Core.obj
 0003:00001564       ??_C@_0M@MOKA@princ_float?$AA@ 00568564     Core:Core.obj
 0003:00001570       ??_C@_0N@NICD@princ_float_?$AA@ 00568570     Core:Core.obj
 0003:00001580       ??_C@_0M@KKH@pair_2_list?$AA@ 00568580     Core:Core.obj
 0003:0000158c       ??_C@_0BB@EHLF@pair_2_list_type?$AA@ 0056858c     Core:Core.obj
 0003:000015a0       ??_C@_0M@LEEH@pair_1_list?$AA@ 005685a0     Core:Core.obj
 0003:000015ac       ??_C@_0BB@HICF@pair_1_list_type?$AA@ 005685ac     Core:Core.obj
 0003:000015c0       ??_C@_08CHFK@pair_any?$AA@ 005685c0     Core:Core.obj
 0003:000015cc       ??_C@_04OJPI@pair?$AA@     005685cc     Core:Core.obj
 0003:000015d4       ??_C@_06IEAD@Id_any?$AA@   005685d4     Core:Core.obj
 0003:000015dc       ??_C@_0M@EPGE@Id_any_type?$AA@ 005685dc     Core:Core.obj
 0003:000015e8       ??_C@_0BA@EJLO@divide?$DP_integer?$AA@ 005685e8     Core:Core.obj
 0003:000015f8       ??_C@_0BA@JPEI@factor?$DP_integer?$AA@ 005685f8     Core:Core.obj
 0003:00001608       ??_C@_0M@EKEC@nth_integer?$AA@ 00568608     Core:Core.obj
 0003:00001614       ??_C@_09GDNL@?$DO_integer?$AA@ 00568614     Core:Core.obj
 0003:00001620       ??_C@_0L@GAHF@?$DM?$DN_integer?$AA@ 00568620     Core:Core.obj
 0003:0000162c       ??_C@_09OHEL@?$DM_integer?$AA@ 0056862c     Core:Core.obj
 0003:00001638       ??_C@_0L@DDDH@or_integer?$AA@ 00568638     Core:Core.obj
 0003:00001644       ??_C@_0M@NEA@and_integer?$AA@ 00568644     Core:Core.obj
 0003:00001650       ??_C@_0L@DJCJ@?$DO?$DO_integer?$AA@ 00568650     Core:Core.obj
 0003:0000165c       ??_C@_0L@KCDN@?$DM?$DM_integer?$AA@ 0056865c     Core:Core.obj
 0003:00001668       ??_C@_07DPPH@CL_exit?$AA@  00568668     Core:Core.obj
 0003:00001670       ??_C@_0BB@BAOO@sequence_integer?$AA@ 00568670     Core:Core.obj
 0003:00001684       ??_C@_0M@HMMD@mod_integer?$AA@ 00568684     Core:Core.obj
 0003:00001690       ??_C@_07JMDL@ch_sign?$AA@  00568690     Core:Core.obj
 0003:00001698       ??_C@_0L@HDAG@?9_integer1?$AA@ 00568698     Core:Core.obj
 0003:000016a4       ??_C@_0BA@DPM@?9_integer1_type?$AA@ 005686a4     Core:Core.obj
 0003:000016b4       ??_C@_09IMDB@?$CL_integer?$AA@ 005686b4     Core:Core.obj
 0003:000016c0       ??_C@_0P@HFIH@?$CL_integer_type?$AA@ 005686c0     Core:Core.obj
 0003:000016d0       ??_C@_0O@NFCI@gensym_string?$AA@ 005686d0     Core:Core.obj
 0003:000016e0       ??_C@_0P@LBBP@c_princ_symbol?$AA@ 005686e0     Core:Core.obj
 0003:000016f0       ??_C@_0BH@GIMI@self_print_symbol_Core?$AA@ 005686f0     Core:Core.obj
 0003:00001708       ??_C@_0BD@PGO@make_string_symbol?$AA@ 00568708     Core:Core.obj
 0003:0000171c       ??_C@_0N@KJCE@value_module?$AA@ 0056871c     Core:Core.obj
 0003:0000172c       ??_C@_0N@MLME@value_string?$AA@ 0056872c     Core:Core.obj
 0003:0000173c       ??_C@_0O@FAII@getenv_string?$AA@ 0056873c     Core:Core.obj
 0003:0000174c       ??_C@_0N@GEB@claire_shell?$AA@ 0056874c     Core:Core.obj
 0003:0000175c       ??_C@_0P@ELFB@nth_put_string?$AA@ 0056875c     Core:Core.obj
 0003:0000176c       ??_C@_0P@DMLI@nth_get_string?$AA@ 0056876c     Core:Core.obj
 0003:0000177c       ??_C@_0BA@KALH@externC_string2?$AA@ 0056877c     Core:Core.obj
 0003:0000178c       ??_C@_0BF@KFFG@externC_string2_type?$AA@ 0056878c     Core:Core.obj
 0003:000017a4       ??_C@_0P@JKP@externC_string?$AA@ 005687a4     Core:Core.obj
 0003:000017b4       ??_C@_0BA@JEED@symbol?$CB_string2?$AA@ 005687b4     Core:Core.obj
 0003:000017c4       ??_C@_0BF@PIPC@make_function_string?$AA@ 005687c4     Core:Core.obj
 0003:000017dc       ??_C@_06CGBO@strlen?$AA@   005687dc     Core:Core.obj
 0003:000017e4       ??_C@_0P@HIKP@store_listargs?$AA@ 005687e4     Core:Core.obj
 0003:000017f4       ??_C@_07JLKI@world?9?$CB?$AA@ 005687f4     Core:Core.obj
 0003:000017fc       ??_C@_06NPFN@world?9?$AA@  005687fc     Core:Core.obj
 0003:00001804       ??_C@_06CACP@world?$CL?$AA@ 00568804     Core:Core.obj
 0003:0000180c       ??_C@_0BC@DDME@backtrack_integer?$AA@ 0056880c     Core:Core.obj
 0003:00001820       ??_C@_0P@LPAG@commit_integer?$AA@ 00568820     Core:Core.obj
 0003:00001830       ??_C@_0N@PPGA@store_array1?$AA@ 00568830     Core:Core.obj
 0003:00001840       ??_C@_0M@NDMB@store_list4?$AA@ 00568840     Core:Core.obj
 0003:0000184c       ??_C@_0M@MPDC@gensym_void?$AA@ 0056884c     Core:Core.obj
 0003:00001858       ??_C@_0M@NLGM@claire_stat?$AA@ 00568858     Core:Core.obj
 0003:00001864       ??_C@_0P@PPB@time_show_void?$AA@ 00568864     Core:Core.obj
 0003:00001874       ??_C@_0O@EEHM@time_set_void?$AA@ 00568874     Core:Core.obj
 0003:00001884       ??_C@_0P@JDGL@time_read_void?$AA@ 00568884     Core:Core.obj
 0003:00001894       ??_C@_0O@OGCP@time_get_void?$AA@ 00568894     Core:Core.obj
 0003:000018a4       ??_C@_09NCJJ@claire_gc?$AA@ 005688a4     Core:Core.obj
 0003:000018b0       ??_C@_0BC@CNAO@get_symbol_string?$AA@ 005688b0     Core:Core.obj
 0003:000018c4       ??_C@_0BC@EPOO@get_symbol_module?$AA@ 005688c4     Core:Core.obj
 0003:000018d8       ??_C@_0N@KEPE@close_module?$AA@ 005688d8     Core:Core.obj
 0003:000018e8       ??_C@_0P@LEBP@final_relation?$AA@ 005688e8     Core:Core.obj
 0003:000018f8       ??_C@_0BC@MHNA@abstract_property?$AA@ 005688f8     Core:Core.obj
 0003:0000190c       ??_C@_0O@NAPK@class?$CB_symbol?$AA@ 0056890c     Core:Core.obj
 0003:0000191c       ??_C@_0P@LHEA@inherit?$DP_class?$AA@ 0056891c     Core:Core.obj
 0003:0000192c       ??_C@_0L@FFJC@meet_class?$AA@ 0056892c     Core:Core.obj
 0003:00001938       ??_C@_0BA@EIHN@new_thing_class?$AA@ 00568938     Core:Core.obj
 0003:00001948       ??_C@_0BF@ENKF@new_thing_class_type?$AA@ 00568948     Core:Core.obj
 0003:00001960       ??_C@_0BB@HIFL@new_object_class?$AA@ 00568960     Core:Core.obj
 0003:00001974       ??_C@_0BG@IODM@new_object_class_type?$AA@ 00568974     Core:Core.obj
 0003:0000198c       ??_C@_0L@GGAK@new_class2?$AA@ 0056898c     Core:Core.obj
 0003:00001998       ??_C@_0BA@DGJM@new_class2_type?$AA@ 00568998     Core:Core.obj
 0003:000019a8       ??_C@_0L@JJLD@new_class1?$AA@ 005689a8     Core:Core.obj
 0003:000019b4       ??_C@_0BA@IIHM@new_class1_type?$AA@ 005689b4     Core:Core.obj
 0003:000019c4       ??_C@_0M@OGH@final_class?$AA@ 005689c4     Core:Core.obj
 0003:000019d0       ??_C@_0P@PELJ@abstract_class?$AA@ 005689d0     Core:Core.obj
 0003:000019e0       ??_C@_0BA@NEDE@ephemeral_class?$AA@ 005689e0     Core:Core.obj
 0003:000019f0       ??_C@_05JOMK@?$DO_any?$AA@ 005689f0     Core:Core.obj
 0003:000019f8       ??_C@_05NOIA@?$DM_any?$AA@ 005689f8     Core:Core.obj
 0003:00001a00       ??_C@_0N@MFJN@check_in_bag?$AA@ 00568a00     Core:Core.obj
 0003:00001a10       ??_C@_0N@OFBN@check_in_any?$AA@ 00568a10     Core:Core.obj
 0003:00001a20       ??_C@_0N@GKLL@unknown?$DP_any?$AA@ 00568a20     Core:Core.obj
 0003:00001a30       ??_C@_0L@HAPH@known?$DP_any?$AA@ 00568a30     Core:Core.obj
 0003:00001a3c       ??_C@_09BPOA@owner_any?$AA@ 00568a3c     Core:Core.obj
 0003:00001a48       ??_C@_06FPAB@?$CB?$DN_any?$AA@ 00568a48     Core:Core.obj
 0003:00001a50       ??_C@_07KLJO@not_any?$AA@  00568a50     Core:Core.obj
 0003:00001a58       ??_C@_0L@LNOH@kill_I_any?$AA@ 00568a58     Core:Core.obj
 0003:00001a64       ??_C@_05GKFA@kill?$CB?$AA@ 00568a64     Core:Core.obj
 0003:00001a6c       ??_C@_0BC@NLAB@complete_I_object?$AA@ 00568a6c     Core:Core.obj
 0003:00001a80       ??_C@_0BF@IPDH@short_enough_integer?$AA@ 00568a80     Core:Core.obj
 0003:00001a98       ??_C@_09BEJJ@print_any?$AA@ 00568a98     Core:Core.obj
 0003:00001aa4       ??_C@_0N@EALC@much_too_far?$AA@ 00568aa4     Core:Core.obj
 0003:00001ab4       ??_C@_0BM@CHPO@self_print_restriction_Core?$AA@ 00568ab4     Core:Core.obj
 0003:00001ad0       ??_C@_0BJ@OHJ@self_print_function_Core?$AA@ 00568ad0     Core:Core.obj
 0003:00001aec       ??_C@_0BI@EMJG@self_print_boolean_Core?$AA@ 00568aec     Core:Core.obj
 0003:00001b04       ??_C@_0BE@KG@self_print_any_Core?$AA@ 00568b04     Core:Core.obj
 0003:00001b18       ??_C@_0BF@GHIB@apply_self_print_any?$AA@ 00568b18     Core:Core.obj
 0003:00001b30       ??_C@_0BK@GHGC@buffer_set_length_integer?$AA@ 00568b30     Core:Core.obj
 0003:00001b4c       ??_C@_0BD@OPJB@buffer_length_void?$AA@ 00568b4c     Core:Core.obj
 0003:00001b60       ??_C@_0BC@EONG@end_of_print_void?$AA@ 00568b60     Core:Core.obj
 0003:00001b74       ??_C@_0BF@JIIB@print_in_string_void?$AA@ 00568b74     Core:Core.obj
 0003:00001b8c       ??_C@_05KCGF@print?$AA@    00568b8c     Core:Core.obj
 0003:00001b94       ??_C@_0N@EKHG@short_enough?$AA@ 00568b94     Core:Core.obj
 0003:00001ba4       ??_C@_0BB@JDKL@apply_self_print?$AA@ 00568ba4     Core:Core.obj
 0003:00001bb8       ??_C@_06MGPH@pretty?$AA@   00568bb8     Core:Core.obj
 0003:00001bc0       ??_C@_0P@OCBM@pretty_printer?$AA@ 00568bc0     Core:Core.obj
 0003:00001bd0       ??_C@_08OOME@inherit?$DP?$AA@ 00568bd0     Core:Core.obj
 0003:00001bdc       ??_C@_04HOIF@meet?$AA@     00568bdc     Core:Core.obj
 0003:00001be4       ??_C@_03CODD@max?$AA@      00568be4     Core:Core.obj
 0003:00001be8       ??_C@_03MNGF@min?$AA@      00568be8     Core:Core.obj
 0003:00001bec       ??_C@_01KNJC@?$CG?$AA@     00568bec     Core:Core.obj
 0003:00001bf0       ??_C@_05GNO@less?$DP?$AA@  00568bf0     Core:Core.obj
 0003:00001bf8       ??_C@_01MHL@U?$AA@         00568bf8     Core:Core.obj
 0003:00001bfc       ??_C@_02KAII@or?$AA@       00568bfc     Core:Core.obj
 0003:00001c00       ??_C@_03HFEJ@and?$AA@      00568c00     Core:Core.obj
 0003:00001c04       ??_C@_02CNAK@?$DO?$DO?$AA@ 00568c04     Core:Core.obj
 0003:00001c08       ??_C@_02FFHB@?$DM?$DM?$AA@ 00568c08     Core:Core.obj
 0003:00001c0c       ??_C@_02GMBL@?$CB?$DN?$AA@ 00568c0c     Core:Core.obj
 0003:00001c10       ??_C@_0BK@MDHF@Sat?5Sep?514?518?302?343?52002?6?$AA@ 00568c10     Core:Core.obj
 0003:00001c2c       ??_C@_0M@GKJL@claire_date?$AA@ 00568c2c     Core:Core.obj
 0003:00001c38       ??_C@_03GOHA@nil?$AA@      00568c38     Core:Core.obj
 0003:00001c3c       ??_C@_0BE@JEAM@contradiction?$CB_void?$AA@ 00568c3c     Core:Core.obj
 0003:00001c50       ??_C@_0BF@GNMD@contradiction_occurs?$AA@ 00568c50     Core:Core.obj
 0003:00001c68       ??_C@_03FDEB@?$DM?$DN2?$AA@ 00568c68     Core:Core.obj
 0003:00001c6c       ??_C@_0BG@ICHN@close_global_variable?$AA@ 00568c6c     Core:Core.obj
 0003:00001c84       ??_C@_0BA@HKJF@global_variable?$AA@ 00568c84     Core:Core.obj
 0003:00001c94       ??_C@_09FGLG@princ_bag?$AA@ 00568c94     Core:Core.obj
 0003:00001ca0       ??_C@_0P@ODJH@tformat_string?$AA@ 00568ca0     Core:Core.obj
 0003:00001cb0       ??_C@_0O@HJLC@format_string?$AA@ 00568cb0     Core:Core.obj
 0003:00001cc0       ??_C@_0BO@MONI@self_print_contradiction_Core?$AA@ 00568cc0     Core:Core.obj
 0003:00001ce0       ??_C@_0O@LHO@contradiction?$AA@ 00568ce0     Core:Core.obj
 0003:00001cf0       ??_C@_0BN@MJLD@self_print_system_error_Core?$AA@ 00568cf0     Core:Core.obj
 0003:00001d10       ??_C@_0BN@FDHH@self_print_return_error_Core?$AA@ 00568d10     Core:Core.obj
 0003:00001d30       ??_C@_0N@CODM@return_error?$AA@ 00568d30     Core:Core.obj
 0003:00001d40       ??_C@_0BP@BKDL@self_print_selector_error_Core?$AA@ 00568d40     Core:Core.obj
 0003:00001d60       ??_C@_0P@HHLK@selector_error?$AA@ 00568d60     Core:Core.obj
 0003:00001d70       ??_C@_0BM@KANH@self_print_range_error_Core?$AA@ 00568d70     Core:Core.obj
 0003:00001d8c       ??_C@_0M@HK@range_error?$AA@ 00568d8c     Core:Core.obj
 0003:00001d98       ??_C@_0CA@OMAA@self_print_read_slot_error_Core?$AA@ 00568d98     Core:Core.obj
 0003:00001db8       ??_C@_0BA@JPAM@read_slot_error?$AA@ 00568db8     Core:Core.obj
 0003:00001dc8       ??_C@_0BO@MGMA@self_print_general_error_Core?$AA@ 00568dc8     Core:Core.obj
 0003:00001de8       ??_C@_0O@GBIG@general_error?$AA@ 00568de8     Core:Core.obj
 0003:00001df8       ??_C@_05KFME@value?$AA@    00568df8     Core:Core.obj
 0003:00001e00       ??_C@_04CGOG@args?$AA@     00568e00     Core:Core.obj
 0003:00001e08       ??_C@_05IABL@?$CK?$CKarg?$AA@ 00568e08     Core:Core.obj
 0003:00001e10       ??_C@_0P@EMMO@reify_listargs?$AA@ 00568e10     Core:Core.obj
 0003:00001e20       ??_C@_05KMJH@reify?$AA@    00568e20     Core:Core.obj
 0003:00001e28       ??_C@_0O@PGEF@methods_class?$AA@ 00568e28     Core:Core.obj
 0003:00001e38       ??_C@_0BE@LOGC@domain?$CB_restriction?$AA@ 00568e38     Core:Core.obj
 0003:00001e4c       ??_C@_0BA@HKKJ@invert_relation?$AA@ 00568e4c     Core:Core.obj
 0003:00001e5c       ??_C@_0BC@FJAD@check_inverse_any?$AA@ 00568e5c     Core:Core.obj
 0003:00001e70       ??_C@_05OADB@pname?$AA@    00568e70     Core:Core.obj
 0003:00001e78       ??_C@_0BA@JKH@funcall_lambda3?$AA@ 00568e78     Core:Core.obj
 0003:00001e88       ??_C@_0BA@KDDA@funcall_lambda2?$AA@ 00568e88     Core:Core.obj
 0003:00001e98       ??_C@_0BA@FMIJ@funcall_lambda1?$AA@ 00568e98     Core:Core.obj
 0003:00001ea8       ??_C@_0N@PLLN@StopProperty?$AA@ 00568ea8     Core:Core.obj
 0003:00001eb8       ??_C@_0BA@DOIH@make_table_type?$AA@ 00568eb8     Core:Core.obj
 0003:00001ec8       ??_C@_0M@NAAG@erase_table?$AA@ 00568ec8     Core:Core.obj
 0003:00001ed4       ??_C@_0BB@DPLM@get_index_table2?$AA@ 00568ed4     Core:Core.obj
 0003:00001ee8       ??_C@_0BB@MAAF@get_index_table1?$AA@ 00568ee8     Core:Core.obj
 0003:00001efc       ??_C@_0M@MPKN@nth?$DN_table2?$AA@ 00568efc     Core:Core.obj
 0003:00001f08       ??_C@_0L@FFHC@nth_table2?$AA@ 00568f08     Core:Core.obj
 0003:00001f14       ??_C@_0BA@DIEK@nth_table2_type?$AA@ 00568f14     Core:Core.obj
 0003:00001f24       ??_C@_0N@PDAM@delete_table?$AA@ 00568f24     Core:Core.obj
 0003:00001f34       ??_C@_0BB@BGDD@add_value_table3?$AA@ 00568f34     Core:Core.obj
 0003:00001f48       ??_C@_0BA@INGJ@add_value_array?$AA@ 00568f48     Core:Core.obj
 0003:00001f58       ??_C@_0L@KAKK@add?$CB_table?$AA@ 00568f58     Core:Core.obj
 0003:00001f64       ??_C@_09NNHA@add_table?$AA@ 00568f64     Core:Core.obj
 0003:00001f70       ??_C@_09BICH@put_table?$AA@ 00568f70     Core:Core.obj
 0003:00001f7c       ??_C@_0O@NHIO@nth_put_table?$AA@ 00568f7c     Core:Core.obj
 0003:00001f8c       ??_C@_0M@DABE@nth?$DN_table1?$AA@ 00568f8c     Core:Core.obj
 0003:00001f98       ??_C@_09PBLE@get_table?$AA@ 00568f98     Core:Core.obj
 0003:00001fa4       ??_C@_0P@BBM@get_table_type?$AA@ 00568fa4     Core:Core.obj
 0003:00001fb4       ??_C@_0L@KKML@nth_table1?$AA@ 00568fb4     Core:Core.obj
 0003:00001fc0       ??_C@_0BA@IGKK@nth_table1_type?$AA@ 00568fc0     Core:Core.obj
 0003:00001fd0       ??_C@_0BE@HKCH@add_value_property3?$AA@ 00568fd0     Core:Core.obj
 0003:00001fe4       ??_C@_0O@FLKH@put_property2?$AA@ 00568fe4     Core:Core.obj
 0003:00001ff4       ??_C@_0P@BNOH@identical?$DP_any?$AA@ 00568ff4     Core:Core.obj
 0003:00002004       ??_C@_0BC@BCLA@identified?$DP_class?$AA@ 00569004     Core:Core.obj
 0003:00002018       ??_C@_0BC@FBEN@tr_indent_boolean?$AA@ 00569018     Core:Core.obj
 0003:0000202c       ??_C@_0BD@HOLK@pop_debug_property?$AA@ 0056902c     Core:Core.obj
 0003:00002040       ??_C@_0BE@LLKI@push_debug_property?$AA@ 00569040     Core:Core.obj
 0003:00002054       ??_C@_0N@LAED@apply_method?$AA@ 00569054     Core:Core.obj
 0003:00002064       ??_C@_0P@BPKI@apply_property?$AA@ 00569064     Core:Core.obj
 0003:00002074       ??_C@_0O@LLEK@call_property?$AA@ 00569074     Core:Core.obj
 0003:00002084       ??_C@_0P@LMNE@apply_function?$AA@ 00569084     Core:Core.obj
 0003:00002094       ??_C@_0BA@JIFC@funcall_method3?$AA@ 00569094     Core:Core.obj
 0003:000020a4       ??_C@_0BA@DCMF@funcall_method2?$AA@ 005690a4     Core:Core.obj
 0003:000020b4       ??_C@_0BA@MNHM@funcall_method1?$AA@ 005690b4     Core:Core.obj
 0003:000020c4       ??_C@_0BB@NJPP@get_args_integer?$AA@ 005690c4     Core:Core.obj
 0003:000020d8       ??_C@_0L@MDIC@about_void?$AA@ 005690d8     Core:Core.obj
 0003:000020e4       ??_C@_0N@OLNI@release_void?$AA@ 005690e4     Core:Core.obj
 0003:000020f4       ??_C@_06NBGB@?5?$FN?5?9?9?6?$AA@ 005690f4     Core:Core.obj
 0003:000020fc       ??_C@_07MCIG@MS?5VC?$CL?$CL?$AA@ 005690fc     Core:Core.obj
 0003:00002104       ??_C@_06PFPI@?0?5C?$CL?$CL?3?$AA@ 00569104     Core:Core.obj
 0003:0000210c       ??_C@_03FFGL@ntv?$AA@      0056910c     Core:Core.obj
 0003:00002110       ??_C@_06BFJN@?5?$FLos?3?5?$AA@ 00569110     Core:Core.obj
 0003:00002118       ??_C@_0CA@PPOC@?9?9?5CLAIRE?5run?9time?5library?5v?53?4?$AA@ 00569118     Core:Core.obj
 0003:00002138       ??_C@_0BB@CFEK@find_which_class?$AA@ 00569138     Core:Core.obj
 0003:0000214c       ??_C@_0BA@HLDB@find_which_list?$AA@ 0056914c     Core:Core.obj
 0003:0000215c       ??_C@_0BE@BCKJ@find_which_property?$AA@ 0056915c     Core:Core.obj
 0003:00002170       ??_C@_0M@MICK@tmatch?$DP_any?$AA@ 00569170     Core:Core.obj
 0003:0000217c       ??_C@_0N@LDCO@tmatch?$DP_list?$AA@ 0056917c     Core:Core.obj
 0003:0000218c       ??_C@_0M@BNDF@vmatch?$DP_any?$AA@ 0056918c     Core:Core.obj
 0003:00002198       ??_C@_0P@BKON@matching?$DP_list?$AA@ 00569198     Core:Core.obj
 0003:000021a8       ??_C@_0M@KLJP@?$EA_property2?$AA@ 005691a8     Core:Core.obj
 0003:000021b4       ??_C@_0M@FECG@?$EA_property1?$AA@ 005691b4     Core:Core.obj
 0003:000021c0       ??_C@_09CPIC@join_list?$AA@ 005691c0     Core:Core.obj
 0003:000021cc       ??_C@_0O@FDBN@hashget_class?$AA@ 005691cc     Core:Core.obj
 0003:000021dc       ??_C@_0BA@EOKF@hashinsert_list?$AA@ 005691dc     Core:Core.obj
 0003:000021ec       ??_C@_0BB@OPHP@hashinsert_class?$AA@ 005691ec     Core:Core.obj
 0003:00002200       ??_C@_0BH@JILH@hashinsert_restriction?$AA@ 00569200     Core:Core.obj
 0003:00002218       ??_C@_0BI@OAB@initialize_restriction2?$AA@ 00569218     Core:Core.obj
 0003:00002230       ??_C@_0BB@IILE@uniform_property?$AA@ 00569230     Core:Core.obj
 0003:00002244       ??_C@_0BE@BNKN@uniform_restriction?$AA@ 00569244     Core:Core.obj
 0003:00002258       ??_C@_0BI@PBLI@initialize_restriction1?$AA@ 00569258     Core:Core.obj
 0003:00002270       ??_C@_0BL@LCMO@insert_definition_property?$AA@ 00569270     Core:Core.obj
 0003:0000228c       ??_C@_04PHLL@join?$AA@     0056928c     Core:Core.obj
 0003:00002294       ??_C@_0BD@FDFA@fastcall_relation2?$AA@ 00569294     Core:Core.obj
 0003:000022a8       ??_C@_0L@GDMM@multi?$DP_any?$AA@ 005692a8     Core:Core.obj
 0003:000022b4       ??_C@_06FEKD@multi?$DP?$AA@ 005692b4     Core:Core.obj
 0003:000022bc       ??_C@_0BE@NJFA@put_store_property2?$AA@ 005692bc     Core:Core.obj
 0003:000022d0       ??_C@_0BD@LFDO@set_range_property?$AA@ 005692d0     Core:Core.obj
 0003:000022e4       ??_C@_0P@FLGG@erase_property?$AA@ 005692e4     Core:Core.obj
 0003:000022f4       ??_C@_0BA@PFCB@delete_property?$AA@ 005692f4     Core:Core.obj
 0003:00002304       ??_C@_0BC@JFNI@unknown?$DP_property?$AA@ 00569304     Core:Core.obj
 0003:00002318       ??_C@_0BA@PNEM@known?$DP_property?$AA@ 00569318     Core:Core.obj
 0003:00002328       ??_C@_0N@BEFH@add_property?$AA@ 00569328     Core:Core.obj
 0003:00002338       ??_C@_0BD@OOM@add_value_property?$AA@ 00569338     Core:Core.obj
 0003:0000234c       ??_C@_0O@KJOE@add?$CB_property?$AA@ 0056934c     Core:Core.obj
 0003:0000235c       ??_C@_0BB@OEJB@update?9_relation?$AA@ 0056935c     Core:Core.obj
 0003:00002370       ??_C@_0BB@MEBM@update?$CL_relation?$AA@ 00569370     Core:Core.obj
 0003:00002384       ??_C@_0BA@FED@update_property?$AA@ 00569384     Core:Core.obj
 0003:00002394       ??_C@_0O@KEBO@put_property1?$AA@ 00569394     Core:Core.obj
 0003:000023a4       ??_C@_0BE@BCGC@range_is_wrong_slot?$AA@ 005693a4     Core:Core.obj
 0003:000023b8       ??_C@_0P@OECJ@write_property?$AA@ 005693b8     Core:Core.obj
 0003:000023c8       ??_C@_0P@BEPF@hold?$DP_property?$AA@ 005693c8     Core:Core.obj
 0003:000023d8       ??_C@_0O@CBIP@read_property?$AA@ 005693d8     Core:Core.obj
 0003:000023e8       ??_C@_0BB@PEBJ@funcall_property?$AA@ 005693e8     Core:Core.obj
 0003:000023fc       ??_C@_0N@GOID@get_property?$AA@ 005693fc     Core:Core.obj
 0003:0000240c       ??_C@_08LIPP@put_slot?$AA@ 0056940c     Core:Core.obj
 0003:00002418       ??_C@_08CLIF@get_slot?$AA@ 00569418     Core:Core.obj
 0003:00002424       ??_C@_0BB@NPIG@inlineok?$DP_method?$AA@ 00569424     Core:Core.obj
 0003:00002438       ??_C@_0BH@FMD@self_eval_ClaireObject?$AA@ 00569438     Core:Core.obj
 0003:00002450       ??_C@_08IDDE@eval_any?$AA@ 00569450     Core:Core.obj
 0003:0000245c       ??_C@_0P@CBLO@execute_method?$AA@ 0056945c     Core:Core.obj
 0003:0000246c       ??_C@_0BJ@KAAB@noeval_message_property2?$AA@ 0056946c     Core:Core.obj
 0003:00002488       ??_C@_0BG@EDOF@eval_message_property?$AA@ 00569488     Core:Core.obj
 0003:000024a0       ??_C@_04HBMH@main?$AA@     005694a0     Core:Core.obj
 0003:000024a8       ??_C@_0L@DPBP@find_which?$AA@ 005694a8     Core:Core.obj
 0003:000024b4       ??_C@_07EKD@tmatch?$DP?$AA@ 005694b4     Core:Core.obj
 0003:000024bc       ??_C@_07FJII@vmatch?$DP?$AA@ 005694bc     Core:Core.obj
 0003:000024c4       ??_C@_09KAEA@matching?$DP?$AA@ 005694c4     Core:Core.obj
 0003:000024d0       ??_C@_09LPBN@put_store?$AA@ 005694d0     Core:Core.obj
 0003:000024dc       ??_C@_09EKIN@set_range?$AA@ 005694dc     Core:Core.obj
 0003:000024e8       ??_C@_05IACP@erase?$AA@    005694e8     Core:Core.obj
 0003:000024f0       ??_C@_08DCON@unknown?$DP?$AA@ 005694f0     Core:Core.obj
 0003:000024fc       ??_C@_06DCOL@known?$DP?$AA@ 005694fc     Core:Core.obj
 0003:00002504       ??_C@_09CIKP@add_value?$AA@ 00569504     Core:Core.obj
 0003:00002510       ??_C@_07EBJP@update?9?$AA@ 00569510     Core:Core.obj
 0003:00002518       ??_C@_07LOON@update?$CL?$AA@ 00569518     Core:Core.obj
 0003:00002520       ??_C@_0P@GJGI@range_is_wrong?$AA@ 00569520     Core:Core.obj
 0003:00002530       ??_C@_05DDNA@write?$AA@    00569530     Core:Core.obj
 0003:00002538       ??_C@_05OCDN@hold?$DP?$AA@ 00569538     Core:Core.obj
 0003:00002540       ??_C@_0O@IDPP@restore_state?$AA@ 00569540     Core:Core.obj
 0003:00002550       ??_C@_09MJIE@inlineok?$DP?$AA@ 00569550     Core:Core.obj
 0003:0000255c       ??_C@_04IFA@read?$AA@      0056955c     Core:Core.obj
 0003:00002564       ??_C@_09IJKK@self_eval?$AA@ 00569564     Core:Core.obj
 0003:00002570       ??_C@_04JNJF@call?$AA@     00569570     Core:Core.obj
 0003:00002578       ??_C@_04CECG@eval?$AA@     00569578     Core:Core.obj
 0003:00002580       ??_C@_0P@GDJ@noeval_message?$AA@ 00569580     Core:Core.obj
 0003:00002590       ??_C@_0N@JAIK@eval_message?$AA@ 00569590     Core:Core.obj
 0003:000025a0       ??_C@_05FLHP@debug?$AA@    005695a0     Core:Core.obj
 0003:000025a8       ??_C@_07DACI@execute?$AA@  005695a8     Core:Core.obj
 0003:000025b0       ??_C@_06PFKC@lambda?$AA@   005695b0     Core:Core.obj
 0003:000025b8       ??_C@_0BB@MNHO@ephemeral_object?$AA@ 005695b8     Core:Core.obj
 0003:000025cc       ??_C@_07BPOH@version?$AA@  005695cc     Core:Core.obj
 0003:000025d4       ??_C@_09KHEH@dimension?$AA@ 005695d4     Core:Core.obj
 0003:000025e0       ??_C@_04HIIB@vars?$AA@     005695e0     Core:Core.obj
 0003:000025e8       ??_C@_0L@IMFK@make_table?$AA@ 005695e8     Core:Core.obj
 0003:000025f4       ??_C@_04EAGN@atan?$AA@     005695f4     Core:Core.obj
 0003:000025fc       ??_C@_04FKPE@new?$CB?$AA@  005695fc     Core:Core.obj
 0003:00002604       ??_C@_03BGKD@log?$AA@      00569604     Core:Core.obj
 0003:00002608       ??_C@_0P@JFAC@make_copy_list?$AA@ 00569608     Core:Core.obj
 0003:00002618       ??_C@_0P@PMKM@meet_arg_types?$AA@ 00569618     Core:Core.obj
 0003:00002628       ??_C@_0BA@KEIK@second_arg_type?$AA@ 00569628     Core:Core.obj
 0003:00002638       ??_C@_0P@NHJM@first_arg_type?$AA@ 00569638     Core:Core.obj
 0003:00002648       ??_C@_09BLJP@time_read?$AA@ 00569648     Core:Core.obj
 0003:00002654       ??_C@_0L@NJMH@get_symbol?$AA@ 00569654     Core:Core.obj
 0003:00002660       ??_C@_08JKCD@make_set?$AA@ 00569660     Core:Core.obj
 0003:0000266c       ??_C@_06MHN@update?$AA@    0056966c     Core:Core.obj
 0003:00002674       ??_C@_05NMLH@?$CFtype?$AA@ 00569674     Core:Core.obj
 0003:0000267c       ??_C@_09JMPC@complete?$CB?$AA@ 0056967c     Core:Core.obj
 0003:00002688       ??_C@_09JNHN@set_index?$AA@ 00569688     Core:Core.obj
 0003:00002694       ??_C@_06MGGG@index?$CB?$AA@ 00569694     Core:Core.obj
 0003:0000269c       ??_C@_08PFOM@set_base?$AA@ 0056969c     Core:Core.obj
 0003:000026a8       ??_C@_05ENIP@base?$CB?$AA@ 005696a8     Core:Core.obj
 0003:000026b0       ??_C@_06MCLG@pbreak?$AA@   005696b0     Core:Core.obj
 0003:000026b8       ??_C@_06CEGK@pprint?$AA@   005696b8     Core:Core.obj
 0003:000026c0       ??_C@_05PNBN@width?$AA@    005696c0     Core:Core.obj
 0003:000026c8       ??_C@_09OCKF@cprevious?$AA@ 005696c8     Core:Core.obj
 0003:000026d4       ??_C@_07MCJF@cpretty?$AA@  005696d4     Core:Core.obj
 0003:000026dc       ??_C@_0L@BLMC@make_array?$AA@ 005696dc     Core:Core.obj
 0003:000026e8       ??_C@_0BC@ILOE@insert_definition?$AA@ 005696e8     Core:Core.obj
 0003:000026fc       ??_C@_04LMBE@sqrt?$AA@     005696fc     Core:Core.obj
 0003:00002704       ??_C@_03IDPP@new?$AA@      00569704     Core:Core.obj
 0003:00002708       ??_C@_0O@OOML@abstract_type?$AA@ 00569708     Core:Core.obj
 0003:00002718       ??_C@_03JDAH@the?$AA@      00569718     Core:Core.obj
 0003:0000271c       ??_C@_07BBKP@unique?$DP?$AA@ 0056971c     Core:Core.obj
 0003:00002724       ??_C@_04LNBK@Uall?$AA@     00569724     Core:Core.obj
 0003:0000272c       ??_C@_06IAGC@tuple?$CB?$AA@ 0056972c     Core:Core.obj
 0003:00002734       ??_C@_02OBEK@t2?$AA@       00569734     Core:Core.obj
 0003:00002738       ??_C@_02BOPD@t1?$AA@       00569738     Core:Core.obj
 0003:0000273c       ??_C@_09LGJB@enumerate?$AA@ 0056973c     Core:Core.obj
 0003:00002748       ??_C@_09EGL@get_value?$AA@ 00569748     Core:Core.obj
 0003:00002754       ??_C@_04FBLA@Oid?$HO?$AA@  00569754     Core:Core.obj
 0003:0000275c       ??_C@_03CKAL@Oid?$AA@      0056975c     Core:Core.obj
 0003:00002760       ??_C@_07DPCC@Address?$AA@  00569760     Core:Core.obj
 0003:00002768       ??_C@_06KAPE@member?$AA@   00569768     Core:Core.obj
 0003:00002770       ??_C@_0L@DMMJ@of_extract?$AA@ 00569770     Core:Core.obj
 0003:0000277c       ??_C@_0L@EKL@difference?$AA@ 0056977c     Core:Core.obj
 0003:00002788       ??_C@_0P@MEB@build_powerset?$AA@ 00569788     Core:Core.obj
 0003:00002798       ??_C@_09JLMA@quicksort?$AA@ 00569798     Core:Core.obj
 0003:000027a4       ??_C@_04OBLM@sort?$AA@     005697a4     Core:Core.obj
 0003:000027ac       ??_C@_08JJAJ@hashsize?$AA@ 005697ac     Core:Core.obj
 0003:000027b8       ??_C@_08LMBP@hashlist?$AA@ 005697b8     Core:Core.obj
 0003:000027c4       ??_C@_03FDGH@car?$AA@      005697c4     Core:Core.obj
 0003:000027c8       ??_C@_06IPPA@rmlast?$AA@   005697c8     Core:Core.obj
 0003:000027d0       ??_C@_04ONL@last?$AA@      005697d0     Core:Core.obj
 0003:000027d8       ??_C@_04BAHI@exit?$AA@     005697d8     Core:Core.obj
 0003:000027e0       ??_C@_03BOOH@?9?9?$DP?$AA@ 005697e0     Core:Core.obj
 0003:000027e4       ??_C@_06OGMA@getenv?$AA@   005697e4     Core:Core.obj
 0003:000027ec       ??_C@_05HPGN@shell?$AA@    005697ec     Core:Core.obj
 0003:000027f4       ??_C@_07KMOP@externC?$AA@  005697f4     Core:Core.obj
 0003:000027fc       ??_C@_0O@BAEK@make_function?$AA@ 005697fc     Core:Core.obj
 0003:0000280c       ??_C@_03OEEH@not?$AA@      0056980c     Core:Core.obj
 0003:00002810       ??_C@_0BC@ONJD@buffer_set_length?$AA@ 00569810     Core:Core.obj
 0003:00002824       ??_C@_0O@NLKB@buffer_length?$AA@ 00569824     Core:Core.obj
 0003:00002834       ??_C@_0BA@IBKH@print_in_string?$AA@ 00569834     Core:Core.obj
 0003:00002844       ??_C@_09CAFG@time_show?$AA@ 00569844     Core:Core.obj
 0003:00002850       ??_C@_08BIPN@time_set?$AA@ 00569850     Core:Core.obj
 0003:0000285c       ??_C@_08HBMN@time_get?$AA@ 0056985c     Core:Core.obj
 0003:00002868       ??_C@_02BGDL@gc?$AA@       00569868     Core:Core.obj
 0003:0000286c       ??_C@_05DGKN@push?$CB?$AA@ 0056986c     Core:Core.obj
 0003:00002874       ??_C@_09BEBG@put_stack?$AA@ 00569874     Core:Core.obj
 0003:00002880       ??_C@_09PNIF@get_stack?$AA@ 00569880     Core:Core.obj
 0003:0000288c       ??_C@_0P@MAHM@contradiction?$CB?$AA@ 0056988c     Core:Core.obj
 0003:0000289c       ??_C@_07NIKG@tformat?$AA@  0056989c     Core:Core.obj
 0003:000028a4       ??_C@_06PMHG@format?$AA@   005698a4     Core:Core.obj
 0003:000028ac       ??_C@_05HICB@wrong?$AA@    005698ac     Core:Core.obj
 0003:000028b4       ??_C@_05BDBH@cause?$AA@    005698b4     Core:Core.obj
 0003:000028bc       ??_C@_07LOOJ@methods?$AA@  005698bc     Core:Core.obj
 0003:000028c4       ??_C@_07ODOA@domain?$CB?$AA@ 005698c4     Core:Core.obj
 0003:000028cc       ??_C@_06ENJJ@invert?$AA@   005698cc     Core:Core.obj
 0003:000028d4       ??_C@_0O@IDGH@check_inverse?$AA@ 005698d4     Core:Core.obj
 0003:000028e4       ??_C@_06CCFK@pair_2?$AA@   005698e4     Core:Core.obj
 0003:000028ec       ??_C@_06NNOD@pair_1?$AA@   005698ec     Core:Core.obj
 0003:000028f4       ??_C@_02FECH@Id?$AA@       005698f4     Core:Core.obj
 0003:000028f8       ??_C@_07FBEI@divide?$DP?$AA@ 005698f8     Core:Core.obj
 0003:00002900       ??_C@_07CBFO@factor?$DP?$AA@ 00569900     Core:Core.obj
 0003:00002908       ??_C@_09LANP@get_index?$AA@ 00569908     Core:Core.obj
 0003:00002914       ??_C@_0L@LLCI@identical?$DP?$AA@ 00569914     Core:Core.obj
 0003:00002920       ??_C@_0M@GKFC@identified?$DP?$AA@ 00569920     Core:Core.obj
 0003:0000292c       ??_C@_01PJOB@?$CL?$AA@     0056992c     Core:Core.obj
 0003:00002930       ??_C@_09MMFD@tr_indent?$AA@ 00569930     Core:Core.obj
 0003:0000293c       ??_C@_09PKNF@pop_debug?$AA@ 0056993c     Core:Core.obj
 0003:00002948       ??_C@_0L@LLJC@push_debug?$AA@ 00569948     Core:Core.obj
 0003:00002954       ??_C@_08IJBJ@get_args?$AA@ 00569954     Core:Core.obj
 0003:00002960       ??_C@_05FNEB@about?$AA@    00569960     Core:Core.obj
 0003:00002968       ??_C@_01KFMA@?$EA?$AA@     00569968     Core:Core.obj
 0003:0000296c       ??_C@_07FCDP@release?$AA@  0056996c     Core:Core.obj
 0003:00002974       ??_C@_03KFAP@spy?$AA@      00569974     Core:Core.obj
 0003:00002978       ??_C@_09CIAN@call_step?$AA@ 00569978     Core:Core.obj
 0003:00002984       ??_C@_07COHG@finite?$DP?$AA@ 00569984     Core:Core.obj
 0003:0000298c       ??_C@_05NAFO@apply?$AA@    0056998c     Core:Core.obj
 0003:00002994       ??_C@_0O@KGJO@end_of_string?$AA@ 00569994     Core:Core.obj
 0003:000029a4       ??_C@_04LLHI@size?$AA@     005699a4     Core:Core.obj
 0003:000029ac       ??_C@_06CBCL@param?$CB?$AA@ 005699ac     Core:Core.obj
 0003:000029b4       ??_C@_07MPKK@hashget?$AA@  005699b4     Core:Core.obj
 0003:000029bc       ??_C@_0L@MFJA@hashinsert?$AA@ 005699bc     Core:Core.obj
 0003:000029c8       ??_C@_07PJKA@uniform?$AA@  005699c8     Core:Core.obj
 0003:000029d0       ??_C@_0L@OJAJ@initialize?$AA@ 005699d0     Core:Core.obj
 0003:000029dc       ??_C@_08JGJP@check_in?$AA@ 005699dc     Core:Core.obj
 0003:000029e8       ??_C@_05LOEC@owner?$AA@    005699e8     Core:Core.obj
 0003:000029f0       ??_C@_06PDMB@class?$CB?$AA@ 005699f0     Core:Core.obj
 0003:000029f8       ??_C@_0BK@JOGI@?$FL178?$FN?5cannot?5enumerate?5?$HOS?$AA@ 005699f8     Core:types.obj
 0003:00002a14       ??_C@_01KMMP@?$CJ?$AA@     00569a14     Core:types.obj
 0003:00002a18       ??_C@_03JMDJ@?5U?5?$AA@    00569a18     Core:types.obj
 0003:00002a1c       ??_C@_01GFI@?$CI?$AA@      00569a1c     Core:types.obj
 0003:00002a20       ??_C@_04NBEM@?5?4?4?5?$AA@ 00569a20     Core:types.obj
 0003:00002a28       ??_C@_0CH@POGK@?$FL182?$FN?5the?5interval?5?$CI?$HOS?5?9?9?5?$HOS?$CJ?5is@ 00569a28     Core:types.obj
 0003:00002a50       ??_C@_01FIMD@?$FN?$AA@     00569a50     Core:types.obj
 0003:00002a54       ??_C@_02CBKC@?3?$CI?$AA@   00569a54     Core:types.obj
 0003:00002a58       ??_C@_02GIEM@?0?5?$AA@     00569a58     Core:types.obj
 0003:00002a5c       ??_C@_01KHLB@?$FL?$AA@     00569a5c     Core:types.obj
 0003:00002a60       ??_C@_01FAFK@?$DO?$AA@     00569a60     Core:types.obj
 0003:00002a64       ??_C@_01FHE@?$DM?$AA@      00569a64     Core:types.obj
 0003:00002a68       ??_C@_08PAKM@subtype?$FL?$AA@ 00569a68     Core:types.obj
 0003:00002a74       ??_C@_0CC@BFED@?$FL177?$FN?5subtyping?5of?5?$HOS?5not?5allowe@ 00569a74     Core:types.obj
 0003:00002a98       ??_C@_0DF@IPLO@?$FL177?$FN?5the?5subtyping?5expression?5?$HO@ 00569a98     Core:types.obj
 0003:00002ad0       ??_C@_03IMP@?$FN?$CJ?$DO?$AA@ 00569ad0     Core:types.obj
 0003:00002ad4       ??_C@_07NINM@?$CIltype?$FL?$AA@ 00569ad4     Core:types.obj
 0003:00002adc       ??_C@_05EJDP@?$DMref?3?$AA@ 00569adc     Core:types.obj
 0003:00002ae4       ??_C@_0CC@CBDL@?$FL179?$FN?5?$CI?$HOS?5?$CF?5?$HOS?$CJ?3?5not?5implemented@ 00569ae4     Core:types.obj
 0003:00002b08       ??_C@_0CC@PKPH@?$FL180?$FN?5nth?$FL?$HOS?$FN?5out?5of?5scope?5for?5?$HO@ 00569b08     Core:types.obj
 0003:00002b2c       ??_C@_0DF@DBKC@?$FL123?$FN?5YOU?5ARE?5USING?5PRINT_in_str@ 00569b2c     Core:function.obj
 0003:00002b64       ??_C@_0O@JMGD@?$DMunprintable?3?$AA@ 00569b64     Core:function.obj
 0003:00002b74       ??_C@_07CAMD@unknown?$AA@  00569b74     Core:function.obj
 0003:00002b7c       ??_C@_05NAGO@false?$AA@    00569b7c     Core:function.obj
 0003:00002b84       ??_C@_04NCCD@true?$AA@     00569b84     Core:function.obj
 0003:00002b8c       ??_C@_02OJKI@?$CD?8?$AA@   00569b8c     Core:function.obj
 0003:00002b90       ??_C@_03LKJA@?5?$EA?5?$AA@ 00569b90     Core:function.obj
 0003:00002b94       ??_C@_0DD@GMI@?$FL124?$FN?5the?5value?5?$HOS?5does?5not?5belo@ 00569b94     Core:function.obj
 0003:00002bc8       ??_C@_0DD@NKFD@?$FL124?$FN?5the?5value?5?$HOS?5does?5not?5belo@ 00569bc8     Core:function.obj
 0003:00002bfc       ??_C@_0DD@KBCF@?$FL187?$FN?5cannot?5declare?5?$HOS?5as?5ephem@ 00569bfc     Core:function.obj
 0003:00002c30       ??_C@_0CL@EKGJ@?$FL125?$FN?5ephemeral?5classes?5cannot?5b@ 00569c30     Core:function.obj
 0003:00002c5c       ??_C@_0CP@JFB@?$FL126?$FN?5ephemeral?5classes?5cannot?5b@ 00569c5c     Core:function.obj
 0003:00002c8c       ??_C@_0BM@NFPJ@?$FL105?$FN?5cannot?5instantiate?5?$HOS?$AA@ 00569c8c     Core:function.obj
 0003:00002ca8       ??_C@_0CH@FHHJ@?$FL127?$FN?5?$HOS?5can?5no?5longer?5become?5ab@ 00569ca8     Core:function.obj
 0003:00002cd0       ??_C@_01KCMF@g?$AA@        00569cd0     Core:function.obj
 0003:00002cd4       ??_C@_0BK@KDII@cannot?5execute?5C?5code?3?5?$HOA?$AA@ 00569cd4     Core:function.obj
 0003:00002cf0       ??_C@_0BC@NPJF@cannot?5execute?5?$HOA?$AA@ 00569cf0     Core:function.obj
 0003:00002d04       ??_C@_0BF@CIOB@Buffer?5string?5access?$AA@ 00569d04     Core:function.obj
 0003:00002d1c       ??_C@_01FDLN@?1?$AA@       00569d1c     Core:function.obj
 0003:00002d20       ??_C@_0CB@FIDD@?$FL41?$FN?5nth?$FL?$HOS?$FN?5out?5of?5scope?5for?5?$HOS@ 00569d20     Core:function.obj
 0003:00002d44       ??_C@_0CE@NLHF@?$FL183?$FN?5min?5of?5empty?5set?5is?5undefi@ 00569d44     Core:function.obj
 0003:00002d68       ??_C@_0CE@FPDK@?$FL183?$FN?5max?5of?5empty?5set?5is?5undefi@ 00569d68     Core:function.obj
 0003:00002d8c       ??_C@_0BL@HJGC@?$FL41?$FN?5car?$CInil?$CJ?5is?5undefined?$AA@ 00569d8c     Core:function.obj
 0003:00002da8       ??_C@_0BM@OPEO@nth?$FL?$HOS?$FN?5out?5of?5scope?5for?5?$HOS?$AA@ 00569da8     Core:function.obj
 0003:00002dc4       ??_C@_0CG@NOOD@type?5mismatch?5for?5array?5update?5?$HO@ 00569dc4     Core:function.obj
 0003:00002dec       ??_C@_02NKOB@?$DO?$FL?$AA@ 00569dec     Core:function.obj
 0003:00002df0       ??_C@_06MBLD@array?$DM?$AA@ 00569df0     Core:function.obj
 0003:00002df8       ??_C@_01HAF@?8?$AA@        00569df8     Core:function.obj
 0003:00002dfc       ??_C@_02HNCO@3?4?$AA@      00569dfc     Core:object.obj
 0003:00002e00       ??_C@_0BK@EFMD@FOR?5A?5PARTICULAR?5PURPOSE?6?$AA@ 00569e00     Core:object.obj
 0003:00002e1c       ??_C@_0EK@HGFN@WITHOUT?5LIMITATION?0?5THE?5IMPLIED?5@ 00569e1c     Core:object.obj
 0003:00002e68       ??_C@_0EG@NKCE@THIS?5SOFTWARE?5IS?5PROVIDED?5AS?5IS?5@ 00569e68     Core:object.obj
 0003:00002eb0       ??_C@_0CD@OBGO@explicit?5agreement?5of?5Yves?5Casea@ 00569eb0     Core:object.obj
 0003:00002ed4       ??_C@_0EE@OMDD@redistribution?5or?5resale?5in?5any?5@ 00569ed4     Core:object.obj
 0003:00002f18       ??_C@_0CC@PLLD@use?5in?5binary?5forms?5is?5permitted@ 00569f18     Core:object.obj
 0003:00002f3c       ??_C@_0DM@GECE@?5Copyright?5?$CIC?$CJ?51994?92001?5Yves?5Ca@ 00569f3c     Core:object.obj
 0003:00002f78       ??_C@_0L@LIME@CLAIRE?5v3?4?$AA@ 00569f78     Core:object.obj
 0003:00002f84       ??_C@_0BL@HBDN@stop?5as?5required?5in?5?$HOS?$CI?$HOA?$CJ?$AA@ 00569f84     Core:object.obj
 0003:00002fa0       ??_C@_02HHDK@?$CJ?6?$AA@   00569fa0     Core:object.obj
 0003:00002fa4       ??_C@_02HCOD@?5?$FL?$AA@   00569fa4     Core:object.obj
 0003:00002fa8       ??_C@_01KMAE@?0?$AA@       00569fa8     Core:object.obj
 0003:00002fac       ??_C@_01FCOA@?5?$AA@       00569fac     Core:object.obj
 0003:00002fb0       ??_C@_01BJG@?6?$AA@        00569fb0     Core:object.obj
 0003:00002fb4       ??_C@_01KPOD@?$DN?$AA@     00569fb4     Core:object.obj
 0003:00002fb8       ??_C@_02IIBJ@?3?$DN?$AA@   00569fb8     Core:object.obj
 0003:00002fbc       ??_C@_0BN@NCIF@?$FL134?$FN?5Cannot?5apply?5add?5to?5?$HOS?$AA@ 00569fbc     Core:object.obj
 0003:00002fdc       ??_C@_0CE@CLGK@?$FL138?$FN?5the?5value?5?$HOS?$CI?$HOS?$CJ?5is?5unknow@ 00569fdc     Core:object.obj
 0003:00003000       ??_C@_0CN@PNBM@?$FL135?$FN?5?$HOS?5does?5not?5belong?5to?5the?5@ 0056a000     Core:object.obj
 0003:00003030       ??_C@_0BE@PBFE@?$HOS?$CI?$HOS?$CJ?5is?5unknown?5?$CB?$AA@ 0056a030     Core:object.obj
 0003:00003044       ??_C@_0DD@MLPJ@?$FL137?$FN?5?$HOS?5and?5?$HOS?5cannot?5be?5invers@ 0056a044     Core:object.obj
 0003:00003078       ??_C@_0BN@HIEA@?$CK?$CK?$CK?$CK?5An?5error?5has?5occurred?4?6?$AA@ 0056a078     Core:object.obj
 0003:00003098       ??_C@_0N@ILFJ@?$CJ?5is?5unknown?$AA@ 0056a098     Core:object.obj
 0003:000030a8       ??_C@_0BI@NGF@?$CK?$CK?$CK?$CK?$FL138?$FN?5The?5value?5of?5?$AA@ 0056a0a8     Core:object.obj
 0003:000030c0       ??_C@_02BGGP@?4?6?$AA@     0056a0c0     Core:object.obj
 0003:000030c4       ??_C@_0BG@IAJB@?5does?5not?5belong?$DP?5to?5?$AA@ 0056a0c4     Core:object.obj
 0003:000030dc       ??_C@_0BA@OCOA@?3?5range?5error?0?5?$AA@ 0056a0dc     Core:object.obj
 0003:000030ec       ??_C@_0L@LEMD@?$CK?$CK?$CK?$CK?$FL139?$FN?5?$AA@ 0056a0ec     Core:object.obj
 0003:000030f8       ??_C@_0BK@BHKO@?5is?5a?5wrong?5arg?5list?5for?5?$AA@ 0056a0f8     Core:object.obj
 0003:00003114       ??_C@_0L@NOMI@?$CK?$CK?$CK?$CK?$FL141?$FN?5?$AA@ 0056a114     Core:object.obj
 0003:00003120       ??_C@_03JGBJ@?$CJ?4?6?$AA@ 0056a120     Core:object.obj
 0003:00003124       ??_C@_0CB@MHIL@?5is?5not?5defined?5?$CIwas?5applied?5to?5@ 0056a124     Core:object.obj
 0003:00003148       ??_C@_0BE@MGNN@?$FL140?$FN?5The?5property?5?$AA@ 0056a148     Core:object.obj
 0003:0000315c       ??_C@_0DK@OIJE@?$CK?$CK?$CK?$CK?$FL142?$FN?5return?5called?5outside?5@ 0056a15c     Core:object.obj
 0003:00003198       ??_C@_0CE@FNKE@What?5the?5hell?5is?5this?5?$CB?5?$FLcode?3?5?$HO@ 0056a198     Core:object.obj
 0003:000031bc       ??_C@_0BN@LPKF@C?$CL?$CL?5imported?5error?5?$CI?$HOS?$CJ?5?3?5?$HOS?$AA@ 0056a1bc     Core:object.obj
 0003:000031dc       ??_C@_0BP@JPDA@Wrong?5array?$FL?$HOS?$FN?5init?5value?3?5?$HOS?$AA@ 0056a1dc     Core:object.obj
 0003:000031fc       ??_C@_0BO@ONFH@wrong?5NTH?5access?5on?5?$HOS?5and?5?$HOS?$AA@ 0056a1fc     Core:object.obj
 0003:0000321c       ??_C@_0CP@GMBD@integer?5multiplication?5overflow?5@ 0056a21c     Core:object.obj
 0003:0000324c       ??_C@_0CA@KHHA@cannot?5convert?5?$HOS?5to?5an?5integer?$AA@ 0056a24c     Core:object.obj
 0003:0000326c       ??_C@_0BH@MPLM@Undefined?5access?5to?5?$HOS?$AA@ 0056a26c     Core:object.obj
 0003:00003284       ??_C@_0BE@CAEM@world?5stack?5is?5full?$AA@ 0056a284     Core:object.obj
 0003:00003298       ??_C@_0BE@DBJI@cannot?5open?5file?5?$HOA?$AA@ 0056a298     Core:object.obj
 0003:000032ac       ??_C@_0CC@FAO@reading?5char?5?8?$HOS?8?3?5wrong?5char?3?5?$HO@ 0056a2ac     Core:object.obj
 0003:000032d0       ??_C@_0CC@CFLA@User?5interrupt?3?5EXECUTION?5ABORTE@ 0056a2d0     Core:object.obj
 0003:000032f4       ??_C@_0CD@OEEA@Exception?5handling?3?5stack?5overfl@ 0056a2f4     Core:object.obj
 0003:00003318       ??_C@_0CI@LDLF@Too?5many?5arguments?5?$CI?$HOS?$CJ?5for?5func@ 0056a318     Core:object.obj
 0003:00003340       ??_C@_0CD@PDKJ@External?5function?5not?5compiled?5y@ 0056a340     Core:object.obj
 0003:00003364       ??_C@_0CE@HLKF@Attempt?5to?5read?5a?5private?5symbol@ 0056a364     Core:object.obj
 0003:00003388       ??_C@_0BG@MHED@There?5is?5no?5module?5?$HOS?$AA@ 0056a388     Core:object.obj
 0003:000033a0       ??_C@_0DH@PKHF@the?5multivalued?5status?5of?5?$HOS?5is?5@ 0056a3a0     Core:object.obj
 0003:000033d8       ??_C@_0CL@LCCJ@internal?5garbage?5protection?5stac@ 0056a3d8     Core:object.obj
 0003:00003404       ??_C@_0CB@FECP@Wrong?5usage?5of?5time?5counter?5?$FL?$HOA?$FN@ 0056a404     Core:object.obj
 0003:00003428       ??_C@_0BN@NMPH@execution?5stack?5is?5full?5?$FL?$HOA?$FN?$AA@ 0056a428     Core:object.obj
 0003:00003448       ??_C@_0CD@HCHN@Not?5enough?5memory?5to?5instal?5clai@ 0056a448     Core:object.obj
 0003:0000346c       ??_C@_0DA@HKMM@Cannote?5create?5a?5string?5with?5neg@ 0056a46c     Core:object.obj
 0003:0000349c       ??_C@_0CK@LJML@Integer?5to?5character?3?5?$HOS?5is?5a?5wr@ 0056a49c     Core:object.obj
 0003:000034c8       ??_C@_0CP@DOHJ@Integer?5arithmetic?3?5division?1mod@ 0056a4c8     Core:object.obj
 0003:000034f8       ??_C@_0BB@BHDO@Integer?5overflow?$AA@ 0056a4f8     Core:object.obj
 0003:0000350c       ??_C@_0DH@ICOG@definition?5of?5?$HOS?5is?5in?5conflict?5@ 0056a50c     Core:object.obj
 0003:00003544       ??_C@_0CJ@PJNF@Bag?5Type?5Error?3?5?$HOS?5cannot?5be?5add@ 0056a544     Core:object.obj
 0003:00003570       ??_C@_0CJ@CFAH@Temporary?5output?5string?5buffer?5t@ 0056a570     Core:object.obj
 0003:0000359c       ??_C@_0CF@LHIF@Cannot?5create?5a?5subclass?5for?5?$HOS?5@ 0056a59c     Core:object.obj
 0003:000035c4       ??_C@_0BI@NFPG@Symbol?5Table?5table?5full?$AA@ 0056a5c4     Core:object.obj
 0003:000035dc       ??_C@_0CD@NCJF@nth_string?$FL?$HOS?$FN?3?5string?5too?5short@ 0056a5dc     Core:object.obj
 0003:00003600       ??_C@_0DF@OPOM@Cannot?5create?5an?5imported?5entity@ 0056a600     Core:object.obj
 0003:00003638       ??_C@_0BK@OIAC@String?5buffer?5is?5full?3?5?$HOS?$AA@ 0056a638     Core:object.obj
 0003:00003654       ??_C@_0CF@JODH@List?5operation?3?5cdr?$CI?$CI?$CJ?$CJ?5is?5undef@ 0056a654     Core:object.obj
 0003:0000367c       ??_C@_0CP@IBCK@Skip?5applied?5on?5?$HOS?5with?5a?5negati@ 0056a67c     Core:object.obj
 0003:000036ac       ??_C@_0CA@BMGG@nth?$FL?$HOS?$FN?5outside?5of?5scope?5for?5?$HOS?$AA@ 0056a6ac     Core:object.obj
 0003:000036cc       ??_C@_0DH@IKCF@object?5allocation?0?5too?5large?5for@ 0056a6cc     Core:object.obj
 0003:00003704       ??_C@_0DI@HBHD@dynamic?5allocation?0?5too?5large?5fo@ 0056a704     Core:object.obj
 0003:0000373c       ??_C@_0CJ@HGAF@dynamic?5allocation?0?5item?5is?5too?5@ 0056a73c     Core:object.obj
 0003:00003768       ??_C@_0BA@CGAJ@?$FN?5has?5occured?3?6?$AA@ 0056a768     Core:object.obj
 0003:00003778       ??_C@_0BJ@PKGL@?$CK?$CK?$CK?$CK?5An?5internal?5error?5?$FL?$AA@ 0056a778     Core:object.obj
 0003:00003794       ??_C@_0BN@FGLM@A?5contradiction?5has?5occured?4?$AA@ 0056a794     Core:object.obj
 0003:000037b4       ??_C@_0BP@JGOH@?$FL143?$FN?5?$HOI?5not?5allowed?5in?5format?$AA@ 0056a7b4     Core:object.obj
 0003:000037d4       ??_C@_04PDBK@?$CJ?5?$DN?5?$AA@ 0056a7d4     Core:method.obj
 0003:000037dc       ??_C@_06KBKL@read?3?5?$AA@ 0056a7dc     Core:method.obj
 0003:000037e4       ??_C@_0DA@HNOK@?9?9?9?9?5WARNING?3?5inline?5definition?5@ 0056a7e4     Core:method.obj
 0003:00003814       ??_C@_0BL@KOFH@?$FL132?$FN?5Cannot?5change?5?$HOS?$CI?$HOS?$CJ?$AA@ 0056a814     Core:method.obj
 0003:00003830       ??_C@_0EF@MOME@are?5you?5still?5using?5this?5dead?5th@ 0056a830     Core:method.obj
 0003:00003878       ??_C@_0CI@BLHH@?$FL133?$FN?5Inversion?5of?5?$HOS?$CI?$HOS?0?$HOS?$CJ?5imp@ 0056a878     Core:method.obj
 0003:000038a0       ??_C@_0BE@MCFJ@insert?5?$HOS?5into?5?$HOS?5?6?$AA@ 0056a8a0     Core:method.obj
 0003:000038b4       ??_C@_0DL@CCGF@Cannot?5create?5a?5non?9uniform?5rest@ 0056a8b4     Core:method.obj
 0003:000038f0       ??_C@_0BK@INKN@?$HOS?5and?5?$HOS?5are?5conflicting?$AA@ 0056a8f0     Core:method.obj
 0003:0000390c       ??_C@_0BB@MDAB@hashinsert?$CI?$HOS?$CJ?5?6?$AA@ 0056a90c     Core:method.obj
 0003:00003920       ??_C@_0BA@IEJP@interface_class?$AA@ 0056a920     Language:Language.obj
 0003:00003930       ??_C@_0BD@EPOL@interface_property?$AA@ 0056a930     Language:Language.obj
 0003:00003944       ??_C@_09IHFO@interface?$AA@ 0056a944     Language:Language.obj
 0003:00003950       ??_C@_0O@OKDA@InterfaceList?$AA@ 0056a950     Language:Language.obj
 0003:00003960       ??_C@_0BF@DLKL@eventMethod_property?$AA@ 0056a960     Language:Language.obj
 0003:00003978       ??_C@_0BH@LLGL@eval_if_write_relation?$AA@ 0056a978     Language:Language.obj
 0003:00003990       ??_C@_0BC@JEHL@putCall_relation2?$AA@ 0056a990     Language:Language.obj
 0003:000039a4       ??_C@_0BC@HMCG@readCall_relation?$AA@ 0056a9a4     Language:Language.obj
 0003:000039b8       ??_C@_0BE@NKLE@make_demon_relation?$AA@ 0056a9b8     Language:Language.obj
 0003:000039cc       ??_C@_0BA@CHFP@make_filter_any?$AA@ 0056a9cc     Language:Language.obj
 0003:000039dc       ??_C@_0BB@GNMK@make_filter_any_?$AA@ 0056a9dc     Language:Language.obj
 0003:000039f0       ??_C@_0BH@JLPC@eventMethod?$DP_relation2?$AA@ 0056a9f0     Language:Language.obj
 0003:00003a08       ??_C@_0BC@IIOO@self_eval_Defrule?$AA@ 0056aa08     Language:Language.obj
 0003:00003a1c       ??_C@_09ECPC@eval_rule?$AA@ 0056aa1c     Language:Language.obj
 0003:00003a28       ??_C@_09KLKJ@last_rule?$AA@ 0056aa28     Language:Language.obj
 0003:00003a34       ??_C@_09GGFA@relations?$AA@ 0056aa34     Language:Language.obj
 0003:00003a40       ??_C@_0M@LLDI@rule_object?$AA@ 0056aa40     Language:Language.obj
 0003:00003a4c       ??_C@_02FGJG@?$DM?9?$AA@   0056aa4c     Language:Language.obj
 0003:00003a50       ??_C@_06DGJA@demons?$AA@   0056aa50     Language:Language.obj
 0003:00003a58       ??_C@_0P@ECGM@funcall_demon2?$AA@ 0056aa58     Language:Language.obj
 0003:00003a68       ??_C@_0P@LNNF@funcall_demon1?$AA@ 0056aa68     Language:Language.obj
 0003:00003a78       ??_C@_0BB@KLIN@self_print_demon?$AA@ 0056aa78     Language:Language.obj
 0003:00003a8c       ??_C@_06HBLM@unamed?$AA@   0056aa8c     Language:Language.obj
 0003:00003a94       ??_C@_05HJCM@demon?$AA@    0056aa94     Language:Language.obj
 0003:00003a9c       ??_C@_0BD@MJHB@self_eval_Defarray?$AA@ 0056aa9c     Language:Language.obj
 0003:00003ab0       ??_C@_09PIM@type?$CB_any?$AA@ 0056aab0     Language:Language.obj
 0003:00003abc       ??_C@_0BD@DCLJ@extract_status_any?$AA@ 0056aabc     Language:Language.obj
 0003:00003ad0       ??_C@_0BF@GJEI@bit_vector_listargs2?$AA@ 0056aad0     Language:Language.obj
 0003:00003ae8       ??_C@_0L@IHM@bit_vector?$AA@ 0056aae8     Language:Language.obj
 0003:00003af4       ??_C@_07PEKM@SAFE_GC?$AA@  0056aaf4     Language:Language.obj
 0003:00003afc       ??_C@_0M@MFPH@SAFE_RESULT?$AA@ 0056aafc     Language:Language.obj
 0003:00003b08       ??_C@_0L@PBPG@RETURN_ARG?$AA@ 0056ab08     Language:Language.obj
 0003:00003b14       ??_C@_0M@MBNA@SLOT_UPDATE?$AA@ 0056ab14     Language:Language.obj
 0003:00003b20       ??_C@_0L@GOLI@BAG_UPDATE?$AA@ 0056ab20     Language:Language.obj
 0003:00003b2c       ??_C@_09KHMP@NEW_ALLOC?$AA@ 0056ab2c     Language:Language.obj
 0003:00003b38       ??_C@_0BC@JHJI@extract_range_any?$AA@ 0056ab38     Language:Language.obj
 0003:00003b4c       ??_C@_0BJ@OHEE@extract_class_call_class?$AA@ 0056ab4c     Language:Language.obj
 0003:00003b68       ??_C@_0BJ@FEJL@extract_pattern_nth_list?$AA@ 0056ab68     Language:Language.obj
 0003:00003b84       ??_C@_0BB@HLPI@extract_item_any?$AA@ 0056ab84     Language:Language.obj
 0003:00003b98       ??_C@_0BB@KIJH@extract_type_any?$AA@ 0056ab98     Language:Language.obj
 0003:00003bac       ??_C@_0BE@IMP@extract_pattern_any?$AA@ 0056abac     Language:Language.obj
 0003:00003bc0       ??_C@_0BH@IIJL@extract_signature_list?$AA@ 0056abc0     Language:Language.obj
 0003:00003bd8       ??_C@_0BD@OEKN@attach_comment_any?$AA@ 0056abd8     Language:Language.obj
 0003:00003bec       ??_C@_0BE@CAIC@self_eval_Defmethod?$AA@ 0056abec     Language:Language.obj
 0003:00003c00       ??_C@_04JKLK@LDEF?$AA@     0056ac00     Language:Language.obj
 0003:00003c08       ??_C@_0BD@LIFN@self_eval_Defclass?$AA@ 0056ac08     Language:Language.obj
 0003:00003c1c       ??_C@_0BB@FKGG@self_eval_Defobj?$AA@ 0056ac1c     Language:Language.obj
 0003:00003c30       ??_C@_0BA@MEOA@complete_object?$AA@ 0056ac30     Language:Language.obj
 0003:00003c40       ??_C@_08IFCJ@complete?$AA@ 0056ac40     Language:Language.obj
 0003:00003c4c       ??_C@_0BF@OJH@self_eval_Definition?$AA@ 0056ac4c     Language:Language.obj
 0003:00003c64       ??_C@_0BL@CNBA@self_print_Defvar_Language?$AA@ 0056ac64     Language:Language.obj
 0003:00003c80       ??_C@_06FKKN@Defvar?$AA@   0056ac80     Language:Language.obj
 0003:00003c88       ??_C@_0BM@PLPC@self_print_Defrule_Language?$AA@ 0056ac88     Language:Language.obj
 0003:00003ca4       ??_C@_07LHML@Defrule?$AA@  0056aca4     Language:Language.obj
 0003:00003cac       ??_C@_0BN@EGFE@self_print_Defarray_Language?$AA@ 0056acac     Language:Language.obj
 0003:00003ccc       ??_C@_08KOEO@Defarray?$AA@ 0056accc     Language:Language.obj
 0003:00003cd8       ??_C@_0BO@FDGB@self_print_Defmethod_Language?$AA@ 0056acd8     Language:Language.obj
 0003:00003cf8       ??_C@_09GNOF@Defmethod?$AA@ 0056acf8     Language:Language.obj
 0003:00003d04       ??_C@_0BN@IMJ@self_print_Defclass_Language?$AA@ 0056ad04     Language:Language.obj
 0003:00003d24       ??_C@_08NPGC@Defclass?$AA@ 0056ad24     Language:Language.obj
 0003:00003d30       ??_C@_0BL@EMKA@self_print_Defobj_Language?$AA@ 0056ad30     Language:Language.obj
 0003:00003d4c       ??_C@_06HPFD@Defobj?$AA@   0056ad4c     Language:Language.obj
 0003:00003d54       ??_C@_0BP@CPDJ@self_print_Definition_Language?$AA@ 0056ad54     Language:Language.obj
 0003:00003d74       ??_C@_0L@CANK@Definition?$AA@ 0056ad74     Language:Language.obj
 0003:00003d80       ??_C@_09JCGM@Defclaire?$AA@ 0056ad80     Language:Language.obj
 0003:00003d8c       ??_C@_0M@JNOF@NeedComment?$AA@ 0056ad8c     Language:Language.obj
 0003:00003d98       ??_C@_0M@FMCI@LastComment?$AA@ 0056ad98     Language:Language.obj
 0003:00003da4       ??_C@_09OGOO@function?$CB?$AA@ 0056ada4     Language:Language.obj
 0003:00003db0       ??_C@_0N@JEFJ@extract_item?$AA@ 0056adb0     Language:Language.obj
 0003:00003dc0       ??_C@_0BB@KOCF@self_eval_Branch?$AA@ 0056adc0     Language:Language.obj
 0003:00003dd4       ??_C@_0BB@OCHM@self_eval_Assert?$AA@ 0056add4     Language:Language.obj
 0003:00003de8       ??_C@_06MHEJ@Assert?$AA@   0056ade8     Language:Language.obj
 0003:00003df0       ??_C@_0BA@HJLC@self_eval_Trace?$AA@ 0056adf0     Language:Language.obj
 0003:00003e00       ??_C@_05EMFM@Trace?$AA@    0056ae00     Language:Language.obj
 0003:00003e08       ??_C@_0BB@FFMB@self_eval_Printf?$AA@ 0056ae08     Language:Language.obj
 0003:00003e1c       ??_C@_0BA@BPPI@self_eval_Error?$AA@ 0056ae1c     Language:Language.obj
 0003:00003e2c       ??_C@_0BB@FIIH@self_eval_Macro2?$AA@ 0056ae2c     Language:Language.obj
 0003:00003e40       ??_C@_0M@OFFA@macroexpand?$AA@ 0056ae40     Language:Language.obj
 0003:00003e4c       ??_C@_05MGJ@Macro?$AA@     0056ae4c     Language:Language.obj
 0003:00003e54       ??_C@_0BB@PLEI@self_eval_Array2?$AA@ 0056ae54     Language:Language.obj
 0003:00003e68       ??_C@_0BA@CEHB@self_eval_Tuple?$AA@ 0056ae68     Language:Language.obj
 0003:00003e78       ??_C@_0O@NPEM@self_eval_Set?$AA@ 0056ae78     Language:Language.obj
 0003:00003e88       ??_C@_0P@NKGG@self_eval_List?$AA@ 0056ae88     Language:Language.obj
 0003:00003e98       ??_C@_0BO@OGMB@self_print_Construct_Language?$AA@ 0056ae98     Language:Language.obj
 0003:00003eb8       ??_C@_06ILBA@Branch?$AA@   0056aeb8     Language:Language.obj
 0003:00003ec0       ??_C@_05CKBG@Error?$AA@    0056aec0     Language:Language.obj
 0003:00003ec8       ??_C@_06HAPE@Printf?$AA@   0056aec8     Language:Language.obj
 0003:00003ed0       ??_C@_05MDCJ@Array?$AA@    0056aed0     Language:Language.obj
 0003:00003ed8       ??_C@_03JFAA@Set?$AA@      0056aed8     Language:Language.obj
 0003:00003edc       ??_C@_05BBJP@Tuple?$AA@    0056aedc     Language:Language.obj
 0003:00003ee4       ??_C@_04DECM@List?$AA@     0056aee4     Language:Language.obj
 0003:00003eec       ??_C@_09JNNL@Construct?$AA@ 0056aeec     Language:Language.obj
 0003:00003ef8       ??_C@_0BB@KOJK@self_eval_Handle?$AA@ 0056aef8     Language:Language.obj
 0003:00003f0c       ??_C@_0BL@HKGB@self_print_Handle_Language?$AA@ 0056af0c     Language:Language.obj
 0003:00003f28       ??_C@_06ILKP@Handle?$AA@   0056af28     Language:Language.obj
 0003:00003f30       ??_C@_0BA@OIHM@self_eval_While?$AA@ 0056af30     Language:Language.obj
 0003:00003f40       ??_C@_0BK@LBBN@self_print_While_Language?$AA@ 0056af40     Language:Language.obj
 0003:00003f5c       ??_C@_05NNJC@While?$AA@    0056af5c     Language:Language.obj
 0003:00003f64       ??_C@_0P@JJBK@self_eval_Case?$AA@ 0056af64     Language:Language.obj
 0003:00003f74       ??_C@_0BJ@FMJI@self_print_Case_Language?$AA@ 0056af74     Language:Language.obj
 0003:00003f90       ??_C@_04HHFA@Case?$AA@     0056af90     Language:Language.obj
 0003:00003f98       ??_C@_0BB@IPKL@self_eval_Exists?$AA@ 0056af98     Language:Language.obj
 0003:00003fac       ??_C@_0BL@EJJJ@self_print_Exists_Language?$AA@ 0056afac     Language:Language.obj
 0003:00003fc8       ??_C@_06KKJO@Exists?$AA@   0056afc8     Language:Language.obj
 0003:00003fd0       ??_C@_0BC@GNDP@self_eval_Lselect?$AA@ 0056afd0     Language:Language.obj
 0003:00003fe4       ??_C@_0BM@KGJC@self_print_Lselect_Language?$AA@ 0056afe4     Language:Language.obj
 0003:00004000       ??_C@_07FCBK@Lselect?$AA@  0056b000     Language:Language.obj
 0003:00004008       ??_C@_0BB@KILI@self_eval_Select?$AA@ 0056b008     Language:Language.obj
 0003:0000401c       ??_C@_0BL@POMF@self_print_Select_Language?$AA@ 0056b01c     Language:Language.obj
 0003:00004038       ??_C@_06ININ@Select?$AA@   0056b038     Language:Language.obj
 0003:00004040       ??_C@_0BA@IFNI@self_eval_Image?$AA@ 0056b040     Language:Language.obj
 0003:00004050       ??_C@_0BK@GHAH@self_print_Image_Language?$AA@ 0056b050     Language:Language.obj
 0003:0000406c       ??_C@_05LADG@Image?$AA@    0056b06c     Language:Language.obj
 0003:00004074       ??_C@_0BC@NAPG@self_eval_Collect?$AA@ 0056b074     Language:Language.obj
 0003:00004088       ??_C@_0BM@NKJG@self_print_Collect_Language?$AA@ 0056b088     Language:Language.obj
 0003:000040a4       ??_C@_07OPND@Collect?$AA@  0056b0a4     Language:Language.obj
 0003:000040ac       ??_C@_0O@IDBJ@self_eval_For?$AA@ 0056b0ac     Language:Language.obj
 0003:000040bc       ??_C@_0BI@COHG@self_print_For_Language?$AA@ 0056b0bc     Language:Language.obj
 0003:000040d4       ??_C@_03MJFF@For?$AA@      0056b0d4     Language:Language.obj
 0003:000040d8       ??_C@_07MOKF@Iterate?$AA@  0056b0d8     Language:Language.obj
 0003:000040e0       ??_C@_07BMBB@iterate?$AA@  0056b0e0     Language:Language.obj
 0003:000040e8       ??_C@_09MBMD@Iteration?$AA@ 0056b0e8     Language:Language.obj
 0003:000040f4       ??_C@_0BJ@GCDM@self_print_Let?$CK_Language?$AA@ 0056b0f4     Language:Language.obj
 0003:00004110       ??_C@_0BJ@ONPO@self_print_Let?$CL_Language?$AA@ 0056b110     Language:Language.obj
 0003:0000412c       ??_C@_04CKOM@Let?$CK?$AA@  0056b12c     Language:Language.obj
 0003:00004134       ??_C@_04IAHL@Let?$CL?$AA@  0056b134     Language:Language.obj
 0003:0000413c       ??_C@_0P@CNIH@self_eval_When?$AA@ 0056b13c     Language:Language.obj
 0003:0000414c       ??_C@_0BJ@DEMH@self_print_When_Language?$AA@ 0056b14c     Language:Language.obj
 0003:00004168       ??_C@_04MDMN@When?$AA@     0056b168     Language:Language.obj
 0003:00004170       ??_C@_0O@NAPC@self_eval_Let?$AA@ 0056b170     Language:Language.obj
 0003:00004180       ??_C@_0O@HFCJ@printbody_Let?$AA@ 0056b180     Language:Language.obj
 0003:00004190       ??_C@_0BI@DLBL@self_print_Let_Language?$AA@ 0056b190     Language:Language.obj
 0003:000041a8       ??_C@_03JKLO@Let?$AA@      0056b1a8     Language:Language.obj
 0003:000041ac       ??_C@_0N@EKCA@self_eval_Do?$AA@ 0056b1ac     Language:Language.obj
 0003:000041bc       ??_C@_0P@CDGG@printblock_any?$AA@ 0056b1bc     Language:Language.obj
 0003:000041cc       ??_C@_0N@CHDI@printdo_list?$AA@ 0056b1cc     Language:Language.obj
 0003:000041dc       ??_C@_0BH@DN@self_print_Do_Language?$AA@ 0056b1dc     Language:Language.obj
 0003:000041f4       ??_C@_02GHC@Do?$AA@        0056b1f4     Language:Language.obj
 0003:000041f8       ??_C@_0N@ENFL@self_eval_If?$AA@ 0056b1f8     Language:Language.obj
 0003:00004208       ??_C@_0N@GJPG@printelse_If?$AA@ 0056b208     Language:Language.obj
 0003:00004218       ??_C@_0M@BBPB@printif_any?$AA@ 0056b218     Language:Language.obj
 0003:00004224       ??_C@_0N@KCLO@printstat_If?$AA@ 0056b224     Language:Language.obj
 0003:00004234       ??_C@_0BH@OFCD@self_print_If_Language?$AA@ 0056b234     Language:Language.obj
 0003:0000424c       ??_C@_02BAJ@If?$AA@        0056b24c     Language:Language.obj
 0003:00004250       ??_C@_0BF@CHAN@instruction_copy_any?$AA@ 0056b250     Language:Language.obj
 0003:00004268       ??_C@_0P@JHFI@occurrence_any?$AA@ 0056b268     Language:Language.obj
 0003:00004278       ??_C@_0BB@HFKM@substitution_any?$AA@ 0056b278     Language:Language.obj
 0003:0000428c       ??_C@_0BB@LHCG@self_eval_Return?$AA@ 0056b28c     Language:Language.obj
 0003:000042a0       ??_C@_0BL@KALN@self_print_Return_Language?$AA@ 0056b2a0     Language:Language.obj
 0003:000042bc       ??_C@_06JCBD@Return?$AA@   0056b2bc     Language:Language.obj
 0003:000042c4       ??_C@_0P@JKPN@self_eval_Cast?$AA@ 0056b2c4     Language:Language.obj
 0003:000042d4       ??_C@_0BJ@CPHO@self_print_Cast_Language?$AA@ 0056b2d4     Language:Language.obj
 0003:000042f0       ??_C@_04HELH@Cast?$AA@     0056b2f0     Language:Language.obj
 0003:000042f8       ??_C@_0BA@BLOA@self_eval_Super?$AA@ 0056b2f8     Language:Language.obj
 0003:00004308       ??_C@_0BK@IILP@self_print_Super_Language?$AA@ 0056b308     Language:Language.obj
 0003:00004324       ??_C@_05COAO@Super?$AA@    0056b324     Language:Language.obj
 0003:0000432c       ??_C@_0BB@JNEM@self_eval_Update?$AA@ 0056b32c     Language:Language.obj
 0003:00004340       ??_C@_0BL@CHHG@self_print_Update_Language?$AA@ 0056b340     Language:Language.obj
 0003:0000435c       ??_C@_06LIHJ@Update?$AA@   0056b35c     Language:Language.obj
 0003:00004364       ??_C@_0BF@KGDA@self_eval_Call_table?$AA@ 0056b364     Language:Language.obj
 0003:0000437c       ??_C@_0BP@PNII@self_print_Call_table_Language?$AA@ 0056b37c     Language:Language.obj
 0003:0000439c       ??_C@_0L@IIHN@Call_table?$AA@ 0056b39c     Language:Language.obj
 0003:000043a8       ??_C@_0BF@DBKI@self_eval_Call_array?$AA@ 0056b3a8     Language:Language.obj
 0003:000043c0       ??_C@_0BP@ELLL@self_print_Call_array_Language?$AA@ 0056b3c0     Language:Language.obj
 0003:000043e0       ??_C@_0L@BPOF@Call_array?$AA@ 0056b3e0     Language:Language.obj
 0003:000043ec       ??_C@_0BE@KPON@self_eval_Call_slot?$AA@ 0056b3ec     Language:Language.obj
 0003:00004400       ??_C@_0BO@NFIH@self_print_Call_slot_Language?$AA@ 0056b400     Language:Language.obj
 0003:00004420       ??_C@_09OCIK@Call_slot?$AA@ 0056b420     Language:Language.obj
 0003:0000442c       ??_C@_0BH@PJDH@self_eval_Call_method2?$AA@ 0056b42c     Language:Language.obj
 0003:00004444       ??_C@_0N@NMPL@Call_method2?$AA@ 0056b444     Language:Language.obj
 0003:00004454       ??_C@_0BH@GIO@self_eval_Call_method1?$AA@ 0056b454     Language:Language.obj
 0003:0000446c       ??_C@_0N@CDEC@Call_method1?$AA@ 0056b46c     Language:Language.obj
 0003:0000447c       ??_C@_0BG@IJHK@self_eval_Call_method?$AA@ 0056b47c     Language:Language.obj
 0003:00004494       ??_C@_0CA@POGM@self_print_Call_method_Language?$AA@ 0056b494     Language:Language.obj
 0003:000044b4       ??_C@_0M@EFFE@Call_method?$AA@ 0056b4b4     Language:Language.obj
 0003:000044c0       ??_C@_0BG@LNGF@Optimized_instruction?$AA@ 0056b4c0     Language:Language.obj
 0003:000044d8       ??_C@_0BA@NEIC@self_eval_Quote?$AA@ 0056b4d8     Language:Language.obj
 0003:000044e8       ??_C@_0BK@GJGM@self_print_Quote_Language?$AA@ 0056b4e8     Language:Language.obj
 0003:00004504       ??_C@_05OBGM@Quote?$AA@    0056b504     Language:Language.obj
 0003:0000450c       ??_C@_0N@DJII@self_eval_Or?$AA@ 0056b50c     Language:Language.obj
 0003:0000451c       ??_C@_0BH@FJCO@self_print_Or_Language?$AA@ 0056b51c     Language:Language.obj
 0003:00004534       ??_C@_02HFNK@Or?$AA@       0056b534     Language:Language.obj
 0003:00004538       ??_C@_0O@HNNA@self_eval_And?$AA@ 0056b538     Language:Language.obj
 0003:00004548       ??_C@_0BI@BJMF@self_print_And_Language?$AA@ 0056b548     Language:Language.obj
 0003:00004560       ??_C@_03DHJM@And?$AA@      0056b560     Language:Language.obj
 0003:00004564       ??_C@_0BC@HGEI@self_eval_Gassign?$AA@ 0056b564     Language:Language.obj
 0003:00004578       ??_C@_0BM@GFLH@self_print_Gassign_Language?$AA@ 0056b578     Language:Language.obj
 0003:00004594       ??_C@_07EJGN@Gassign?$AA@  0056b594     Language:Language.obj
 0003:0000459c       ??_C@_0BB@LENM@self_eval_Assign?$AA@ 0056b59c     Language:Language.obj
 0003:000045b0       ??_C@_0BL@FBLC@self_print_Assign_Language?$AA@ 0056b5b0     Language:Language.obj
 0003:000045cc       ??_C@_06JBOJ@Assign?$AA@   0056b5cc     Language:Language.obj
 0003:000045d4       ??_C@_0L@GMAK@sugar?$DP_any?$AA@ 0056b5d4     Language:Language.obj
 0003:000045e0       ??_C@_0L@MIMD@printe_any?$AA@ 0056b5e0     Language:Language.obj
 0003:000045ec       ??_C@_0BA@HBDI@self_eval_Call?$CL?$AA@ 0056b5ec     Language:Language.obj
 0003:000045fc       ??_C@_0P@NJJN@self_eval_Call?$AA@ 0056b5fc     Language:Language.obj
 0003:0000460c       ??_C@_0BK@JLAB@self_print_Call?$CL_Language?$AA@ 0056b60c     Language:Language.obj
 0003:00004628       ??_C@_0BJ@MEGF@self_print_Call_Language?$AA@ 0056b628     Language:Language.obj
 0003:00004644       ??_C@_05EENG@Call?$CL?$AA@ 0056b644     Language:Language.obj
 0003:0000464c       ??_C@_05OOEB@Call?$CK?$AA@ 0056b64c     Language:Language.obj
 0003:00004654       ??_C@_04DHNH@Call?$AA@     0056b654     Language:Language.obj
 0003:0000465c       ??_C@_08LDCE@LastCall?$AA@ 0056b65c     Language:Language.obj
 0003:00004668       ??_C@_0BK@OLO@self_print_tuple_Language?$AA@ 0056b668     Language:Language.obj
 0003:00004684       ??_C@_0BI@DGCD@self_print_set_Language?$AA@ 0056b684     Language:Language.obj
 0003:0000469c       ??_C@_0BJ@FAPJ@self_print_list_Language?$AA@ 0056b69c     Language:Language.obj
 0003:000046b8       ??_C@_0BB@JOMG@pretty_print_any?$AA@ 0056b6b8     Language:Language.obj
 0003:000046cc       ??_C@_0N@BJBL@printexp_any?$AA@ 0056b6cc     Language:Language.obj
 0003:000046dc       ??_C@_0L@EJEM@printl_bag?$AA@ 0056b6dc     Language:Language.obj
 0003:000046e8       ??_C@_0O@GAGK@printbox_bag3?$AA@ 0056b6e8     Language:Language.obj
 0003:000046f8       ??_C@_0O@MKPN@printbox_bag2?$AA@ 0056b6f8     Language:Language.obj
 0003:00004708       ??_C@_0O@DFEE@printbox_bag1?$AA@ 0056b708     Language:Language.obj
 0003:00004718       ??_C@_0BC@PLED@set_level_integer?$AA@ 0056b718     Language:Language.obj
 0003:0000472c       ??_C@_0P@CKOK@set_level_void?$AA@ 0056b72c     Language:Language.obj
 0003:0000473c       ??_C@_0P@FFMN@indent_integer?$AA@ 0056b73c     Language:Language.obj
 0003:0000474c       ??_C@_0P@KALA@lbreak_integer?$AA@ 0056b74c     Language:Language.obj
 0003:0000475c       ??_C@_0O@LEPG@checkfar_void?$AA@ 0056b75c     Language:Language.obj
 0003:0000476c       ??_C@_0BA@LAFD@put_buffer_void?$AA@ 0056b76c     Language:Language.obj
 0003:0000477c       ??_C@_0M@OGEJ@lbreak_void?$AA@ 0056b77c     Language:Language.obj
 0003:00004788       ??_C@_06MFGG@printl?$AA@   0056b788     Language:Language.obj
 0003:00004790       ??_C@_0BE@JOMH@make_a_property_any?$AA@ 0056b790     Language:Language.obj
 0003:000047a4       ??_C@_0BD@DLLP@extract_symbol_any?$AA@ 0056b7a4     Language:Language.obj
 0003:000047b8       ??_C@_0M@HENI@close_class?$AA@ 0056b7b8     Language:Language.obj
 0003:000047c4       ??_C@_0BD@FNPG@lexical_change_any?$AA@ 0056b7c4     Language:Language.obj
 0003:000047d8       ??_C@_0BC@PHNM@lexical_build_any?$AA@ 0056b7d8     Language:Language.obj
 0003:000047ec       ??_C@_0N@DMII@lambda?$CB_list?$AA@ 0056b7ec     Language:Language.obj
 0003:000047fc       ??_C@_0BB@KAPD@?$CKvariable_index?$CK?$AA@ 0056b7fc     Language:Language.obj
 0003:00004810       ??_C@_0BL@NAFE@self_print_lambda_Language?$AA@ 0056b810     Language:Language.obj
 0003:0000482c       ??_C@_0N@PAFP@call_lambda2?$AA@ 0056b82c     Language:Language.obj
 0003:0000483c       ??_C@_0N@EFGN@apply_lambda?$AA@ 0056b83c     Language:Language.obj
 0003:0000484c       ??_C@_03BCEL@EOS?$AA@      0056b84c     Language:Language.obj
 0003:00004850       ??_C@_03LLPA@EOF?$AA@      0056b850     Language:Language.obj
 0003:00004854       ??_C@_0BM@JHDI@write_value_global_variable?$AA@ 0056b854     Language:Language.obj
 0003:00004870       ??_C@_0BK@KLOO@self_eval_global_variable?$AA@ 0056b870     Language:Language.obj
 0003:0000488c       ??_C@_0BC@ICGJ@Control_structure?$AA@ 0056b88c     Language:Language.obj
 0003:000048a0       ??_C@_0BF@JBK@Instruction_with_var?$AA@ 0056b8a0     Language:Language.obj
 0003:000048b8       ??_C@_0BE@IKGH@Complex_instruction?$AA@ 0056b8b8     Language:Language.obj
 0003:000048cc       ??_C@_0BB@JCOH@self_eval_Vardef?$AA@ 0056b8cc     Language:Language.obj
 0003:000048e0       ??_C@_06LHNC@Vardef?$AA@   0056b8e0     Language:Language.obj
 0003:000048e8       ??_C@_0BF@GIJL@write_value_Variable?$AA@ 0056b8e8     Language:Language.obj
 0003:00004900       ??_C@_0BD@NJEG@self_eval_Variable?$AA@ 0056b900     Language:Language.obj
 0003:00004914       ??_C@_0BA@EDCP@ppvariable_list?$AA@ 0056b914     Language:Language.obj
 0003:00004924       ??_C@_0BE@JAJG@ppvariable_Variable?$AA@ 0056b924     Language:Language.obj
 0003:00004938       ??_C@_0BN@NLDP@self_print_Variable_Language?$AA@ 0056b938     Language:Language.obj
 0003:00004958       ??_C@_08LOHJ@Variable?$AA@ 0056b958     Language:Language.obj
 0003:00004964       ??_C@_0BJ@JILJ@self_eval_unbound_symbol?$AA@ 0056b964     Language:Language.obj
 0003:00004980       ??_C@_0CD@EKGD@self_print_unbound_symbol_Langua@ 0056b980     Language:Language.obj
 0003:000049a4       ??_C@_05BBHA@index?$AA@    0056b9a4     Language:Language.obj
 0003:000049ac       ??_C@_06MPII@typing?$AA@   0056b9ac     Language:Language.obj
 0003:000049b4       ??_C@_0BE@BDCC@no_eval_Instruction?$AA@ 0056b9b4     Language:Language.obj
 0003:000049c8       ??_C@_0BC@EDFB@Basic_instruction?$AA@ 0056b9c8     Language:Language.obj
 0003:000049dc       ??_C@_0M@PJEI@Instruction?$AA@ 0056b9dc     Language:Language.obj
 0003:000049e8       ??_C@_07GDEA@putCall?$AA@  0056b9e8     Language:Language.obj
 0003:000049f0       ??_C@_0N@FPNE@eventMethod?$DP?$AA@ 0056b9f0     Language:Language.obj
 0003:00004a00       ??_C@_0M@BJBA@eventMethod?$AA@ 0056ba00     Language:Language.obj
 0003:00004a0c       ??_C@_08MMN@readCall?$AA@  0056ba0c     Language:Language.obj
 0003:00004a18       ??_C@_0O@HOHJ@eval_if_write?$AA@ 0056ba18     Language:Language.obj
 0003:00004a28       ??_C@_0L@KFGN@make_demon?$AA@ 0056ba28     Language:Language.obj
 0003:00004a34       ??_C@_0M@KDDJ@make_filter?$AA@ 0056ba34     Language:Language.obj
 0003:00004a40       ??_C@_08MMKE@priority?$AA@ 0056ba40     Language:Language.obj
 0003:00004a4c       ??_C@_08PACK@forward?$DP?$AA@ 0056ba4c     Language:Language.obj
 0003:00004a58       ??_C@_05GIP@type?$CB?$AA@  0056ba58     Language:Language.obj
 0003:00004a60       ??_C@_0P@IICP@extract_status?$AA@ 0056ba60     Language:Language.obj
 0003:00004a70       ??_C@_0O@FFNL@extract_range?$AA@ 0056ba70     Language:Language.obj
 0003:00004a80       ??_C@_0BD@NDG@extract_class_call?$AA@ 0056ba80     Language:Language.obj
 0003:00004a94       ??_C@_0BE@NHFE@extract_pattern_nth?$AA@ 0056ba94     Language:Language.obj
 0003:00004aa8       ??_C@_0N@KDBK@extract_type?$AA@ 0056baa8     Language:Language.obj
 0003:00004ab8       ??_C@_0BA@FDNL@extract_pattern?$AA@ 0056bab8     Language:Language.obj
 0003:00004ac8       ??_C@_0BC@KCHP@extract_signature?$AA@ 0056bac8     Language:Language.obj
 0003:00004adc       ??_C@_0P@NJJ@attach_comment?$AA@ 0056badc     Language:Language.obj
 0003:00004aec       ??_C@_05FDBN@ident?$AA@    0056baec     Language:Language.obj
 0003:00004af4       ??_C@_09JFLD@printbody?$AA@ 0056baf4     Language:Language.obj
 0003:00004b00       ??_C@_0L@EBGE@printblock?$AA@ 0056bb00     Language:Language.obj
 0003:00004b0c       ??_C@_07OJOM@printdo?$AA@  0056bb0c     Language:Language.obj
 0003:00004b14       ??_C@_09MFFO@printelse?$AA@ 0056bb14     Language:Language.obj
 0003:00004b20       ??_C@_07OOJH@printif?$AA@  0056bb20     Language:Language.obj
 0003:00004b28       ??_C@_09LKFH@printstat?$AA@ 0056bb28     Language:Language.obj
 0003:00004b34       ??_C@_04DJDA@test?$AA@     0056bb34     Language:Language.obj
 0003:00004b3c       ??_C@_05DNMD@other?$AA@    0056bb3c     Language:Language.obj
 0003:00004b44       ??_C@_0BB@PCD@instruction_copy?$AA@ 0056bb44     Language:Language.obj
 0003:00004b58       ??_C@_0L@DMDM@occurrence?$AA@ 0056bb58     Language:Language.obj
 0003:00004b64       ??_C@_0N@KJBA@substitution?$AA@ 0056bb64     Language:Language.obj
 0003:00004b74       ??_C@_07KDAG@set_arg?$AA@  0056bb74     Language:Language.obj
 0003:00004b7c       ??_C@_07KPDI@cast_to?$AA@  0056bb7c     Language:Language.obj
 0003:00004b84       ??_C@_06EECC@sugar?$DP?$AA@ 0056bb84     Language:Language.obj
 0003:00004b8c       ??_C@_06DLEJ@printe?$AA@   0056bb8c     Language:Language.obj
 0003:00004b94       ??_C@_06CFON@assign?$AA@   0056bb94     Language:Language.obj
 0003:00004b9c       ??_C@_0N@GFJI@pretty_print?$AA@ 0056bb9c     Language:Language.obj
 0003:00004bac       ??_C@_08HKFD@printexp?$AA@ 0056bbac     Language:Language.obj
 0003:00004bb8       ??_C@_08JLHG@printbox?$AA@ 0056bbb8     Language:Language.obj
 0003:00004bc4       ??_C@_09HOMA@set_level?$AA@ 0056bbc4     Language:Language.obj
 0003:00004bd0       ??_C@_06NHEL@indent?$AA@   0056bbd0     Language:Language.obj
 0003:00004bd8       ??_C@_08NFED@checkfar?$AA@ 0056bbd8     Language:Language.obj
 0003:00004be4       ??_C@_0L@HHLE@put_buffer?$AA@ 0056bbe4     Language:Language.obj
 0003:00004bf0       ??_C@_06GDDF@lbreak?$AA@   0056bbf0     Language:Language.obj
 0003:00004bf8       ??_C@_0BA@BANI@make_a_property?$AA@ 0056bbf8     Language:Language.obj
 0003:00004c08       ??_C@_0P@IBPF@extract_symbol?$AA@ 0056bc08     Language:Language.obj
 0003:00004c18       ??_C@_0P@DNBP@lexical_change?$AA@ 0056bc18     Language:Language.obj
 0003:00004c28       ??_C@_0O@NJAP@lexical_build?$AA@ 0056bc28     Language:Language.obj
 0003:00004c38       ??_C@_07HGIC@lambda?$CB?$AA@ 0056bc38     Language:Language.obj
 0003:00004c40       ??_C@_03GIEB@var?$AA@      0056bc40     Language:Language.obj
 0003:00004c44       ??_C@_0M@LCLC@write_value?$AA@ 0056bc44     Language:Language.obj
 0003:00004c50       ??_C@_0L@LANI@ppvariable?$AA@ 0056bc50     Language:Language.obj
 0003:00004c5c       ??_C@_07DDJH@no_eval?$AA@  0056bc5c     Language:Language.obj
 0003:00004c64       ??_C@_04IIHP@?5?3?3?5?$AA@ 0056bc64     Language:define.obj
 0003:00004c6c       ??_C@_04OJCK@?5?3?$DN?5?$AA@ 0056bc6c     Language:define.obj
 0003:00004c74       ??_C@_01PKAG@?3?$AA@       0056bc74     Language:define.obj
 0003:00004c78       ??_C@_03FGJK@?5?$DN?5?$AA@ 0056bc78     Language:define.obj
 0003:00004c7c       ??_C@_04GEAI@?5?$DM?3?5?$AA@ 0056bc7c     Language:define.obj
 0003:00004c84       ??_C@_02HMFM@?9?$DO?$AA@   0056bc84     Language:define.obj
 0003:00004c88       ??_C@_02BGPF@?$DN?$DO?$AA@ 0056bc88     Language:define.obj
 0003:00004c8c       ??_C@_04JCEP@?$CJ?5?3?5?$AA@ 0056bc8c     Language:define.obj
 0003:00004c94       ??_C@_04KMOB@?$FN?5?3?5?$AA@ 0056bc94     Language:define.obj
 0003:00004c9c       ??_C@_03MGPG@?$DN?$DO?5?$AA@ 0056bc9c     Language:define.obj
 0003:00004ca0       ??_C@_0L@MOMA@?$CJ?5?3?3?5rule?$CI?$AA@ 0056bca0     Language:define.obj
 0003:00004cac       ??_C@_0CL@EDNH@?$FL106?$FN?5the?5object?5?$HOS?5does?5not?5und@ 0056bcac     Language:define.obj
 0003:00004cd8       ??_C@_0CK@GCOI@?$FL109?$FN?5the?5parent?5class?5?$HOS?5of?5?$HOS?5@ 0056bcd8     Language:define.obj
 0003:00004d04       ??_C@_0DF@DIEM@?$FL181?$FN?5cannot?5overide?5a?5slot?5for?5@ 0056bd04     Language:define.obj
 0003:00004d3c       ??_C@_0CN@CDLK@?$FL108?$FN?5default?$CI?$HOS?$CJ?5?$DN?5?$HOS?5does?5not?5@ 0056bd3c     Language:define.obj
 0003:00004d6c       ??_C@_0CL@NEAE@?$FL107?$FN?5class?5re?9definition?5is?5not@ 0056bd6c     Language:define.obj
 0003:00004d98       ??_C@_0CM@EKON@?$FL184?$FN?5the?5close?5method?5?$HOS?5has?5a?5@ 0056bd98     Language:define.obj
 0003:00004dc4       ??_C@_0FA@OOPF@?9?9?9?5WARNING?5?$CB?5?$FL186?$FN?5conflict?5bet@ 0056bdc4     Language:define.obj
 0003:00004e14       ??_C@_0P@IHCM@XfakeParameter?$AA@ 0056be14     Language:define.obj
 0003:00004e24       ??_C@_0CE@MDBG@?$FL110?$FN?5wrong?5signature?5definition@ 0056be24     Language:define.obj
 0003:00004e48       ??_C@_0BO@HOLB@?$FL111?$FN?5wrong?5typed?5argument?5?$HOS?$AA@ 0056be48     Language:define.obj
 0003:00004e68       ??_C@_0CD@JOBF@?$FL111?$FN?5wrong?5typed?5argument?5?$HOS?5?$CI?$HO@ 0056be68     Language:define.obj
 0003:00004e8c       ??_C@_0BP@MELK@?$FL112?$FN?5wrong?5type?5expression?5?$HOS?$AA@ 0056be8c     Language:define.obj
 0003:00004eac       ??_C@_0BP@OALK@?$FL114?$FN?5Wrong?5parametrization?5?$HOS?$AA@ 0056beac     Language:define.obj
 0003:00004ecc       ??_C@_0CJ@NKPN@?$FL113?$FN?5Wrong?5lambda?5definition?5la@ 0056becc     Language:define.obj
 0003:00004ef8       ??_C@_0CN@KNPN@?$FL115?$FN?5the?5?$CIresulting?$CJ?5range?5?$HOS?5i@ 0056bef8     Language:define.obj
 0003:00004f28       ??_C@_06FMKK@?0?5l?5?$DN?5?$AA@ 0056bf28     Language:define.obj
 0003:00004f30       ??_C@_09OGKN@lambda?5?$DN?5?$AA@ 0056bf30     Language:define.obj
 0003:00004f3c       ??_C@_0BJ@GHEL@?5is?5not?5a?5valid?5because?6?$AA@ 0056bf3c     Language:define.obj
 0003:00004f58       ??_C@_0BF@HDBF@The?5type?5expression?5?$AA@ 0056bf58     Language:define.obj
 0003:00004f70       ??_C@_0CC@PKIP@?$FL116?$FN?5?$HOS?5not?5allowed?5in?5function@ 0056bf70     Language:define.obj
 0003:00004f94       ??_C@_0CP@FFMJ@cannot?5define?5a?5new?5rule?5on?5?$HOS?5w@ 0056bf94     Language:define.obj
 0003:00004fc4       ??_C@_0BN@HJKO@?$FL188?$FN?5wrong?5event?5filter?3?5?$HOS?$AA@ 0056bfc4     Language:define.obj
 0003:00004fe4       ??_C@_0DG@PPEA@?$FL188?$FN?5wrong?5event?5filter?5?$HOS?5for?5@ 0056bfe4     Language:define.obj
 0003:0000501c       ??_C@_0BI@OONO@make_filter?5?3?5?$HOS?5?$CI?$HOS?$CJ?5?6?$AA@ 0056c01c     Language:define.obj
 0003:00005034       ??_C@_0BH@PHHM@?9?9?9?5trigger?5?$HOA?$CI?$HOS?0?$HOS?$CJ?6?$AA@ 0056c034     Language:define.obj
 0003:0000504c       ??_C@_06EELK@_write?$AA@   0056c04c     Language:define.obj
 0003:00005054       ??_C@_0DP@JHA@?$FL185?$FN?5cannot?5define?5an?5non?9unifo@ 0056c054     Language:define.obj
 0003:00005094       ??_C@_0DJ@DCND@?$FL185?$FN?5cannot?5define?5an?5empty?5pro@ 0056c094     Language:define.obj
 0003:000050d0       ??_C@_03FPDE@if?5?$AA@     0056c0d0     Language:control.obj
 0003:000050d4       ??_C@_05BNGI@else?5?$AA@   0056c0d4     Language:control.obj
 0003:000050dc       ??_C@_08DPBD@else?5if?5?$AA@ 0056c0dc     Language:control.obj
 0003:000050e8       ??_C@_04IBDI@let?5?$AA@    0056c0e8     Language:control.obj
 0003:000050f0       ??_C@_04EACC@?5in?5?$AA@   0056c0f0     Language:control.obj
 0003:000050f8       ??_C@_05HDOM@?5?4?4?4?6?$AA@ 0056c0f8     Language:control.obj
 0003:00005100       ??_C@_0M@GCBC@start?3?5let?5?$AA@ 0056c100     Language:control.obj
 0003:0000510c       ??_C@_05IJIJ@when?5?$AA@   0056c10c     Language:control.obj
 0003:00005114       ??_C@_0N@CAGK@start?3?5when?5?$AA@ 0056c114     Language:control.obj
 0003:00005124       ??_C@_05EMIP@?$CJ?5?3?$DN?5?$AA@ 0056c124     Language:control.obj
 0003:0000512c       ??_C@_05LPNJ@let?5?$CI?$AA@ 0056c12c     Language:control.obj
 0003:00005134       ??_C@_04KCGL@for?5?$AA@    0056c134     Language:control.obj
 0003:0000513c       ??_C@_0BP@FENP@?$FL136?$FN?5?$HOS?5is?5not?5a?5collection?5?$CB?$AA@ 0056c13c     Language:control.obj
 0003:0000515c       ??_C@_0M@EBEB@start?3?5for?5?$AA@ 0056c15c     Language:control.obj
 0003:00005168       ??_C@_01KCD@?$HN?$AA@      0056c168     Language:control.obj
 0003:0000516c       ??_C@_03OKJF@?5?$HM?5?$AA@ 0056c16c     Language:control.obj
 0003:00005170       ??_C@_06CIDH@list?$HL?5?$AA@ 0056c170     Language:control.obj
 0003:00005178       ??_C@_02MJBF@?$HL?5?$AA@   0056c178     Language:control.obj
 0003:0000517c       ??_C@_04FMPD@some?$AA@     0056c17c     Language:control.obj
 0003:00005184       ??_C@_06BOJK@exists?$AA@   0056c184     Language:control.obj
 0003:0000518c       ??_C@_06CAAF@forall?$AA@   0056c18c     Language:control.obj
 0003:00005194       ??_C@_05EHDN@case?5?$AA@   0056c194     Language:control.obj
 0003:0000519c       ??_C@_05NJDI@while?$AA@    0056c19c     Language:control.obj
 0003:000051a4       ??_C@_05FPCC@until?$AA@    0056c1a4     Language:control.obj
 0003:000051ac       ??_C@_06FIJP@catch?5?$AA@  0056c1ac     Language:control.obj
 0003:000051b4       ??_C@_04JING@try?5?$AA@    0056c1b4     Language:control.obj
 0003:000051bc       ??_C@_06DPBE@branch?$AA@   0056c1bc     Language:control.obj
 0003:000051c4       ??_C@_06HDEN@assert?$AA@   0056c1c4     Language:control.obj
 0003:000051cc       ??_C@_05EIPG@trace?$AA@    0056c1cc     Language:control.obj
 0003:000051d4       ??_C@_05COLM@error?$AA@    0056c1d4     Language:control.obj
 0003:000051dc       ??_C@_06MEPA@printf?$AA@   0056c1dc     Language:control.obj
 0003:000051e4       ??_C@_05BFDF@tuple?$AA@    0056c1e4     Language:control.obj
 0003:000051ec       ??_C@_03NHNF@set?$AA@      0056c1ec     Language:control.obj
 0003:000051f0       ??_C@_04JOGO@list?$AA@     0056c1f0     Language:control.obj
 0003:000051f8       ??_C@_0BB@ELOI@Syntax?5error?3?5?$HOS?$AA@ 0056c1f8     Language:control.obj
 0003:0000520c       ??_C@_0CB@LAKM@?$FL103?$FN?5not?5enough?5arguments?5in?5?$HOS@ 0056c20c     Language:control.obj
 0003:00005230       ??_C@_0DA@MHNG@?$FL102?$FN?5the?5first?5argument?5in?5?$HOS?5m@ 0056c230     Language:control.obj
 0003:00005260       ??_C@_0BE@LIJL@Assertion?5Violation?$AA@ 0056c260     Language:control.obj
 0003:00005274       ??_C@_0M@IBLG@?3?5?$CIASSERT?$CJ?5?$AA@ 0056c274     Language:control.obj
 0003:00005280       ??_C@_06BFGI@?0line?$DN?$AA@ 0056c280     Language:control.obj
 0003:00005288       ??_C@_0CP@LCKF@?$FL104?$FN?5Syntax?5error?5with?5?$HOS?5?$CIone?5@ 0056c288     Language:control.obj
 0003:000052b8       ??_C@_02MMMJ@?$CI?$CJ?$AA@ 0056c2b8     Language:call.obj
 0003:000052bc       ??_C@_0L@MJON@?$CJ?5?3delete?5?$AA@ 0056c2bc     Language:call.obj
 0003:000052c8       ??_C@_07FIBK@?$CJ?5?3add?5?$AA@ 0056c2c8     Language:call.obj
 0003:000052d0       ??_C@_03KPCC@?$CJ?5?3?$AA@ 0056c2d0     Language:call.obj
 0003:000052d4       ??_C@_03BGN@?$FN?5?3?$AA@  0056c2d4     Language:call.obj
 0003:000052d8       ??_C@_05MDLB@?$FN?5?3?$DN?5?$AA@ 0056c2d8     Language:call.obj
 0003:000052e0       ??_C@_02BGGE@?$FL?$FN?$AA@ 0056c2e0     Language:call.obj
 0003:000052e4       ??_C@_01PJCK@?4?$AA@       0056c2e4     Language:call.obj
 0003:000052e8       ??_C@_02CPFE@?5?3?$AA@     0056c2e8     Language:call.obj
 0003:000052ec       ??_C@_0BL@CLNP@?$FL101?$FN?5?$HOS?5is?5not?5a?5variable?$AA@ 0056c2ec     Language:call.obj
 0003:00005308       ??_C@_03LCJI@?5?$CG?5?$AA@ 0056c308     Language:call.obj
 0003:0000530c       ??_C@_06IJLN@quote?$CI?$AA@ 0056c30c     Language:call.obj
 0003:00005314       ??_C@_04EDGK@?5as?5?$AA@   0056c314     Language:call.obj
 0003:0000531c       ??_C@_06JEBM@break?$CI?$AA@ 0056c31c     Language:call.obj
 0003:00005324       ??_C@_0CC@JLMC@?$FL144?$FN?5evaluate?$CI?$HOS?$CJ?5is?5not?5define@ 0056c324     Language:pretty.obj
 0003:00005348       ??_C@_0BP@NDCE@?$FL145?$FN?5the?5symbol?5?$HOA?5is?5unbound?$AA@ 0056c348     Language:pretty.obj
 0003:00005368       ??_C@_02ENDO@V?$DP?$AA@    0056c368     Language:pretty.obj
 0003:0000536c       ??_C@_0CF@PLGI@?$FL146?$FN?5The?5variable?5?$HOS?5is?5not?5def@ 0056c36c     Language:pretty.obj
 0003:00005394       ??_C@_02NKKI@?$CJ?0?$AA@   0056c394     Language:pretty.obj
 0003:00005398       ??_C@_08HPHB@lambda?$FL?$CI?$AA@ 0056c398     Language:pretty.obj
 0003:000053a4       ??_C@_0CE@PMFB@?$FL147?$FN?5a?5name?5cannot?5be?5made?5from@ 0056c3a4     Language:pretty.obj
 0003:000053c8       ??_C@_0DC@LBLC@?$FL148?$FN?5Wrong?5selector?3?5?$HOS?0?5cannot@ 0056c3c8     Language:pretty.obj
 0003:000053fc       ??_C@_05CHOK@list?$DM?$AA@ 0056c3fc     Language:pretty.obj
 0003:00005404       ??_C@_04FDKD@set?$DM?$AA@  0056c404     Language:pretty.obj
 0003:0000540c       ??_C@_01PFFB@?$HL?$AA@     0056c40c     Language:pretty.obj
 0003:00005410       ??_C@_06HOEN@tuple?$CI?$AA@ 0056c410     Language:pretty.obj
 0003:00005418       ??_C@_0BD@CLCM@PRdepends_property?$AA@ 0056c418     Reader:Reader.obj
 0003:0000542c       ??_C@_0P@DGMC@dependents_any?$AA@ 0056c42c     Reader:Reader.obj
 0003:0000543c       ??_C@_0BC@IGFI@dependents_method?$AA@ 0056c43c     Reader:Reader.obj
 0003:00005450       ??_C@_0O@NLPP@PRdependentOf?$AA@ 0056c450     Reader:Reader.obj
 0003:00005460       ??_C@_0M@BOLP@PRdependent?$AA@ 0056c460     Reader:Reader.obj
 0003:0000546c       ??_C@_0M@DMJK@PRshow_void?$AA@ 0056c46c     Reader:Reader.obj
 0003:00005478       ??_C@_0BA@LMGA@PRtime_property?$AA@ 0056c478     Reader:Reader.obj
 0003:00005488       ??_C@_0BA@FBDE@PRshow_property?$AA@ 0056c488     Reader:Reader.obj
 0003:00005498       ??_C@_0BB@IFHI@PRlook_property2?$AA@ 0056c498     Reader:Reader.obj
 0003:000054ac       ??_C@_0P@JALB@PRget_property?$AA@ 0056c4ac     Reader:Reader.obj
 0003:000054bc       ??_C@_07CDAI@PRcount?$AA@  0056c4bc     Reader:Reader.obj
 0003:000054c4       ??_C@_09DCLD@mem_class?$AA@ 0056c4c4     Reader:Reader.obj
 0003:000054d0       ??_C@_08DJHL@step_any?$AA@ 0056c4d0     Reader:Reader.obj
 0003:000054dc       ??_C@_0BK@GBDJ@call_step_property_Reader?$AA@ 0056c4dc     Reader:Reader.obj
 0003:000054f8       ??_C@_0BC@LCGP@closure_build_any?$AA@ 0056c4f8     Reader:Reader.obj
 0003:0000550c       ??_C@_0BF@CHFL@closure_build_lambda?$AA@ 0056c50c     Reader:Reader.obj
 0003:00005524       ??_C@_0O@HOGO@block_integer?$AA@ 0056c524     Reader:Reader.obj
 0003:00005534       ??_C@_0N@EMBN@Show_integer?$AA@ 0056c534     Reader:Reader.obj
 0003:00005544       ??_C@_0BJ@GFFA@print_debug_info_integer?$AA@ 0056c544     Reader:Reader.obj
 0003:00005560       ??_C@_0O@KGLG@where_integer?$AA@ 0056c560     Reader:Reader.obj
 0003:00005570       ??_C@_0L@CKBF@up_integer?$AA@ 0056c570     Reader:Reader.obj
 0003:0000557c       ??_C@_0L@OCIA@dn_integer?$AA@ 0056c57c     Reader:Reader.obj
 0003:00005588       ??_C@_05KJNF@where?$AA@    0056c588     Reader:Reader.obj
 0003:00005590       ??_C@_02HJLH@dn?$AA@       0056c590     Reader:Reader.obj
 0003:00005594       ??_C@_02HAO@up?$AA@        0056c594     Reader:Reader.obj
 0003:00005598       ??_C@_0BA@EEJM@breakpoint_void?$AA@ 0056c598     Reader:Reader.obj
 0003:000055a8       ??_C@_0BA@JJKE@call_debug_void?$AA@ 0056c5a8     Reader:Reader.obj
 0003:000055b8       ??_C@_0L@PBLD@debug_void?$AA@ 0056c5b8     Reader:Reader.obj
 0003:000055c4       ??_C@_0O@CLND@stop_property?$AA@ 0056c5c4     Reader:Reader.obj
 0003:000055d4       ??_C@_0BE@BKCE@trace_rule_relation?$AA@ 0056c5d4     Reader:Reader.obj
 0003:000055e8       ??_C@_0BB@MIKM@self_trace_Trace?$AA@ 0056c5e8     Reader:Reader.obj
 0003:000055fc       ??_C@_0BF@GNFI@spy_listargs2_Reader?$AA@ 0056c5fc     Reader:Reader.obj
 0003:00005614       ??_C@_0M@OJEF@untrace_any?$AA@ 0056c614     Reader:Reader.obj
 0003:00005620       ??_C@_0N@KAOH@trace_on_any?$AA@ 0056c620     Reader:Reader.obj
 0003:00005630       ??_C@_0BF@FKLE@get_from_integer_any?$AA@ 0056c630     Reader:Reader.obj
 0003:00005648       ??_C@_0BB@LH@inspect_loop_any?$AA@ 0056c648     Reader:Reader.obj
 0003:0000565c       ??_C@_0M@HIHL@inspect_any?$AA@ 0056c65c     Reader:Reader.obj
 0003:00005668       ??_C@_0BA@BFGF@CommandLoopVoid?$AA@ 0056c668     Reader:Reader.obj
 0003:00005678       ??_C@_08JCDJ@StepLoop?$AA@ 0056c678     Reader:Reader.obj
 0003:00005684       ??_C@_09IEE@DebugLoop?$AA@ 0056c684     Reader:Reader.obj
 0003:00005690       ??_C@_0M@IHBD@InspectLoop?$AA@ 0056c690     Reader:Reader.obj
 0003:0000569c       ??_C@_09HJAP@?$CKshowall?$CK?$AA@ 0056c69c     Reader:Reader.obj
 0003:000056a8       ??_C@_06PADL@?$CKcurd?$CK?$AA@ 0056c6a8     Reader:Reader.obj
 0003:000056b0       ??_C@_06MFDP@?$CKmaxd?$CK?$AA@ 0056c6b0     Reader:Reader.obj
 0003:000056b8       ??_C@_07JGFF@?$CKindex?$CK?$AA@ 0056c6b8     Reader:Reader.obj
 0003:000056c0       ??_C@_06GJDN@?$CKlast?$CK?$AA@ 0056c6c0     Reader:Reader.obj
 0003:000056c8       ??_C@_0N@NCIM@top_debugger?$AA@ 0056c6c8     Reader:Reader.obj
 0003:000056d8       ??_C@_0BB@BNAL@get_from_integer?$AA@ 0056c6d8     Reader:Reader.obj
 0003:000056ec       ??_C@_0N@COC@inspect_loop?$AA@ 0056c6ec     Reader:Reader.obj
 0003:000056fc       ??_C@_0L@DHAH@execute_bk?$AA@ 0056c6fc     Reader:Reader.obj
 0003:00005708       ??_C@_0L@OKKE@execute_do?$AA@ 0056c708     Reader:Reader.obj
 0003:00005714       ??_C@_05OBHA@step?$CB?$AA@ 0056c714     Reader:Reader.obj
 0003:0000571c       ??_C@_06EAGC@?$DO?$DN_any?$AA@ 0056c71c     Reader:Reader.obj
 0003:00005724       ??_C@_0CD@FMBM@lambda?$FL?$CIself?3any?0x?3any?$CJ?0x?5?$DM?$DN?5sel@ 0056c724     Reader:Reader.obj
 0003:00005748       ??_C@_0O@DMJG@float?$CB_string?$AA@ 0056c748     Reader:Reader.obj
 0003:00005758       ??_C@_0P@INNB@float?$CB_string_?$AA@ 0056c758     Reader:Reader.obj
 0003:00005768       ??_C@_0P@NALD@unknown?$DP_table?$AA@ 0056c768     Reader:Reader.obj
 0003:00005778       ??_C@_0CM@DDKO@lambda?$FL?$CIa?3table?0x?3any?$CJ?0get?$CIa?0?5x?$CJ@ 0056c778     Reader:Reader.obj
 0003:000057a4       ??_C@_0N@PAAD@known?$DP_table?$AA@ 0056c7a4     Reader:Reader.obj
 0003:000057b4       ??_C@_0CN@GFAF@lambda?$FL?$CIa?3table?0x?3any?$CJ?0get?$CIa?0?5x?$CJ@ 0056c7b4     Reader:Reader.obj
 0003:000057e4       ??_C@_0O@JMGB@hashgrow_list?$AA@ 0056c7e4     Reader:Reader.obj
 0003:000057f4       ??_C@_0IP@LDGM@lambda?$FL?$CIl?3list?0hi?3property?$CJ?0let?5@ 0056c7f4     Reader:Reader.obj
 0003:00005884       ??_C@_07IJFO@max_any?$AA@  0056c884     Reader:Reader.obj
 0003:0000588c       ??_C@_0CN@IBMI@lambda?$FL?$CIx?3any?0y?3any?$CJ?0?$CIif?5?$CIx?5?$DM?$DN?5y@ 0056c88c     Reader:Reader.obj
 0003:000058bc       ??_C@_07OGNF@min_any?$AA@  0056c8bc     Reader:Reader.obj
 0003:000058c4       ??_C@_0CN@FMBM@lambda?$FL?$CIx?3any?0y?3any?$CJ?0?$CIif?5?$CIx?5?$DM?$DN?5y@ 0056c8c4     Reader:Reader.obj
 0003:000058f4       ??_C@_0M@BNLP@max_integer?$AA@ 0056c8f4     Reader:Reader.obj
 0003:00005900       ??_C@_0DF@CGAB@lambda?$FL?$CIx?3integer?0y?3integer?$CJ?0?$CIif@ 0056c900     Reader:Reader.obj
 0003:00005938       ??_C@_0M@MKJP@min_integer?$AA@ 0056c938     Reader:Reader.obj
 0003:00005944       ??_C@_0DF@PLNF@lambda?$FL?$CIx?3integer?0y?3integer?$CJ?0?$CIif@ 0056c944     Reader:Reader.obj
 0003:0000597c       ??_C@_0L@PKND@kill_class?$AA@ 0056c97c     Reader:Reader.obj
 0003:00005988       ??_C@_0M@BJFA@kill_object?$AA@ 0056c988     Reader:Reader.obj
 0003:00005994       ??_C@_08PIGB@show_any?$AA@ 0056c994     Reader:Reader.obj
 0003:000059a0       ??_C@_0M@MOPL@pretty_show?$AA@ 0056c9a0     Reader:Reader.obj
 0003:000059ac       ??_C@_0BF@CCKL@print_exception_void?$AA@ 0056c9ac     Reader:Reader.obj
 0003:000059c4       ??_C@_0BH@JEGG@debug_if_possible_void?$AA@ 0056c9c4     Reader:Reader.obj
 0003:000059dc       ??_C@_04ELAD@EVAL?$AA@     0056c9dc     Reader:Reader.obj
 0003:000059e4       ??_C@_0L@HLFA@call_debug?$AA@ 0056c9e4     Reader:Reader.obj
 0003:000059f0       ??_C@_01PEMH@q?$AA@        0056c9f0     Reader:Reader.obj
 0003:000059f4       ??_C@_0M@LNNB@read_string?$AA@ 0056c9f4     Reader:Reader.obj
 0003:00005a00       ??_C@_09CKKA@read_port?$AA@ 0056ca00     Reader:Reader.obj
 0003:00005a0c       ??_C@_0P@IEBP@readblock_port?$AA@ 0056ca0c     Reader:Reader.obj
 0003:00005a1c       ??_C@_0N@ECFH@eload_string?$AA@ 0056ca1c     Reader:Reader.obj
 0003:00005a2c       ??_C@_0BB@HCKH@add_modules_list?$AA@ 0056ca2c     Reader:Reader.obj
 0003:00005a40       ??_C@_0BD@FBGF@add_modules_module?$AA@ 0056ca40     Reader:Reader.obj
 0003:00005a54       ??_C@_0N@JCGA@sload_module?$AA@ 0056ca54     Reader:Reader.obj
 0003:00005a64       ??_C@_0M@DNAF@load_module?$AA@ 0056ca64     Reader:Reader.obj
 0003:00005a70       ??_C@_0BB@CPON@load_file_module?$AA@ 0056ca70     Reader:Reader.obj
 0003:00005a84       ??_C@_0N@PAIA@sload_string?$AA@ 0056ca84     Reader:Reader.obj
 0003:00005a94       ??_C@_0M@FPOF@load_string?$AA@ 0056ca94     Reader:Reader.obj
 0003:00005aa0       ??_C@_0BB@ENAN@load_file_string?$AA@ 0056caa0     Reader:Reader.obj
 0003:00005ab4       ??_C@_0BK@LGAB@restore_state_meta_reader?$AA@ 0056cab4     Reader:Reader.obj
 0003:00005ad0       ??_C@_0L@HEJM@flush_port?$AA@ 0056cad0     Reader:Reader.obj
 0003:00005adc       ??_C@_08BMO@?1_string?$AA@ 0056cadc     Reader:Reader.obj
 0003:00005ae8       ??_C@_04JMKJ@?$CKfs?$CK?$AA@ 0056cae8     Reader:Reader.obj
 0003:00005af0       ??_C@_05LFCD@STDIN?$AA@    0056caf0     Reader:Reader.obj
 0003:00005af8       ??_C@_05NOKM@stdin?$AA@    0056caf8     Reader:Reader.obj
 0003:00005b00       ??_C@_06EHCM@STDOUT?$AA@   0056cb00     Reader:Reader.obj
 0003:00005b08       ??_C@_06JIKH@stdout?$AA@   0056cb08     Reader:Reader.obj
 0003:00005b10       ??_C@_0BE@PHD@unbind?$CB_meta_reader?$AA@ 0056cb10     Reader:Reader.obj
 0003:00005b24       ??_C@_0BC@LPLI@bind?$CB_meta_reader?$AA@ 0056cb24     Reader:Reader.obj
 0003:00005b38       ??_C@_0BF@PNCG@extract_variable_any?$AA@ 0056cb38     Reader:Reader.obj
 0003:00005b50       ??_C@_06OMDI@reader?$AA@   0056cb50     Reader:Reader.obj
 0003:00005b58       ??_C@_0O@OAOF@Serror_string?$AA@ 0056cb58     Reader:Reader.obj
 0003:00005b68       ??_C@_0L@KDJK@verify_any?$AA@ 0056cb68     Reader:Reader.obj
 0003:00005b74       ??_C@_0BE@KKGM@checkno_meta_reader?$AA@ 0056cb74     Reader:Reader.obj
 0003:00005b88       ??_C@_0BE@CINP@findeol_meta_reader?$AA@ 0056cb88     Reader:Reader.obj
 0003:00005b9c       ??_C@_0BC@CDJA@cnext_meta_reader?$AA@ 0056cb9c     Reader:Reader.obj
 0003:00005bb0       ??_C@_0BD@JJDF@skipc?$CB_meta_reader?$AA@ 0056cbb0     Reader:Reader.obj
 0003:00005bc4       ??_C@_0BC@HKJD@skipc_meta_reader?$AA@ 0056cbc4     Reader:Reader.obj
 0003:00005bd8       ??_C@_0BC@MGI@useless_c_integer?$AA@ 0056cbd8     Reader:Reader.obj
 0003:00005bec       ??_C@_0BE@OPIG@self_eval_delimiter?$AA@ 0056cbec     Reader:Reader.obj
 0003:00005c00       ??_C@_0BJ@BKBG@nextDefclass_meta_reader?$AA@ 0056cc00     Reader:Reader.obj
 0003:00005c1c       ??_C@_0BF@JNOD@nextinst_meta_reader?$AA@ 0056cc1c     Reader:Reader.obj
 0003:00005c34       ??_C@_0BH@BBA@nextmethod_meta_reader?$AA@ 0056cc34     Reader:Reader.obj
 0003:00005c4c       ??_C@_0BL@NCHH@nextdefinition_meta_reader?$AA@ 0056cc4c     Reader:Reader.obj
 0003:00005c68       ??_C@_0BF@PLGI@readcall_meta_reader?$AA@ 0056cc68     Reader:Reader.obj
 0003:00005c80       ??_C@_0BF@BJGB@extract_of_type_Call?$AA@ 0056cc80     Reader:Reader.obj
 0003:00005c98       ??_C@_07HLBN@Do?$CB_any?$AA@ 0056cc98     Reader:Reader.obj
 0003:00005ca0       ??_C@_0BG@BFFL@readblock_meta_reader?$AA@ 0056cca0     Reader:Reader.obj
 0003:00005cb8       ??_C@_0BE@CIHF@nextseq_meta_reader?$AA@ 0056ccb8     Reader:Reader.obj
 0003:00005ccc       ??_C@_0BA@MMCF@dereference_any?$AA@ 0056cccc     Reader:Reader.obj
 0003:00005cdc       ??_C@_0BE@NOBB@readset_meta_reader?$AA@ 0056ccdc     Reader:Reader.obj
 0003:00005cf0       ??_C@_0BF@EHEB@readcase_meta_reader?$AA@ 0056ccf0     Reader:Reader.obj
 0003:00005d08       ??_C@_0BD@JEMI@readif_meta_reader?$AA@ 0056cd08     Reader:Reader.obj
 0003:00005d1c       ??_C@_0BF@LHOL@readwhen_meta_reader?$AA@ 0056cd1c     Reader:Reader.obj
 0003:00005d34       ??_C@_0BF@KBDK@readlet?$CK_meta_reader?$AA@ 0056cd34     Reader:Reader.obj
 0003:00005d4c       ??_C@_0BE@KMHH@readlet_meta_reader?$AA@ 0056cd4c     Reader:Reader.obj
 0003:00005d60       ??_C@_0BH@JNEP@nextstruct_meta_reader?$AA@ 0056cd60     Reader:Reader.obj
 0003:00005d78       ??_C@_0BA@BCOB@precedence?$CB_any?$AA@ 0056cd78     Reader:Reader.obj
 0003:00005d88       ??_C@_0N@OFFM@operand?$CB_any?$AA@ 0056cd88     Reader:Reader.obj
 0003:00005d98       ??_C@_0P@MCIJ@operation?$CB_any?$AA@ 0056cd98     Reader:Reader.obj
 0003:00005da8       ??_C@_0N@NKML@combine?$CB_any?$AA@ 0056cda8     Reader:Reader.obj
 0003:00005db8       ??_C@_0M@NNLF@combine_any?$AA@ 0056cdb8     Reader:Reader.obj
 0003:00005dc4       ??_C@_0P@BCJ@operation?$DP_any?$AA@ 0056cdc4     Reader:Reader.obj
 0003:00005dd4       ??_C@_0P@GGGG@Call?$CB_property?$AA@ 0056cdd4     Reader:Reader.obj
 0003:00005de4       ??_C@_0BA@LBJG@DBregister_Call?$AA@ 0056cde4     Reader:Reader.obj
 0003:00005df4       ??_C@_06HJOD@DBline?$AA@   0056cdf4     Reader:Reader.obj
 0003:00005dfc       ??_C@_0BO@KPOL@extended_comment?$CB_meta_reader?$AA@ 0056cdfc     Reader:Reader.obj
 0003:00005e1c       ??_C@_0BO@NFDG@extended_comment?$DP_meta_reader?$AA@ 0056ce1c     Reader:Reader.obj
 0003:00005e3c       ??_C@_0BE@BMKJ@nexts?$CB_meta_reader3?$AA@ 0056ce3c     Reader:Reader.obj
 0003:00005e50       ??_C@_0BE@LGDO@nexts?$CB_meta_reader2?$AA@ 0056ce50     Reader:Reader.obj
 0003:00005e64       ??_C@_0BD@EELG@nexte?$CB_meta_reader?$AA@ 0056ce64     Reader:Reader.obj
 0003:00005e78       ??_C@_0BE@EJIH@nexts?$CB_meta_reader1?$AA@ 0056ce78     Reader:Reader.obj
 0003:00005e8c       ??_C@_0BJ@BMOF@nextvariable_meta_reader?$AA@ 0056ce8c     Reader:Reader.obj
 0003:00005ea8       ??_C@_0BI@FPPL@read_escape_meta_reader?$AA@ 0056cea8     Reader:Reader.obj
 0003:00005ec0       ??_C@_0BC@DHOJ@nexti_meta_reader?$AA@ 0056cec0     Reader:Reader.obj
 0003:00005ed4       ??_C@_0BE@PKFF@nextexp_meta_reader?$AA@ 0056ced4     Reader:Reader.obj
 0003:00005ee8       ??_C@_0BC@PJDB@nexte_meta_reader?$AA@ 0056cee8     Reader:Reader.obj
 0003:00005efc       ??_C@_0BE@ILME@loopexp_meta_reader?$AA@ 0056cefc     Reader:Reader.obj
 0003:00005f10       ??_C@_0BC@IID@nexts_meta_reader?$AA@ 0056cf10     Reader:Reader.obj
 0003:00005f24       ??_C@_0BF@EPOJ@nextunit_meta_reader?$AA@ 0056cf24     Reader:Reader.obj
 0003:00005f3c       ??_C@_0M@HIME@LastExpRead?$AA@ 0056cf3c     Reader:Reader.obj
 0003:00005f48       ??_C@_0N@GADP@Declarations?$AA@ 0056cf48     Reader:Reader.obj
 0003:00005f58       ??_C@_0O@CFAF@StrictClaire2?$AA@ 0056cf58     Reader:Reader.obj
 0003:00005f68       ??_C@_01KALE@?$HM?$AA@     0056cf68     Reader:Reader.obj
 0003:00005f6c       ??_C@_02CHDK@OR?$AA@       0056cf6c     Reader:Reader.obj
 0003:00005f70       ??_C@_03LACO@AND?$AA@      0056cf70     Reader:Reader.obj
 0003:00005f74       ??_C@_0O@FLOK@stop?$DP_integer?$AA@ 0056cf74     Reader:Reader.obj
 0003:00005f84       ??_C@_06DAFB@known?$CB?$AA@ 0056cf84     Reader:Reader.obj
 0003:00005f8c       ??_C@_07IDN@inspect?$AA@   0056cf8c     Reader:Reader.obj
 0003:00005f94       ??_C@_05OFMG@quote?$AA@    0056cf94     Reader:Reader.obj
 0003:00005f9c       ??_C@_04HKPJ@rule?$AA@     0056cf9c     Reader:Reader.obj
 0003:00005fa4       ??_C@_01PKMN@?$DP?$AA@     0056cfa4     Reader:Reader.obj
 0003:00005fa8       ??_C@_05EELJ@break?$AA@    0056cfa8     Reader:Reader.obj
 0003:00005fb0       ??_C@_06CGBH@return?$AA@   0056cfb0     Reader:Reader.obj
 0003:00005fb8       ??_C@_02NNPM@?3?3?$AA@     0056cfb8     Reader:Reader.obj
 0003:00005fbc       ??_C@_02MILE@as?$AA@       0056cfbc     Reader:Reader.obj
 0003:00005fc0       ??_C@_02IAOD@in?$AA@       0056cfc0     Reader:Reader.obj
 0003:00005fc4       ??_C@_05HPNL@catch?$AA@    0056cfc4     Reader:Reader.obj
 0003:00005fcc       ??_C@_04COF@None?$AA@      0056cfcc     Reader:Reader.obj
 0003:00005fd4       ??_C@_04KIKH@none?$AA@     0056cfd4     Reader:Reader.obj
 0003:00005fdc       ??_C@_0N@NJHP@keyword?$DP_any?$AA@ 0056cfdc     Reader:Reader.obj
 0003:00005fec       ??_C@_03EEAD@Zif?$AA@      0056cfec     Reader:Reader.obj
 0003:00005ff0       ??_C@_02NEFL@if?$AA@       0056cff0     Reader:Reader.obj
 0003:00005ff4       ??_C@_03DGDL@try?$AA@      0056cff4     Reader:Reader.obj
 0003:00005ff8       ??_C@_04GJIP@when?$AA@     0056cff8     Reader:Reader.obj
 0003:00006000       ??_C@_03NIGL@let?$AA@      0056d000     Reader:Reader.obj
 0003:00006004       ??_C@_04NNBC@case?$AA@     0056d004     Reader:Reader.obj
 0003:0000600c       ??_C@_03ILIA@for?$AA@      0056d00c     Reader:Reader.obj
 0003:00006010       ??_C@_04IIAH@else?$AA@     0056d010     Reader:Reader.obj
 0003:00006018       ??_C@_0BB@BLLE@reserved_keyword?$AA@ 0056d018     Reader:Reader.obj
 0003:0000602c       ??_C@_07NCOK@?$CKarrow?$CK?$AA@ 0056d02c     Reader:Reader.obj
 0003:00006034       ??_C@_02KKAD@?$DM?3?$AA@   0056d034     Reader:Reader.obj
 0003:00006038       ??_C@_08DDLJ@triangle?$AA@ 0056d038     Reader:Reader.obj
 0003:00006044       ??_C@_05KOOC@arrow?$AA@    0056d044     Reader:Reader.obj
 0003:0000604c       ??_C@_09KCOB@delimiter?$AA@ 0056d04c     Reader:Reader.obj
 0003:00006058       ??_C@_0BD@MGIJ@firstc_meta_reader?$AA@ 0056d058     Reader:Reader.obj
 0003:0000606c       ??_C@_0BB@LDLK@next_meta_reader?$AA@ 0056d06c     Reader:Reader.obj
 0003:00006080       ??_C@_0M@PDGM@meta_reader?$AA@ 0056d080     Reader:Reader.obj
 0003:0000608c       ??_C@_06DDHK@PRtime?$AA@   0056d08c     Reader:Reader.obj
 0003:00006094       ??_C@_06EKNJ@PRshow?$AA@   0056d094     Reader:Reader.obj
 0003:0000609c       ??_C@_0L@FGFO@call_count?$AA@ 0056d09c     Reader:Reader.obj
 0003:000060a8       ??_C@_09DEA@PRdepends?$AA@ 0056d0a8     Reader:Reader.obj
 0003:000060b4       ??_C@_0BA@HFJK@extract_of_type?$AA@ 0056d0b4     Reader:Reader.obj
 0003:000060c4       ??_C@_0L@NCOP@dependents?$AA@ 0056d0c4     Reader:Reader.obj
 0003:000060d0       ??_C@_06CGCD@PRlook?$AA@   0056d0d0     Reader:Reader.obj
 0003:000060d8       ??_C@_05POOE@PRget?$AA@    0056d0d8     Reader:Reader.obj
 0003:000060e0       ??_C@_06CFEL@rstart?$AA@   0056d0e0     Reader:Reader.obj
 0003:000060e8       ??_C@_05BCPD@rloop?$AA@    0056d0e8     Reader:Reader.obj
 0003:000060f0       ??_C@_04KAPC@rnum?$AA@     0056d0f0     Reader:Reader.obj
 0003:000060f8       ??_C@_06GEIA@rdepth?$AA@   0056d0f8     Reader:Reader.obj
 0003:00006100       ??_C@_05FNL@rtime?$AA@     0056d100     Reader:Reader.obj
 0003:00006108       ??_C@_04HPI@step?$AA@      0056d108     Reader:Reader.obj
 0003:00006110       ??_C@_0O@OPKO@closure_build?$AA@ 0056d110     Reader:Reader.obj
 0003:00006120       ??_C@_05PNCJ@block?$AA@    0056d120     Reader:Reader.obj
 0003:00006128       ??_C@_04JJNL@Show?$AA@     0056d128     Reader:Reader.obj
 0003:00006130       ??_C@_0BB@JMGC@print_debug_info?$AA@ 0056d130     Reader:Reader.obj
 0003:00006144       ??_C@_0L@PBML@breakpoint?$AA@ 0056d144     Reader:Reader.obj
 0003:00006150       ??_C@_04JPPJ@stop?$AA@     0056d150     Reader:Reader.obj
 0003:00006158       ??_C@_0L@PNNE@trace_rule?$AA@ 0056d158     Reader:Reader.obj
 0003:00006164       ??_C@_0L@LEFL@self_trace?$AA@ 0056d164     Reader:Reader.obj
 0003:00006170       ??_C@_07EOHP@untrace?$AA@  0056d170     Reader:Reader.obj
 0003:00006178       ??_C@_08PIGA@trace_on?$AA@ 0056d178     Reader:Reader.obj
 0003:00006184       ??_C@_0M@EPOI@CommandLoop?$AA@ 0056d184     Reader:Reader.obj
 0003:00006190       ??_C@_0M@KPKN@step_system?$AA@ 0056d190     Reader:Reader.obj
 0003:0000619c       ??_C@_0N@IKCC@debug_system?$AA@ 0056d19c     Reader:Reader.obj
 0003:000061ac       ??_C@_0P@EHNM@inspect_system?$AA@ 0056d1ac     Reader:Reader.obj
 0003:000061bc       ??_C@_08MEHD@hashgrow?$AA@ 0056d1bc     Reader:Reader.obj
 0003:000061c8       ??_C@_04CHLA@kill?$AA@     0056d1c8     Reader:Reader.obj
 0003:000061d0       ??_C@_0BA@MNOD@print_exception?$AA@ 0056d1d0     Reader:Reader.obj
 0003:000061e0       ??_C@_0BC@BANL@debug_if_possible?$AA@ 0056d1e0     Reader:Reader.obj
 0003:000061f4       ??_C@_05LBNL@eload?$AA@    0056d1f4     Reader:Reader.obj
 0003:000061fc       ??_C@_0M@NIEN@add_modules?$AA@ 0056d1fc     Reader:Reader.obj
 0003:00006208       ??_C@_05HDFB@sload?$AA@    0056d208     Reader:Reader.obj
 0003:00006210       ??_C@_04JMJF@load?$AA@     0056d210     Reader:Reader.obj
 0003:00006218       ??_C@_09INKF@load_file?$AA@ 0056d218     Reader:Reader.obj
 0003:00006224       ??_C@_07NMKP@unbind?$CB?$AA@ 0056d224     Reader:Reader.obj
 0003:0000622c       ??_C@_05NKCG@bind?$CB?$AA@ 0056d22c     Reader:Reader.obj
 0003:00006234       ??_C@_0BB@IJCH@extract_variable?$AA@ 0056d234     Reader:Reader.obj
 0003:00006248       ??_C@_06KCFH@Serror?$AA@   0056d248     Reader:Reader.obj
 0003:00006250       ??_C@_06JKGI@verify?$AA@   0056d250     Reader:Reader.obj
 0003:00006258       ??_C@_07CDMB@checkno?$AA@  0056d258     Reader:Reader.obj
 0003:00006260       ??_C@_07KMII@findeol?$AA@  0056d260     Reader:Reader.obj
 0003:00006268       ??_C@_05GPBP@cnext?$AA@    0056d268     Reader:Reader.obj
 0003:00006270       ??_C@_06HPDL@skipc?$CB?$AA@ 0056d270     Reader:Reader.obj
 0003:00006278       ??_C@_05EMHO@skipc?$AA@    0056d278     Reader:Reader.obj
 0003:00006280       ??_C@_09EBHO@useless_c?$AA@ 0056d280     Reader:Reader.obj
 0003:0000628c       ??_C@_0N@NFEC@nextDefclass?$AA@ 0056d28c     Reader:Reader.obj
 0003:0000629c       ??_C@_08CINO@nextinst?$AA@ 0056d29c     Reader:Reader.obj
 0003:000062a8       ??_C@_0L@KPJE@nextmethod?$AA@ 0056d2a8     Reader:Reader.obj
 0003:000062b4       ??_C@_0P@OBFB@nextdefinition?$AA@ 0056d2b4     Reader:Reader.obj
 0003:000062c4       ??_C@_08KGIP@readcall?$AA@ 0056d2c4     Reader:Reader.obj
 0003:000062d0       ??_C@_03JOHB@Do?$CB?$AA@   0056d2d0     Reader:Reader.obj
 0003:000062d4       ??_C@_09DDBC@readblock?$AA@ 0056d2d4     Reader:Reader.obj
 0003:000062e0       ??_C@_07BMBA@nextseq?$AA@  0056d2e0     Reader:Reader.obj
 0003:000062e8       ??_C@_0M@HLDG@dereference?$AA@ 0056d2e8     Reader:Reader.obj
 0003:000062f4       ??_C@_07MNAB@readset?$AA@  0056d2f4     Reader:Reader.obj
 0003:000062fc       ??_C@_08OGAI@readcase?$AA@ 0056d2fc     Reader:Reader.obj
 0003:00006308       ??_C@_06OK@readif?$AA@     0056d308     Reader:Reader.obj
 0003:00006310       ??_C@_04DDJJ@show?$AA@     0056d310     Reader:Reader.obj
 0003:00006318       ??_C@_08FCJF@readwhen?$AA@ 0056d318     Reader:Reader.obj
 0003:00006324       ??_C@_08LLLE@readlet?$CK?$AA@ 0056d324     Reader:Reader.obj
 0003:00006330       ??_C@_07MCLP@readlet?$AA@  0056d330     Reader:Reader.obj
 0003:00006338       ??_C@_0L@LFNG@nextstruct?$AA@ 0056d338     Reader:Reader.obj
 0003:00006344       ??_C@_0M@MCEO@precedence?$CB?$AA@ 0056d344     Reader:Reader.obj
 0003:00006350       ??_C@_08MEIC@operand?$CB?$AA@ 0056d350     Reader:Reader.obj
 0003:0000635c       ??_C@_0L@BIFC@operation?$CB?$AA@ 0056d35c     Reader:Reader.obj
 0003:00006368       ??_C@_08GCDN@combine?$CB?$AA@ 0056d368     Reader:Reader.obj
 0003:00006374       ??_C@_07EKGC@combine?$AA@  0056d374     Reader:Reader.obj
 0003:0000637c       ??_C@_0L@BKOI@operation?$DP?$AA@ 0056d37c     Reader:Reader.obj
 0003:00006388       ??_C@_05EFEA@Call?$CB?$AA@ 0056d388     Reader:Reader.obj
 0003:00006390       ??_C@_0L@OMJG@DBregister?$AA@ 0056d390     Reader:Reader.obj
 0003:0000639c       ??_C@_0BC@NFCF@extended_comment?$CB?$AA@ 0056d39c     Reader:Reader.obj
 0003:000063b0       ??_C@_0BC@NHJP@extended_comment?$DP?$AA@ 0056d3b0     Reader:Reader.obj
 0003:000063c4       ??_C@_06MFDL@nexte?$CB?$AA@ 0056d3c4     Reader:Reader.obj
 0003:000063cc       ??_C@_06NIGN@nexts?$CB?$AA@ 0056d3cc     Reader:Reader.obj
 0003:000063d4       ??_C@_0N@LBIL@nextvariable?$AA@ 0056d3d4     Reader:Reader.obj
 0003:000063e4       ??_C@_0M@OHAD@read_escape?$AA@ 0056d3e4     Reader:Reader.obj
 0003:000063f0       ??_C@_05LCIN@nexti?$AA@    0056d3f0     Reader:Reader.obj
 0003:000063f8       ??_C@_07OIGH@nextexp?$AA@  0056d3f8     Reader:Reader.obj
 0003:00006400       ??_C@_05EMGJ@nexte?$AA@    0056d400     Reader:Reader.obj
 0003:00006408       ??_C@_07MEOK@loopexp?$AA@  0056d408     Reader:Reader.obj
 0003:00006410       ??_C@_05BKGL@nexts?$AA@    0056d410     Reader:Reader.obj
 0003:00006418       ??_C@_08DAIP@nextunit?$AA@ 0056d418     Reader:Reader.obj
 0003:00006424       ??_C@_05NHFC@stop?$DP?$AA@ 0056d424     Reader:Reader.obj
 0003:0000642c       ??_C@_08BGNB@keyword?$DP?$AA@ 0056d42c     Reader:Reader.obj
 0003:00006438       ??_C@_04ICIO@next?$AA@     0056d438     Reader:Reader.obj
 0003:00006440       ??_C@_05IECD@curly?$AA@    0056d440     Reader:Reader.obj
 0003:00006448       ??_C@_05FFOK@comma?$AA@    0056d448     Reader:Reader.obj
 0003:00006450       ??_C@_05PJBL@paren?$AA@    0056d450     Reader:Reader.obj
 0003:00006458       ??_C@_07NNFI@bracket?$AA@  0056d458     Reader:Reader.obj
 0003:00006460       ??_C@_03GFBM@tab?$AA@      0056d460     Reader:Reader.obj
 0003:00006464       ??_C@_05GCKI@space?$AA@    0056d464     Reader:Reader.obj
 0003:0000646c       ??_C@_03HOJH@eof?$AA@      0056d46c     Reader:Reader.obj
 0003:00006470       ??_C@_08BCHP@toplevel?$AA@ 0056d470     Reader:Reader.obj
 0003:0000647c       ??_C@_08JPK@maxstack?$AA@  0056d47c     Reader:Reader.obj
 0003:00006488       ??_C@_09ICII@last_form?$AA@ 0056d488     Reader:Reader.obj
 0003:00006494       ??_C@_06LLDN@firstc?$AA@   0056d494     Reader:Reader.obj
 0003:0000649c       ??_C@_07HHOE@nb_line?$AA@  0056d49c     Reader:Reader.obj
 0003:000064a4       ??_C@_05BNDL@fromp?$AA@    0056d4a4     Reader:Reader.obj
 0003:000064ac       ??_C@_07ILCC@s_index?$AA@  0056d4ac     Reader:Reader.obj
 0003:000064b4       ??_C@_03NAME@?4?4?4?$AA@   0056d4b4     Reader:inspect.obj
 0003:000064b8       ??_C@_02HFBK@?3?5?$AA@     0056d4b8     Reader:inspect.obj
 0003:000064bc       ??_C@_0CB@LPEL@?$DN?$DO?5given?5to?5inspector?5is?5wrong?4?6@ 0056d4bc     Reader:inspect.obj
 0003:000064e0       ??_C@_0BO@FANB@?$FL128?$FN?5?$HOS?5should?5be?5an?5integer?$AA@ 0056d4e0     Reader:inspect.obj
 0003:00006500       ??_C@_0BK@KBOI@?5is?5not?5a?5good?5index?5for?5?$AA@ 0056d500     Reader:inspect.obj
 0003:0000651c       ??_C@_0BK@OOCF@?5in?5not?5a?5good?5index?5for?5?$AA@ 0056d51c     Reader:inspect.obj
 0003:00006538       ??_C@_0CD@KNIF@?$FL129?$FN?5trace?5not?5implemented?5on?5?$HO@ 0056d538     Reader:inspect.obj
 0003:0000655c       ??_C@_01LLF@w?$AA@         0056d55c     Reader:inspect.obj
 0003:00006560       ??_C@_0CF@JJCM@?$FL130?$FN?5untrace?5not?5implemented?5on@ 0056d560     Reader:inspect.obj
 0003:00006588       ??_C@_02NEME@?5?6?$AA@     0056d588     Reader:inspect.obj
 0003:0000658c       ??_C@_04HCBP@?3add?$AA@    0056d58c     Reader:inspect.obj
 0003:00006594       ??_C@_02CEEM@?$CJ?5?$AA@   0056d594     Reader:inspect.obj
 0003:00006598       ??_C@_0BA@MEFN@?$CJ?5by?5an?5update?5?$AA@ 0056d598     Reader:inspect.obj
 0003:000065a8       ??_C@_0BE@HFMD@?5is?5triggered?5for?5?$CI?$AA@ 0056d5a8     Reader:inspect.obj
 0003:000065bc       ??_C@_0O@MDBM@?9?9?9?5the?5rule?5?$AA@ 0056d5bc     Reader:inspect.obj
 0003:000065cc       ??_C@_0BE@CHDO@debugger?5installed?6?$AA@ 0056d5cc     Reader:inspect.obj
 0003:000065e0       ??_C@_0BC@ELJK@debugger?5removed?6?$AA@ 0056d5e0     Reader:inspect.obj
 0003:000065f4       ??_C@_09LJMO@?5in?5line?5?$AA@ 0056d5f4     Reader:inspect.obj
 0003:00006600       ??_C@_0BC@FAN@?5?6?9?9?9?9?5Last?5call?5?$AA@ 0056d600     Reader:inspect.obj
 0003:00006614       ??_C@_06MCBO@break?$DO?$AA@ 0056d614     Reader:inspect.obj
 0003:0000661c       ??_C@_07PDEJ@?$CJ?5?$FLq?$FN?5?$DO?$AA@ 0056d61c     Reader:inspect.obj
 0003:00006624       ??_C@_09EFHG@break?5in?5?$AA@ 0056d624     Reader:inspect.obj
 0003:00006630       ??_C@_02GJAC@?$FN?$DO?$AA@ 0056d630     Reader:inspect.obj
 0003:00006634       ??_C@_06FGOK@debug?$FL?$AA@ 0056d634     Reader:inspect.obj
 0003:0000663c       ??_C@_02MDFO@?$FN?3?$AA@   0056d63c     Reader:inspect.obj
 0003:00006640       ??_C@_03DADG@?5?5?$FL?$AA@ 0056d640     Reader:inspect.obj
 0003:00006644       ??_C@_09OHBF@?0?5narg?5?$DN?5?$AA@ 0056d644     Reader:inspect.obj
 0003:00006650       ??_C@_07DNMN@?$FN?3?5p?5?$DN?5?$AA@ 0056d650     Reader:inspect.obj
 0003:00006658       ??_C@_03DMDD@?5?9?5?$AA@   0056d658     Reader:inspect.obj
 0003:0000665c       ??_C@_04ENNO@?5?9?$DO?5?$AA@ 0056d65c     Reader:inspect.obj
 0003:00006664       ??_C@_0L@JBFB@?$DMcompiled?3?$AA@ 0056d664     Reader:inspect.obj
 0003:00006670       ??_C@_04PGEL@?$FN?5?$DO?5?$AA@ 0056d670     Reader:inspect.obj
 0003:00006678       ??_C@_0N@HMMO@exit?5stepper?$AA@ 0056d678     Reader:inspect.obj
 0003:00006688       ??_C@_0CO@ECAB@?$CJ?5?3?5?$FL?$CIi?$CJn?0?$CIo?$CJut?0e?$CIx?$CJit?0?$CIt?$CJrace?0?$CI@ 0056d688     Reader:inspect.obj
 0003:000066b8       ??_C@_0CL@HNJB@?$FL131?$FN?5Cannot?5profile?5a?5reified?5p@ 0056d6b8     Reader:inspect.obj
 0003:000066e4       ??_C@_04MIPD@?5ms?6?$AA@   0056d6e4     Reader:inspect.obj
 0003:000066ec       ??_C@_0L@BPHH@?5calls?5?9?$DO?5?$AA@ 0056d6ec     Reader:inspect.obj
 0003:000066f8       ??_C@_05PDIO@?5?5?5?$CK?5?$AA@ 0056d6f8     Reader:inspect.obj
 0003:00006700       ??_C@_0CF@GMCH@?9?9?9?9?9?9?9?9?9?9?9?9?9?9?9?9?9?9?9?9?9?9?9?9?9?9?9?9?9?9?9?9@ 0056d700     Reader:inspect.obj
 0003:00006728       ??_C@_0DA@NCLO@?$FL117?$FN?5loose?5delimiter?5?$HOS?5in?5prog@ 0056d728     Reader:file.obj
 0003:00006758       ??_C@_0CC@CNOC@?$FL118?$FN?5read?5wrong?5char?5?$HOS?5after?5?$HO@ 0056d758     Reader:file.obj
 0003:0000677c       ??_C@_0CG@HHJF@?$FL119?$FN?5read?5?$HOS?5instead?5of?5a?5?$HOS?5in@ 0056d77c     Reader:file.obj
 0003:000067a4       ??_C@_03IFF@?$FN?3?6?$AA@  0056d7a4     Reader:file.obj
 0003:000067a8       ??_C@_0BJ@LIHC@?9?9?9?9?5Syntax?5Error?$FLline?3?5?$AA@ 0056d7a8     Reader:file.obj
 0003:000067c4       ??_C@_03NLEC@?5?6?6?$AA@   0056d7c4     Reader:file.obj
 0003:000067c8       ??_C@_06HAMA@?$CJ?$FN?6?9?9?5?$AA@ 0056d7c8     Reader:file.obj
 0003:000067d0       ??_C@_04NGPO@?6?9?9?5?$AA@ 0056d7d0     Reader:file.obj
 0003:000067d8       ??_C@_0CD@BBHA@?$FL120?$FN?5the?5file?5?$HOA?5cannot?5be?5open@ 0056d7d8     Reader:file.obj
 0003:000067fc       ??_C@_01LHO@r?$AA@         0056d7fc     Reader:file.obj
 0003:00006800       ??_C@_03HDNL@?4cl?$AA@     0056d800     Reader:file.obj
 0003:00006804       ??_C@_0BN@FELO@?9?9?9?9?5?$FLload?5CLAIRE?5file?3?5?$HOA?$FN?6?$AA@ 0056d804     Reader:file.obj
 0003:00006824       ??_C@_0BO@BHIO@?9?9?9?9?5?$FLeload?5CLAIRE?5file?3?5?$HOA?$FN?6?$AA@ 0056d824     Reader:file.obj
 0003:00006844       ??_C@_0BH@HNJH@?$FL117?$FN?5Loose?5?$HOS?5in?5file?$AA@ 0056d844     Reader:file.obj
 0003:0000685c       ??_C@_0DE@EBBG@?$CK?$CK?$CK?$CK?$CK?$CK?5ERROR?$FL121?$FN?3?5unprintable?5e@ 0056d85c     Reader:file.obj
 0003:00006890       ??_C@_06KFIN@?5is?5a?5?$AA@ 0056d890     Reader:file.obj
 0003:00006898       ??_C@_0BH@FHFL@?$FL?$DP?$DP?$FN?5?$HOA?5is?5not?5a?5float?$AA@ 0056d898     Reader:file.obj
 0003:000068b0       ??_C@_0CE@JCAI@?$FL164?$FN?5?$HOS?5cannot?5be?5assigned?5with@ 0056d8b0     Reader:syntax.obj
 0003:000068d4       ??_C@_0CA@FAFN@?$FL165?$FN?5?$HOS?5is?5illegal?5after?5a?5let?$AA@ 0056d8d4     Reader:syntax.obj
 0003:000068f4       ??_C@_0CB@JLAH@?$FL165?$FN?5?$HOS?5is?5illegal?5after?5a?5when@ 0056d8f4     Reader:syntax.obj
 0003:00006918       ??_C@_0BK@CJG@?$FL161?$FN?5missing?5?$HOS?5after?5?$HOS?$AA@ 0056d918     Reader:syntax.obj
 0003:00006934       ??_C@_0BO@BDPO@?$FL167?$FN?5missing?5?$CJ?5or?5?0?5after?5?$HOS?$AA@ 0056d934     Reader:syntax.obj
 0003:00006954       ??_C@_0BO@KDEE@?$FL166?$FN?5Missing?5?$CI?5after?5case?5?$HOS?$AA@ 0056d954     Reader:syntax.obj
 0003:00006974       ??_C@_0CL@LBKE@?$FL169?$FN?5missing?5separation?5between@ 0056d974     Reader:syntax.obj
 0003:000069a0       ??_C@_0BN@MENE@?$FL168?$FN?5missing?5?$HM?5in?5selection?$AA@ 0056d9a0     Reader:syntax.obj
 0003:000069c0       ??_C@_0DD@LGLI@?$FL170?$FN?5cannot?5use?5a?5variable?5?$CI?$HOS?$CJ@ 0056d9c0     Reader:syntax.obj
 0003:000069f4       ??_C@_0CG@LMFA@?$FL170?$FN?5cannot?5use?5?$HOS?5in?5a?5set?5con@ 0056d9f4     Reader:syntax.obj
 0003:00006a1c       ??_C@_0CO@ILM@?$FL171?$FN?5Read?5the?5character?5?$HOS?5insi@ 0056da1c     Reader:syntax.obj
 0003:00006a4c       ??_C@_0CE@BAOB@?$FL173?$FN?5Expression?5starting?5with?5e@ 0056da4c     Reader:syntax.obj
 0003:00006a70       ??_C@_0CK@LCKJ@?$FL172?$FN?5the?5sequence?5?4?4?4?$HOS?5must?5en@ 0056da70     Reader:syntax.obj
 0003:00006a9c       ??_C@_0CI@MNDD@?$FL174?$FN?5Wrong?5instantiation?5list?5?$HO@ 0056da9c     Reader:syntax.obj
 0003:00006ac4       ??_C@_0CC@GCNG@?$FL149?$FN?5wrong?5keyword?5?$CI?$HOS?$CJ?5after?5?$HO@ 0056dac4     Reader:syntax.obj
 0003:00006ae8       ??_C@_0BK@IDMJ@?$FL176?$FN?5Missing?5?$FN?5after?5?$HOS?5?$AA@ 0056dae8     Reader:syntax.obj
 0003:00006b04       ??_C@_0BO@DGMC@?$FL175?$FN?5Wrong?5form?5?$HOS?5in?5?$HOS?$CI?$HOS?$CJ?$AA@ 0056db04     Reader:syntax.obj
 0003:00006b24       ??_C@_0BP@EAEM@?$FL151?$FN?5?$HOS?5not?5allowed?5after?5?$HOS?6?$AA@ 0056db24     Reader:read.obj
 0003:00006b44       ??_C@_0DC@JFFN@?$FL152?$FN?5Separation?5missing?5between@ 0056db44     Reader:read.obj
 0003:00006b78       ??_C@_0CC@MFOF@?$FL150?$FN?5Illegal?5use?5of?5?3?$HOS?5after?5?$HO@ 0056db78     Reader:read.obj
 0003:00006b9c       ??_C@_0BI@JEBC@?$FL154?$FN?5?$HOS?$DM?$HOS?5not?5allowed?$AA@ 0056db9c     Reader:read.obj
 0003:00006bb4       ??_C@_0BP@HOIJ@?$FL153?$FN?5eof?5inside?5an?5expression?$AA@ 0056dbb4     Reader:read.obj
 0003:00006bd4       ??_C@_0BM@GKOM@?$FL159?$FN?5missing?5?$CI?5after?5?$HOS?$EA?$HOS?$AA@ 0056dbd4     Reader:read.obj
 0003:00006bf0       ??_C@_0BP@DGOA@?$FL158?$FN?5wrong?5type?5in?5call?5?$HOS?$EA?$HOS?$AA@ 0056dbf0     Reader:read.obj
 0003:00006c10       ??_C@_0BN@LPAG@?$FL157?$FN?5?$HOS?5cannot?5follow?5list?$HL?$AA@ 0056dc10     Reader:read.obj
 0003:00006c30       ??_C@_0CE@NGOP@?$FL156?$FN?5wrong?5use?5of?5exists?$CI?$HOS?5?$HOS?5@ 0056dc30     Reader:read.obj
 0003:00006c54       ??_C@_0CD@GCGJ@?$FL155?$FN?5missing?5?$HM?5in?5exists?5?1?5fora@ 0056dc54     Reader:read.obj
 0003:00006c78       ??_C@_0CC@GEBB@?$FL160?$FN?5wrong?5use?5of?5special?5char?5@ 0056dc78     Reader:read.obj
 0003:00006c9c       ??_C@_0CC@OMEE@?$FL161?$FN?5Missing?5keyword?5?$HOS?5after?5?$HO@ 0056dc9c     Reader:read.obj
 0003:00006cc0       ??_C@_0CE@EN@?$FL162?$FN?5Missing?5separator?5?$HOS?5after@ 0056dcc0     Reader:read.obj
 0003:00006ce4       ??_C@_0CC@LEG@?$FL163?$FN?5wrong?5separator?5?$HOS?5after?5?$HO@ 0056dce4     Reader:read.obj
 0003:00006d08       ??_C@_03MGLN@?2n?$CC?$AA@  0056dd08     Reader:read.obj
 0003:00006d0c       ??_C@_02DNGC@?0?$CC?$AA@   0056dd0c     Reader:read.obj
 0003:00006d10       ??_C@_06EABA@trace?$CI?$AA@ 0056dd10     Reader:read.obj
 0003:00006d18       ??_C@_07MLCL@assert?$CI?$AA@ 0056dd18     Reader:read.obj
 0003:00006d20       ??_C@_02FCOO@?1?1?$AA@     0056dd20     Reader:read.obj
 0003:00018fe0       ?CTRUE@@3PAVClaireBoolean@@A 0057ffe0     Kernel:Kernel.obj
 0003:00018fe4       ??_C@_07BMMC@keyword?$AA@  0057ffe4     Kernel:Kernel.obj
 0003:00018fec       ??_C@_0P@ODFJ@unbound_symbol?$AA@ 0057ffec     Kernel:Kernel.obj
 0003:00018ffc       ??_C@_06GMLA@system?$AA@   0057fffc     Kernel:Kernel.obj
 0003:00019004       ??_C@_0M@PHAJ@environment?$AA@ 00580004     Kernel:Kernel.obj
 0003:00019010       ??_C@_0N@HBPC@system_error?$AA@ 00580010     Kernel:Kernel.obj
 0003:00019020       ??_C@_09FAG@exception?$AA@ 00580020     Kernel:Kernel.obj
 0003:0001902c       ??_C@_05FABL@table?$AA@    0058002c     Kernel:Kernel.obj
 0003:00019034       ??_C@_09CFMM@operation?$AA@ 00580034     Kernel:Kernel.obj
 0003:00019040       ??_C@_08LJOF@relation?$AA@ 00580040     Kernel:Kernel.obj
 0003:0001904c       ??_C@_04KENI@char?$AA@     0058004c     Kernel:Kernel.obj
 0003:00019054       ??_C@_06IM@method?$AA@     00580054     Kernel:Kernel.obj
 0003:0001905c       ??_C@_0N@BOGC@system_thing?$AA@ 0058005c     Kernel:Kernel.obj
 0003:0001906c       ??_C@_05EBCM@thing?$AA@    0058006c     Kernel:Kernel.obj
 0003:00019074       ??_C@_08NDGK@listargs?$AA@ 00580074     Kernel:Kernel.obj
 0003:00019080       ??_C@_03KIMK@bag?$AA@      00580080     Kernel:Kernel.obj
 0003:00019084       ??_C@_0L@PGGG@collection?$AA@ 00580084     Kernel:Kernel.obj
 0003:00019090       ??_C@_08JJOG@function?$AA@ 00580090     Kernel:Kernel.obj
 0003:0001909c       ??_C@_0O@MHED@system_object?$AA@ 0058009c     Kernel:Kernel.obj
 0003:000190ac       ??_C@_04IOEK@port?$AA@     005800ac     Kernel:Kernel.obj
 0003:000190b4       ??_C@_05MHID@array?$AA@    005800b4     Kernel:Kernel.obj
 0003:000190bc       ??_C@_06EMNG@string?$AA@   005800bc     Kernel:Kernel.obj
 0003:000190c4       ??_C@_06EGIC@import?$AA@   005800c4     Kernel:Kernel.obj
 0003:000190cc       ??_C@_09HOEO@primitive?$AA@ 005800cc     Kernel:Kernel.obj
 0003:000190d8       ??_C@_06CHBM@object?$AA@   005800d8     Kernel:Kernel.obj
 0003:000190e0       ??_C@_07KBFM@integer?$AA@  005800e0     Kernel:Kernel.obj
 0003:000190e8       ??_C@_08ELGP@external?$AA@ 005800e8     Kernel:Kernel.obj
 0003:000190f4       ??_C@_0O@MGJP@count_trigger?$AA@ 005800f4     Kernel:Kernel.obj
 0003:00019104       ??_C@_0M@HOGJ@count_level?$AA@ 00580104     Kernel:Kernel.obj
 0003:00019110       ??_C@_0L@DJOH@count_call?$AA@ 00580110     Kernel:Kernel.obj
 0003:0001911c       ??_C@_0L@EGKB@last_index?$AA@ 0058011c     Kernel:Kernel.obj
 0003:00019128       ??_C@_0L@MKO@last_debug?$AA@ 00580128     Kernel:Kernel.obj
 0003:00019134       ??_C@_06CKBL@ctrace?$AA@   00580134     Kernel:Kernel.obj
 0003:0001913c       ??_C@_04NFMI@cout?$AA@     0058013c     Kernel:Kernel.obj
 0003:00019144       ??_C@_09MALM@ephemeral?$AA@ 00580144     Kernel:Kernel.obj
 0003:00019150       ??_C@_04KHOB@open?$AA@     00580150     Kernel:Kernel.obj
 0003:00019158       ??_C@_07FMEP@default?$AA@  00580158     Kernel:Kernel.obj
 0003:00019160       ??_C@_05OHAA@final?$AA@    00580160     Kernel:Kernel.obj
 0003:00019168       ??_C@_08BPFA@abstract?$AA@ 00580168     Kernel:Kernel.obj
 0003:00019174       ??_C@_05JMGP@close?$AA@    00580174     Kernel:Kernel.obj
 0003:0001917c       ??_C@_04GMNC@spy?$CB?$AA@  0058017c     Kernel:Kernel.obj
 0003:00019184       ??_C@_0L@DEHC@exception?$CB?$AA@ 00580184     Kernel:Kernel.obj
 0003:00019190       ??_C@_07KNLF@verbose?$AA@  00580190     Kernel:Kernel.obj
 0003:00019198       ??_C@_07COOL@inline?$DP?$AA@ 00580198     Kernel:Kernel.obj
 0003:000191a0       ??_C@_04JJMM@uses?$AA@     005801a0     Kernel:Kernel.obj
 0003:000191a8       ??_C@_06LOOG@source?$AA@   005801a8     Kernel:Kernel.obj
 0003:000191b0       ??_C@_07DEBJ@made_of?$AA@  005801b0     Kernel:Kernel.obj
 0003:000191b8       ??_C@_07IPNE@part_of?$AA@  005801b8     Kernel:Kernel.obj
 0003:000191c0       ??_C@_05HIBL@parts?$AA@    005801c0     Kernel:Kernel.obj
 0003:000191c8       ??_C@_06DKLM@status?$AA@   005801c8     Kernel:Kernel.obj
 0003:000191d0       ??_C@_0L@DJKH@precedence?$AA@ 005801d0     Kernel:Kernel.obj
 0003:000191dc       ??_C@_0L@GOIH@functional?$AA@ 005801dc     Kernel:Kernel.obj
 0003:000191e8       ??_C@_03PKH@arg?$AA@       005801e8     Kernel:Kernel.obj
 0003:000191ec       ??_C@_0N@HFKL@multivalued?$DP?$AA@ 005801ec     Kernel:Kernel.obj
 0003:000191fc       ??_C@_06BCDK@store?$DP?$AA@ 005801fc     Kernel:Kernel.obj
 0003:00019204       ??_C@_08NDDG@if_write?$AA@ 00580204     Kernel:Kernel.obj
 0003:00019210       ??_C@_04NIOK@body?$AA@     00580210     Kernel:Kernel.obj
 0003:00019218       ??_C@_07BDIG@formula?$AA@  00580218     Kernel:Kernel.obj
 0003:00019220       ??_C@_08OMHO@evaluate?$AA@ 00580220     Kernel:Kernel.obj
 0003:0001922c       ??_C@_07EMFJ@module?$CB?$AA@ 0058022c     Kernel:Kernel.obj
 0003:00019234       ??_C@_06JCM@debug?$CB?$AA@ 00580234     Kernel:Kernel.obj
 0003:0001923c       ??_C@_04PIEA@base?$AA@     0058023c     Kernel:Kernel.obj
 0003:00019244       ??_C@_07DLPD@inverse?$AA@  00580244     Kernel:Kernel.obj
 0003:0001924c       ??_C@_0L@NIJD@definition?$AA@ 0058024c     Kernel:Kernel.obj
 0003:00019258       ??_C@_0N@DKMN@restrictions?$AA@ 00580258     Kernel:Kernel.obj
 0003:00019268       ??_C@_06LODP@trace?$CB?$AA@ 00580268     Kernel:Kernel.obj
 0003:00019270       ??_C@_06POGP@srange?$AA@   00580270     Kernel:Kernel.obj
 0003:00019278       ??_C@_08CCMG@selector?$AA@ 00580278     Kernel:Kernel.obj
 0003:00019284       ??_C@_05MGIA@range?$AA@    00580284     Kernel:Kernel.obj
 0003:0001928c       ??_C@_06JHGE@domain?$AA@   0058028c     Kernel:Kernel.obj
 0003:00019294       ??_C@_05KPOJ@graph?$AA@    00580294     Kernel:Kernel.obj
 0003:0001929c       ??_C@_07DKAN@reified?$AA@  0058029c     Kernel:Kernel.obj
 0003:000192a4       ??_C@_0L@MOFP@dispatcher?$AA@ 005802a4     Kernel:Kernel.obj
 0003:000192b0       ??_C@_0L@EACF@dictionary?$AA@ 005802b0     Kernel:Kernel.obj
 0003:000192bc       ??_C@_06CJJO@ident?$DP?$AA@ 005802bc     Kernel:Kernel.obj
 0003:000192c4       ??_C@_04KKCM@code?$AA@     005802c4     Kernel:Kernel.obj
 0003:000192cc       ??_C@_06HILF@params?$AA@   005802cc     Kernel:Kernel.obj
 0003:000192d4       ??_C@_09GNNK@prototype?$AA@ 005802d4     Kernel:Kernel.obj
 0003:000192e0       ??_C@_09MMGO@instances?$AA@ 005802e0     Kernel:Kernel.obj
 0003:000192ec       ??_C@_0M@PGLC@descendents?$AA@ 005802ec     Kernel:Kernel.obj
 0003:000192f8       ??_C@_09FMMO@ancestors?$AA@ 005802f8     Kernel:Kernel.obj
 0003:00019304       ??_C@_08BPEK@subclass?$AA@ 00580304     Kernel:Kernel.obj
 0003:00019310       ??_C@_0L@CEDM@superclass?$AA@ 00580310     Kernel:Kernel.obj
 0003:0001931c       ??_C@_05KJGN@slots?$AA@    0058031c     Kernel:Kernel.obj
 0003:00019324       ??_C@_07EBEE@comment?$AA@  00580324     Kernel:Kernel.obj
 0003:0001932c       ??_C@_05FO@sname?$AA@      0058032c     Kernel:Kernel.obj
 0003:00019334       ??_C@_04OPJK@name?$AA@     00580334     Kernel:Kernel.obj
 0003:0001933c       ??_C@_03HGMK@isa?$AA@      0058033c     Kernel:Kernel.obj
 0003:00019340       ??_C@_07HGCO@boolean?$AA@  00580340     Kernel:Kernel.obj
 0003:00019348       ??_C@_04BMNE@void?$AA@     00580348     Kernel:Kernel.obj
 0003:00019350       ??_C@_05PIME@float?$AA@    00580350     Kernel:Kernel.obj
 0003:00019358       ??_C@_04PIKN@type?$AA@     00580358     Kernel:Kernel.obj
 0003:00019360       ??_C@_03IIEK@any?$AA@      00580360     Kernel:Kernel.obj
 0003:00019364       ??_C@_04IEHK@slot?$AA@     00580364     Kernel:Kernel.obj
 0003:0001936c       ??_C@_0M@CEHF@restriction?$AA@ 0058036c     Kernel:Kernel.obj
 0003:00019378       ??_C@_08DKJK@property?$AA@ 00580378     Kernel:Kernel.obj
 0003:00019384       ??_C@_07MGEE@private?$AA@  00580384     Kernel:Kernel.obj
 0003:0001938c       ??_C@_09DEML@NoDefault?$AA@ 0058038c     Kernel:Kernel.obj
 0003:00019398       ??_C@_06DDGG@symbol?$AA@   00580398     Kernel:Kernel.obj
 0003:000193a0       ??_C@_06DGGK@Kernel?$AA@   005803a0     Kernel:Kernel.obj
 0003:000193a8       ??_C@_07NMLD@mClaire?$AA@  005803a8     Kernel:Kernel.obj
 0003:000193b0       ??_C@_06PPAF@claire?$AA@   005803b0     Kernel:Kernel.obj
 0003:000193b8       ??_C@_06CODG@module?$AA@   005803b8     Kernel:Kernel.obj
 0003:000193c0       ??_C@_05LGKP@class?$AA@    005803c0     Kernel:Kernel.obj
 0003:000193c8       ??_C@_0BD@EJB@restore_state_void?$AA@ 005803c8     Kernel:Kernel.obj
 0003:000193dc       ??_C@_0N@PDFE@world_get_id?$AA@ 005803dc     Kernel:Kernel.obj
 0003:000193ec       ??_C@_0N@MDPJ@world_number?$AA@ 005803ec     Kernel:Kernel.obj
 0003:000193fc       ??_C@_0BA@FLDN@world_slaughter?$AA@ 005803fc     Kernel:Kernel.obj
 0003:0001940c       ??_C@_0N@EHBF@world_remove?$AA@ 0058040c     Kernel:Kernel.obj
 0003:0001941c       ??_C@_09KMMN@world_pop?$AA@ 0058041c     Kernel:Kernel.obj
 0003:00019428       ??_C@_0L@ECDJ@world_push?$AA@ 00580428     Kernel:Kernel.obj
 0003:00019434       ??_C@_09GDCK@store_add?$AA@ 00580434     Kernel:Kernel.obj
 0003:00019440       ??_C@_0N@ENLM@store_object?$AA@ 00580440     Kernel:Kernel.obj
 0003:00019450       ??_C@_0M@GHBA@store_array?$AA@ 00580450     Kernel:Kernel.obj
 0003:0001945c       ??_C@_0L@NOA@store_list?$AA@ 0058045c     Kernel:Kernel.obj
 0003:00019468       ??_C@_0BC@ILPH@string_I_function?$AA@ 00580468     Kernel:Kernel.obj
 0003:0001947c       ??_C@_0BF@CBDF@stack_apply_function?$AA@ 0058047c     Kernel:Kernel.obj
 0003:00019494       ??_C@_06BMHJ@fcall3?$AA@   00580494     Kernel:Kernel.obj
 0003:0001949c       ??_C@_06LGOO@fcall2?$AA@   0058049c     Kernel:Kernel.obj
 0003:000194a4       ??_C@_06EJFH@fcall1?$AA@   005804a4     Kernel:Kernel.obj
 0003:000194ac       ??_C@_09POKN@stack_add?$AA@ 005804ac     Kernel:Kernel.obj
 0003:000194b8       ??_C@_0BA@KINP@close_exception?$AA@ 005804b8     Kernel:Kernel.obj
 0003:000194c8       ??_C@_0P@HOMH@integer_I_char?$AA@ 005804c8     Kernel:Kernel.obj
 0003:000194d8       ??_C@_0L@LPOG@claire_mem?$AA@ 005804d8     Kernel:Kernel.obj
 0003:000194e4       ??_C@_0P@MOKP@c_princ_string?$AA@ 005804e4     Kernel:Kernel.obj
 0003:000194f4       ??_C@_09BEHE@c_princ_c?$AA@ 005804f4     Kernel:Kernel.obj
 0003:00019500       ??_C@_0L@MACG@princ_char?$AA@ 00580500     Kernel:Kernel.obj
 0003:0001950c       ??_C@_0BB@LDH@_sup_equal_float?$AA@ 0058050c     Kernel:Kernel.obj
 0003:00019520       ??_C@_0BC@NOOG@_sup_equal_float_?$AA@ 00580520     Kernel:Kernel.obj
 0003:00019534       ??_C@_0L@JBJN@_sup_float?$AA@ 00580534     Kernel:Kernel.obj
 0003:00019540       ??_C@_0N@DKKM@?$CK_sup_float_?$AA@ 00580540     Kernel:Kernel.obj
 0003:00019550       ??_C@_0BB@KHKM@_inf_equal_float?$AA@ 00580550     Kernel:Kernel.obj
 0003:00019564       ??_C@_0BC@DDEK@_inf_equal_float_?$AA@ 00580564     Kernel:Kernel.obj
 0003:00019578       ??_C@_0L@DGAH@_inf_float?$AA@ 00580578     Kernel:Kernel.obj
 0003:00019584       ??_C@_0M@OMNL@_inf_float_?$AA@ 00580584     Kernel:Kernel.obj
 0003:00019590       ??_C@_0BA@CKBO@integer_I_float?$AA@ 00580590     Kernel:Kernel.obj
 0003:000195a0       ??_C@_0BB@KKMH@integer_I_float_?$AA@ 005805a0     Kernel:Kernel.obj
 0003:000195b4       ??_C@_09DLAJ@to_float?5?$AA@ 005805b4     Kernel:Kernel.obj
 0003:000195c0       ??_C@_09GEAE@to_float_?$AA@ 005805c0     Kernel:Kernel.obj
 0003:000195cc       ??_C@_0O@LEFA@princ_integer?$AA@ 005805cc     Kernel:Kernel.obj
 0003:000195dc       ??_C@_0O@JGMN@times_integer?$AA@ 005805dc     Kernel:Kernel.obj
 0003:000195ec       ??_C@_05HLMP@srand?$AA@    005805ec     Kernel:Kernel.obj
 0003:000195f4       ??_C@_0P@KKIK@random_integer?$AA@ 005805f4     Kernel:Kernel.obj
 0003:00019604       ??_C@_0BE@GBGA@make_string_integer?$AA@ 00580604     Kernel:Kernel.obj
 0003:00019618       ??_C@_0BC@LPFA@string_I_integer?5?$AA@ 00580618     Kernel:Kernel.obj
 0003:0001962c       ??_C@_0P@CIJK@char_I_integer?$AA@ 0058062c     Kernel:Kernel.obj
 0003:0001963c       ??_C@_0N@JPHN@exp2_integer?$AA@ 0058063c     Kernel:Kernel.obj
 0003:0001964c       ??_C@_0N@JMLO@_exp_integer?$AA@ 0058064c     Kernel:Kernel.obj
 0003:0001965c       ??_C@_0L@GODJ@_7_integer?$AA@ 0058065c     Kernel:Kernel.obj
 0003:00019668       ??_C@_0BB@ENLE@integer_I_symbol?$AA@ 00580668     Kernel:Kernel.obj
 0003:0001967c       ??_C@_0P@PNMN@symbol?$CB_string?$AA@ 0058067c     Kernel:Kernel.obj
 0003:0001968c       ??_C@_0L@KOCO@put_symbol?$AA@ 0058068c     Kernel:Kernel.obj
 0003:00019698       ??_C@_0BA@FJEM@string_I_symbol?$AA@ 00580698     Kernel:Kernel.obj
 0003:000196a8       ??_C@_0P@LAKE@defined_symbol?$AA@ 005806a8     Kernel:Kernel.obj
 0003:000196b8       ??_C@_0N@DPFA@princ_symbol?$AA@ 005806b8     Kernel:Kernel.obj
 0003:000196c8       ??_C@_0O@HEDH@append_symbol?$AA@ 005806c8     Kernel:Kernel.obj
 0003:000196d8       ??_C@_0L@NGD@end_module?$AA@ 005806d8     Kernel:Kernel.obj
 0003:000196e4       ??_C@_0N@CCKJ@begin_module?$AA@ 005806e4     Kernel:Kernel.obj
 0003:000196f4       ??_C@_0M@FFJC@free_I_port?$AA@ 005806f4     Kernel:Kernel.obj
 0003:00019700       ??_C@_0BA@MAHI@read_thing_port?$AA@ 00580700     Kernel:Kernel.obj
 0003:00019710       ??_C@_0BB@MPFF@read_number_port?$AA@ 00580710     Kernel:Kernel.obj
 0003:00019724       ??_C@_0BA@GMMI@read_ident_port?$AA@ 00580724     Kernel:Kernel.obj
 0003:00019734       ??_C@_0BB@ICKI@read_string_port?$AA@ 00580734     Kernel:Kernel.obj
 0003:00019748       ??_C@_0BA@PGKC@set_length_port?$AA@ 00580748     Kernel:Kernel.obj
 0003:00019758       ??_C@_0M@LHFP@length_port?$AA@ 00580758     Kernel:Kernel.obj
 0003:00019764       ??_C@_0O@LMLK@string_I_port?$AA@ 00580764     Kernel:Kernel.obj
 0003:00019774       ??_C@_0O@NJFJ@port_I_string?$AA@ 00580774     Kernel:Kernel.obj
 0003:00019784       ??_C@_0M@IDJA@port_I_void?$AA@ 00580784     Kernel:Kernel.obj
 0003:00019790       ??_C@_0N@DOII@fopen_string?$AA@ 00580790     Kernel:Kernel.obj
 0003:000197a0       ??_C@_0O@IGHM@pushback_port?$AA@ 005807a0     Kernel:Kernel.obj
 0003:000197b0       ??_C@_09FALD@getc_port?$AA@ 005807b0     Kernel:Kernel.obj
 0003:000197bc       ??_C@_09JDLC@putc_char?$AA@ 005807bc     Kernel:Kernel.obj
 0003:000197c8       ??_C@_0M@HEJO@fclose_port?$AA@ 005807c8     Kernel:Kernel.obj
 0003:000197d4       ??_C@_0BD@OMFG@use_as_output_port?$AA@ 005807d4     Kernel:Kernel.obj
 0003:000197e8       ??_C@_0P@KKJF@date_I_integer?$AA@ 005807e8     Kernel:Kernel.obj
 0003:000197f8       ??_C@_0O@CDMH@shrink_string?$AA@ 005807f8     Kernel:Kernel.obj
 0003:00019808       ??_C@_0P@PPJF@nth_set_string?$AA@ 00580808     Kernel:Kernel.obj
 0003:00019818       ??_C@_0L@FCEK@nth_string?$AA@ 00580818     Kernel:Kernel.obj
 0003:00019824       ??_C@_0BA@MCEH@included_string?$AA@ 00580824     Kernel:Kernel.obj
 0003:00019834       ??_C@_0N@COIL@_less_string?$AA@ 00580834     Kernel:Kernel.obj
 0003:00019844       ??_C@_0L@KGHH@get_string?$AA@ 00580844     Kernel:Kernel.obj
 0003:00019850       ??_C@_0BB@DCCA@substring_string?$AA@ 00580850     Kernel:Kernel.obj
 0003:00019864       ??_C@_0BB@DCAE@integer_I_string?$AA@ 00580864     Kernel:Kernel.obj
 0003:00019878       ??_C@_0O@LIH@append_string?$AA@ 00580878     Kernel:Kernel.obj
 0003:00019888       ??_C@_0BC@EKAE@self_print_string?$AA@ 00580888     Kernel:Kernel.obj
 0003:0001989c       ??_C@_0N@EAOA@princ_string?$AA@ 0058089c     Kernel:Kernel.obj
 0003:000198ac       ??_C@_0M@NDPH@copy_string?$AA@ 005808ac     Kernel:Kernel.obj
 0003:000198b8       ??_C@_0O@EABG@nth_put_array?$AA@ 005808b8     Kernel:Kernel.obj
 0003:000198c8       ??_C@_08JHIC@of_array?$AA@ 005808c8     Kernel:Kernel.obj
 0003:000198d4       ??_C@_0N@HALK@length_array?$AA@ 005808d4     Kernel:Kernel.obj
 0003:000198e4       ??_C@_0L@OGOD@copy_array?$AA@ 005808e4     Kernel:Kernel.obj
 0003:000198f0       ??_C@_0N@GMBO@list_I_tuple?$AA@ 005808f0     Kernel:Kernel.obj
 0003:00019900       ??_C@_0L@JAOM@append_set?$AA@ 00580900     Kernel:Kernel.obj
 0003:0001990c       ??_C@_0BA@GMEB@contain_ask_set?$AA@ 0058090c     Kernel:Kernel.obj
 0003:0001991c       ??_C@_08PBBE@_exp_set?$AA@ 0058091c     Kernel:Kernel.obj
 0003:00019928       ??_C@_09CDGP@add_I_set?$AA@ 00580928     Kernel:Kernel.obj
 0003:00019934       ??_C@_07FIPA@add_set?$AA@  00580934     Kernel:Kernel.obj
 0003:0001993c       ??_C@_0BB@HMDL@make_string_list?$AA@ 0058093c     Kernel:Kernel.obj
 0003:00019950       ??_C@_0L@KPJH@index_list?$AA@ 00580950     Kernel:Kernel.obj
 0003:0001995c       ??_C@_0BB@LNNF@contain_ask_list?$AA@ 0058095c     Kernel:Kernel.obj
 0003:00019970       ??_C@_0M@LAMD@shrink_list?$AA@ 00580970     Kernel:Kernel.obj
 0003:0001997c       ??_C@_08ECHO@cdr_list?$AA@ 0058097c     Kernel:Kernel.obj
 0003:00019988       ??_C@_0P@MGIC@delete_at_list?$AA@ 00580988     Kernel:Kernel.obj
 0003:00019998       ??_C@_0M@LAPD@add_at_list?$AA@ 00580998     Kernel:Kernel.obj
 0003:000199a4       ??_C@_0M@OPCJ@append_list?$AA@ 005809a4     Kernel:Kernel.obj
 0003:000199b0       ??_C@_0O@MHOH@add_star_list?$AA@ 005809b0     Kernel:Kernel.obj
 0003:000199c0       ??_C@_0BC@NBMH@make_list_integer?$AA@ 005809c0     Kernel:Kernel.obj
 0003:000199d4       ??_C@_08KGFF@cons_any?$AA@ 005809d4     Kernel:Kernel.obj
 0003:000199e0       ??_C@_0L@COJK@add_I_list?$AA@ 005809e0     Kernel:Kernel.obj
 0003:000199ec       ??_C@_08PFOB@add_list?$AA@ 005809ec     Kernel:Kernel.obj
 0003:000199f8       ??_C@_0L@FHJH@cast_I_bag?$AA@ 005809f8     Kernel:Kernel.obj
 0003:00019a04       ??_C@_06CNAN@of_bag?$AA@   00580a04     Kernel:Kernel.obj
 0003:00019a0c       ??_C@_0L@CPJD@delete_bag?$AA@ 00580a0c     Kernel:Kernel.obj
 0003:00019a18       ??_C@_09KOBM@empty_bag?$AA@ 00580a18     Kernel:Kernel.obj
 0003:00019a24       ??_C@_08ENHG@copy_bag?$AA@ 00580a24     Kernel:Kernel.obj
 0003:00019a30       ??_C@_0N@EMNN@index_table2?$AA@ 00580a30     Kernel:Kernel.obj
 0003:00019a40       ??_C@_0M@GDCK@index_table?$AA@ 00580a40     Kernel:Kernel.obj
 0003:00019a4c       ??_C@_0BE@LAGJ@add_method_property?$AA@ 00580a4c     Kernel:Kernel.obj
 0003:00019a60       ??_C@_0N@IPAP@sort_I_class?$AA@ 00580a60     Kernel:Kernel.obj
 0003:00019a70       ??_C@_0P@MBNL@add_slot_class?$AA@ 00580a70     Kernel:Kernel.obj
 0003:00019a80       ??_C@_09OHJN@hash_list?$AA@ 00580a80     Kernel:Kernel.obj
 0003:00019a8c       ??_C@_0O@DDPE@boolean_I_any?$AA@ 00580a8c     Kernel:Kernel.obj
 0003:00019a9c       ??_C@_09OCNJ@belong_to?$AA@ 00580a9c     Kernel:Kernel.obj
 0003:00019aa8       ??_C@_0BA@OOHK@slot_get_object?$AA@ 00580aa8     Kernel:Kernel.obj
 0003:00019ab8       ??_C@_05DPDK@equal?$AA@    00580ab8     Kernel:Kernel.obj
 0003:00019ac0       ??_C@_0M@LIDN@copy_object?$AA@ 00580ac0     Kernel:Kernel.obj
 0003:00019acc       ??_C@_05DKNA@free?$CB?$AA@ 00580acc     Kernel:Kernel.obj
 0003:00019ad4       ??_C@_05EAJN@empty?$AA@    00580ad4     Kernel:Kernel.obj
 0003:00019adc       ??_C@_05DDDB@date?$CB?$AA@ 00580adc     Kernel:Kernel.obj
 0003:00019ae4       ??_C@_08NPAB@boolean?$CB?$AA@ 00580ae4     Kernel:Kernel.obj
 0003:00019af0       ??_C@_07EKEE@symbol?$CB?$AA@ 00580af0     Kernel:Kernel.obj
 0003:00019af8       ??_C@_05JBKJ@cast?$CB?$AA@ 00580af8     Kernel:Kernel.obj
 0003:00019b00       ??_C@_07PGN@member?$DP?$AA@ 00580b00     Kernel:Kernel.obj
 0003:00019b08       ??_C@_08GLH@contain?$DP?$AA@ 00580b08     Kernel:Kernel.obj
 0003:00019b14       ??_C@_08PPCO@world_id?$AA@ 00580b14     Kernel:Kernel.obj
 0003:00019b20       ??_C@_06CDAD@world?$DP?$AA@ 00580b20     Kernel:Kernel.obj
 0003:00019b28       ??_C@_07GEJP@commit0?$AA@  00580b28     Kernel:Kernel.obj
 0003:00019b30       ??_C@_06PAN@commit?$AA@    00580b30     Kernel:Kernel.obj
 0003:00019b38       ??_C@_09DBHF@backtrack?$AA@ 00580b38     Kernel:Kernel.obj
 0003:00019b44       ??_C@_06PGOP@choice?$AA@   00580b44     Kernel:Kernel.obj
 0003:00019b4c       ??_C@_05PHCB@store?$AA@    00580b4c     Kernel:Kernel.obj
 0003:00019b54       ??_C@_07IEBA@funcall?$AA@  00580b54     Kernel:Kernel.obj
 0003:00019b5c       ??_C@_08MNJN@fastcall?$AA@ 00580b5c     Kernel:Kernel.obj
 0003:00019b68       ??_C@_0M@LGCL@stack_apply?$AA@ 00580b68     Kernel:Kernel.obj
 0003:00019b74       ??_C@_04PHAO@stat?$AA@     00580b74     Kernel:Kernel.obj
 0003:00019b7c       ??_C@_03NNCC@mem?$AA@      00580b7c     Kernel:Kernel.obj
 0003:00019b80       ??_C@_07CNPI@c_princ?$AA@  00580b80     Kernel:Kernel.obj
 0003:00019b88       ??_C@_0L@EGII@read_thing?$AA@ 00580b88     Kernel:Kernel.obj
 0003:00019b94       ??_C@_0M@ONEG@read_number?$AA@ 00580b94     Kernel:Kernel.obj
 0003:00019ba0       ??_C@_0L@FELJ@read_ident?$AA@ 00580ba0     Kernel:Kernel.obj
 0003:00019bac       ??_C@_0L@LNIH@set_length?$AA@ 00580bac     Kernel:Kernel.obj
 0003:00019bb8       ??_C@_05NEPJ@port?$CB?$AA@ 00580bb8     Kernel:Kernel.obj
 0003:00019bc0       ??_C@_05GKMA@fopen?$AA@    00580bc0     Kernel:Kernel.obj
 0003:00019bc8       ??_C@_05PNFO@flush?$AA@    00580bc8     Kernel:Kernel.obj
 0003:00019bd0       ??_C@_04JOCH@getc?$AA@     00580bd0     Kernel:Kernel.obj
 0003:00019bd8       ??_C@_03ELEH@put?$AA@      00580bd8     Kernel:Kernel.obj
 0003:00019bdc       ??_C@_04BANC@putc?$AA@     00580bdc     Kernel:Kernel.obj
 0003:00019be4       ??_C@_06DNKC@fclose?$AA@   00580be4     Kernel:Kernel.obj
 0003:00019bec       ??_C@_0O@MLLH@use_as_output?$AA@ 00580bec     Kernel:Kernel.obj
 0003:00019bfc       ??_C@_02NCLD@?$DO?$DN?$AA@ 00580bfc     Kernel:Kernel.obj
 0003:00019c00       ??_C@_02PPOG@?$DM?$DN?$AA@ 00580c00     Kernel:Kernel.obj
 0003:00019c04       ??_C@_06CBIP@float?$CB?$AA@ 00580c04     Kernel:Kernel.obj
 0003:00019c0c       ??_C@_01FDHG@?$CK?$AA@     00580c0c     Kernel:Kernel.obj
 0003:00019c10       ??_C@_07LKPL@random?$CB?$AA@ 00580c10     Kernel:Kernel.obj
 0003:00019c18       ??_C@_06IMKP@random?$AA@   00580c18     Kernel:Kernel.obj
 0003:00019c20       ??_C@_0M@DFAK@make_string?$AA@ 00580c20     Kernel:Kernel.obj
 0003:00019c2c       ??_C@_07NODL@string?$CB?$AA@ 00580c2c     Kernel:Kernel.obj
 0003:00019c34       ??_C@_05GMND@char?$CB?$AA@ 00580c34     Kernel:Kernel.obj
 0003:00019c3c       ??_C@_02KMBJ@?$FO2?$AA@    00580c3c     Kernel:Kernel.obj
 0003:00019c40       ??_C@_03LLAM@mod?$AA@      00580c40     Kernel:Kernel.obj
 0003:00019c44       ??_C@_01GJD@?9?$AA@        00580c44     Kernel:Kernel.obj
 0003:00019c48       ??_C@_06BHEF@gensym?$AA@   00580c48     Kernel:Kernel.obj
 0003:00019c50       ??_C@_07DLLF@defined?$AA@  00580c50     Kernel:Kernel.obj
 0003:00019c58       ??_C@_03DNBD@end?$AA@      00580c58     Kernel:Kernel.obj
 0003:00019c5c       ??_C@_05PKJE@begin?$AA@    00580c5c     Kernel:Kernel.obj
 0003:00019c64       ??_C@_04MALE@nth?$DN?$AA@  00580c64     Kernel:Kernel.obj
 0003:00019c6c       ??_C@_03FHNB@nth?$AA@      00580c6c     Kernel:Kernel.obj
 0003:00019c70       ??_C@_03LOOF@get?$AA@      00580c70     Kernel:Kernel.obj
 0003:00019c74       ??_C@_09DLHP@substring?$AA@ 00580c74     Kernel:Kernel.obj
 0003:00019c80       ??_C@_08HNG@integer?$CB?$AA@ 00580c80     Kernel:Kernel.obj
 0003:00019c8c       ??_C@_0L@FOMI@self_print?$AA@ 00580c8c     Kernel:Kernel.obj
 0003:00019c98       ??_C@_05FOPA@princ?$AA@    00580c98     Kernel:Kernel.obj
 0003:00019ca0       ??_C@_06DMLA@array?$CB?$AA@ 00580ca0     Kernel:Kernel.obj
 0003:00019ca8       ??_C@_07KCJK@nth_put?$AA@  00580ca8     Kernel:Kernel.obj
 0003:00019cb0       ??_C@_07FHDI@nth_get?$AA@  00580cb0     Kernel:Kernel.obj
 0003:00019cb8       ??_C@_02KDKE@of?$AA@       00580cb8     Kernel:Kernel.obj
 0003:00019cbc       ??_C@_06JEAL@length?$AA@   00580cbc     Kernel:Kernel.obj
 0003:00019cc4       ??_C@_02OOND@?4?4?$AA@     00580cc4     Kernel:Kernel.obj
 0003:00019cc8       ??_C@_05NKOJ@list?$CB?$AA@ 00580cc8     Kernel:Kernel.obj
 0003:00019cd0       ??_C@_04KOKA@set?$CB?$AA@  00580cd0     Kernel:Kernel.obj
 0003:00019cd8       ??_C@_01KHHK@?$FO?$AA@     00580cd8     Kernel:Kernel.obj
 0003:00019cdc       ??_C@_06DBNI@shrink?$AA@   00580cdc     Kernel:Kernel.obj
 0003:00019ce4       ??_C@_03BPGH@cdr?$AA@      00580ce4     Kernel:Kernel.obj
 0003:00019ce8       ??_C@_04GJME@nth?9?$AA@    00580ce8     Kernel:Kernel.obj
 0003:00019cf0       ??_C@_04JGLG@nth?$CL?$AA@  00580cf0     Kernel:Kernel.obj
 0003:00019cf8       ??_C@_02PILC@?1?$CL?$AA@   00580cf8     Kernel:Kernel.obj
 0003:00019cfc       ??_C@_04CCJL@add?$CK?$AA@  00580cfc     Kernel:Kernel.obj
 0003:00019d04       ??_C@_09NPCD@make_list?$AA@ 00580d04     Kernel:Kernel.obj
 0003:00019d10       ??_C@_04GECP@cons?$AA@     00580d10     Kernel:Kernel.obj
 0003:00019d18       ??_C@_04IJJK@add?$CB?$AA@  00580d18     Kernel:Kernel.obj
 0003:00019d20       ??_C@_03ONEI@add?$AA@      00580d20     Kernel:Kernel.obj
 0003:00019d24       ??_C@_06IDPA@delete?$AA@   00580d24     Kernel:Kernel.obj
 0003:00019d2c       ??_C@_0L@IKAB@add_method?$AA@ 00580d2c     Kernel:Kernel.obj
 0003:00019d38       ??_C@_05DEJG@sort?$CB?$AA@ 00580d38     Kernel:Kernel.obj
 0003:00019d40       ??_C@_08OPPF@add_slot?$AA@ 00580d40     Kernel:Kernel.obj
 0003:00019d4c       ??_C@_04MMAH@hash?$AA@     00580d4c     Kernel:Kernel.obj
 0003:00019d54       ??_C@_01FCCL@?$CF?$AA@     00580d54     Kernel:Kernel.obj
 0003:00019d58       ??_C@_08JEPH@slot_get?$AA@ 00580d58     Kernel:Kernel.obj
 0003:00019d64       ??_C@_04MNLL@copy?$AA@     00580d64     Kernel:Kernel.obj
 0003:00019d70       ?CLMAXFLOAT@@3NA           00580d70     Kernel:Clstring.obj
 0003:00019d78       ?CLMINFLOAT@@3NA           00580d78     Kernel:Clstring.obj
 0003:00019d80       ??_C@_0CD@JJPE@________________________________@ 00580d80     Kernel:Clstring.obj
 0003:00019da4       ??_C@_0BM@IFAC@problem?5with?5the?5table?5?$CB?$CB?$CB?6?$AA@ 00580da4     Kernel:Clstring.obj
 0003:00019dc0       ??_C@_0BA@COHG@?5position?5is?5?$CFd?$AA@ 00580dc0     Kernel:Clstring.obj
 0003:00019dd0       ??_C@_0BK@NFLL@?5string?5is?5?$CFs?0?5module?3?$CFs?6?$AA@ 00580dd0     Kernel:Clstring.obj
 0003:00019dec       ??_C@_0CP@KPOH@______?5symbol?5debug?5s?5?$DN?5?$CFx?5_____@ 00580dec     Kernel:Clstring.obj
 0003:00019e1c       ??_C@_0BL@LLFG@?$DN?$DN?5bug?5because?5of?5cell?5?$CFd?6?$AA@ 00580e1c     Kernel:Clalloc.OBJ
 0003:00019e38       ??_C@_05CAEI@Chunk?$AA@    00580e38     Kernel:Clalloc.OBJ
 0003:00019e40       ??_C@_06JDBI@Object?$AA@   00580e40     Kernel:Clalloc.OBJ
 0003:00019e48       ??_C@_0CI@OAHD@ClAlloc?3?3makeAny?$CI?$CFd?$CJ?5?9?$DO?5?$CFx?5?$CIADR?5@ 00580e48     Kernel:Clalloc.OBJ
 0003:00019e70       ??_C@_0BL@DBFK@?$DN?$DN?$DN?$DN?$DN?$DN?5free?5bad?5guy?5?9?$DO?5?$CFd?6?$AA@ 00580e70     Kernel:Clalloc.OBJ
 0003:00019e8c       ??_C@_0BL@HAIG@Free?5chain?5OK?3?5?$CFd?5members?6?$AA@ 00580e8c     Kernel:Clalloc.OBJ
 0003:00019ea8       ??_C@_0BO@HDPE@?$FL?$CFd?$FN?5Chaine?5buggee?5?$CFd?5?9?$DO?5?$CFd?5?6?$AA@ 00580ea8     Kernel:Clalloc.OBJ
 0003:00019ec8       ??_C@_0M@CBGL@?5?4?4?4?5done?4?6?$AA@ 00580ec8     Kernel:Clalloc.OBJ
 0003:00019ed4       ??_C@_03EPOH@?$CFc?$CK?$AA@ 00580ed4     Kernel:Clalloc.OBJ
 0003:00019ed8       ??_C@_0BH@ODKK@?$CK?$FLO?$FN?5?$DN?5?$CFd?0?51?3?$CFd?0?52?3?$CFd?6?$AA@ 00580ed8     Kernel:Clalloc.OBJ
 0003:00019ef0       ??_C@_0CG@HEPH@?9?9?9?5the?5probe?5is?5?$CFd?5?9?$DO?5adr?5?$DN?5?$CFd?5@ 00580ef0     Kernel:Clalloc.OBJ
 0003:00019f18       ??_C@_0BJ@DJBF@Stack?5overflow?5during?5gc?$AA@ 00580f18     Kernel:Clalloc.OBJ
 0003:00019f34       ??_C@_0BL@HONM@probe?5found?5and?5marked?5?9?9?6?$AA@ 00580f34     Kernel:Clalloc.OBJ
 0003:00019f50       ??_C@_0CF@LOAM@primitive?5probe?5found?5and?5marked@ 00580f50     Kernel:Clalloc.OBJ
 0003:00019f78       ??_C@_0P@PMHA@bag?$FL?$CFd?$FN?5?9?$DO?5?$CFd?6?$AA@ 00580f78     Kernel:Clalloc.OBJ
 0003:00019f88       ??_C@_0BP@IHBK@bag?5probe?5found?5and?5marked?5?9?9?6?$AA@ 00580f88     Kernel:Clalloc.OBJ
 0003:00019fa8       ??_C@_0BI@HFJI@free?5the?5probe?5chunk?5?$CB?6?$AA@ 00580fa8     Kernel:Clalloc.OBJ
 0003:00019fc0       ??_C@_0BP@KDCD@free?5the?5probe?5short?5object?5?$CB?6?$AA@ 00580fc0     Kernel:Clalloc.OBJ
 0003:00019fe0       ??_C@_0CK@ODOD@OID?5?$CFd?5?$FLADR?5?$DN?5?$CFd?$FN?5has?5a?5corrupte@ 00580fe0     Kernel:Clalloc.OBJ
 0003:0001a00c       ??_C@_0CB@MBA@OID?5?$CFd?5?$FLADR?5?$DN?5?$CFd?$FN?5has?5been?5freed@ 0058100c     Kernel:Clalloc.OBJ
 0003:0001a030       ??_C@_0BO@JLKJ@OID?5?$CFd?5?$FLADR?5?$DN?5?$CFd?$FN?5has?5size?50?$CB?$AA@ 00581030     Kernel:Clalloc.OBJ
 0003:0001a050       ??_C@_08OGLI@?5Array?3?5?$AA@ 00581050     Kernel:Clalloc.OBJ
 0003:0001a05c       ??_C@_09OMIM@?5Object?3?5?$AA@ 0058105c     Kernel:Clalloc.OBJ
 0003:0001a068       ??_C@_09OFDP@?6String?3?5?$AA@ 00581068     Kernel:Clalloc.OBJ
 0003:0001a074       ??_C@_0O@GDPG@?6List?5usage?3?5?$AA@ 00581074     Kernel:Clalloc.OBJ
 0003:0001a084       ??_C@_0BF@FGJI@?5Max?5free?5bag?5size?3?5?$AA@ 00581084     Kernel:Clalloc.OBJ
 0003:0001a09c       ??_C@_05JOIP@Bag?3?5?$AA@  0058109c     Kernel:Clalloc.OBJ
 0003:0001a0a4       ??_C@_04DJPA@bag?$CI?$AA@  005810a4     Kernel:Clalloc.OBJ
 0003:0001a0ac       ??_C@_07EHHP@object?$CI?$AA@ 005810ac     Kernel:Clalloc.OBJ
 0003:0001a0b4       ??_C@_06MCJP@array?$CI?$AA@ 005810b4     Kernel:Clalloc.OBJ
 0003:0001a0bc       ??_C@_07CABE@string?$CI?$AA@ 005810bc     Kernel:Clalloc.OBJ
 0003:0001a0c4       ??_C@_0P@NENO@?6World?5stack?3?5?$AA@ 005810c4     Kernel:Clalloc.OBJ
 0003:0001a0d4       ??_C@_0BF@LEDB@?6Symbol?5allocation?3?5?$AA@ 005810d4     Kernel:Clalloc.OBJ
 0003:0001a0ec       ??_C@_0BJ@JIOL@?6Short?5item?5allocation?3?5?$AA@ 005810ec     Kernel:Clalloc.OBJ
 0003:0001a108       ??_C@_0BE@KEKB@?5used?5cells?5out?5of?5?$AA@ 00581108     Kernel:Clalloc.OBJ
 0003:0001a11c       ??_C@_0BD@FBHJ@Chunk?5allocation?3?5?$AA@ 0058111c     Kernel:Clalloc.OBJ
 0003:0001a130       ??_C@_0O@CMLN@Loglist?5?$DN?5?$CFd?6?$AA@ 00581130     Kernel:Clalloc.OBJ
 0003:0001a140       ??_C@_0BB@PDNN@Badguy?3?5?$CFd?0?5?$CFd?5?6?$AA@ 00581140     Kernel:Clalloc.OBJ
 0003:0001a154       ??_C@_0DM@KMJI@addFast?3?5complex?5insertion?5of?5OI@ 00581154     Kernel:Clbag.OBJ
 0003:0001a190       ??_C@_0BL@HENP@read?5slot?$FL?$CFd?$FN?5of?5?$CFd?5?9?$DO?5?$CFd?6?$AA@ 00581190     Kernel:Clreflect.obj
 0003:0001a1ac       ??_C@_02MECO@?$CFd?$AA@    005811ac     Kernel:Clreflect.obj
 0003:0001a1b0       ??_C@_0CJ@COOI@?$DN?$DN?$DN?5class?3?3make?5allocates?5a?5clas@ 005811b0     Kernel:Clreflect.obj
 0003:0001a1dc       ??_C@_0BM@CKBI@create?5a?5new?5?$HM?$CFs?$HM?5?$EA?5adr?5?$CFd?6?$AA@ 005811dc     Kernel:Clreflect.obj
 0003:0001a1f8       ??_C@_0BN@KBFI@?9?9?9?5create?5property?5?$CFs?5?$EA?5?$CFd?6?$AA@ 005811f8     Kernel:Clreflect.obj
 0003:0001a218       ??_C@_0BJ@EJI@I?5AM?5A?5BLOODY?5CPFile?5?$CB?$CB?6?$AA@ 00581218     Kernel:Clport.obj
 0003:0001a234       ??_C@_02DLJH@?$CFg?$AA@    00581234     Kernel:Clport.obj
 0003:0001a238       ??_C@_06PEEJ@?$CF0?420g?$AA@ 00581238     Kernel:Clport.obj
 0003:0001a240       ??_C@_04IFEM@?$CF?41f?$AA@ 00581240     Kernel:Clport.obj
 0003:0001a248       ??_C@_0CD@EOE@?1?1?5?9?9?9?9?5We?5could?5free?5a?5port?5?3?9?$CJ@ 00581248     Kernel:Clport.obj
 0003:0001a26c       ??_C@_0BI@PMDM@I?5AM?5A?5CPString?5Out?5?$CB?$CB?6?$AA@ 0058126c     Kernel:Clport.obj
 0003:0001a284       ??_C@_0BG@JMP@I?5AM?5A?5CPStringIn?5?$CB?$CB?6?$AA@ 00581284     Kernel:Clport.obj
 0003:0001a29c       ??_C@_04PNLD@_two?$AA@     0058129c     Kernel:Clport.obj
 0003:0001a2a4       ??_C@_07CLHI@_dollar?$AA@  005812a4     Kernel:Clport.obj
 0003:0001a2ac       ??_C@_06ONBH@_prime?$AA@   005812ac     Kernel:Clport.obj
 0003:0001a2b4       ??_C@_02EILG@L_?$AA@       005812b4     Kernel:Clport.obj
 0003:0001a2b8       ??_C@_06FGNM@_brack?$AA@   005812b8     Kernel:Clport.obj
 0003:0001a2c0       ??_C@_06GOCL@_tilda?$AA@   005812c0     Kernel:Clport.obj
 0003:0001a2c8       ??_C@_03BHEF@_at?$AA@      005812c8     Kernel:Clport.obj
 0003:0001a2cc       ??_C@_04PCOD@_exp?$AA@     005812cc     Kernel:Clport.obj
 0003:0001a2d4       ??_C@_06CCIA@_comma?$AA@   005812d4     Kernel:Clport.obj
 0003:0001a2dc       ??_C@_06EIFA@_equal?$AA@   005812dc     Kernel:Clport.obj
 0003:0001a2e4       ??_C@_04MGKK@_sup?$AA@     005812e4     Kernel:Clport.obj
 0003:0001a2ec       ??_C@_04GBFI@_inf?$AA@     005812ec     Kernel:Clport.obj
 0003:0001a2f4       ??_C@_02EPOC@_I?$AA@       005812f4     Kernel:Clport.obj
 0003:0001a2f8       ??_C@_04DGGD@_ask?$AA@     005812f8     Kernel:Clport.obj
 0003:0001a300       ??_C@_05GCKN@_star?$AA@    00581300     Kernel:Clport.obj
 0003:0001a308       ??_C@_02BJCL@_Z?$AA@       00581308     Kernel:Clport.obj
 0003:0001a30c       ??_C@_05CGBA@_plus?$AA@    0058130c     Kernel:Clport.obj
 0003:0001a314       ??_C@_05BJAO@_dash?$AA@    00581314     Kernel:Clport.obj
 0003:0001a31c       ??_C@_04KEMD@_and?$AA@     0058131c     Kernel:Clport.obj
 0003:0001a324       ??_C@_0L@LJCJ@_backslash?$AA@ 00581324     Kernel:Clport.obj
 0003:0001a330       ??_C@_02LKHI@_7?$AA@       00581330     Kernel:Clport.obj
 0003:0001a334       ??_C@_04BFF@_dot?$AA@      00581334     Kernel:Clport.obj
 0003:0001a33c       ??_C@_05CKH@ms?4?5?6?$AA@  0058133c     Kernel:Clport.obj
 0003:0001a344       ??_C@_0BB@NFFF@?$FN?5Elapsed?5time?3?5?$AA@ 00581344     Kernel:Clport.obj
 0003:0001a358       ??_C@_08OMEM@Counter?$FL?$AA@ 00581358     Kernel:Clport.obj
 0003:0001a368       ?CKernelRelease@@3NA       00581368     Kernel:Clenv.obj
 0003:0001a370       ??_C@_0P@GBCA@System?5Error?3?5?$AA@ 00581370     Kernel:Clenv.obj
 0003:0001a380       ??_C@_07FELA@?5?$FLline?5?$AA@ 00581380     Kernel:Clenv.obj
 0003:0001a388       ??_C@_0BN@BEGA@Assertion?5violation?5in?5file?5?$AA@ 00581388     Kernel:Clenv.obj
 0003:0001a3a8       ??_C@_0CK@JDPK@Aha?5?$CB?5?$FOC?5was?5entered?5on?5a?5PC?5?4?4?4@ 005813a8     Kernel:Clenv.obj
 0003:0001a3d4       ??_C@_0DA@BAAD@?6An?5error?5has?5occured?5in?5the?5com@ 005813d4     Kernel:Clenv.obj
 0003:0001a404       ??_C@_0CK@JLGA@increasing?5memory?5size?5by?52?$FO?$CFd?5a@ 00581404     Console:clConsole.obj
 0003:0001a430       ??_C@_02INOP@?9s?$AA@      00581430     Console:clConsole.obj
 0003:0001a434       ??_C@_0DK@KICL@There?5is?5not?5enough?5memory?5for?5C@ 00581434     Console:clConsole.obj
 0003:0001a470       ??_C@_08JOEH@?0?5line?3?5?$AA@ 00581470     Console:clConsole.obj
 0003:0001a47c       ??_C@_0M@PJAG@?9?9?9?9?5file?3?5?$AA@ 0058147c     Console:clConsole.obj
 0003:0001a488       ??_C@_03BIJ@?$FN?$DO?5?$AA@ 00581488     Console:clConsole.obj
 0003:0001a48c       ??_C@_05PLJF@eval?$FL?$AA@ 0058148c     Console:clConsole.obj
 0003:0001a494       ??_C@_02CPLA@?$DO?5?$AA@   00581494     Console:clConsole.obj
 0003:0001a498       ??_C@_0CO@MOBO@?$DO?$DO?$DO?$DO?$DO?$DO?$DO?$DO?$DO?$DO?$DO?$DO?$DO?$DO?5please?5fix?5the?5in@ 00581498     Console:clConsole.obj
 0003:0001a4c8       ??_C@_0CA@IELM@d?3?2claire?2v2?49?2src?2make?2init?4cl?$AA@ 005814c8     Console:clConsole.obj
 0003:0001a4e8       ??_C@_0CL@PFHB@?9?9?9?9?9?9?9?9?9?9?9?9?9?9?9?5Debug?5?9?9?9?9?9?9?9?9?9?9@ 005814e8     Console:clConsole.obj
 0003:0001a514       ??_C@_02CEFE@?9f?$AA@      00581514     Console:clConsole.obj
 0003:0001a518       ??_C@_0L@MAIF@?$CFs?$FL?$CFd?3?$CFd?$FN?$CI?$AA@ 00581518     Console:clConsole.obj
 0003:0001a524       ??_C@_07NPDM@?$DM?$CFs?3?$CFd?$DO?$AA@ 00581524     Console:clConsole.obj
 0003:0001a52c       ??_C@_07BKHE@method?$DM?$AA@ 0058152c     Console:clConsole.obj
 0003:0001a534       ??_C@_05NPA@slot?$DM?$AA@  00581534     Console:clConsole.obj
 0003:0001a53c       ??_C@_04ELGI@?8?$CFc?8?$AA@ 0058153c     Console:clConsole.obj
 0003:0001a544       ??_C@_06GNAI@CFALSE?$AA@   00581544     Console:clConsole.obj
 0003:0001a54c       ??_C@_05FEDN@CTRUE?$AA@    0058154c     Console:clConsole.obj
 0003:0001a554       ??_C@_03MEAP@?8?$CFs?$AA@  00581554     Console:clConsole.obj
 0003:0001a558       ??_C@_06HLEI@?$EA?$CFd?6?0?5?$AA@ 00581558     Console:clConsole.obj
 0003:0001a560       ??_C@_05CLBC@EMPTY?$AA@    00581560     Console:clConsole.obj
 0003:0001a568       ??_C@_0O@PCKO@Chunk?$FL?$CFd?3?$CFd?$FN?$CI?$AA@ 00581568     Console:clConsole.obj
 0003:0001a578       ??_C@_07DBHD@NOTHING?$AA@  00581578     Console:clConsole.obj
 0003:0001a580       ??_C@_05OIDB@CNULL?$AA@    00581580     Console:clConsole.obj
 0003:0001a588       ??_C@_04HPGM@?$CFs?3?5?$AA@ 00581588     Console:clConsole.obj
 0003:0001a590       __aexit_rtn                00581590     LIBC:crt0.obj
 0003:0001a594       ___app_type                00581594     LIBC:crt0.obj
 0003:0001a5a0       __fltused                  005815a0     LIBC:fpinit.obj
 0003:0001a5a4       __ldused                   005815a4     LIBC:fpinit.obj
 0003:0001a5a8       __FPinit                   005815a8     LIBC:fpinit.obj
 0003:0001a5ac       __FPmtinit                 005815ac     LIBC:fpinit.obj
 0003:0001a5b0       __FPmtterm                 005815b0     LIBC:fpinit.obj
 0003:0001a5c0       __half                     005815c0     LIBC:pow.obj
 0003:0001a5d8       __iob                      005815d8     LIBC:_file.obj
 0003:0001a858       __XcptActTab               00581858     LIBC:winxfltr.obj
 0003:0001a8d0       __First_FPE_Indx           005818d0     LIBC:winxfltr.obj
 0003:0001a8d4       __Num_FPE                  005818d4     LIBC:winxfltr.obj
 0003:0001a8d8       __XcptActTabCount          005818d8     LIBC:winxfltr.obj
 0003:0001a8dc       __fpecode                  005818dc     LIBC:winxfltr.obj
 0003:0001a8e0       ___badioinfo               005818e0     LIBC:ioinit.obj
 0003:0001a8e8       __amblksiz                 005818e8     LIBC:heapinit.obj
 0003:0001a8ec       __NLG_Destination          005818ec     LIBC:exsup.obj
 0003:0001a990       __cfltcvt_tab              00581990     LIBC:cmiscdat.obj
 0003:0001a9b0       __infinity                 005819b0     LIBC:87tran.obj
 0003:0001a9ba       __minfinity                005819ba     LIBC:87tran.obj
 0003:0001a9c4       __logemax                  005819c4     LIBC:87tran.obj
 0003:0001a9f4       __OP_EXPjmptab             005819f4     LIBC:87tran.obj
 0003:0001aa20       __indefinite               00581a20     LIBC:87disp.obj
 0003:0001aa2a       __piby2                    00581a2a     LIBC:87disp.obj
 0003:0001aa3c       __cpower                   00581a3c     LIBC:87disp.obj
 0003:0001aa50       __pctype                   00581a50     LIBC:ctype.obj
 0003:0001aa54       __pwctype                  00581a54     LIBC:ctype.obj
 0003:0001aa58       __ctype                    00581a58     LIBC:ctype.obj
 0003:0001ac5c       ___mb_cur_max              00581c5c     LIBC:nlsdata1.obj
 0003:0001ac60       ___decimal_point           00581c60     LIBC:nlsdata1.obj
 0003:0001ac64       ___decimal_point_length    00581c64     LIBC:nlsdata1.obj
 0003:0001ac68       __timezone                 00581c68     LIBC:timeset.obj
 0003:0001ac6c       __daylight                 00581c6c     LIBC:timeset.obj
 0003:0001ac70       __dstbias                  00581c70     LIBC:timeset.obj
 0003:0001acf4       __tzname                   00581cf4     LIBC:timeset.obj
 0003:0001ad1c       ___nullstring              00581d1c     LIBC:output.obj
 0003:0001ad20       ___wnullstring             00581d20     LIBC:output.obj
 0003:0001ae00       __d_inf                    00581e00     LIBC:util.obj
 0003:0001ae08       __d_ind                    00581e08     LIBC:util.obj
 0003:0001ae10       __d_max                    00581e10     LIBC:util.obj
 0003:0001ae18       __d_min                    00581e18     LIBC:util.obj
 0003:0001ae20       __d_mzero                  00581e20     LIBC:util.obj
 0003:0001ae60       ___sbh_threshold           00581e60     LIBC:sbheap.obj
 0003:0001b100       __lpdays                   00582100     LIBC:days.obj
 0003:0001b134       __days                     00582134     LIBC:days.obj
 0003:0001b170       __matherr_flag             00582170     LIBC:matherr.obj
 0003:0001b2e8       __p_overlay                005822e8     LIBC:dospawn.obj
 0003:0001b2f0       __pow10pos                 005822f0     LIBC:constpow.obj
 0003:0001b450       __pow10neg                 00582450     LIBC:constpow.obj
 0003:00020bc8       ?Core@@3VCoreClass@@A      00587bc8     Core:Core.obj
 0003:00020ed0       ??_C@_00A@?$AA@            00587ed0     Core:function.obj
 0003:00020ed8       ?Language@@3VLanguageClass@@A 00587ed8     Language:Language.obj
 0003:00021124       ?iClaire@@3VNameSpace@@A   00588124     Language:Language.obj
 0003:00021128       ?Reader@@3VReaderClass@@A  00588128     Reader:Reader.obj
 0003:000213e0       ?choco@@3VchocoClass@@A    005883e0     choco:choco.obj
 0003:00022148       ?ice@@3ViceClass@@A        00589148     ice:ice.obj
 0003:00022358       ?mClaire@@3VNameSpace@@A   00589358     Kernel:Kernel.obj
 0003:0002235c       ?claire@@3VNameSpace@@A    0058935c     Kernel:Kernel.obj
 0003:00022360       ?Kernel@@3VKernelClass@@A  00589360     Kernel:Kernel.obj
 0003:000226a0       ?ClEnv@@3PAVClaireEnvironment@@A 005896a0     Kernel:Kernel.obj
 0003:000226a4       ?CNULL@@3HA                005896a4     Kernel:Kernel.obj
 0003:000226a8       ?ClRes@@3PAVClaireResource@@A 005896a8     Kernel:Kernel.obj
 0003:000226ac       ?CFALSE@@3PAVClaireBoolean@@A 005896ac     Kernel:Kernel.obj
 0003:000226b0       ?ClAlloc@@3PAVClaireAllocation@@A 005896b0     Kernel:Clalloc.OBJ
 0003:000226b4       ?CL_dummy@@3PAHA           005896b4     Kernel:Clalloc.OBJ
 0003:000226b8       ?Cmemory@@3PAHA            005896b8     Kernel:Clalloc.OBJ
 0003:000226bc       ?BadGuy@@3HA               005896bc     Kernel:Clalloc.OBJ
 0003:000226c0       ?maxIndex@@3HA             005896c0     Kernel:Clalloc.OBJ
 0003:000226c4       ?MyMark@@3PAVCPFile@@A     005896c4     Kernel:Clport.obj
 0003:0002272c       ?store_d@@3HA              0058972c     Console:clConsole.obj
 0003:00022730       ?store_i@@3HA              00589730     Console:clConsole.obj
 0003:00022734       ?store_b@@3HA              00589734     Console:clConsole.obj
 0003:00022738       ?STACK@@3PAVlist@@A        00589738     Console:clConsole.obj
 0003:0002273c       ?NBEVAL@@3HA               0058973c     Console:clConsole.obj
 0003:00022740       ?MODE@@3HA                 00589740     Console:clConsole.obj
 0003:00022744       __aenvptr                  00589744     LIBC:crt0.obj
 0003:00022748       __wenvptr                  00589748     LIBC:crt0.obj
 0003:0002274c       ___error_mode              0058974c     LIBC:crt0.obj
 0003:00022750       ___fastflag                00589750     LIBC:fpinit.obj
 0003:00022754       __adjust_fdiv              00589754     LIBC:fpinit.obj
 0003:000227ac       _errno                     005897ac     LIBC:crt0dat.obj
 0003:000227b0       __doserrno                 005897b0     LIBC:crt0dat.obj
 0003:000227b4       __umaskval                 005897b4     LIBC:crt0dat.obj
 0003:000227b8       __osver                    005897b8     LIBC:crt0dat.obj
 0003:000227bc       __winver                   005897bc     LIBC:crt0dat.obj
 0003:000227c0       __winmajor                 005897c0     LIBC:crt0dat.obj
 0003:000227c4       __winminor                 005897c4     LIBC:crt0dat.obj
 0003:000227c8       ___argc                    005897c8     LIBC:crt0dat.obj
 0003:000227cc       ___argv                    005897cc     LIBC:crt0dat.obj
 0003:000227d0       ___wargv                   005897d0     LIBC:crt0dat.obj
 0003:000227d4       __environ                  005897d4     LIBC:crt0dat.obj
 0003:000227d8       ___initenv                 005897d8     LIBC:crt0dat.obj
 0003:000227dc       __wenviron                 005897dc     LIBC:crt0dat.obj
 0003:000227e0       ___winitenv                005897e0     LIBC:crt0dat.obj
 0003:000227e4       __pgmptr                   005897e4     LIBC:crt0dat.obj
 0003:000227e8       __wpgmptr                  005897e8     LIBC:crt0dat.obj
 0003:000227ec       __exitflag                 005897ec     LIBC:crt0dat.obj
 0003:000227f0       __C_Termination_Done       005897f0     LIBC:crt0dat.obj
 0003:000227f4       __C_Exit_Done              005897f4     LIBC:crt0dat.obj
 0003:000227f8       __cflush                   005897f8     LIBC:_file.obj
 0003:000227fc       __pxcptinfoptrs            005897fc     LIBC:winxfltr.obj
 0003:00022908       __adbgmsg                  00589908     LIBC:crt0msg.obj
 0003:00022a04       __stdbuf                   00589a04     LIBC:_sftbuf.obj
 0003:00022a0c       __newmode                  00589a0c     LIBC:_newmode.obj
 0003:00022a10       ?_pnhHeap@@3P6AHI@ZA       00589a10     LIBC:handler.obj
 0003:00022a5c       ___lc_handle               00589a5c     LIBC:nlsdata2.obj
 0003:00022a74       ___lc_codepage             00589a74     LIBC:nlsdata2.obj
 0003:00022a78       ___lc_collate_cp           00589a78     LIBC:nlsdata2.obj
 0003:00022a84       __commode                  00589a84     LIBC:ncommode.obj
 0003:00022a88       __fmode                    00589a88     LIBC:txtmode.obj
 0003:00022a8c       ___mbcodepage              00589a8c     <common>
 0003:00022b10       ___mbulinfo                00589b10     <common>
 0003:00022b1c       ___ismbcodepage            00589b1c     <common>
 0003:00022b20       __mbcasemap                00589b20     <common>
 0003:00022c20       __mbctype                  00589c20     <common>
 0003:00022d24       ___mblcid                  00589d24     <common>
 0003:00022d28       ___sbh_sizeHeaderList      00589d28     <common>
 0003:00022d38       ___sbh_indGroupDefer       00589d38     <common>
 0003:00022d3c       ___sbh_pHeaderScan         00589d3c     <common>
 0003:00022d40       ___sbh_pHeaderDefer        00589d40     <common>
 0003:00022d44       ___sbh_cntHeaderList       00589d44     <common>
 0003:00022d48       ___sbh_pHeaderList         00589d48     <common>
 0003:00022d4c       __crtheap                  00589d4c     <common>
 0003:00022d60       ___pioinfo                 00589d60     <common>
 0003:00022e9c       __nhandle                  00589e9c     <common>
 0003:00022ea0       ___piob                    00589ea0     <common>
 0003:000231e0       __bufin                    0058a1e0     <common>
 0003:000241e0       __nstream                  0058b1e0     <common>
 0003:000241e4       ___env_initialized         0058b1e4     <common>
 0003:000241f4       ___mbctype_initialized     0058b1f4     <common>
 0003:000241f8       ___onexitend               0058b1f8     <common>
 0003:000241fc       ___onexitbegin             0058b1fc     <common>
 0003:00024200       __setjmpexused             0058b200     <common>
 0003:0002420c       __acmdln                   0058b20c     <common>
 0004:00000000       __IMPORT_DESCRIPTOR_KERNEL32 0058c000     kernel32:KERNEL32.dll
 0004:00000014       __NULL_IMPORT_DESCRIPTOR   0058c014     kernel32:KERNEL32.dll
 0004:00000168       __imp__GetProcAddress@8    0058c168     kernel32:KERNEL32.dll
 0004:0000016c       __imp__GetVersion@0        0058c16c     kernel32:KERNEL32.dll
 0004:00000170       __imp__ExitProcess@4       0058c170     kernel32:KERNEL32.dll
 0004:00000174       __imp__GetTimeZoneInformation@4 0058c174     kernel32:KERNEL32.dll
 0004:00000178       __imp__GetSystemTime@4     0058c178     kernel32:KERNEL32.dll
 0004:0000017c       __imp__GetLocalTime@4      0058c17c     kernel32:KERNEL32.dll
 0004:00000180       __imp__GetSystemTimeAsFileTime@4 0058c180     kernel32:KERNEL32.dll
 0004:00000184       __imp__GetLastError@0      0058c184     kernel32:KERNEL32.dll
 0004:00000188       __imp__SetConsoleCtrlHandler@8 0058c188     kernel32:KERNEL32.dll
 0004:0000018c       __imp__TerminateProcess@8  0058c18c     kernel32:KERNEL32.dll
 0004:00000190       __imp__GetCurrentProcess@0 0058c190     kernel32:KERNEL32.dll
 0004:00000194       __imp__HeapAlloc@12        0058c194     kernel32:KERNEL32.dll
 0004:00000198       __imp__UnhandledExceptionFilter@4 0058c198     kernel32:KERNEL32.dll
 0004:0000019c       __imp__GetModuleFileNameA@12 0058c19c     kernel32:KERNEL32.dll
 0004:000001a0       __imp__FreeEnvironmentStringsA@4 0058c1a0     kernel32:KERNEL32.dll
 0004:000001a4       __imp__FreeEnvironmentStringsW@4 0058c1a4     kernel32:KERNEL32.dll
 0004:000001a8       __imp__WideCharToMultiByte@32 0058c1a8     kernel32:KERNEL32.dll
 0004:000001ac       __imp__GetEnvironmentStrings@0 0058c1ac     kernel32:KERNEL32.dll
 0004:000001b0       __imp__GetEnvironmentStringsW@0 0058c1b0     kernel32:KERNEL32.dll
 0004:000001b4       __imp__SetHandleCount@4    0058c1b4     kernel32:KERNEL32.dll
 0004:000001b8       __imp__GetStdHandle@4      0058c1b8     kernel32:KERNEL32.dll
 0004:000001bc       __imp__GetFileType@4       0058c1bc     kernel32:KERNEL32.dll
 0004:000001c0       __imp__GetStartupInfoA@4   0058c1c0     kernel32:KERNEL32.dll
 0004:000001c4       __imp__HeapDestroy@4       0058c1c4     kernel32:KERNEL32.dll
 0004:000001c8       __imp__HeapCreate@12       0058c1c8     kernel32:KERNEL32.dll
 0004:000001cc       __imp__VirtualFree@12      0058c1cc     kernel32:KERNEL32.dll
 0004:000001d0       __imp__HeapFree@12         0058c1d0     kernel32:KERNEL32.dll
 0004:000001d4       __imp__RtlUnwind@16        0058c1d4     kernel32:KERNEL32.dll
 0004:000001d8       __imp__WriteFile@20        0058c1d8     kernel32:KERNEL32.dll
 0004:000001dc       __imp__GetCommandLineA@0   0058c1dc     kernel32:KERNEL32.dll
 0004:000001e0       __imp__GetModuleHandleA@4  0058c1e0     kernel32:KERNEL32.dll
 0004:000001e4       __imp__RaiseException@16   0058c1e4     kernel32:KERNEL32.dll
 0004:000001e8       __imp__ReadFile@20         0058c1e8     kernel32:KERNEL32.dll
 0004:000001ec       __imp__SetFilePointer@16   0058c1ec     kernel32:KERNEL32.dll
 0004:000001f0       __imp__FlushFileBuffers@4  0058c1f0     kernel32:KERNEL32.dll
 0004:000001f4       __imp__CloseHandle@4       0058c1f4     kernel32:KERNEL32.dll
 0004:000001f8       __imp__GetFileAttributesA@4 0058c1f8     kernel32:KERNEL32.dll
 0004:000001fc       __imp__VirtualAlloc@16     0058c1fc     kernel32:KERNEL32.dll
 0004:00000200       __imp__HeapReAlloc@16      0058c200     kernel32:KERNEL32.dll
 0004:00000204       __imp__IsBadWritePtr@8     0058c204     kernel32:KERNEL32.dll
 0004:00000208       __imp__GetCPInfo@8         0058c208     kernel32:KERNEL32.dll
 0004:0000020c       __imp__GetACP@0            0058c20c     kernel32:KERNEL32.dll
 0004:00000210       __imp__GetOEMCP@0          0058c210     kernel32:KERNEL32.dll
 0004:00000214       __imp__LoadLibraryA@4      0058c214     kernel32:KERNEL32.dll
 0004:00000218       __imp__MultiByteToWideChar@24 0058c218     kernel32:KERNEL32.dll
 0004:0000021c       __imp__LCMapStringA@24     0058c21c     kernel32:KERNEL32.dll
 0004:00000220       __imp__LCMapStringW@24     0058c220     kernel32:KERNEL32.dll
 0004:00000224       __imp__GetStringTypeA@20   0058c224     kernel32:KERNEL32.dll
 0004:00000228       __imp__GetStringTypeW@16   0058c228     kernel32:KERNEL32.dll
 0004:0000022c       __imp__CompareStringA@24   0058c22c     kernel32:KERNEL32.dll
 0004:00000230       __imp__CompareStringW@24   0058c230     kernel32:KERNEL32.dll
 0004:00000234       __imp__SetEnvironmentVariableA@8 0058c234     kernel32:KERNEL32.dll
 0004:00000238       __imp__SetStdHandle@8      0058c238     kernel32:KERNEL32.dll
 0004:0000023c       __imp__CreateFileA@28      0058c23c     kernel32:KERNEL32.dll
 0004:00000240       __imp__GetExitCodeProcess@8 0058c240     kernel32:KERNEL32.dll
 0004:00000244       __imp__WaitForSingleObject@8 0058c244     kernel32:KERNEL32.dll
 0004:00000248       __imp__CreateProcessA@40   0058c248     kernel32:KERNEL32.dll
 0004:0000024c       __imp__SetEndOfFile@4      0058c24c     kernel32:KERNEL32.dll
 0004:00000250       \177KERNEL32_NULL_THUNK_DATA 0058c250     kernel32:KERNEL32.dll

 entry point at        0001:00110350

