 sclaire

 Timestamp is 3e4bfae7 (Thu Feb 13 21:07:03 2003)

 Preferred load address is 00400000

 Start         Length     Name                   Class
 0001:00000000 000dcf5dH .text                   CODE
 0002:00000000 000008deH .rdata                  DATA
 0002:000008de 00000000H .edata                  DATA
 0003:00000000 00000104H .CRT$XCA                DATA
 0003:00000104 00000104H .CRT$XCZ                DATA
 0003:00000208 00000104H .CRT$XIA                DATA
 0003:0000030c 0000010eH .CRT$XIC                DATA
 0003:0000041c 00000104H .CRT$XIZ                DATA
 0003:00000520 00000104H .CRT$XPA                DATA
 0003:00000624 00000104H .CRT$XPX                DATA
 0003:00000728 00000104H .CRT$XPZ                DATA
 0003:0000082c 00000104H .CRT$XTA                DATA
 0003:00000930 00000104H .CRT$XTZ                DATA
 0003:00000a40 00011ebaH .data                   DATA
 0003:00012900 00002c38H .bss                    DATA
 0004:00000000 00000014H .idata$2                DATA
 0004:00000014 00000014H .idata$3                DATA
 0004:00000028 00000140H .idata$4                DATA
 0004:00000168 00000140H .idata$5                DATA
 0004:000002a8 00000585H .idata$6                DATA

  Address         Publics by Value              Rva+Base     Lib:Object

 0001:00000080       ?loadModules@@YAXXZ        00401080 f   cclaire-s.obj
 0001:000006b0       ?call_main@@YAXXZ          004016b0 f   cclaire-s.obj
 0001:000006d0       ?external_I_module@@YAPADPAVmodule@@@Z 004016d0 f   ccmain.obj
 0001:00000700       ?string2module_string@@YAPAVmodule@@PAD@Z 00401700 f   ccmain.obj
 0001:00000840       ?printHelp_void@@YAXXZ     00401840 f   ccmain.obj
 0001:00000960       ?main_list@@YAXPAVlist@@@Z 00401960 f   ccmain.obj
 0001:00002120       ?function_compile_string@@YAXPAD0@Z 00403120 f   ccmain.obj
 0001:00002520       ?lib_I_any@@YAXHPAVlist@@@Z 00403520 f   ccmain.obj
 0001:000029b0       ?files_I_any@@YAXHPAVClaireBoolean@@PAD@Z 004039b0 f   ccmain.obj
 0001:00002de0       ?cmakefile_any@@YAXHPAD@Z  00403de0 f   ccmain.obj
 0001:000031c0       ?create_makefile_nt_any@@YAXHPADPAVlist@@@Z 004041c0 f   ccmain.obj
 0001:00003ad0       ?create_makefile_unix_any@@YAXHPADPAVlist@@@Z 00404ad0 f   ccmain.obj
 0001:00004270       ?metaLoad@CoreClass@@QAEXXZ 00405270 f   Core:Core.obj
 0001:0000b550       ?release_void@@YAHXZ       0040c550 f   Core:object.obj
 0001:0000b590       ?about_void@@YAHXZ         0040c590 f   Core:object.obj
 0001:0000b700       ?get_args_integer@@YAPAVlist@@H@Z 0040c700 f   Core:object.obj
 0001:0000b7b0       ?funcall_method1@@YAHPAVmethod@@H@Z 0040c7b0 f   Core:object.obj
 0001:0000b7f0       ?funcall_method2@@YAHPAVmethod@@HH@Z 0040c7f0 f   Core:object.obj
 0001:0000b850       ?funcall_method3@@YAHPAVmethod@@HHH@Z 0040c850 f   Core:object.obj
 0001:0000b8e0       ?apply_function@@YAHPAVClaireFunction@@PAVlist@@1@Z 0040c8e0 f   Core:object.obj
 0001:0000b950       ?call_property@@YAHPAVproperty@@PAVlistargs@@@Z 0040c950 f   Core:object.obj
 0001:0000b970       ?apply_property@@YAHPAVproperty@@PAVlist@@@Z 0040c970 f   Core:object.obj
 0001:0000ba20       ?apply_method@@YAHPAVmethod@@PAVlist@@@Z 0040ca20 f   Core:object.obj
 0001:0000ba90       ?push_debug_property@@YAXPAVproperty@@HH@Z 0040ca90 f   Core:object.obj
 0001:0000c0d0       ?pop_debug_property@@YAXPAVproperty@@HH@Z 0040d0d0 f   Core:object.obj
 0001:0000c2e0       ?tr_indent_boolean@@YAXPAVClaireBoolean@@H@Z 0040d2e0 f   Core:object.obj
 0001:0000c370       ?identified_ask_class@@YAPAVClaireBoolean@@PAVClaireClass@@@Z 0040d370 f   Core:object.obj
 0001:0000c400       ?identical_ask_any@@YAPAVClaireBoolean@@HH@Z 0040d400 f   Core:object.obj
 0001:0000c420       ?put_property2@@YAHPAVproperty@@PAVClaireObject@@H@Z 0040d420 f   Core:object.obj
 0001:0000c570       ?add_value_property3@@YAXPAVproperty@@PAVClaireObject@@H@Z 0040d570 f   Core:object.obj
 0001:0000c770       ?nth_table1@@YAHPAVtable@@H@Z 0040d770 f   Core:object.obj
 0001:0000c9c0       ?nth_table1_type@@YAPAVClaireType@@PAV1@0@Z 0040d9c0 f   Core:object.obj
 0001:0000ca90       ?get_table@@YAHPAVtable@@H@Z 0040da90 f   Core:object.obj
 0001:0000cae0       ?get_table_type@@YAPAVClaireType@@PAV1@0@Z 0040dae0 f   Core:object.obj
 0001:0000cbe0       ?nth_equal_table1@@YAXPAVtable@@HH@Z 0040dbe0 f   Core:object.obj
 0001:0000cce0       ?nth_put_table@@YAXPAVtable@@HH@Z 0040dce0 f   Core:object.obj
 0001:0000d000       ?put_table@@YAXPAVtable@@HH@Z 0040e000 f   Core:object.obj
 0001:0000d180       ?add_table@@YAXPAVtable@@HH@Z 0040e180 f   Core:object.obj
 0001:0000d290       ?add_I_table@@YAXPAVtable@@HH@Z 0040e290 f   Core:object.obj
 0001:0000d310       ?add_value_array@@YAPAVClaireBoolean@@PAVtable@@HPAVbag@@H@Z 0040e310 f   Core:object.obj
 0001:0000d4a0       ?add_value_table3@@YAXPAVtable@@HH@Z 0040e4a0 f   Core:object.obj
 0001:0000d4e0       ?delete_table@@YAHPAVtable@@HH@Z 0040e4e0 f   Core:object.obj
 0001:0000d590       ?nth_table2@@YAHPAVtable@@HH@Z 0040e590 f   Core:object.obj
 0001:0000d780       ?nth_table2_type@@YAPAVClaireType@@PAV1@00@Z 0040e780 f   Core:object.obj
 0001:0000d850       ?nth_equal_table2@@YAXPAVtable@@HHH@Z 0040e850 f   Core:object.obj
 0001:0000da90       ?get_index_table1@@YAHPAVtable@@H@Z 0040ea90 f   Core:object.obj
 0001:0000dbb0       ?get_index_table2@@YAHPAVtable@@HH@Z 0040ebb0 f   Core:object.obj
 0001:0000dbe0       ?erase_table@@YAHPAVtable@@@Z 0040ebe0 f   Core:object.obj
 0001:0000deb0       ?make_table_type@@YAPAVtable@@PAVClaireType@@0H@Z 0040eeb0 f   Core:object.obj
 0001:0000df10       ?funcall_lambda1@@YAHPAVlambda@@H@Z 0040ef10 f   Core:object.obj
 0001:0000e030       ?funcall_lambda2@@YAHPAVlambda@@HH@Z 0040f030 f   Core:object.obj
 0001:0000e170       ?funcall_lambda3@@YAHPAVlambda@@HHH@Z 0040f170 f   Core:object.obj
 0001:0000e2d0       ?check_inverse_any@@YAXHH@Z 0040f2d0 f   Core:object.obj
 0001:0000e4a0       ?invert_relation@@YAPAVbag@@PAVClaireRelation@@H@Z 0040f4a0 f   Core:object.obj
 0001:0000ea70       ?domain_I_restriction@@YAPAVClaireClass@@PAVrestriction@@@Z 0040fa70 f   Core:object.obj
 0001:0000eaa0       ?methods_class@@YAPAVset@@PAVClaireClass@@0@Z 0040faa0 f   Core:object.obj
 0001:0000ebf0       ?reify_listargs@@YAHPAVlistargs@@@Z 0040fbf0 f   Core:object.obj
 0001:0000ecd0       ?self_print_general_error_Core@@YAXPAVgeneral_error@@@Z 0040fcd0 f   Core:object.obj
 0001:0000edb0       ?self_print_read_slot_error_Core@@YAXPAVread_slot_error@@@Z 0040fdb0 f   Core:object.obj
 0001:0000ee80       ?self_print_range_error_Core@@YAXPAVrange_error@@@Z 0040fe80 f   Core:object.obj
 0001:0000ef70       ?self_print_selector_error_Core@@YAXPAVselector_error@@@Z 0040ff70 f   Core:object.obj
 0001:0000f0a0       ?self_print_return_error_Core@@YAXPAVreturn_error@@@Z 004100a0 f   Core:object.obj
 0001:0000f0b0       ?self_print_system_error_Core@@YAXPAVsystem_error@@@Z 004100b0 f   Core:object.obj
 0001:0000f3b0       ?self_print_contradiction_Core@@YAXPAVcontradiction@@@Z 004103b0 f   Core:object.obj
 0001:0000f3c0       ?format_string@@YAXPADPAVlist@@@Z 004103c0 f   Core:object.obj
 0001:0000f570       ?tformat_string@@YAHPADHPAVlist@@@Z 00410570 f   Core:object.obj
 0001:0000f5c0       ?princ_bag@@YAXPAVbag@@@Z  004105c0 f   Core:object.obj
 0001:0000f620       ?close_global_variable@@YAPAVglobal_variable@@PAV1@@Z 00410620 f   Core:object.obj
 0001:0000f6a0       ?contradiction_I_void@@YAXXZ 004106a0 f   Core:object.obj
 0001:0000f6c0       ?print_in_string_void@@YAXXZ 004106c0 f   Core:function.obj
 0001:0000f770       ?end_of_print_void@@YAPADXZ 00410770 f   Core:function.obj
 0001:0000f7b0       ?buffer_length_void@@YAHXZ 004107b0 f   Core:function.obj
 0001:0000f7d0       ?buffer_set_length_integer@@YAXH@Z 004107d0 f   Core:function.obj
 0001:0000f7f0       ?apply_self_print_any@@YAXH@Z 004107f0 f   Core:function.obj
 0001:0000fb40       ?self_print_any_Core@@YAXH@Z 00410b40 f   Core:function.obj
 0001:0000fbb0       ?self_print_boolean_Core@@YAXPAVClaireBoolean@@@Z 00410bb0 f   Core:function.obj
 0001:0000fbe0       ?self_print_function_Core@@YAXPAVClaireFunction@@@Z 00410be0 f   Core:function.obj
 0001:0000fc10       ?self_print_restriction_Core@@YAXPAVrestriction@@@Z 00410c10 f   Core:function.obj
 0001:0000fd40       ?print_any@@YAXH@Z         00410d40 f   Core:function.obj
 0001:0000ff10       ?short_enough_integer@@YAPAVClaireBoolean@@H@Z 00410f10 f   Core:function.obj
 0001:0000ff30       ?complete_I_object@@YAPAVClaireObject@@PAV1@@Z 00410f30 f   Core:function.obj
 0001:00010270       ?not_any@@YAPAVClaireBoolean@@H@Z 00411270 f   Core:function.obj
 0001:000102b0       ?_I_equal_any@@YAPAVClaireBoolean@@HH@Z 004112b0 f   Core:function.obj
 0001:000102e0       ?owner_any@@YAPAVClaireClass@@H@Z 004112e0 f   Core:function.obj
 0001:00010310       ?known_ask_any@@YAPAVClaireBoolean@@H@Z 00411310 f   Core:function.obj
 0001:00010330       ?unknown_ask_any@@YAPAVClaireBoolean@@H@Z 00411330 f   Core:function.obj
 0001:00010350       ?check_in_any@@YAHHPAVClaireType@@@Z 00411350 f   Core:function.obj
 0001:000103f0       ?check_in_bag@@YAPAVbag@@PAV1@PAVClaireClass@@PAVClaireType@@@Z 004113f0 f   Core:function.obj
 0001:00010500       ?_inf_any@@YAPAVClaireBoolean@@HH@Z 00411500 f   Core:function.obj
 0001:00010550       ?_sup_any@@YAPAVClaireBoolean@@HH@Z 00411550 f   Core:function.obj
 0001:000105a0       ?ephemeral_class@@YAHPAVClaireClass@@@Z 004115a0 f   Core:function.obj
 0001:00010690       ?abstract_class@@YAHPAVClaireClass@@@Z 00411690 f   Core:function.obj
 0001:00010740       ?final_class@@YAHPAVClaireClass@@@Z 00411740 f   Core:function.obj
 0001:000107f0       ?new_class1@@YAPAVClaireObject@@PAVClaireClass@@@Z 004117f0 f   Core:function.obj
 0001:00010930       ?new_class1_type@@YAPAVClaireType@@PAV1@@Z 00411930 f   Core:function.obj
 0001:000109e0       ?new_class2@@YAPAVthing@@PAVClaireClass@@PAVsymbol@@@Z 004119e0 f   Core:function.obj
 0001:00010a60       ?new_class2_type@@YAPAVClaireType@@PAV1@0@Z 00411a60 f   Core:function.obj
 0001:00010b10       ?new_object_class_type@@YAPAVClaireType@@PAV1@@Z 00411b10 f   Core:function.obj
 0001:00010bc0       ?new_thing_class_type@@YAPAVClaireType@@PAV1@0@Z 00411bc0 f   Core:function.obj
 0001:00010c70       ?meet_class@@YAPAVClaireClass@@PAV1@0@Z 00411c70 f   Core:function.obj
 0001:00010cf0       ?inherit_ask_class@@YAPAVClaireBoolean@@PAVClaireClass@@0@Z 00411cf0 f   Core:function.obj
 0001:00010d30       ?abstract_property@@YAHPAVproperty@@@Z 00411d30 f   Core:function.obj
 0001:00010dd0       ?final_relation@@YAXPAVClaireRelation@@@Z 00411dd0 f   Core:function.obj
 0001:00010f60       ?close_module@@YAPAVmodule@@PAV1@@Z 00411f60 f   Core:function.obj
 0001:00011140       ?get_symbol_string@@YAHPAD@Z 00412140 f   Core:function.obj
 0001:00011160       ?gensym_void@@YAPAVsymbol@@XZ 00412160 f   Core:function.obj
 0001:00011170       ?store_list4@@YAHPAVlist@@HH@Z 00412170 f   Core:function.obj
 0001:00011220       ?store_array1@@YAHPAHHH@Z  00412220 f   Core:function.obj
 0001:00011240       ?commit_integer@@YAXH@Z    00412240 f   Core:function.obj
 0001:00011260       ?backtrack_integer@@YAXH@Z 00412260 f   Core:function.obj
 0001:00011280       ?store_listargs@@YAHPAVlistargs@@@Z 00412280 f   Core:function.obj
 0001:00011420       ?symbol_I_string2@@YAPAVsymbol@@PAD@Z 00412420 f   Core:function.obj
 0001:00011440       ?externC_string@@YAXPAD@Z  00412440 f   Core:function.obj
 0001:000114a0       ?externC_string2@@YAHPADPAVClaireClass@@@Z 004124a0 f   Core:function.obj
 0001:00011510       ?externC_string2_type@@YAPAVClaireType@@PAV1@0@Z 00412510 f   Core:function.obj
 0001:00011520       ?nth_get_string@@YAPAVClaireChar@@PADHH@Z 00412520 f   Core:function.obj
 0001:00011590       ?nth_put_string@@YAXPADHPAVClaireChar@@H@Z 00412590 f   Core:function.obj
 0001:000115f0       ?make_string_symbol@@YAPADPAVsymbol@@@Z 004125f0 f   Core:function.obj
 0001:00011610       ?self_print_symbol_Core@@YAHPAVsymbol@@@Z 00412610 f   Core:function.obj
 0001:00011670       ?_plus_integer@@YAHHH@Z    00412670 f   Core:function.obj
 0001:000116a0       ?_plus_integer_type@@YAPAVClaireType@@PAV1@0@Z 004126a0 f   Core:function.obj
 0001:000116c0       ?_dash_integer1@@YAHHH@Z   004126c0 f   Core:function.obj
 0001:000116d0       ?_dash_integer1_type@@YAPAVClaireType@@PAV1@0@Z 004126d0 f   Core:function.obj
 0001:000116f0       ?_inf_inf_integer@@YAHHH@Z 004126f0 f   Core:function.obj
 0001:00011700       ?_sup_sup_integer@@YAHHH@Z 00412700 f   Core:function.obj
 0001:00011710       ?and_integer@@YAHHH@Z      00412710 f   Core:function.obj
 0001:00011720       ?or_integer@@YAHHH@Z       00412720 f   Core:function.obj
 0001:00011730       ?_inf_integer@@YAPAVClaireBoolean@@HH@Z 00412730 f   Core:function.obj
 0001:00011750       ?_inf_equal_integer@@YAPAVClaireBoolean@@HH@Z 00412750 f   Core:function.obj
 0001:00011770       ?_sup_integer@@YAPAVClaireBoolean@@HH@Z 00412770 f   Core:function.obj
 0001:00011790       ?nth_integer@@YAPAVClaireBoolean@@HH@Z 00412790 f   Core:function.obj
 0001:000117b0       ?factor_ask_integer@@YAPAVClaireBoolean@@HH@Z 004127b0 f   Core:function.obj
 0001:000117d0       ?divide_ask_integer@@YAPAVClaireBoolean@@HH@Z 004127d0 f   Core:function.obj
 0001:000117f0       ?Id_any@@YAHH@Z            004127f0 f   Core:function.obj
 0001:00011800       ?Id_any_type@@YAPAVClaireType@@PAV1@@Z 00412800 f   Core:function.obj
 0001:00011810       ?pair_any@@YAPAVlist@@HH@Z 00412810 f   Core:function.obj
 0001:00011830       ?pair_1_list@@YAHPAVlist@@@Z 00412830 f   Core:function.obj
 0001:00011840       ?pair_1_list_type@@YAPAVClaireType@@PAV1@@Z 00412840 f   Core:function.obj
 0001:00011850       ?pair_2_list@@YAHPAVlist@@@Z 00412850 f   Core:function.obj
 0001:00011860       ?pair_2_list_type@@YAPAVClaireType@@PAV1@@Z 00412860 f   Core:function.obj
 0001:00011870       ?_plus_float_@@YAHHH@Z     00412870 f   Core:function.obj
 0001:00011920       ?_plus_float@@YANNN@Z      00412920 f   Core:function.obj
 0001:00011930       ?_dash_float_@@YAHHH@Z     00412930 f   Core:function.obj
 0001:000119e0       ?_dash_float@@YANNN@Z      004129e0 f   Core:function.obj
 0001:000119f0       ?_star_float_@@YAHHH@Z     004129f0 f   Core:function.obj
 0001:00011aa0       ?_star_float@@YANNN@Z      00412aa0 f   Core:function.obj
 0001:00011ab0       ?_7_float_@@YAHHH@Z        00412ab0 f   Core:function.obj
 0001:00011b60       ?_7_float@@YANNN@Z         00412b60 f   Core:function.obj
 0001:00011b70       ?_dash_float2_@@YAHH@Z     00412b70 f   Core:function.obj
 0001:00011c10       ?_dash_float2@@YANN@Z      00412c10 f   Core:function.obj
 0001:00011c20       ?sqrt_float_@@YAHH@Z       00412c20 f   Core:function.obj
 0001:00011cc0       ?sqrt_float@@YANN@Z        00412cc0 f   Core:function.obj
 0001:00011cd0       ?_exp_float_@@YAHHH@Z      00412cd0 f   Core:function.obj
 0001:00011d80       ?_exp_float@@YANNN@Z       00412d80 f   Core:function.obj
 0001:00011d90       ?log_float_@@YAHH@Z        00412d90 f   Core:function.obj
 0001:00011e30       ?log_float@@YANN@Z         00412e30 f   Core:function.obj
 0001:00011e40       ?atan_float_@@YAHH@Z       00412e40 f   Core:function.obj
 0001:00011ee0       ?atan_float@@YANN@Z        00412ee0 f   Core:function.obj
 0001:00011ef0       ?string_I_float_@@YAPADH@Z 00412ef0 f   Core:function.obj
 0001:00011f20       ?string_I_float@@YAPADN@Z  00412f20 f   Core:function.obj
 0001:00011f40       ?length_bag@@YAHPAVbag@@@Z 00412f40 f   Core:function.obj
 0001:00011f50       ?nth_bag@@YAHPAVbag@@H@Z   00412f50 f   Core:function.obj
 0001:00011fd0       ?nth_bag_type@@YAPAVClaireType@@PAV1@0@Z 00412fd0 f   Core:function.obj
 0001:00011fe0       ?nth_get_bag@@YAHPAVbag@@H@Z 00412fe0 f   Core:function.obj
 0001:00011ff0       ?min_method@@YAHPAVmethod@@PAVbag@@@Z 00412ff0 f   Core:function.obj
 0001:00012090       ?min_method_type@@YAPAVClaireType@@PAV1@0@Z 00413090 f   Core:function.obj
 0001:000120a0       ?max_method@@YAHPAVmethod@@PAVbag@@@Z 004130a0 f   Core:function.obj
 0001:00012140       ?max_method_type@@YAPAVClaireType@@PAV1@0@Z 00413140 f   Core:function.obj
 0001:00012150       ?_7_plus_bag@@YAPAVlist@@PAVbag@@0@Z 00413150 f   Core:function.obj
 0001:000122d0       ?last_list@@YAHPAVlist@@@Z 004132d0 f   Core:function.obj
 0001:00012330       ?last_list_type@@YAPAVClaireType@@PAV1@@Z 00413330 f   Core:function.obj
 0001:00012340       ?rmlast_list@@YAPAVlist@@PAV1@@Z 00413340 f   Core:function.obj
 0001:00012360       ?nth_set_list@@YAHPAVlist@@HH@Z 00413360 f   Core:function.obj
 0001:00012450       ?car_list@@YAHPAVlist@@@Z  00413450 f   Core:function.obj
 0001:000124b0       ?hashlist_integer@@YAPAVlist@@H@Z 004134b0 f   Core:function.obj
 0001:00012580       ?hashsize_list@@YAHPAVlist@@@Z 00413580 f   Core:function.obj
 0001:000125c0       ?sort_method@@YAPAVlist@@PAVmethod@@PAV1@@Z 004135c0 f   Core:function.obj
 0001:000125e0       ?quicksort_list@@YAXPAVlist@@PAVmethod@@HH@Z 004135e0 f   Core:function.obj
 0001:000126f0       ?build_powerset_list@@YAPAVset@@PAVlist@@@Z 004136f0 f   Core:function.obj
 0001:00012870       ?make_copy_list_integer@@YAPAVlist@@HH@Z 00413870 f   Core:function.obj
 0001:000129e0       ?difference_set@@YAPAVset@@PAV1@0@Z 004139e0 f   Core:function.obj
 0001:00012ad0       ?nth_equal_array@@YAXPAHHH@Z 00413ad0 f   Core:function.obj
 0001:00012bc0       ?self_print_array_Core@@YAHPAH@Z 00413bc0 f   Core:function.obj
 0001:00012c10       ?self_print_char_Core@@YAHPAVClaireChar@@@Z 00413c10 f   Core:function.obj
 0001:00012c40       ?_inf_equal_char@@YAPAVClaireBoolean@@PAVClaireChar@@0@Z 00413c40 f   Core:function.obj
 0001:00012c60       ?eval_message_property@@YAHPAVproperty@@PAVClaireObject@@HPAVClaireBoolean@@@Z 00413c60 f   Core:method.obj
 0001:00012e90       ?noeval_message_property2@@YAHPAVproperty@@H@Z 00413e90 f   Core:method.obj
 0001:00012f90       ?execute_method@@YAHPAVmethod@@HPAVClaireBoolean@@@Z 00413f90 f   Core:method.obj
 0001:00013220       ?eval_any@@YAHH@Z          00414220 f   Core:method.obj
 0001:00013260       ?self_eval_ClaireObject@@YAHPAVClaireObject@@@Z 00414260 f   Core:method.obj
 0001:00013280       ?inlineok_ask_method@@YAPAVmethod@@PAV1@PAD@Z 00414280 f   Core:method.obj
 0001:00013450       ?get_slot@@YAHPAVslot@@PAVClaireObject@@@Z 00414450 f   Core:method.obj
 0001:00013470       ?put_slot@@YAHPAVslot@@PAVClaireObject@@H@Z 00414470 f   Core:method.obj
 0001:000134a0       ?get_property@@YAHPAVproperty@@PAVClaireObject@@@Z 004144a0 f   Core:method.obj
 0001:000135a0       ?funcall_property@@YAHPAVproperty@@H@Z 004145a0 f   Core:method.obj
 0001:000136b0       ?read_property@@YAHPAVproperty@@PAVClaireObject@@@Z 004146b0 f   Core:method.obj
 0001:00013820       ?hold_ask_property@@YAPAVClaireBoolean@@PAVproperty@@PAVClaireObject@@H@Z 00414820 f   Core:method.obj
 0001:00013970       ?write_property@@YAXPAVproperty@@PAVClaireObject@@H@Z 00414970 f   Core:method.obj
 0001:00013bc0       ?range_is_wrong_slot@@YAHPAVslot@@H@Z 00414bc0 f   Core:method.obj
 0001:00013c10       ?put_property1@@YAXPAVproperty@@PAVClaireObject@@HPAVClaireClass@@H@Z 00414c10 f   Core:method.obj
 0001:00013c50       ?update_property@@YAXPAVproperty@@PAVClaireObject@@HPAVClaireClass@@H@Z 00414c50 f   Core:method.obj
 0001:00013e80       ?update_plus_relation@@YAXPAVClaireRelation@@HH@Z 00414e80 f   Core:method.obj
 0001:00014140       ?update_dash_relation@@YAXPAVClaireRelation@@HH@Z 00415140 f   Core:method.obj
 0001:00014470       ?add_I_property@@YAXPAVproperty@@PAVClaireObject@@HH@Z 00415470 f   Core:method.obj
 0001:00014510       ?add_value_property@@YAPAVClaireBoolean@@PAVproperty@@PAVClaireObject@@HPAVbag@@H@Z 00415510 f   Core:method.obj
 0001:00014690       ?add_property@@YAXPAVproperty@@PAVClaireObject@@H@Z 00415690 f   Core:method.obj
 0001:000148d0       ?known_ask_property@@YAPAVClaireBoolean@@PAVproperty@@PAVClaireObject@@@Z 004158d0 f   Core:method.obj
 0001:000149e0       ?unknown_ask_property@@YAPAVClaireBoolean@@PAVproperty@@PAVClaireObject@@@Z 004159e0 f   Core:method.obj
 0001:00014af0       ?delete_property@@YAHPAVproperty@@PAVClaireObject@@H@Z 00415af0 f   Core:method.obj
 0001:00014cf0       ?erase_property@@YAHPAVproperty@@PAVClaireObject@@@Z 00415cf0 f   Core:method.obj
 0001:00015040       ?set_range_property@@YAXPAVproperty@@PAVClaireClass@@PAVClaireType@@@Z 00416040 f   Core:method.obj
 0001:00015070       ?put_store_property2@@YAXPAVproperty@@PAVClaireObject@@HPAVClaireBoolean@@@Z 00416070 f   Core:method.obj
 0001:000151e0       ?multi_ask_any@@YAPAVClaireBoolean@@H@Z 004161e0 f   Core:method.obj
 0001:00015290       ?fastcall_relation2@@YAXPAVClaireRelation@@HH@Z 00416290 f   Core:method.obj
 0001:000154c0       ?insert_definition_property@@YAXPAVproperty@@PAVrestriction@@@Z 004164c0 f   Core:method.obj
 0001:00015550       ?initialize_restriction1@@YAPAVlist@@PAVrestriction@@PAVClaireClass@@PAV1@@Z 00416550 f   Core:method.obj
 0001:00015970       ?uniform_restriction@@YAPAVClaireBoolean@@PAVrestriction@@@Z 00416970 f   Core:method.obj
 0001:00015b00       ?uniform_property@@YAPAVClaireBoolean@@PAVproperty@@@Z 00416b00 f   Core:method.obj
 0001:00015bb0       ?initialize_restriction2@@YAPAVlist@@PAVrestriction@@PAV1@@Z 00416bb0 f   Core:method.obj
 0001:00015d10       ?hashinsert_restriction@@YAHPAVrestriction@@@Z 00416d10 f   Core:method.obj
 0001:00015dc0       ?hashinsert_class@@YAHPAVClaireClass@@PAVmethod@@@Z 00416dc0 f   Core:method.obj
 0001:00015e10       ?hashinsert_list@@YAHPAVlist@@PAVmethod@@@Z 00416e10 f   Core:method.obj
 0001:00016050       ?hashget_class@@YAPAVClaireObject@@PAVClaireClass@@PAVproperty@@@Z 00417050 f   Core:method.obj
 0001:000160e0       ?join_list@@YAPAVClaireBoolean@@PAVlist@@0@Z 004170e0 f   Core:method.obj
 0001:00016250       ?_at_property1@@YAPAVClaireObject@@PAVproperty@@PAVClaireClass@@@Z 00417250 f   Core:method.obj
 0001:00016440       ?_at_property2@@YAPAVClaireObject@@PAVproperty@@PAVlist@@@Z 00417440 f   Core:method.obj
 0001:00016550       ?matching_ask_list@@YAPAVClaireBoolean@@PAVlist@@HH@Z 00417550 f   Core:method.obj
 0001:00016830       ?vmatch_ask_any@@YAPAVClaireBoolean@@HHH@Z 00417830 f   Core:method.obj
 0001:00016e40       ?tmatch_ask_list@@YAPAVClaireBoolean@@PAVlist@@0@Z 00417e40 f   Core:method.obj
 0001:00016f30       ?tmatch_ask_any@@YAPAVClaireBoolean@@HHPAVlist@@@Z 00417f30 f   Core:method.obj
 0001:00017600       ?find_which_property@@YAPAVClaireObject@@PAVproperty@@HPAVClaireClass@@@Z 00418600 f   Core:method.obj
 0001:000176c0       ?find_which_list@@YAPAVClaireObject@@PAVlist@@PAVClaireClass@@HH@Z 004186c0 f   Core:method.obj
 0001:00017750       ?find_which_class@@YAPAVClaireObject@@PAVClaireClass@@PAVlist@@HH@Z 00418750 f   Core:method.obj
 0001:00017830       ?finite_ask_type@@YAPAVClaireBoolean@@PAVClaireType@@@Z 00418830 f   Core:types.obj
 0001:00017940       ?enumerate_any@@YAPAVbag@@H@Z 00418940 f   Core:types.obj
 0001:00017b30       ?_equaltype_ask_any@@YAPAVClaireBoolean@@PAVClaireType@@0@Z 00418b30 f   Core:types.obj
 0001:00017b70       ?sort_I_type@@YAPAVClaireClass@@PAVClaireType@@@Z 00418b70 f   Core:types.obj
 0001:00017bd0       ?_Z_any1@@YAPAVClaireBoolean@@HPAVClaireClass@@@Z 00418bd0 f   Core:types.obj
 0001:00017c60       ?Ztype_any@@YAPAVClaireBoolean@@HH@Z 00418c60 f   Core:types.obj
 0001:00017db0       ?self_print_Union_Core@@YAXPAVUnion@@@Z 00418db0 f   Core:types.obj
 0001:00017ea0       ?finite_ask_Union@@YAPAVClaireBoolean@@PAVUnion@@@Z 00418ea0 f   Core:types.obj
 0001:00017fb0       ?self_print_Interval_Core@@YAXPAVInterval@@@Z 00418fb0 f   Core:types.obj
 0001:00017ff0       ?finite_ask_Interval@@YAPAVClaireBoolean@@PAVInterval@@@Z 00418ff0 f   Core:types.obj
 0001:00018000       ?_dash_dash_integer@@YAPAVInterval@@HH@Z 00419000 f   Core:types.obj
 0001:00018070       ?self_print_Param_Core@@YAXPAVParam@@@Z 00419070 f   Core:types.obj
 0001:000181c0       ?finite_ask_Param@@YAPAVClaireBoolean@@PAVParam@@@Z 004191c0 f   Core:types.obj
 0001:000181e0       ?self_print_subtype_Core@@YAXPAVsubtype@@@Z 004191e0 f   Core:types.obj
 0001:00018310       ?finite_ask_subtype@@YAPAVClaireBoolean@@PAVsubtype@@@Z 00419310 f   Core:types.obj
 0001:000183f0       ?nth_class1@@YAPAVClaireType@@PAVClaireClass@@PAV1@@Z 004193f0 f   Core:types.obj
 0001:00018570       ?nth_class2@@YAPAVClaireType@@PAVClaireClass@@PAVlist@@1@Z 00419570 f   Core:types.obj
 0001:00018770       ?param_I_class@@YAPAVClaireType@@PAVClaireClass@@PAV1@@Z 00419770 f   Core:types.obj
 0001:00018870       ?nth_type@@YAPAVClaireType@@PAV1@@Z 00419870 f   Core:types.obj
 0001:00018970       ?finite_ask_tuple@@YAPAVClaireBoolean@@PAVtuple@@@Z 00419970 f   Core:types.obj
 0001:000189f0       ?self_print_Reference_Core@@YAXPAVReference@@@Z 004199f0 f   Core:types.obj
 0001:00018ad0       ?get_Reference@@YAHPAVReference@@H@Z 00419ad0 f   Core:types.obj
 0001:00018b90       ?_at_Reference@@YAHPAVReference@@PAVlist@@H@Z 00419b90 f   Core:types.obj
 0001:00018c50       ?set_I_collection@@YAPAVset@@PAVClaireCollection@@@Z 00419c50 f   Core:types.obj
 0001:00018db0       ?size_collection@@YAHPAVClaireCollection@@@Z 00419db0 f   Core:types.obj
 0001:00018ee0       ?set_I_set@@YAPAVset@@PAV1@@Z 00419ee0 f   Core:types.obj
 0001:00018ef0       ?size_set@@YAHPAVset@@@Z   00419ef0 f   Core:types.obj
 0001:00018f00       ?size_list2_Core@@YAHPAVlist@@@Z 00419f00 f   Core:types.obj
 0001:00018f20       ?set_I_class@@YAPAVset@@PAVClaireClass@@@Z 00419f20 f   Core:types.obj
 0001:00019090       ?size_class@@YAHPAVClaireClass@@@Z 0041a090 f   Core:types.obj
 0001:000190e0       ?set_I_Union@@YAPAVset@@PAVUnion@@@Z 0041a0e0 f   Core:types.obj
 0001:00019200       ?size_Union@@YAHPAVUnion@@@Z 0041a200 f   Core:types.obj
 0001:00019380       ?set_I_Interval@@YAPAVset@@PAVInterval@@@Z 0041a380 f   Core:types.obj
 0001:000193a0       ?size_Interval@@YAHPAVInterval@@@Z 0041a3a0 f   Core:types.obj
 0001:000193b0       ?set_I_Param@@YAPAVset@@PAVParam@@@Z 0041a3b0 f   Core:types.obj
 0001:000194c0       ?size_Param@@YAHPAVParam@@@Z 0041a4c0 f   Core:types.obj
 0001:000194e0       ?set_I_subtype@@YAPAVset@@PAVsubtype@@@Z 0041a4e0 f   Core:types.obj
 0001:00019630       ?size_subtype@@YAHPAVsubtype@@@Z 0041a630 f   Core:types.obj
 0001:00019780       ?set_I_tuple@@YAPAVset@@PAVtuple@@@Z 0041a780 f   Core:types.obj
 0001:00019a90       ?size_tuple@@YAHPAVtuple@@@Z 0041aa90 f   Core:types.obj
 0001:00019b10       ?member_ask_any@@YAPAVClaireBoolean@@HPAVClaireType@@@Z 0041ab10 f   Core:types.obj
 0001:0001a260       ?class_I_type@@YAPAVClaireClass@@PAVClaireType@@@Z 0041b260 f   Core:types.obj
 0001:0001a500       ?U_type@@YAPAVClaireType@@PAV1@0@Z 0041b500 f   Core:types.obj
 0001:0001aad0       ?_dot_dot_integer@@YAPAVClaireType@@HH@Z 0041bad0 f   Core:types.obj
 0001:0001aaf0       ?_dot_dot_integer_type@@YAPAVClaireType@@PAV1@0@Z 0041baf0 f   Core:types.obj
 0001:0001ac40       ?but_any@@YAPAVbag@@HH@Z   0041bc40 f   Core:types.obj
 0001:0001ad10       ?but_any_type@@YAPAVClaireType@@PAV1@0@Z 0041bd10 f   Core:types.obj
 0001:0001adc0       ?_backslash_type@@YAPAVset@@PAVClaireType@@0@Z 0041bdc0 f   Core:types.obj
 0001:0001af00       ?glb_set@@YAPAVset@@PAV1@PAVClaireType@@@Z 0041bf00 f   Core:types.obj
 0001:0001b000       ?glb_Union@@YAPAVClaireType@@PAVUnion@@PAV1@@Z 0041c000 f   Core:types.obj
 0001:0001b140       ?glb_Interval@@YAPAVClaireType@@PAVInterval@@PAV1@@Z 0041c140 f   Core:types.obj
 0001:0001b320       ?glb_class@@YAPAVClaireType@@PAVClaireClass@@PAV1@@Z 0041c320 f   Core:types.obj
 0001:0001b5b0       ?glb_Param@@YAPAVClaireType@@PAVParam@@PAV1@@Z 0041c5b0 f   Core:types.obj
 0001:0001b8c0       ?glb_subtype@@YAPAVClaireType@@PAVsubtype@@PAV1@@Z 0041c8c0 f   Core:types.obj
 0001:0001bbe0       ?glb_tuple@@YAPAVClaireType@@PAVtuple@@PAV1@@Z 0041cbe0 f   Core:types.obj
 0001:0001be20       ?glb_Reference@@YAPAVClaireType@@PAVReference@@PAV1@@Z 0041ce20 f   Core:types.obj
 0001:0001be30       ?_exp_type@@YAPAVClaireType@@PAV1@0@Z 0041ce30 f   Core:types.obj
 0001:0001be70       ?join_class@@YAPAVClaireType@@PAVClaireClass@@0@Z 0041ce70 f   Core:types.obj
 0001:0001bed0       ?_exp_list@@YAPAVlist@@PAV1@0@Z 0041ced0 f   Core:types.obj
 0001:0001bff0       ?Uall_list@@YAPAVClaireType@@PAVlist@@@Z 0041cff0 f   Core:types.obj
 0001:0001c0a0       ?_inf_equalt_bag2@@YAPAVClaireBoolean@@PAVbag@@PAVClaireType@@@Z 0041d0a0 f   Core:types.obj
 0001:0001c1b0       ?_inf_equalt_class@@YAPAVClaireBoolean@@PAVClaireClass@@PAVClaireType@@@Z 0041d1b0 f   Core:types.obj
 0001:0001c4f0       ?_inf_equalt_Union@@YAPAVClaireBoolean@@PAVUnion@@PAVClaireType@@@Z 0041d4f0 f   Core:types.obj
 0001:0001c660       ?_inf_equalt_Interval@@YAPAVClaireBoolean@@PAVInterval@@PAVClaireType@@@Z 0041d660 f   Core:types.obj
 0001:0001c880       ?_inf_equalt_subtype@@YAPAVClaireBoolean@@PAVsubtype@@PAVClaireType@@@Z 0041d880 f   Core:types.obj
 0001:0001ca10       ?_inf_equalt_Param@@YAPAVClaireBoolean@@PAVParam@@PAVClaireType@@@Z 0041da10 f   Core:types.obj
 0001:0001cba0       ?_inf_equalt_Reference@@YAPAVClaireBoolean@@PAVReference@@PAVClaireType@@@Z 0041dba0 f   Core:types.obj
 0001:0001cbb0       ?_inf_equalt_tuple@@YAPAVClaireBoolean@@PAVtuple@@PAVClaireType@@@Z 0041dbb0 f   Core:types.obj
 0001:0001cef0       ?_inf_equalt_type@@YAPAVClaireBoolean@@PAVClaireType@@0@Z 0041def0 f   Core:types.obj
 0001:0001d280       ?_inf_equal_type@@YAPAVClaireBoolean@@PAVClaireType@@0@Z 0041e280 f   Core:types.obj
 0001:0001d2d0       ?member_type@@YAPAVClaireType@@PAV1@@Z 0041e2d0 f   Core:types.obj
 0001:0001d670       ?of_extract_type@@YAPAVClaireType@@PAV1@@Z 0041e670 f   Core:types.obj
 0001:0001d720       ?_at_type@@YAPAVClaireType@@PAV1@PAVproperty@@@Z 0041e720 f   Core:types.obj
 0001:0001d9c0       ?unique_ask_type@@YAPAVClaireBoolean@@PAVClaireType@@@Z 0041e9c0 f   Core:types.obj
 0001:0001da40       ?the_type@@YAHPAVClaireType@@@Z 0041ea40 f   Core:types.obj
 0001:0001da80       ?integer_I_set@@YAHPAVset@@@Z 0041ea80 f   Core:types.obj
 0001:0001dad0       ?make_set_integer@@YAPAVset@@H@Z 0041ead0 f   Core:types.obj
 0001:0001dba0       ?abstract_type_set@@YAPAVClaireType@@PAVset@@@Z 0041eba0 f   Core:types.obj
 0001:0001dcb0       ?abstract_type_operation@@YAPAVClaireType@@PAVoperation@@PAV1@1@Z 0041ecb0 f   Core:types.obj
 0001:0001df60       ?first_arg_type_type@@YAPAVClaireType@@PAV1@0@Z 0041ef60 f   Core:types.obj
 0001:0001df70       ?first_arg_type_type2@@YAPAVClaireType@@PAV1@00@Z 0041ef70 f   Core:types.obj
 0001:0001df80       ?second_arg_type_type@@YAPAVClaireType@@PAV1@0@Z 0041ef80 f   Core:types.obj
 0001:0001df90       ?meet_arg_types_type@@YAPAVClaireType@@PAV1@0@Z 0041ef90 f   Core:types.obj
 0001:0001dfb0       ?nth_get_array_type@@YAPAVClaireType@@PAV1@0@Z 0041efb0 f   Core:types.obj
 0001:0001dfc0       ?nth_array@@YAHPAHH@Z      0041efc0 f   Core:types.obj
 0001:0001e040       ?nth_array_type@@YAPAVClaireType@@PAV1@0@Z 0041f040 f   Core:types.obj
 0001:0001e050       ?make_array_integer_type@@YAPAVClaireType@@PAV1@00@Z 0041f050 f   Core:types.obj
 0001:0001e120       ?make_list_integer2@@YAPAVlist@@HPAVClaireType@@H@Z 0041f120 f   Core:types.obj
 0001:0001e150       ?make_list_integer2_type@@YAPAVClaireType@@PAV1@00@Z 0041f150 f   Core:types.obj
 0001:0001e220       ?make_set_array@@YAPAVset@@PAH@Z 0041f220 f   Core:types.obj
 0001:0001e2d0       ?make_set_array_type@@YAPAVClaireType@@PAV1@@Z 0041f2d0 f   Core:types.obj
 0001:0001e420       ?list_I_array_type@@YAPAVClaireType@@PAV1@@Z 0041f420 f   Core:types.obj
 0001:0001e570       ?array_I_list_type@@YAPAVClaireType@@PAV1@@Z 0041f570 f   Core:types.obj
 0001:0001e6c0       ?set_I_bag_type@@YAPAVClaireType@@PAV1@@Z 0041f6c0 f   Core:types.obj
 0001:0001e810       ?list_I_set_type@@YAPAVClaireType@@PAV1@@Z 0041f810 f   Core:types.obj
 0001:0001e960       ?metaLoad@LanguageClass@@QAEXXZ 0041f960 f   Language:Language.obj
 0001:00022e50       ?self_print_Definition_Language@@YAHPAVDefinition@@@Z 00423e50 f   Language:define.obj
 0001:00022f20       ?self_print_Defobj_Language@@YAXPAVDefobj@@@Z 00423f20 f   Language:define.obj
 0001:00023150       ?self_print_Defclass_Language@@YAXPAVDefclass@@@Z 00424150 f   Language:define.obj
 0001:000233b0       ?self_print_Defmethod_Language@@YAXPAVDefmethod@@@Z 004243b0 f   Language:define.obj
 0001:00023520       ?self_print_Defarray_Language@@YAXPAVDefarray@@@Z 00424520 f   Language:define.obj
 0001:00023650       ?self_print_Defrule_Language@@YAXPAVDefrule@@@Z 00424650 f   Language:define.obj
 0001:00023770       ?self_print_Defvar_Language@@YAXPAVDefvar@@@Z 00424770 f   Language:define.obj
 0001:00023840       ?self_eval_Definition@@YAHPAVDefinition@@@Z 00424840 f   Language:define.obj
 0001:00023990       ?complete_object@@YAHPAVClaireObject@@PAVlist@@@Z 00424990 f   Language:define.obj
 0001:00023b80       ?self_eval_Defobj@@YAHPAVDefobj@@@Z 00424b80 f   Language:define.obj
 0001:00023d20       ?self_eval_Defclass@@YAHPAVDefclass@@@Z 00424d20 f   Language:define.obj
 0001:00024310       ?self_eval_Defmethod@@YAHPAVDefmethod@@@Z 00425310 f   Language:define.obj
 0001:00024840       ?attach_comment_any@@YAXH@Z 00425840 f   Language:define.obj
 0001:00024930       ?extract_signature_list@@YAPAVlist@@PAV1@@Z 00425930 f   Language:define.obj
 0001:00024ba0       ?extract_pattern_any@@YAHHPAVlist@@@Z 00425ba0 f   Language:define.obj
 0001:000254d0       ?extract_type_any@@YAPAVClaireType@@H@Z 004264d0 f   Language:define.obj
 0001:00025600       ?extract_item_any@@YAHHH@Z 00426600 f   Language:define.obj
 0001:00025890       ?extract_pattern_nth_list@@YAHPAVlist@@0@Z 00426890 f   Language:define.obj
 0001:00025f40       ?extract_class_call_class@@YAPAVClaireObject@@PAVClaireClass@@PAVlist@@@Z 00426f40 f   Language:define.obj
 0001:000269c0       ?extract_range_any@@YAPAVlist@@HPAV1@0@Z 004279c0 f   Language:define.obj
 0001:000270d0       ?bit_vector_listargs2@@YAHPAVlistargs@@@Z 004280d0 f   Language:define.obj
 0001:00027110       ?extract_status_any@@YAPAVlist@@H@Z 00428110 f   Language:define.obj
 0001:000276a0       ?type_I_any@@YAPAVClaireType@@H@Z 004286a0 f   Language:define.obj
 0001:00027960       ?self_eval_Defarray@@YAHPAVDefarray@@@Z 00428960 f   Language:define.obj
 0001:000282e0       ?self_print_demon@@YAXPAVdemon@@@Z 004292e0 f   Language:define.obj
 0001:000282f0       ?funcall_demon1@@YAHPAVdemon@@HH@Z 004292f0 f   Language:define.obj
 0001:000283b0       ?funcall_demon2@@YAHPAVdemon@@HHH@Z 004293b0 f   Language:define.obj
 0001:00028480       ?self_eval_Defrule@@YAHPAVDefrule@@@Z 00429480 f   Language:define.obj
 0001:000287b0       ?eventMethod_ask_relation2@@YAPAVClaireBoolean@@PAVClaireRelation@@@Z 004297b0 f   Language:define.obj
 0001:00028860       ?make_filter_any_@@YAPAVtuple@@H@Z 00429860 f   Language:define.obj
 0001:00028880       ?make_filter_any@@YAPAVtuple@@H@Z 00429880 f   Language:define.obj
 0001:000293d0       ?make_demon_relation@@YAPAVdemon@@PAVClaireRelation@@PAVsymbol@@PAVlist@@HH@Z 0042a3d0 f   Language:define.obj
 0001:00029ac0       ?readCall_relation@@YAPAVCall@@PAVClaireRelation@@H@Z 0042aac0 f   Language:define.obj
 0001:00029c40       ?putCall_relation2@@YAPAVCall@@PAVClaireRelation@@HH@Z 0042ac40 f   Language:define.obj
 0001:00029de0       ?eval_if_write_relation@@YAXPAVClaireRelation@@@Z 0042ade0 f   Language:define.obj
 0001:0002a6e0       ?eventMethod_property@@YAXPAVproperty@@@Z 0042b6e0 f   Language:define.obj
 0001:0002a770       ?interface_property@@YAXPAVproperty@@@Z 0042b770 f   Language:define.obj
 0001:0002ab10       ?interface_class@@YAXPAVClaireClass@@PAVlistargs@@@Z 0042bb10 f   Language:define.obj
 0001:0002ad20       ?self_print_If_Language@@YAXPAVIf@@@Z 0042bd20 f   Language:control.obj
 0001:0002ad60       ?printstat_If@@YAXPAVIf@@@Z 0042bd60 f   Language:control.obj
 0001:0002ae50       ?printif_any@@YAXH@Z       0042be50 f   Language:control.obj
 0001:0002afb0       ?printelse_If@@YAXPAVIf@@@Z 0042bfb0 f   Language:control.obj
 0001:0002b1b0       ?self_eval_If@@YAHPAVIf@@@Z 0042c1b0 f   Language:control.obj
 0001:0002b270       ?self_print_Do_Language@@YAXPAVDo@@@Z 0042c270 f   Language:control.obj
 0001:0002b340       ?printdo_list@@YAXPAVlist@@PAVClaireBoolean@@@Z 0042c340 f   Language:control.obj
 0001:0002b450       ?printblock_any@@YAXH@Z    0042c450 f   Language:control.obj
 0001:0002b5f0       ?self_eval_Do@@YAHPAVDo@@@Z 0042c5f0 f   Language:control.obj
 0001:0002b660       ?self_print_Let_Language@@YAXPAVLet@@@Z 0042c660 f   Language:control.obj
 0001:0002b760       ?printbody_Let@@YAXPAVLet@@@Z 0042c760 f   Language:control.obj
 0001:0002b910       ?self_eval_Let@@YAHPAVLet@@@Z 0042c910 f   Language:control.obj
 0001:0002ba40       ?self_print_When_Language@@YAXPAVWhen@@@Z 0042ca40 f   Language:control.obj
 0001:0002bba0       ?self_eval_When@@YAHPAVWhen@@@Z 0042cba0 f   Language:control.obj
 0001:0002bcf0       ?self_print_Let_plus_Language@@YAXPAVLet_plus@@@Z 0042ccf0 f   Language:control.obj
 0001:0002be60       ?self_print_Let_star_Language@@YAXPAVLet_star@@@Z 0042ce60 f   Language:control.obj
 0001:0002c240       ?self_print_For_Language@@YAXPAVFor@@@Z 0042d240 f   Language:control.obj
 0001:0002c360       ?self_eval_For@@YAHPAVFor@@@Z 0042d360 f   Language:control.obj
 0001:0002c9b0       ?self_print_Collect_Language@@YAXPAVCollect@@@Z 0042d9b0 f   Language:control.obj
 0001:0002cae0       ?self_eval_Collect@@YAHPAVCollect@@@Z 0042dae0 f   Language:control.obj
 0001:0002ced0       ?self_print_Image_Language@@YAXPAVImage@@@Z 0042ded0 f   Language:control.obj
 0001:0002d000       ?self_eval_Image@@YAHPAVImage@@@Z 0042e000 f   Language:control.obj
 0001:0002d250       ?self_print_Select_Language@@YAXPAVSelect@@@Z 0042e250 f   Language:control.obj
 0001:0002d370       ?self_eval_Select@@YAHPAVSelect@@@Z 0042e370 f   Language:control.obj
 0001:0002d7b0       ?self_print_Lselect_Language@@YAXPAVLselect@@@Z 0042e7b0 f   Language:control.obj
 0001:0002d8d0       ?self_eval_Lselect@@YAHPAVLselect@@@Z 0042e8d0 f   Language:control.obj
 0001:0002dd60       ?self_print_Exists_Language@@YAXPAVExists@@@Z 0042ed60 f   Language:control.obj
 0001:0002df10       ?self_eval_Exists@@YAHPAVExists@@@Z 0042ef10 f   Language:control.obj
 0001:0002e2b0       ?self_print_Case_Language@@YAXPAVCase@@@Z 0042f2b0 f   Language:control.obj
 0001:0002e460       ?self_eval_Case@@YAHPAVCase@@@Z 0042f460 f   Language:control.obj
 0001:0002e640       ?self_print_While_Language@@YAXPAVWhile@@@Z 0042f640 f   Language:control.obj
 0001:0002e750       ?self_eval_While@@YAHPAVWhile@@@Z 0042f750 f   Language:control.obj
 0001:0002ea10       ?self_print_Handle_Language@@YAXPAVClaireHandle@@@Z 0042fa10 f   Language:control.obj
 0001:0002eb20       ?self_eval_Handle@@YAHPAVClaireHandle@@@Z 0042fb20 f   Language:control.obj
 0001:0002ed50       ?self_print_Construct_Language@@YAXPAVConstruct@@@Z 0042fd50 f   Language:control.obj
 0001:0002efc0       ?self_eval_List@@YAHPAVList@@@Z 0042ffc0 f   Language:control.obj
 0001:0002f1b0       ?self_eval_Set@@YAHPAVSet@@@Z 004301b0 f   Language:control.obj
 0001:0002f3a0       ?self_eval_Tuple@@YAHPAVTuple@@@Z 004303a0 f   Language:control.obj
 0001:0002f4b0       ?self_eval_Array2@@YAHPAVArray@@@Z 004304b0 f   Language:control.obj
 0001:0002f6a0       ?self_eval_Macro2@@YAHPAVMacro@@@Z 004306a0 f   Language:control.obj
 0001:0002f760       ?self_eval_Error@@YAXPAVError@@@Z 00430760 f   Language:control.obj
 0001:0002f950       ?self_eval_Printf@@YAHPAVPrintf@@@Z 00430950 f   Language:control.obj
 0001:0002fd30       ?self_eval_Trace@@YAHPAVTrace@@@Z 00430d30 f   Language:control.obj
 0001:0002ffc0       ?self_eval_Assert@@YAHPAVAssert@@@Z 00430fc0 f   Language:control.obj
 0001:000301c0       ?self_eval_Branch@@YAHPAVBranch@@@Z 004311c0 f   Language:control.obj
 0001:00030360       ?self_print_Call_Language@@YAXPAVCall@@@Z 00431360 f   Language:call.obj
 0001:00030c80       ?self_print_Call_plus_Language@@YAHPAVCall_plus@@@Z 00431c80 f   Language:call.obj
 0001:00030ce0       ?self_eval_Call@@YAHPAVCall@@@Z 00431ce0 f   Language:call.obj
 0001:00030e10       ?self_eval_Call_plus@@YAHPAVCall_plus@@@Z 00431e10 f   Language:call.obj
 0001:000310b0       ?printe_any@@YAXHPAVproperty@@@Z 004320b0 f   Language:call.obj
 0001:000311a0       ?sugar_ask_any@@YAHHHHH@Z  004321a0 f   Language:call.obj
 0001:00031540       ?self_print_Assign_Language@@YAXPAVAssign@@@Z 00432540 f   Language:call.obj
 0001:000317d0       ?self_eval_Assign@@YAHPAVAssign@@@Z 004327d0 f   Language:call.obj
 0001:00031980       ?self_print_Gassign_Language@@YAXPAVGassign@@@Z 00432980 f   Language:call.obj
 0001:00031c20       ?self_eval_Gassign@@YAHPAVGassign@@@Z 00432c20 f   Language:call.obj
 0001:00031cd0       ?self_print_And_Language@@YAXPAVAnd@@@Z 00432cd0 f   Language:call.obj
 0001:00031d90       ?self_eval_And@@YAHPAVAnd@@@Z 00432d90 f   Language:call.obj
 0001:00031ee0       ?self_print_Or_Language@@YAXPAVOr@@@Z 00432ee0 f   Language:call.obj
 0001:00031fa0       ?self_eval_Or@@YAHPAVOr@@@Z 00432fa0 f   Language:call.obj
 0001:000320f0       ?self_print_Quote_Language@@YAXPAVQuote@@@Z 004330f0 f   Language:call.obj
 0001:000321a0       ?self_eval_Quote@@YAHPAVQuote@@@Z 004331a0 f   Language:call.obj
 0001:000321b0       ?self_print_Call_method_Language@@YAXPAVCall_method@@@Z 004331b0 f   Language:call.obj
 0001:00032280       ?self_eval_Call_method@@YAHPAVCall_method@@@Z 00433280 f   Language:call.obj
 0001:000323d0       ?self_eval_Call_method1@@YAHPAVCall_method1@@@Z 004333d0 f   Language:call.obj
 0001:000324b0       ?self_eval_Call_method2@@YAHPAVCall_method2@@@Z 004334b0 f   Language:call.obj
 0001:000325e0       ?self_print_Call_slot_Language@@YAXPAVCall_slot@@@Z 004335e0 f   Language:call.obj
 0001:000326b0       ?self_eval_Call_slot@@YAHPAVCall_slot@@@Z 004336b0 f   Language:call.obj
 0001:00032790       ?self_print_Call_array_Language@@YAXPAVCall_array@@@Z 00433790 f   Language:call.obj
 0001:00032850       ?self_eval_Call_array@@YAHPAVCall_array@@@Z 00433850 f   Language:call.obj
 0001:00032960       ?self_print_Call_table_Language@@YAXPAVCall_table@@@Z 00433960 f   Language:call.obj
 0001:00032a30       ?self_eval_Call_table@@YAHPAVCall_table@@@Z 00433a30 f   Language:call.obj
 0001:00032b50       ?self_print_Update_Language@@YAXPAVUpdate@@@Z 00433b50 f   Language:call.obj
 0001:00032c40       ?self_eval_Update@@YAHPAVUpdate@@@Z 00433c40 f   Language:call.obj
 0001:00032e80       ?self_print_Super_Language@@YAXPAVSuper@@@Z 00433e80 f   Language:call.obj
 0001:00032f90       ?self_eval_Super@@YAHPAVSuper@@@Z 00433f90 f   Language:call.obj
 0001:00033110       ?self_print_Cast_Language@@YAXPAVCast@@@Z 00434110 f   Language:call.obj
 0001:00033200       ?self_eval_Cast@@YAHPAVCast@@@Z 00434200 f   Language:call.obj
 0001:000333a0       ?self_print_Return_Language@@YAXPAVReturn@@@Z 004343a0 f   Language:call.obj
 0001:00033470       ?self_eval_Return@@YAHPAVReturn@@@Z 00434470 f   Language:call.obj
 0001:00033550       ?substitution_any@@YAHHPAVVariable@@H@Z 00434550 f   Language:call.obj
 0001:00033a70       ?occurrence_any@@YAHHPAVVariable@@@Z 00434a70 f   Language:call.obj
 0001:00033d10       ?instruction_copy_any@@YAHH@Z 00434d10 f   Language:call.obj
 0001:00034010       ?no_eval_Instruction@@YAHPAVInstruction@@@Z 00435010 f   Language:pretty.obj
 0001:000340a0       ?self_print_unbound_symbol_Language@@YAXPAVunbound_symbol@@@Z 004350a0 f   Language:pretty.obj
 0001:000340c0       ?self_eval_unbound_symbol@@YAHPAVunbound_symbol@@@Z 004350c0 f   Language:pretty.obj
 0001:000341b0       ?self_print_Variable_Language@@YAXPAVVariable@@@Z 004351b0 f   Language:pretty.obj
 0001:000341e0       ?ppvariable_Variable@@YAXPAVVariable@@@Z 004351e0 f   Language:pretty.obj
 0001:000342d0       ?ppvariable_list@@YAXPAVlist@@@Z 004352d0 f   Language:pretty.obj
 0001:000343d0       ?self_eval_Variable@@YAHPAVVariable@@@Z 004353d0 f   Language:pretty.obj
 0001:000343f0       ?write_value_Variable@@YAHPAVVariable@@H@Z 004353f0 f   Language:pretty.obj
 0001:00034480       ?self_eval_Vardef@@YAHPAVVardef@@@Z 00435480 f   Language:pretty.obj
 0001:00034510       ?self_eval_global_variable@@YAHPAVglobal_variable@@@Z 00435510 f   Language:pretty.obj
 0001:00034520       ?write_value_global_variable@@YAHPAVglobal_variable@@H@Z 00435520 f   Language:pretty.obj
 0001:000345b0       ?apply_lambda@@YAHPAVlambda@@PAVlist@@@Z 004355b0 f   Language:pretty.obj
 0001:000346f0       ?call_lambda2@@YAHPAVlambda@@PAVlistargs@@@Z 004356f0 f   Language:pretty.obj
 0001:00034710       ?self_print_lambda_Language@@YAHPAVlambda@@@Z 00435710 f   Language:pretty.obj
 0001:000347f0       ?lambda_I_list@@YAPAVlambda@@PAVlist@@H@Z 004357f0 f   Language:pretty.obj
 0001:00034930       ?lexical_build_any@@YAHHPAVlist@@H@Z 00435930 f   Language:pretty.obj
 0001:00035090       ?lexical_change_any@@YAHHPAVlist@@@Z 00436090 f   Language:pretty.obj
 0001:00035170       ?close_class@@YAPAVClaireClass@@PAV1@@Z 00436170 f   Language:pretty.obj
 0001:00035180       ?extract_symbol_any@@YAPAVsymbol@@H@Z 00436180 f   Language:pretty.obj
 0001:00035450       ?make_a_property_any@@YAPAVproperty@@H@Z 00436450 f   Language:pretty.obj
 0001:00035830       ?lbreak_void@@YAHXZ        00436830 f   Language:pretty.obj
 0001:000358a0       ?put_buffer_void@@YAHXZ    004368a0 f   Language:pretty.obj
 0001:000358d0       ?checkfar_void@@YAHXZ      004368d0 f   Language:pretty.obj
 0001:00035920       ?lbreak_integer@@YAHH@Z    00436920 f   Language:pretty.obj
 0001:00035940       ?indent_integer@@YAHH@Z    00436940 f   Language:pretty.obj
 0001:00035990       ?set_level_void@@YAXXZ     00436990 f   Language:pretty.obj
 0001:000359a0       ?set_level_integer@@YAXH@Z 004369a0 f   Language:pretty.obj
 0001:000359c0       ?printbox_bag1@@YAHPAVbag@@HHPAD@Z 004369c0 f   Language:pretty.obj
 0001:00035c40       ?printbox_bag2@@YAHPAVbag@@@Z 00436c40 f   Language:pretty.obj
 0001:00035c70       ?printbox_bag3@@YAHPAVbag@@PAD@Z 00436c70 f   Language:pretty.obj
 0001:00035ca0       ?printl_bag@@YAXPAVbag@@PAD@Z 00436ca0 f   Language:pretty.obj
 0001:00035ef0       ?printexp_any@@YAXHPAVClaireBoolean@@@Z 00436ef0 f   Language:pretty.obj
 0001:000364f0       ?pretty_print_any@@YAXH@Z  004374f0 f   Language:pretty.obj
 0001:00036550       ?self_print_list_Language@@YAXPAVlist@@@Z 00437550 f   Language:pretty.obj
 0001:000365f0       ?self_print_set_Language@@YAXPAVset@@@Z 004375f0 f   Language:pretty.obj
 0001:000366b0       ?self_print_tuple_Language@@YAXPAVtuple@@@Z 004376b0 f   Language:pretty.obj
 0001:000366e0       ?metaLoad@ReaderClass@@QAEXXZ 004376e0 f   Reader:Reader.obj
 0001:00039f20       ?self_eval_delimiter@@YAHPAVdelimiter@@@Z 0043af20 f   Reader:file.obj
 0001:00039fa0       ?useless_c_integer@@YAPAVClaireBoolean@@H@Z 0043afa0 f   Reader:file.obj
 0001:0003a000       ?skipc_meta_reader@@YAHPAVmeta_reader@@@Z 0043b000 f   Reader:file.obj
 0001:0003a090       ?skipc_I_meta_reader@@YAHPAVmeta_reader@@@Z 0043b090 f   Reader:file.obj
 0001:0003a160       ?cnext_meta_reader@@YAPAVmeta_reader@@PAV1@@Z 0043b160 f   Reader:file.obj
 0001:0003a180       ?findeol_meta_reader@@YAPAVClaireBoolean@@PAVmeta_reader@@@Z 0043b180 f   Reader:file.obj
 0001:0003a230       ?checkno_meta_reader@@YAHPAVmeta_reader@@HH@Z 0043b230 f   Reader:file.obj
 0001:0003a2a0       ?verify_any@@YAHHHH@Z      0043b2a0 f   Reader:file.obj
 0001:0003a2f0       ?Serror_string@@YAXPADPAVlist@@@Z 0043b2f0 f   Reader:file.obj
 0001:0003a370       ?extract_variable_any@@YAPAVVariable@@H@Z 0043b370 f   Reader:file.obj
 0001:0003a540       ?bind_I_meta_reader@@YAPAVlist@@PAVmeta_reader@@PAVVariable@@@Z 0043b540 f   Reader:file.obj
 0001:0003a5b0       ?unbind_I_meta_reader@@YAHPAVmeta_reader@@PAVlist@@@Z 0043b5b0 f   Reader:file.obj
 0001:0003a5f0       ?_7_string@@YAPADPAD0@Z    0043b5f0 f   Reader:file.obj
 0001:0003a6c0       ?restore_state_meta_reader@@YAXPAVmeta_reader@@@Z 0043b6c0 f   Reader:file.obj
 0001:0003a730       ?load_file_string@@YAHPADPAVClaireBoolean@@@Z 0043b730 f   Reader:file.obj
 0001:0003acf0       ?load_string@@YAHPAD@Z     0043bcf0 f   Reader:file.obj
 0001:0003ad10       ?sload_string@@YAHPAD@Z    0043bd10 f   Reader:file.obj
 0001:0003ad30       ?load_file_module@@YAXPAVmodule@@PAVClaireBoolean@@@Z 0043bd30 f   Reader:file.obj
 0001:0003aef0       ?load_module@@YAHPAVmodule@@@Z 0043bef0 f   Reader:file.obj
 0001:0003b010       ?sload_module@@YAHPAVmodule@@@Z 0043c010 f   Reader:file.obj
 0001:0003b130       ?add_modules_module@@YAPAVlist@@PAVmodule@@PAVset@@PAV1@@Z 0043c130 f   Reader:file.obj
 0001:0003b3c0       ?add_modules_list@@YAPAVlist@@PAV1@@Z 0043c3c0 f   Reader:file.obj
 0001:0003b490       ?eload_string@@YAHPAD@Z    0043c490 f   Reader:file.obj
 0001:0003b860       ?readblock_port@@YAHPAVClairePort@@@Z 0043c860 f   Reader:file.obj
 0001:0003ba00       ?read_port@@YAHPAVClairePort@@@Z 0043ca00 f   Reader:file.obj
 0001:0003bbf0       ?read_string@@YAHPAD@Z     0043cbf0 f   Reader:file.obj
 0001:0003bdb0       ?debug_if_possible_void@@YAHXZ 0043cdb0 f   Reader:file.obj
 0001:0003be00       ?print_exception_void@@YAHXZ 0043ce00 f   Reader:file.obj
 0001:0003c040       ?show_any@@YAHH@Z          0043d040 f   Reader:file.obj
 0001:0003c180       ?kill_object@@YAHPAVClaireObject@@@Z 0043d180 f   Reader:file.obj
 0001:0003c210       ?kill_class@@YAHPAVClaireClass@@@Z 0043d210 f   Reader:file.obj
 0001:0003c290       ?min_integer@@YAHHH@Z      0043d290 f   Reader:file.obj
 0001:0003c2a0       ?max_integer@@YAHHH@Z      0043d2a0 f   Reader:file.obj
 0001:0003c2b0       ?min_any@@YAHHH@Z          0043d2b0 f   Reader:file.obj
 0001:0003c2f0       ?max_any@@YAHHH@Z          0043d2f0 f   Reader:file.obj
 0001:0003c330       ?hashgrow_list@@YAPAVlist@@PAV1@PAVproperty@@@Z 0043d330 f   Reader:file.obj
 0001:0003c440       ?known_ask_table@@YAPAVClaireBoolean@@PAVtable@@H@Z 0043d440 f   Reader:file.obj
 0001:0003c470       ?unknown_ask_table@@YAPAVClaireBoolean@@PAVtable@@H@Z 0043d470 f   Reader:file.obj
 0001:0003c4a0       ?float_I_string_@@YAHPAD@Z 0043d4a0 f   Reader:file.obj
 0001:0003c530       ?float_I_string@@YANPAD@Z  0043d530 f   Reader:file.obj
 0001:0003c680       ?_sup_equal_any@@YAPAVClaireBoolean@@HH@Z 0043d680 f   Reader:file.obj
 0001:0003c6b0       ?inspect_any@@YAHH@Z       0043d6b0 f   Reader:inspect.obj
 0001:0003ca90       ?inspect_loop_any@@YAHHPAVlist@@@Z 0043da90 f   Reader:inspect.obj
 0001:0003ce70       ?get_from_integer_any@@YAHHH@Z 0043de70 f   Reader:inspect.obj
 0001:0003cfd0       ?trace_on_any@@YAHH@Z      0043dfd0 f   Reader:inspect.obj
 0001:0003d400       ?untrace_any@@YAHH@Z       0043e400 f   Reader:inspect.obj
 0001:0003d730       ?spy_listargs2_Reader@@YAHPAVlistargs@@@Z 0043e730 f   Reader:inspect.obj
 0001:0003d910       ?self_trace_Trace@@YAHPAVTrace@@@Z 0043e910 f   Reader:inspect.obj
 0001:0003da20       ?trace_rule_relation@@YAXPAVClaireRelation@@PADHHHH@Z 0043ea20 f   Reader:inspect.obj
 0001:0003dc20       ?stop_property@@YAHPAVproperty@@PAVlistargs@@@Z 0043ec20 f   Reader:inspect.obj
 0001:0003dd30       ?debug_void@@YAXXZ         0043ed30 f   Reader:inspect.obj
 0001:0003dd90       ?call_debug_void@@YAHXZ    0043ed90 f   Reader:inspect.obj
 0001:0003e000       ?breakpoint_void@@YAXXZ    0043f000 f   Reader:inspect.obj
 0001:0003e260       ?dn_integer@@YAXH@Z        0043f260 f   Reader:inspect.obj
 0001:0003e3c0       ?up_integer@@YAXH@Z        0043f3c0 f   Reader:inspect.obj
 0001:0003e500       ?where_integer@@YAXH@Z     0043f500 f   Reader:inspect.obj
 0001:0003e560       ?print_debug_info_integer@@YAXHHH@Z 0043f560 f   Reader:inspect.obj
 0001:0003e6f0       ?Show_integer@@YAHH@Z      0043f6f0 f   Reader:inspect.obj
 0001:0003e8f0       ?block_integer@@YAXH@Z     0043f8f0 f   Reader:inspect.obj
 0001:0003ec20       ?closure_build_lambda@@YAPAVlist@@PAVlambda@@@Z 0043fc20 f   Reader:inspect.obj
 0001:0003ed50       ?closure_build_any@@YAXHPAVlist@@@Z 0043fd50 f   Reader:inspect.obj
 0001:0003ef40       ?call_step_property_Reader@@YAXPAVproperty@@@Z 0043ff40 f   Reader:inspect.obj
 0001:0003eff0       ?step_any@@YAXH@Z          0043fff0 f   Reader:inspect.obj
 0001:0003f190       ?mem_class@@YAHPAVClaireClass@@@Z 00440190 f   Reader:inspect.obj
 0001:0003f320       ?PRget_property@@YAPAVPRcount@@PAVproperty@@@Z 00440320 f   Reader:inspect.obj
 0001:0003f4a0       ?PRlook_property2@@YAHPAVproperty@@@Z 004404a0 f   Reader:inspect.obj
 0001:0003f4d0       ?PRshow_property@@YAXPAVproperty@@@Z 004404d0 f   Reader:inspect.obj
 0001:0003f5f0       ?PRtime_property@@YAHPAVproperty@@@Z 004405f0 f   Reader:inspect.obj
 0001:0003f640       ?PRshow_void@@YAHXZ        00440640 f   Reader:inspect.obj
 0001:0003f9e0       ?dependents_method@@YAPAVset@@PAVmethod@@@Z 004409e0 f   Reader:inspect.obj
 0001:0003fb90       ?dependents_any@@YAHH@Z    00440b90 f   Reader:inspect.obj
 0001:0003ff30       ?PRdepends_property@@YAHPAVproperty@@0@Z 00440f30 f   Reader:inspect.obj
 0001:0003ff70       ?DBregister_Call@@YAPAVCall@@PAV1@@Z 00440f70 f   Reader:syntax.obj
 0001:00040130       ?Call_I_property@@YAPAVCall@@PAVproperty@@PAVlist@@@Z 00441130 f   Reader:syntax.obj
 0001:00040210       ?operation_ask_any@@YAPAVClaireBoolean@@H@Z 00441210 f   Reader:syntax.obj
 0001:00040330       ?combine_any@@YAHHHH@Z     00441330 f   Reader:syntax.obj
 0001:00040450       ?combine_I_any@@YAHHHH@Z   00441450 f   Reader:syntax.obj
 0001:00040ff0       ?operation_I_any@@YAHH@Z   00441ff0 f   Reader:syntax.obj
 0001:000412d0       ?operand_I_any@@YAHHH@Z    004422d0 f   Reader:syntax.obj
 0001:00041750       ?precedence_I_any@@YAHH@Z  00442750 f   Reader:syntax.obj
 0001:000417f0       ?nextstruct_meta_reader@@YAHPAVmeta_reader@@PAVkeyword@@1@Z 004427f0 f   Reader:syntax.obj
 0001:00041b10       ?readlet_meta_reader@@YAHPAVmeta_reader@@PAVkeyword@@@Z 00442b10 f   Reader:syntax.obj
 0001:00042210       ?readlet_star_meta_reader@@YAHPAVmeta_reader@@PAVlist@@HPAVkeyword@@@Z 00443210 f   Reader:syntax.obj
 0001:00042390       ?readwhen_meta_reader@@YAHPAVmeta_reader@@PAVkeyword@@@Z 00443390 f   Reader:syntax.obj
 0001:000425d0       ?readif_meta_reader@@YAHPAVmeta_reader@@H@Z 004435d0 f   Reader:syntax.obj
 0001:000427a0       ?readcase_meta_reader@@YAHPAVmeta_reader@@PAVkeyword@@@Z 004437a0 f   Reader:syntax.obj
 0001:00042a10       ?readset_meta_reader@@YAHPAVmeta_reader@@H@Z 00443a10 f   Reader:syntax.obj
 0001:00042eb0       ?dereference_any@@YAHH@Z   00443eb0 f   Reader:syntax.obj
 0001:00043060       ?nextseq_meta_reader@@YAHPAVmeta_reader@@H@Z 00444060 f   Reader:syntax.obj
 0001:00043200       ?readblock_meta_reader@@YAHPAVmeta_reader@@HH@Z 00444200 f   Reader:syntax.obj
 0001:00043550       ?Do_I_any@@YAHHH@Z         00444550 f   Reader:syntax.obj
 0001:000436f0       ?extract_of_type_Call@@YAPAVClaireType@@PAVCall@@@Z 004446f0 f   Reader:syntax.obj
 0001:000438b0       ?readcall_meta_reader@@YAHPAVmeta_reader@@HH@Z 004448b0 f   Reader:syntax.obj
 0001:000447e0       ?nextdefinition_meta_reader@@YAHPAVmeta_reader@@HHPAVClaireBoolean@@@Z 004457e0 f   Reader:syntax.obj
 0001:00044fb0       ?nextmethod_meta_reader@@YAHPAVmeta_reader@@HHPAVClaireBoolean@@11@Z 00445fb0 f   Reader:syntax.obj
 0001:000451a0       ?nextinst_meta_reader@@YAHPAVmeta_reader@@H@Z 004461a0 f   Reader:syntax.obj
 0001:00045930       ?nextDefclass_meta_reader@@YAPAVDefclass@@PAVmeta_reader@@HPAVClaireBoolean@@@Z 00446930 f   Reader:syntax.obj
 0001:00045fa0       ?next_meta_reader@@YAHPAVmeta_reader@@@Z 00446fa0 f   Reader:read.obj
 0001:00045fb0       ?firstc_meta_reader@@YAHPAVmeta_reader@@@Z 00446fb0 f   Reader:read.obj
 0001:00045fc0       ?keyword_ask_any@@YAHH@Z   00446fc0 f   Reader:read.obj
 0001:00046010       ?stop_ask_integer@@YAHH@Z  00447010 f   Reader:read.obj
 0001:00046090       ?nextunit_meta_reader@@YAHPAVmeta_reader@@@Z 00447090 f   Reader:read.obj
 0001:000469f0       ?nexts_meta_reader@@YAHPAVmeta_reader@@PAVkeyword@@@Z 004479f0 f   Reader:read.obj
 0001:00046c30       ?loopexp_meta_reader@@YAHPAVmeta_reader@@HPAVkeyword@@PAVClaireBoolean@@@Z 00447c30 f   Reader:read.obj
 0001:000472e0       ?nexte_meta_reader@@YAHPAVmeta_reader@@@Z 004482e0 f   Reader:read.obj
 0001:00047400       ?nextexp_meta_reader@@YAHPAVmeta_reader@@PAVClaireBoolean@@@Z 00448400 f   Reader:read.obj
 0001:00047bb0       ?nexti_meta_reader@@YAHPAVmeta_reader@@H@Z 00448bb0 f   Reader:read.obj
 0001:00048580       ?read_escape_meta_reader@@YAHPAVmeta_reader@@@Z 00449580 f   Reader:read.obj
 0001:00048660       ?nextvariable_meta_reader@@YAHPAVmeta_reader@@H@Z 00449660 f   Reader:read.obj
 0001:000487b0       ?nexts_I_meta_reader1@@YAHPAVmeta_reader@@PAVkeyword@@@Z 004497b0 f   Reader:read.obj
 0001:000488b0       ?nexte_I_meta_reader@@YAHPAVmeta_reader@@PAVkeyword@@@Z 004498b0 f   Reader:read.obj
 0001:00048990       ?nexts_I_meta_reader2@@YAHPAVmeta_reader@@H@Z 00449990 f   Reader:read.obj
 0001:00048a90       ?nexts_I_meta_reader3@@YAHPAVmeta_reader@@PAVkeyword@@H@Z 00449a90 f   Reader:read.obj
 0001:00048ba0       ?extended_comment_ask_meta_reader@@YAPAVClaireBoolean@@PAVmeta_reader@@PAD@Z 00449ba0 f   Reader:read.obj
 0001:00048c50       ?extended_comment_I_meta_reader@@YAHPAVmeta_reader@@PAD@Z 00449c50 f   Reader:read.obj
 0001:00048f10       ?metaLoad@OptimizeClass@@QAEXXZ 00449f10 f   Optimize:Optimize.obj
 0001:0004f450       ?c_type_List_Optimize@@YAPAVClaireType@@PAVList@@@Z 00450450 f   Optimize:odefine.obj
 0001:0004f620       ?c_code_List_Optimize@@YAHPAVList@@@Z 00450620 f   Optimize:odefine.obj
 0001:0004fac0       ?c_type_Set_Optimize@@YAPAVClaireType@@PAVSet@@@Z 00450ac0 f   Optimize:odefine.obj
 0001:0004fc90       ?c_code_Set_Optimize@@YAHPAVSet@@@Z 00450c90 f   Optimize:odefine.obj
 0001:00050130       ?c_type_Tuple_Optimize@@YAPAVClaireType@@PAVTuple@@@Z 00451130 f   Optimize:odefine.obj
 0001:00050210       ?c_code_Tuple_Optimize@@YAHPAVTuple@@@Z 00451210 f   Optimize:odefine.obj
 0001:000503a0       ?c_type_Definition_Optimize@@YAPAVClaireType@@PAVDefinition@@@Z 004513a0 f   Optimize:odefine.obj
 0001:000503d0       ?c_code_Definition_Optimize@@YAHPAVDefinition@@PAVClaireClass@@@Z 004513d0 f   Optimize:odefine.obj
 0001:00050750       ?total_ask_class@@YAHPAVClaireClass@@PAVlist@@@Z 00451750 f   Optimize:odefine.obj
 0001:00050b80       ?analyze_I_class@@YAHPAVClaireClass@@HPAVlist@@1@Z 00451b80 f   Optimize:odefine.obj
 0001:00051510       ?c_code_Defobj_Optimize@@YAHPAVDefobj@@PAVClaireClass@@@Z 00452510 f   Optimize:odefine.obj
 0001:00051a70       ?c_code_Defclass_Optimize@@YAHPAVDefclass@@PAVClaireClass@@@Z 00452a70 f   Optimize:odefine.obj
 0001:00051f90       ?c_type_Defmethod_Optimize@@YAPAVClaireType@@PAVDefmethod@@@Z 00452f90 f   Optimize:odefine.obj
 0001:00051fa0       ?c_code_Defmethod_Optimize@@YAHPAVDefmethod@@@Z 00452fa0 f   Optimize:odefine.obj
 0001:00052780       ?add_method_property2@@YAPAVmethod@@PAVproperty@@PAVlist@@PAVClaireType@@HPAVClaireFunction@@3@Z 00453780 f   Optimize:odefine.obj
 0001:000527c0       ?add_method_I_method@@YAHPAVmethod@@PAVlist@@HHPAVClaireFunction@@@Z 004537c0 f   Optimize:odefine.obj
 0001:00052a30       ?extract_status_new_any@@YAPAVlist@@H@Z 00453a30 f   Optimize:odefine.obj
 0001:00053050       ?extract_signature_I_list@@YAPAVlist@@PAV1@@Z 00454050 f   Optimize:odefine.obj
 0001:00053270       ?_equalsig_ask_list@@YAPAVClaireBoolean@@PAVlist@@0@Z 00454270 f   Optimize:odefine.obj
 0001:000532b0       ?function_name_property_Optimize@@YAPADPAVproperty@@PAVlist@@H@Z 004542b0 f   Optimize:odefine.obj
 0001:00053590       ?compile_lambda_string@@YAHPADPAVlambda@@H@Z 00454590 f   Optimize:odefine.obj
 0001:000536c0       ?c_code_Defarray_Optimize@@YAHPAVDefarray@@@Z 004546c0 f   Optimize:odefine.obj
 0001:00054800       ?compute_if_write_inverse_relation2@@YAXPAVClaireRelation@@@Z 00455800 f   Optimize:odefine.obj
 0001:00055340       ?compute_set_write_relation2@@YAHPAVClaireRelation@@@Z 00456340 f   Optimize:odefine.obj
 0001:000558a0       ?Produce_put_property2@@YAHPAVproperty@@PAVVariable@@H@Z 004568a0 f   Optimize:odefine.obj
 0001:00055e50       ?Produce_erase_property2@@YAHPAVproperty@@PAVVariable@@@Z 00456e50 f   Optimize:odefine.obj
 0001:000562a0       ?Produce_put_table2@@YAHPAVtable@@PAVVariable@@H@Z 004572a0 f   Optimize:odefine.obj
 0001:00056510       ?Produce_get_relation2@@YAHPAVClaireRelation@@PAVVariable@@@Z 00457510 f   Optimize:odefine.obj
 0001:00056980       ?Produce_remove_property2@@YAHPAVproperty@@PAVVariable@@H@Z 00457980 f   Optimize:odefine.obj
 0001:00056d80       ?Produce_remove_table2@@YAHPAVtable@@PAVVariable@@H@Z 00457d80 f   Optimize:odefine.obj
 0001:00057000       ?Tighten_relation2@@YAHPAVClaireRelation@@@Z 00458000 f   Optimize:odefine.obj
 0001:00057220       ?lexical_num_any2@@YAXHH@Z 00458220 f   Optimize:odefine.obj
 0001:00057510       ?c_type_Defrule2_Optimize@@YAPAVClaireType@@PAVDefrule@@@Z 00458510 f   Optimize:odefine.obj
 0001:00057520       ?c_code_Defrule_Optimize@@YAHPAVDefrule@@PAVClaireClass@@@Z 00458520 f   Optimize:odefine.obj
 0001:00057990       ?compile_if_write_relation@@YAXPAVClaireRelation@@@Z 00458990 f   Optimize:odefine.obj
 0001:000583a0       ?compileEventMethod_property@@YAXPAVproperty@@@Z 004593a0 f   Optimize:odefine.obj
 0001:000584c0       ?c_type_Assign_Optimize@@YAPAVClaireType@@PAVAssign@@@Z 004594c0 f   Optimize:ocontrol.obj
 0001:00058570       ?c_code_Assign_Optimize@@YAHPAVAssign@@@Z 00459570 f   Optimize:ocontrol.obj
 0001:00058880       ?c_gc_ask_Assign@@YAPAVClaireBoolean@@PAVAssign@@@Z 00459880 f   Optimize:ocontrol.obj
 0001:00058930       ?c_type_Gassign_Optimize@@YAPAVClaireType@@PAVGassign@@@Z 00459930 f   Optimize:ocontrol.obj
 0001:000589e0       ?c_code_Gassign_Optimize@@YAHPAVGassign@@@Z 004599e0 f   Optimize:ocontrol.obj
 0001:00058c90       ?c_gc_ask_Gassign@@YAPAVClaireBoolean@@PAVGassign@@@Z 00459c90 f   Optimize:ocontrol.obj
 0001:00058d40       ?c_type_And_Optimize@@YAPAVClaireType@@PAVAnd@@@Z 00459d40 f   Optimize:ocontrol.obj
 0001:00058d50       ?c_code_And_Optimize@@YAHPAVAnd@@@Z 00459d50 f   Optimize:ocontrol.obj
 0001:00058ee0       ?c_type_Or_Optimize@@YAPAVClaireType@@PAVOr@@@Z 00459ee0 f   Optimize:ocontrol.obj
 0001:00058ef0       ?c_code_Or_Optimize@@YAHPAVOr@@@Z 00459ef0 f   Optimize:ocontrol.obj
 0001:00059080       ?c_type_Quote_Optimize@@YAPAVClaireType@@PAVQuote@@@Z 0045a080 f   Optimize:ocontrol.obj
 0001:000590b0       ?c_code_Quote_Optimize@@YAXPAVQuote@@@Z 0045a0b0 f   Optimize:ocontrol.obj
 0001:000590f0       ?c_type_to_protect_Optimize@@YAPAVClaireType@@PAVto_protect@@@Z 0045a0f0 f   Optimize:ocontrol.obj
 0001:000591a0       ?c_code_to_protect_Optimize@@YAHPAVto_protect@@@Z 0045a1a0 f   Optimize:ocontrol.obj
 0001:000591c0       ?c_gc_ask_to_protect@@YAPAVClaireBoolean@@PAVto_protect@@@Z 0045a1c0 f   Optimize:ocontrol.obj
 0001:000591d0       ?c_type_Return_Optimize@@YAPAVClaireType@@PAVReturn@@@Z 0045a1d0 f   Optimize:ocontrol.obj
 0001:000591e0       ?c_code_Return_Optimize@@YAHPAVReturn@@@Z 0045a1e0 f   Optimize:ocontrol.obj
 0001:00059300       ?c_type_Handle_Optimize@@YAPAVClaireType@@PAVClaireHandle@@@Z 0045a300 f   Optimize:ocontrol.obj
 0001:00059400       ?c_code_Handle_Optimize@@YAHPAVClaireHandle@@PAVClaireClass@@@Z 0045a400 f   Optimize:ocontrol.obj
 0001:000595a0       ?c_gc_ask_Handle@@YAPAVClaireBoolean@@PAVClaireHandle@@@Z 0045a5a0 f   Optimize:ocontrol.obj
 0001:00059680       ?c_type_Cast_Optimize@@YAPAVClaireType@@PAVCast@@@Z 0045a680 f   Optimize:ocontrol.obj
 0001:00059690       ?c_code_Cast_Optimize@@YAHPAVCast@@@Z 0045a690 f   Optimize:ocontrol.obj
 0001:00059910       ?c_type_Super_Optimize@@YAPAVClaireType@@PAVSuper@@@Z 0045a910 f   Optimize:ocontrol.obj
 0001:00059ac0       ?c_code_Super_Optimize@@YAHPAVSuper@@@Z 0045aac0 f   Optimize:ocontrol.obj
 0001:00059d80       ?self_print_Call_function2@@YAXPAVCall_function2@@@Z 0045ad80 f   Optimize:ocontrol.obj
 0001:00059dc0       ?c_type_Call_function2_Optimize@@YAPAVClaireType@@PAVCall_function2@@@Z 0045adc0 f   Optimize:ocontrol.obj
 0001:00059dd0       ?c_code_Call_function2_Optimize@@YAHPAVCall_function2@@@Z 0045add0 f   Optimize:ocontrol.obj
 0001:00059f10       ?c_code_Assert_Optimize@@YAHPAVAssert@@@Z 0045af10 f   Optimize:ocontrol.obj
 0001:0005a220       ?c_code_Trace_Optimize@@YAHPAVTrace@@@Z 0045b220 f   Optimize:ocontrol.obj
 0001:0005a900       ?c_type_Assert_Optimize@@YAPAVClaireType@@PAVAssert@@@Z 0045b900 f   Optimize:ocontrol.obj
 0001:0005a910       ?c_type_Trace_Optimize@@YAPAVClaireType@@PAVTrace@@@Z 0045b910 f   Optimize:ocontrol.obj
 0001:0005a920       ?c_type_Branch_Optimize@@YAPAVClaireType@@PAVBranch@@@Z 0045b920 f   Optimize:ocontrol.obj
 0001:0005a930       ?c_code_Branch_Optimize@@YAHPAVBranch@@@Z 0045b930 f   Optimize:ocontrol.obj
 0001:0005ae10       ?c_code_Macro_Optimize@@YAHPAVMacro@@PAVClaireClass@@@Z 0045be10 f   Optimize:ocontrol.obj
 0001:0005aee0       ?c_type_Macro_Optimize@@YAPAVClaireType@@PAVMacro@@@Z 0045bee0 f   Optimize:ocontrol.obj
 0001:0005afb0       ?c_type_Printf_Optimize@@YAPAVClaireType@@PAVPrintf@@@Z 0045bfb0 f   Optimize:ocontrol.obj
 0001:0005afc0       ?c_code_Printf_Optimize@@YAHPAVPrintf@@@Z 0045bfc0 f   Optimize:ocontrol.obj
 0001:0005b520       ?c_type_Error_Optimize@@YAPAVClaireType@@PAVError@@@Z 0045c520 f   Optimize:ocontrol.obj
 0001:0005b530       ?c_code_Error_Optimize@@YAHPAVError@@@Z 0045c530 f   Optimize:ocontrol.obj
 0001:0005b8c0       ?extendedTest_ask_If@@YAPAVClaireType@@PAVIf@@@Z 0045c8c0 f   Optimize:ocontrol.obj
 0001:0005ba70       ?c_type_If_Optimize@@YAPAVClaireType@@PAVIf@@@Z 0045ca70 f   Optimize:ocontrol.obj
 0001:0005bc70       ?c_code_If_Optimize@@YAHPAVIf@@PAVClaireClass@@@Z 0045cc70 f   Optimize:ocontrol.obj
 0001:0005bed0       ?c_gc_ask_If@@YAPAVClaireBoolean@@PAVIf@@@Z 0045ced0 f   Optimize:ocontrol.obj
 0001:0005bfb0       ?c_type_Case_Optimize@@YAPAVClaireType@@PAVCase@@@Z 0045cfb0 f   Optimize:ocontrol.obj
 0001:0005c410       ?c_code_Case_Optimize@@YAHPAVCase@@PAVClaireClass@@@Z 0045d410 f   Optimize:ocontrol.obj
 0001:0005cc60       ?c_type_Do_Optimize@@YAPAVClaireType@@PAVDo@@@Z 0045dc60 f   Optimize:ocontrol.obj
 0001:0005cd20       ?c_code_Do_Optimize@@YAHPAVDo@@PAVClaireClass@@@Z 0045dd20 f   Optimize:ocontrol.obj
 0001:0005ce80       ?c_gc_ask_Do@@YAPAVClaireBoolean@@PAVDo@@@Z 0045de80 f   Optimize:ocontrol.obj
 0001:0005cf40       ?c_type_Let_Optimize@@YAPAVClaireType@@PAVLet@@@Z 0045df40 f   Optimize:ocontrol.obj
 0001:0005d040       ?c_code_Let_Optimize@@YAHPAVLet@@PAVClaireClass@@@Z 0045e040 f   Optimize:ocontrol.obj
 0001:0005d240       ?c_type_When_Optimize@@YAPAVClaireType@@PAVWhen@@@Z 0045e240 f   Optimize:ocontrol.obj
 0001:0005d3e0       ?c_code_When_Optimize@@YAHPAVWhen@@PAVClaireClass@@@Z 0045e3e0 f   Optimize:ocontrol.obj
 0001:0005dbb0       ?c_gc_ask_Let@@YAPAVClaireBoolean@@PAVLet@@@Z 0045ebb0 f   Optimize:ocontrol.obj
 0001:0005dc60       ?c_type_For_Optimize@@YAPAVClaireType@@PAVFor@@@Z 0045ec60 f   Optimize:ocontrol.obj
 0001:0005dc70       ?c_code_For_Optimize@@YAHPAVFor@@PAVClaireClass@@@Z 0045ec70 f   Optimize:ocontrol.obj
 0001:0005e670       ?c_code_multiple_For@@YAHPAVFor@@PAVClaireType@@PAVClaireClass@@@Z 0045f670 f   Optimize:ocontrol.obj
 0001:0005eb70       ?c_gc_ask_Iteration@@YAPAVClaireBoolean@@PAVIteration@@@Z 0045fb70 f   Optimize:ocontrol.obj
 0001:0005eb80       ?c_type_Iteration_Optimize@@YAPAVClaireType@@PAVIteration@@@Z 0045fb80 f   Optimize:ocontrol.obj
 0001:0005ee40       ?c_code_Iteration_Optimize@@YAHPAVIteration@@@Z 0045fe40 f   Optimize:ocontrol.obj
 0001:0005f8c0       ?c_code_Select_Optimize@@YAHPAVSelect@@@Z 004608c0 f   Optimize:ocontrol.obj
 0001:0005f8e0       ?c_code_Lselect_Optimize@@YAHPAVLselect@@@Z 004608e0 f   Optimize:ocontrol.obj
 0001:0005f900       ?c_code_select_Iteration@@YAHPAVIteration@@PAVClaireClass@@@Z 00460900 f   Optimize:ocontrol.obj
 0001:0005fea0       ?inner_select_Iteration@@YAHPAVIteration@@HHH@Z 00460ea0 f   Optimize:ocontrol.obj
 0001:00060230       ?c_type_Exists_Optimize@@YAPAVClaireType@@PAVExists@@@Z 00461230 f   Optimize:ocontrol.obj
 0001:00060350       ?c_code_Exists_Optimize@@YAHPAVExists@@PAVClaireClass@@@Z 00461350 f   Optimize:ocontrol.obj
 0001:00060b70       ?c_type_Image_Optimize@@YAPAVClaireType@@PAVImage@@@Z 00461b70 f   Optimize:ocontrol.obj
 0001:00060cb0       ?c_type_Select_Optimize@@YAPAVClaireType@@PAVSelect@@@Z 00461cb0 f   Optimize:ocontrol.obj
 0001:00060e00       ?c_type_Lselect_Optimize@@YAPAVClaireType@@PAVLselect@@@Z 00461e00 f   Optimize:ocontrol.obj
 0001:00060f50       ?c_type_While_Optimize@@YAPAVClaireType@@PAVWhile@@@Z 00461f50 f   Optimize:ocontrol.obj
 0001:00060f60       ?c_code_While_Optimize@@YAHPAVWhile@@PAVClaireClass@@@Z 00461f60 f   Optimize:ocontrol.obj
 0001:000610e0       ?Iterate_I_Iteration@@YAHPAVIteration@@@Z 004620e0 f   Optimize:ocontrol.obj
 0001:00061200       ?iterate_Interval@@YAHPAVInterval@@PAVVariable@@H@Z 00462200 f   Optimize:ocontrol.obj
 0001:000612e0       ?iterate_array@@YAHPAHPAVVariable@@H@Z 004622e0 f   Optimize:ocontrol.obj
 0001:00061320       ?Iterate_class@@YAHPAVClaireClass@@PAVVariable@@H@Z 00462320 f   Optimize:ocontrol.obj
 0001:000613c0       ?Iterate_any1@@YAHHPAVVariable@@H@Z 004623c0 f   Optimize:ocontrol.obj
 0001:00061540       ?Iterate_Lselect@@YAHPAVLselect@@PAVVariable@@H@Z 00462540 f   Optimize:ocontrol.obj
 0001:00061680       ?Iterate_Select@@YAHPAVSelect@@PAVVariable@@H@Z 00462680 f   Optimize:ocontrol.obj
 0001:000617c0       ?Iterate_Collect@@YAHPAVCollect@@PAVVariable@@H@Z 004627c0 f   Optimize:ocontrol.obj
 0001:000618b0       ?Iterate_any2@@YAHHPAVVariable@@H@Z 004628b0 f   Optimize:ocontrol.obj
 0001:00061a30       ?Iterate_any3@@YAHHPAVVariable@@H@Z 00462a30 f   Optimize:ocontrol.obj
 0001:00061bb0       ?restriction_I_property@@YAHPAVproperty@@PAVlist@@PAVClaireBoolean@@@Z 00462bb0 f   Optimize:ocall.obj
 0001:00061c20       ?restriction_I_list@@YAHPAVlist@@0PAVClaireBoolean@@@Z 00462c20 f   Optimize:ocall.obj
 0001:00061e50       ?restriction_I_class@@YAHPAVClaireClass@@PAVlist@@1@Z 00462e50 f   Optimize:ocall.obj
 0001:00061f90       ?use_range_method@@YAPAVClaireType@@PAVmethod@@PAVlist@@@Z 00462f90 f   Optimize:ocall.obj
 0001:00062700       ?c_type_Call_Optimize@@YAPAVClaireType@@PAVCall@@@Z 00463700 f   Optimize:ocall.obj
 0001:00062fd0       ?c_code_Call_Optimize@@YAHPAVCall@@@Z 00463fd0 f   Optimize:ocall.obj
 0001:00062ff0       ?c_code_call_Call@@YAHPAVCall@@PAVClaireClass@@@Z 00463ff0 f   Optimize:ocall.obj
 0001:00064200       ?open_message_property@@YAPAVCall@@PAVproperty@@PAVlist@@@Z 00465200 f   Optimize:ocall.obj
 0001:000645c0       ?c_gc_ask_Call@@YAPAVClaireBoolean@@PAVCall@@@Z 004655c0 f   Optimize:ocall.obj
 0001:000646d0       ?daccess_any@@YAHHPAVClaireBoolean@@@Z 004656d0 f   Optimize:ocall.obj
 0001:000649e0       ?c_gc_ask_Call_slot@@YAPAVClaireBoolean@@PAVCall_slot@@@Z 004659e0 f   Optimize:ocall.obj
 0001:00064b40       ?c_type_Call_slot_Optimize@@YAPAVClaireType@@PAVCall_slot@@@Z 00465b40 f   Optimize:ocall.obj
 0001:00064b50       ?c_type_Call_table_Optimize@@YAPAVClaireType@@PAVCall_table@@@Z 00465b50 f   Optimize:ocall.obj
 0001:00064b60       ?c_type_Call_array_Optimize@@YAPAVClaireType@@PAVCall_array@@@Z 00465b60 f   Optimize:ocall.obj
 0001:00064b80       ?c_code_write_Call@@YAHPAVCall@@@Z 00465b80 f   Optimize:ocall.obj
 0001:00065290       ?c_code_hold_property@@YAHPAVproperty@@HHPAVClaireBoolean@@@Z 00466290 f   Optimize:ocall.obj
 0001:00065770       ?c_code_add_Call@@YAHPAVCall@@@Z 00466770 f   Optimize:ocall.obj
 0001:00065d70       ?c_code_add_bag_Call@@YAHPAVCall@@@Z 00466d70 f   Optimize:ocall.obj
 0001:00065f70       ?c_code_delete_Call@@YAHPAVCall@@@Z 00466f70 f   Optimize:ocall.obj
 0001:000662e0       ?c_code_not_Select@@YAHPAVSelect@@@Z 004672e0 f   Optimize:ocall.obj
 0001:00066540       ?c_code_belong_Call@@YAHPAVCall@@@Z 00467540 f   Optimize:ocall.obj
 0001:000669a0       ?c_code_nth_Call@@YAHPAVCall@@@Z 004679a0 f   Optimize:ocall.obj
 0001:00067380       ?c_code_table_Call@@YAHPAVCall@@@Z 00468380 f   Optimize:ocall.obj
 0001:00067880       ?c_code_array_Call@@YAHPAVCall@@@Z 00468880 f   Optimize:ocall.obj
 0001:00067c50       ?Update_ask_relation@@YAPAVClaireBoolean@@PAVClaireRelation@@HH@Z 00468c50 f   Optimize:ocall.obj
 0001:00067e10       ?Update_ask_relation2@@YAPAVClaireBoolean@@PAVClaireRelation@@0@Z 00468e10 f   Optimize:ocall.obj
 0001:00067eb0       ?c_type_Update_Optimize@@YAPAVClaireType@@PAVUpdate@@@Z 00468eb0 f   Optimize:ocall.obj
 0001:00067ec0       ?c_code_method_method1@@YAHPAVmethod@@PAVlist@@1@Z 00468ec0 f   Optimize:ocall.obj
 0001:00067ef0       ?c_code_method_method2@@YAHPAVmethod@@PAVlist@@1PAVClaireClass@@@Z 00468ef0 f   Optimize:ocall.obj
 0001:00068190       ?Call_method_I_method@@YAHPAVmethod@@PAVlist@@@Z 00469190 f   Optimize:ocall.obj
 0001:00068500       ?c_type_Call_method_Optimize@@YAPAVClaireType@@PAVCall_method@@@Z 00469500 f   Optimize:ocall.obj
 0001:000685f0       ?c_code_Call_method_Optimize@@YAHPAVCall_method@@@Z 004695f0 f   Optimize:ocall.obj
 0001:00068610       ?c_gc_ask_Call_method@@YAPAVClaireBoolean@@PAVCall_method@@@Z 00469610 f   Optimize:ocall.obj
 0001:000688b0       ?functional_I_method_Optimize@@YAPAVClaireFunction@@PAVmethod@@@Z 004698b0 f   Optimize:ocall.obj
 0001:00068a20       ?nth_type_check_type@@YAHPAVClaireType@@00@Z 00469a20 f   Optimize:ocall.obj
 0001:00068b20       ?c_inline_ask_method@@YAPAVClaireBoolean@@PAVmethod@@PAVlist@@@Z 00469b20 f   Optimize:ocall.obj
 0001:00068d20       ?inline_optimize_ask_Call@@YAHPAVCall@@@Z 00469d20 f   Optimize:ocall.obj
 0001:00068f50       ?self_print_to_protect@@YAXPAVto_protect@@@Z 00469f50 f   Optimize:otool.obj
 0001:00069000       ?self_eval_to_protect@@YAHPAVto_protect@@@Z 0046a000 f   Optimize:otool.obj
 0001:000690c0       ?self_print_to_CL@@YAXPAVto_CL@@@Z 0046a0c0 f   Optimize:otool.obj
 0001:000691a0       ?c_type_to_CL_Optimize@@YAPAVClaireType@@PAVto_CL@@@Z 0046a1a0 f   Optimize:otool.obj
 0001:00069260       ?c_gc_ask_to_CL@@YAPAVClaireBoolean@@PAVto_CL@@@Z 0046a260 f   Optimize:otool.obj
 0001:00069360       ?self_print_to_C@@YAXPAVto_C@@@Z 0046a360 f   Optimize:otool.obj
 0001:00069440       ?c_gc_ask_to_C@@YAPAVClaireBoolean@@PAVto_C@@@Z 0046a440 f   Optimize:otool.obj
 0001:00069540       ?c_type_to_C_Optimize@@YAPAVClaireType@@PAVto_C@@@Z 0046a540 f   Optimize:otool.obj
 0001:00069610       ?self_print_C_cast@@YAXPAVC_cast@@@Z 0046a610 f   Optimize:otool.obj
 0001:000696f0       ?c_gc_ask_C_cast@@YAPAVClaireBoolean@@PAVC_cast@@@Z 0046a6f0 f   Optimize:otool.obj
 0001:000697a0       ?c_type_C_cast_Optimize@@YAPAVClaireType@@PAVC_cast@@@Z 0046a7a0 f   Optimize:otool.obj
 0001:000697b0       ?c_code_C_cast_Optimize@@YAHPAVC_cast@@PAVClaireClass@@@Z 0046a7b0 f   Optimize:otool.obj
 0001:00069930       ?self_print_Pattern@@YAXPAVClairePattern@@@Z 0046a930 f   Optimize:otool.obj
 0001:00069a00       ?_Z_any3@@YAPAVClaireBoolean@@HPAVClairePattern@@@Z 0046aa00 f   Optimize:otool.obj
 0001:00069bb0       ?glb_Pattern@@YAPAVClaireType@@PAVClairePattern@@PAV1@@Z 0046abb0 f   Optimize:otool.obj
 0001:00069bc0       ?less_ask_Pattern@@YAPAVClaireBoolean@@PAVClairePattern@@H@Z 0046abc0 f   Optimize:otool.obj
 0001:00069d50       ?less_ask_any@@YAPAVClaireBoolean@@HPAVClairePattern@@@Z 0046ad50 f   Optimize:otool.obj
 0001:00069eb0       ?nth_property@@YAPAVClairePattern@@PAVproperty@@PAVtuple@@@Z 0046aeb0 f   Optimize:otool.obj
 0001:00069f90       ?warn_void@@YAHXZ          0046af90 f   Optimize:otool.obj
 0001:0006a060       ?Cerror_string@@YAXPADPAVlistargs@@@Z 0046b060 f   Optimize:otool.obj
 0001:0006a180       ?c_warn_Call@@YAHPAVCall@@H@Z 0046b180 f   Optimize:otool.obj
 0001:0006a420       ?c_warn_Super@@YAHPAVSuper@@H@Z 0046b420 f   Optimize:otool.obj
 0001:0006a600       ?c_warn_property@@YAHPAVproperty@@PAVlist@@1@Z 0046b600 f   Optimize:otool.obj
 0001:0006a650       ?c_warn_Variable@@YAHPAVVariable@@HPAVClaireType@@@Z 0046b650 f   Optimize:otool.obj
 0001:0006a960       ?sort_equal_class@@YAHPAVClaireClass@@0@Z 0046b960 f   Optimize:otool.obj
 0001:0006aa10       ?psort_any@@YAPAVClaireClass@@H@Z 0046ba10 f   Optimize:otool.obj
 0001:0006aa80       ?osort_any@@YAPAVClaireClass@@H@Z 0046ba80 f   Optimize:otool.obj
 0001:0006aab0       ?sort_Variable@@YAPAVClaireClass@@PAVVariable@@@Z 0046bab0 f   Optimize:otool.obj
 0001:0006abf0       ?stupid_t_any1@@YAPAVClaireClass@@H@Z 0046bbf0 f   Optimize:otool.obj
 0001:0006ba90       ?stupid_t_any2@@YAPAVClaireBoolean@@HH@Z 0046ca90 f   Optimize:otool.obj
 0001:0006bad0       ?extended_ask_type@@YAPAVClaireBoolean@@PAVClaireType@@@Z 0046cad0 f   Optimize:otool.obj
 0001:0006bb50       ?extends_type@@YAPAVClaireType@@PAV1@@Z 0046cb50 f   Optimize:otool.obj
 0001:0006bc10       ?sort_abstract_I_type@@YAPAVClaireType@@PAV1@@Z 0046cc10 f   Optimize:otool.obj
 0001:0006bdf0       ?sort_abstract_ask_type@@YAPAVClaireBoolean@@PAVClaireType@@@Z 0046cdf0 f   Optimize:otool.obj
 0001:0006be60       ?ptype_type@@YAPAVClaireType@@PAV1@@Z 0046ce60 f   Optimize:otool.obj
 0001:0006beb0       ?pmember_type@@YAPAVClaireType@@PAV1@@Z 0046ceb0 f   Optimize:otool.obj
 0001:0006bed0       ?enumerate_code_any@@YAHHPAVClaireType@@@Z 0046ced0 f   Optimize:otool.obj
 0001:0006bff0       ?range_infers_for_Variable@@YAHPAVVariable@@PAVClaireType@@1@Z 0046cff0 f   Optimize:otool.obj
 0001:0006c210       ?range_infers_Variable@@YAHPAVVariable@@PAVClaireType@@@Z 0046d210 f   Optimize:otool.obj
 0001:0006c2a0       ?range_infer_case_any@@YAXHPAVClaireType@@@Z 0046d2a0 f   Optimize:otool.obj
 0001:0006c4f0       ?c_check_any@@YAHHH@Z      0046d4f0 f   Optimize:otool.obj
 0001:0006c650       ?range_sets_any@@YAXHPAVClaireType@@@Z 0046d650 f   Optimize:otool.obj
 0001:0006c8a0       ?c_srange_method@@YAPAVClaireClass@@PAVmethod@@@Z 0046d8a0 f   Optimize:otool.obj
 0001:0006c8d0       ?c_code_Type_Optimize@@YAHPAVType@@PAVClaireClass@@@Z 0046d8d0 f   Optimize:otool.obj
 0001:0006c9a0       ?self_code_subtype@@YAHPAVsubtype@@@Z 0046d9a0 f   Optimize:otool.obj
 0001:0006caf0       ?self_code_Param@@YAHPAVParam@@@Z 0046daf0 f   Optimize:otool.obj
 0001:0006ce10       ?self_code_Union@@YAHPAVUnion@@@Z 0046de10 f   Optimize:otool.obj
 0001:0006cf90       ?self_code_Interval@@YAHPAVInterval@@@Z 0046df90 f   Optimize:otool.obj
 0001:0006d090       ?self_code_Reference@@YAHPAVReference@@@Z 0046e090 f   Optimize:otool.obj
 0001:0006d370       ?self_code_Pattern@@YAHPAVClairePattern@@@Z 0046e370 f   Optimize:otool.obj
 0001:0006d540       ?member_code_class2@@YAHPAVClaireClass@@H@Z 0046e540 f   Optimize:otool.obj
 0001:0006d7a0       ?member_code_Type@@YAHPAVType@@H@Z 0046e7a0 f   Optimize:otool.obj
 0001:0006d950       ?member_code_Union@@YAHPAVUnion@@H@Z 0046e950 f   Optimize:otool.obj
 0001:0006dab0       ?member_code_Interval@@YAHPAVInterval@@H@Z 0046eab0 f   Optimize:otool.obj
 0001:0006dce0       ?member_code_Param@@YAHPAVParam@@H@Z 0046ece0 f   Optimize:otool.obj
 0001:0006e060       ?member_code_any@@YAHHH@Z  0046f060 f   Optimize:otool.obj
 0001:0006e2a0       ?_Z_any4@@YAPAVClaireBoolean@@HH@Z 0046f2a0 f   Optimize:otool.obj
 0001:0006e410       ?_Z_any5@@YAPAVClaireBoolean@@HH@Z 0046f410 f   Optimize:otool.obj
 0001:0006e4c0       ?gcsafe_ask_class@@YAPAVClaireBoolean@@PAVClaireClass@@@Z 0046f4c0 f   Optimize:otool.obj
 0001:0006e610       ?gcsafe_ask_type@@YAPAVClaireBoolean@@PAVClaireType@@@Z 0046f610 f   Optimize:otool.obj
 0001:0006e7b0       ?gcsafe_ask_property@@YAPAVClaireBoolean@@PAVproperty@@@Z 0046f7b0 f   Optimize:otool.obj
 0001:0006e8b0       ?c_gc_I_any1@@YAHH@Z       0046f8b0 f   Optimize:otool.obj
 0001:0006e9e0       ?c_gc_I_any2@@YAHHPAVClaireType@@@Z 0046f9e0 f   Optimize:otool.obj
 0001:0006ec40       ?need_protect_any@@YAPAVClaireBoolean@@H@Z 0046fc40 f   Optimize:otool.obj
 0001:0006ed60       ?Variable_I_symbol@@YAPAVVariable@@PAVsymbol@@HPAVClaireType@@@Z 0046fd60 f   Optimize:otool.obj
 0001:0006ee40       ?get_indexed_class_Optimize@@YAPAVlist@@PAVClaireClass@@@Z 0046fe40 f   Optimize:otool.obj
 0001:0006ee50       ?designated_ask_any@@YAPAVClaireBoolean@@H@Z 0046fe50 f   Optimize:otool.obj
 0001:0006f620       ?gc_register_Variable@@YAHPAVVariable@@@Z 00470620 f   Optimize:otool.obj
 0001:0006f650       ?gc_register_Variable2@@YAHPAVVariable@@H@Z 00470650 f   Optimize:otool.obj
 0001:0006f680       ?inner2outer_ask_any@@YAPAVClaireBoolean@@H@Z 00470680 f   Optimize:otool.obj
 0001:0006f970       ?identifiable_ask_any@@YAPAVClaireBoolean@@H@Z 00470970 f   Optimize:otool.obj
 0001:0006fb20       ?c_inline_method1@@YAHPAVmethod@@PAVlist@@PAVClaireClass@@@Z 00470b20 f   Optimize:otool.obj
 0001:0006fbf0       ?c_inline_method2@@YAHPAVmethod@@PAVlist@@@Z 00470bf0 f   Optimize:otool.obj
 0001:0006fe10       ?c_inline_arg_ask_any@@YAHH@Z 00470e10 f   Optimize:otool.obj
 0001:00070080       ?c_substitution_any@@YAHHPAVlist@@0PAVClaireBoolean@@@Z 00471080 f   Optimize:otool.obj
 0001:000706e0       ?eval_any2@@YAHHPAVClaireClass@@@Z 004716e0 f   Optimize:otool.obj
 0001:00070720       ?bound_variables_any@@YAPAVlist@@H@Z 00471720 f   Optimize:otool.obj
 0001:00070a50       ?c_boolean_any@@YAHH@Z     00471a50 f   Optimize:otool.obj
 0001:00070ec0       ?home_void@@YAPADXZ        00471ec0 f   Optimize:osystem.obj
 0001:00070ed0       ?safe_any2@@YAHH@Z         00471ed0 f   Optimize:osystem.obj
 0001:00070ee0       ?safe_any2_type@@YAPAVClaireType@@PAV1@@Z 00471ee0 f   Optimize:osystem.obj
 0001:00070ef0       ?c_type_any_Optimize@@YAPAVClaireType@@H@Z 00471ef0 f   Optimize:osystem.obj
 0001:000715f0       ?c_strict_code_any@@YAHHPAVClaireClass@@@Z 004725f0 f   Optimize:osystem.obj
 0001:000716c0       ?c_strict_check_any_Optimize@@YAHHPAVClaireClass@@@Z 004726c0 f   Optimize:osystem.obj
 0001:000718a0       ?c_code_any1_Optimize@@YAHHPAVClaireClass@@@Z 004728a0 f   Optimize:osystem.obj
 0001:00071c00       ?c_code_any2_Optimize@@YAHH@Z 00472c00 f   Optimize:osystem.obj
 0001:00072270       ?c_gc_ask_any@@YAPAVClaireBoolean@@H@Z 00473270 f   Optimize:osystem.obj
 0001:00072490       ?c_sort_any_Optimize@@YAPAVClaireClass@@H@Z 00473490 f   Optimize:osystem.obj
 0001:00072d10       ?selector_psort_Call@@YAPAVClaireClass@@PAVCall@@@Z 00473d10 f   Optimize:osystem.obj
 0001:00072d80       ?c_status_any@@YAHHPAVlist@@@Z 00473d80 f   Optimize:osystem.obj
 0001:00073960       ?c_or_integer@@YAHHH@Z     00474960 f   Optimize:osystem.obj
 0001:000739d0       ?c_or_list@@YAHPAVlist@@@Z 004749d0 f   Optimize:osystem.obj
 0001:00073a10       ?status_I_restriction@@YAHPAVrestriction@@@Z 00474a10 f   Optimize:osystem.obj
 0001:00073af0       ?c_return_integer@@YAHHH@Z 00474af0 f   Optimize:osystem.obj
 0001:00073b50       ?c_status_property@@YAHPAVproperty@@@Z 00474b50 f   Optimize:osystem.obj
 0001:00073c70       ?showstatus_method2@@YAHPAVmethod@@@Z 00474c70 f   Optimize:osystem.obj
 0001:00073d60       ?s_test_method2@@YAXPAVmethod@@@Z 00474d60 f   Optimize:osystem.obj
 0001:00073e50       ?legal_ask_module@@YAPAVClaireBoolean@@PAVmodule@@H@Z 00474e50 f   Optimize:osystem.obj
 0001:00074030       ?legal_ask_environment@@YAHPAVClaireEnvironment@@H@Z 00475030 f   Optimize:osystem.obj
 0001:00074040       ?c_register_object@@YAHPAVClaireObject@@@Z 00475040 f   Optimize:osystem.obj
 0001:00074120       ?c_register_property@@YAHPAVproperty@@@Z 00475120 f   Optimize:osystem.obj
 0001:00074250       ?selector_register_property@@YAHPAVproperty@@@Z 00475250 f   Optimize:osystem.obj
 0001:00074290       ?allocate_ask_property@@YAHPAVproperty@@@Z 00475290 f   Optimize:osystem.obj
 0001:00074580       ?stable_ask_relation@@YAPAVClaireBoolean@@PAVClaireRelation@@@Z 00475580 f   Optimize:osystem.obj
 0001:00074690       ?get_module_object@@YAHPAVClaireObject@@@Z 00475690 f   Optimize:osystem.obj
 0001:000746e0       ?known_I_listargs@@YAHPAVlistargs@@@Z 004756e0 f   Optimize:osystem.obj
 0001:00074810       ?oload_module@@YAHPAVmodule@@@Z 00475810 f   Optimize:osystem.obj
 0001:00074830       ?oload_string@@YAHPAD@Z    00475830 f   Optimize:osystem.obj
 0001:00074850       ?turbo_module@@YAHPAVmodule@@@Z 00475850 f   Optimize:osystem.obj
 0001:00074b10       ?stats_meta_OPT@@YAHPAVmeta_OPT@@@Z 00475b10 f   Optimize:osystem.obj
 0001:00074b20       ?metaLoad@GenerateClass@@QAEXXZ 00475b20 f   Generate:Generate.obj
 0001:0007a670       ?ident_symbol@@YAXPAVsymbol@@@Z 0047b670 f   Generate:gsystem.obj
 0001:0007a6a0       ?ident_thing@@YAXPAVthing@@@Z 0047b6a0 f   Generate:gsystem.obj
 0001:0007a6d0       ?ident_class@@YAXPAVClaireClass@@@Z 0047b6d0 f   Generate:gsystem.obj
 0001:0007a700       ?interface_I_class@@YAXPAVClaireClass@@@Z 0047b700 f   Generate:gsystem.obj
 0001:0007a730       ?indent_c_void@@YAHXZ      0047b730 f   Generate:gsystem.obj
 0001:0007a770       ?breakline_void@@YAHXZ     0047b770 f   Generate:gsystem.obj
 0001:0007a790       ?new_block_void@@YAXXZ     0047b790 f   Generate:gsystem.obj
 0001:0007a7b0       ?close_block_void@@YAXXZ   0047b7b0 f   Generate:gsystem.obj
 0001:0007a7d0       ?c_test_any@@YAXH@Z        0047b7d0 f   Generate:gsystem.obj
 0001:0007a9d0       ?c_test_method@@YAXPAVmethod@@@Z 0047b9d0 f   Generate:gsystem.obj
 0001:0007ac50       ?compile_module@@YAXPAVmodule@@@Z 0047bc50 f   Generate:gsystem.obj
 0001:0007af80       ?generate_files_module@@YAXPAVmodule@@@Z 0047bf80 f   Generate:gsystem.obj
 0001:0007b2a0       ?generate_f2f_module@@YAXPAVmodule@@@Z 0047c2a0 f   Generate:gsystem.obj
 0001:0007b410       ?generate_file_string1@@YAXPADPAVmodule@@@Z 0047c410 f   Generate:gsystem.obj
 0001:0007b610       ?generate_classes_module@@YAXPAVmodule@@@Z 0047c610 f   Generate:gsystem.obj
 0001:0007bb20       ?generate_c2f_module@@YAXPAVmodule@@@Z 0047cb20 f   Generate:gsystem.obj
 0001:0007bdf0       ?generate_interface_module@@YAXPAVmodule@@PAVbag@@@Z 0047cdf0 f   Generate:gsystem.obj
 0001:0007bf10       ?generate_objects_module@@YAXPAVmodule@@@Z 0047cf10 f   Generate:gsystem.obj
 0001:0007c430       ?generate_meta_load_module@@YAXPAVmodule@@@Z 0047d430 f   Generate:gsystem.obj
 0001:0007c6d0       ?generate_functions_module@@YAHPAVmodule@@@Z 0047d6d0 f   Generate:gsystem.obj
 0001:0007c860       ?parents_module@@YAPAVlist@@PAVmodule@@PAV1@@Z 0047d860 f   Generate:gsystem.obj
 0001:0007c960       ?parents_list@@YAPAVlist@@PAV1@@Z 0047d960 f   Generate:gsystem.obj
 0001:0007ca20       ?get_module2@@YAXPAVmodule@@@Z 0047da20 f   Generate:gsystem.obj
 0001:0007ca40       ?generate_file_string2@@YAXPAD0@Z 0047da40 f   Generate:gsystem.obj
 0001:0007cdc0       ?make_c_function_lambda_Generate@@YAHPAVlambda@@PADH@Z 0047ddc0 f   Generate:gsystem.obj
 0001:0007ce30       ?print_c_function_lambda2@@YAHPAVlambda@@PADH@Z 0047de30 f   Generate:gsystem.obj
 0001:0007d290       ?print_body_If@@YAXPAVIf@@PADPAVClaireClass@@0PAVClaireBoolean@@@Z 0047e290 f   Generate:gsystem.obj
 0001:0007d4f0       ?print_body_any@@YAXHPADPAVClaireClass@@HPAVClaireBoolean@@@Z 0047e4f0 f   Generate:gsystem.obj
 0001:0007d530       ?print_body_Do@@YAHPAVDo@@PADPAVClaireClass@@HPAVClaireBoolean@@@Z 0047e530 f   Generate:gsystem.obj
 0001:0007d680       ?outer_statement_any@@YAXHPADPAVClaireClass@@PAVClaireBoolean@@@Z 0047e680 f   Generate:gsystem.obj
 0001:0007d8a0       ?c_safe_any@@YAPAVClaireBoolean@@H@Z 0047e8a0 f   Generate:gsystem.obj
 0001:0007d8e0       ?check_sort_method@@YAPAVClaireClass@@PAVmethod@@@Z 0047e8e0 f   Generate:gsystem.obj
 0001:0007dfb0       ?typed_args_list_list@@YAHPAVlist@@@Z 0047efb0 f   Generate:gsystem.obj
 0001:0007e090       ?need_debug_ask_any@@YAPAVClaireBoolean@@H@Z 0047f090 f   Generate:gsystem.obj
 0001:0007e180       ?get_dependents_method@@YAHPAVmethod@@@Z 0047f180 f   Generate:gsystem.obj
 0001:0007e2a0       ?c_princ_function@@YAXPAVClaireFunction@@@Z 0047f2a0 f   Generate:gsystem.obj
 0001:0007e2c0       ?set_outfile_lambda@@YAHPAVlambda@@@Z 0047f2c0 f   Generate:gsystem.obj
 0001:0007e5f0       ?string_I_c_producer1@@YAPADPAVc_producer@@PAVVariable@@@Z 0047f5f0 f   Generate:cgen.obj
 0001:0007e6d0       ?string_I_c_producer2@@YAPADPAVc_producer@@PAVsymbol@@@Z 0047f6d0 f   Generate:cgen.obj
 0001:0007e6f0       ?ident_c_producer3@@YAXPAVc_producer@@PAVVariable@@@Z 0047f6f0 f   Generate:cgen.obj
 0001:0007e820       ?ident_c_producer@@YAXPAVc_producer@@PAVsymbol@@@Z 0047f820 f   Generate:cgen.obj
 0001:0007e890       ?produce_c_producer2@@YAXPAVc_producer@@H@Z 0047f890 f   Generate:cgen.obj
 0001:0007f0a0       ?stat_exp_c_producer@@YAXPAVc_producer@@HH@Z 004800a0 f   Generate:cgen.obj
 0001:0007f280       ?namespace_I_c_producer@@YAXPAVc_producer@@PAVmodule@@@Z 00480280 f   Generate:cgen.obj
 0001:0007f2e0       ?module_I_c_producer@@YAXPAVc_producer@@PAVmodule@@@Z 004802e0 f   Generate:cgen.obj
 0001:0007f3b0       ?declare_c_producer@@YAXPAVc_producer@@PAVproperty@@@Z 004803b0 f   Generate:cgen.obj
 0001:0007f560       ?start_module_interface_c_producer@@YAXPAVc_producer@@PAVmodule@@@Z 00480560 f   Generate:cgen.obj
 0001:0007f780       ?end_module_interface_c_producer@@YAXPAVc_producer@@PAVmodule@@@Z 00480780 f   Generate:cgen.obj
 0001:0007f790       ?generate_end_file_c_producer@@YAXPAVc_producer@@PAVmodule@@@Z 00480790 f   Generate:cgen.obj
 0001:0007f9c0       ?generate_classes_c_producer@@YAXPAVc_producer@@PADPAVmodule@@@Z 004809c0 f   Generate:cgen.obj
 0001:0007fac0       ?generate_start_file_c_producer@@YAXPAVc_producer@@PAVmodule@@@Z 00480ac0 f   Generate:cgen.obj
 0001:0007fb90       ?generate_meta_load_c_producer@@YAXPAVc_producer@@PAVmodule@@@Z 00480b90 f   Generate:cgen.obj
 0001:0007fbe0       ?start_file_string@@YAHPADPAVmodule@@@Z 00480be0 f   Generate:cgen.obj
 0001:0007ff20       ?define_variable_c_producer2@@YAXPAVc_producer@@PAVClaireClass@@PAD@Z 00480f20 f   Generate:cgen.obj
 0001:0007ff80       ?generate_profile_c_producer@@YAXPAVc_producer@@H@Z 00480f80 f   Generate:cgen.obj
 0001:00080050       ?generate_interface_c_producer@@YAXPAVc_producer@@PAVmodule@@@Z 00481050 f   Generate:cgen.obj
 0001:000805a0       ?gc_introduction_c_producer@@YAXPAVc_producer@@H@Z 004815a0 f   Generate:cgen.obj
 0001:00080770       ?gc_usage_any@@YAHHPAVClaireBoolean@@@Z 00481770 f   Generate:cgen.obj
 0001:00081130       ?gc_or_any@@YAHHH@Z        00482130 f   Generate:cgen.obj
 0001:00081200       ?gc_usage_star_list@@YAHPAVlist@@PAVClaireBoolean@@@Z 00482200 f   Generate:cgen.obj
 0001:000812a0       ?debug_intro_c_producer@@YAXPAVc_producer@@PAVlambda@@PAVmethod@@@Z 004822a0 f   Generate:cgen.obj
 0001:000814f0       ?protect_result_c_producer@@YAPADPAVc_producer@@PAVClaireClass@@PAVClaireBoolean@@H@Z 004824f0 f   Generate:cgen.obj
 0001:000817c0       ?generate_function_start_c_producer@@YAXPAVc_producer@@PAVlambda@@PAVClaireClass@@HPAD@Z 004827c0 f   Generate:cgen.obj
 0001:00081a00       ?generate_regular_function_c_producer@@YAXPAVc_producer@@PAVlambda@@PAVClaireFunction@@PAVClaireClass@@HPAVlist@@@Z 00482a00 f   Generate:cgen.obj
 0001:00081bc0       ?generate_float_function_c_producer@@YAXPAVc_producer@@PAVmethod@@PAD@Z 00482bc0 f   Generate:cgen.obj
 0001:00081fa0       ?at_c_producer@@YAXPAVc_producer@@@Z 00482fa0 f   Generate:cgen.obj
 0001:00081fb0       ?generate_tuple_function_c_producer@@YAXPAVc_producer@@PAVmethod@@PAD@Z 00482fb0 f   Generate:cgen.obj
 0001:000822c0       ?create_function_entry_c_producer@@YAHPAVc_producer@@PAVlambda@@PADH@Z 004832c0 f   Generate:cgen.obj
 0001:000822d0       ?update_function_entry_c_producer@@YAHPAVc_producer@@PAVClaireFunction@@PAVlist@@PAVClaireClass@@@Z 004832d0 f   Generate:cgen.obj
 0001:000823d0       ?c_interface_class1_Generate@@YAPADPAVClaireClass@@@Z 004833d0 f   Generate:cgen.obj
 0001:00082440       ?c_interface_class2_Generate@@YAXPAVClaireClass@@PAD@Z 00483440 f   Generate:cgen.obj
 0001:000825b0       ?c_interface_method_Generate@@YAXPAVmethod@@@Z 004835b0 f   Generate:cgen.obj
 0001:00082610       ?interface_I_c_producer@@YAXPAVc_producer@@PAVClaireClass@@@Z 00483610 f   Generate:cgen.obj
 0001:00082790       ?to_cl_c_producer@@YAXPAVc_producer@@HPAVClaireClass@@H@Z 00483790 f   Generate:cgen.obj
 0001:000829d0       ?to_c_c_producer1@@YAXPAVc_producer@@HPAVClaireClass@@H@Z 004839d0 f   Generate:cgen.obj
 0001:00082b30       ?to_c_c_producer2@@YAXPAVc_producer@@PAVClaireClass@@@Z 00483b30 f   Generate:cgen.obj
 0001:00082c90       ?public_static_c_producer@@YAHPAVc_producer@@@Z 00483c90 f   Generate:cgen.obj
 0001:00082ca0       ?bool_exp_I_c_producer@@YAXPAVc_producer@@HH@Z 00483ca0 f   Generate:cgen.obj
 0001:00082d80       ?inherit_exp_c_producer@@YAXPAVc_producer@@HHH@Z 00483d80 f   Generate:cgen.obj
 0001:00082dd0       ?bitvector_exp_c_producer@@YAXPAVc_producer@@HHH@Z 00483dd0 f   Generate:cgen.obj
 0001:00082e20       ?equal_exp_c_producer@@YAXPAVc_producer@@HPAVClaireBoolean@@HH@Z 00483e20 f   Generate:cgen.obj
 0001:00083540       ?char_exp_ask_c_producer2@@YAPAVClaireBoolean@@PAVc_producer@@H@Z 00484540 f   Generate:cgen.obj
 0001:00083670       ?char_exp_c_producer2@@YAXPAVc_producer@@HH@Z 00484670 f   Generate:cgen.obj
 0001:000838a0       ?c_member_c_producer@@YAXPAVc_producer@@HPAVClaireClass@@PAVproperty@@H@Z 004848a0 f   Generate:cgen.obj
 0001:00083990       ?addFast_c_producer@@YAXPAVc_producer@@@Z 00484990 f   Generate:cgen.obj
 0001:000839a0       ?cast_I_c_producer@@YAXPAVc_producer@@PAVC_cast@@H@Z 004849a0 f   Generate:cgen.obj
 0001:00083a70       ?gc_protection_exp_c_producer@@YAXPAVc_producer@@PAVVariable@@PAVClaireBoolean@@HH@Z 00484a70 f   Generate:cgen.obj
 0001:00083d10       ?bag_expression_c_producer@@YAXPAVc_producer@@PAVClaireClass@@PAVbag@@PAVClaireType@@H@Z 00484d10 f   Generate:cgen.obj
 0001:00083f30       ?generate_system_file_string@@YAXPADPAVlist@@@Z 00484f30 f   Generate:cgen.obj
 0001:00084270       ?create_loadModules_string@@YAXPADPAVClairePort@@PAVlist@@@Z 00485270 f   Generate:cgen.obj
 0001:00084ad0       ?methods_interface_c_producer@@YAXPAVc_producer@@PAVClaireClass@@@Z 00485ad0 f   Generate:cgen.obj
 0001:00084cc0       ?methods_bodies_c_producer@@YAXPAVc_producer@@PAVClaireClass@@@Z 00485cc0 f   Generate:cgen.obj
 0001:000850b0       ?inline_exp_c_producer1@@YAXPAVc_producer@@PAVCall_method1@@H@Z 004860b0 f   Generate:copt.obj
 0001:000853d0       ?inline_exp_c_producer2@@YAXPAVc_producer@@PAVCall_method2@@H@Z 004863d0 f   Generate:copt.obj
 0001:00085b30       ?inline_exp_c_producer3@@YAXPAVc_producer@@PAVCall_method@@H@Z 00486b30 f   Generate:copt.obj
 0001:000862a0       ?print_external_call_c_producer@@YAXPAVc_producer@@PAVCall_method@@H@Z 004872a0 f   Generate:copt.obj
 0001:00086520       ?inline_exp_c_producer5@@YAXPAVc_producer@@PAVCall@@H@Z 00487520 f   Generate:copt.obj
 0001:00086d50       ?fcall_ask_Call2_Generate@@YAPAVClaireBoolean@@PAVCall@@@Z 00487d50 f   Generate:copt.obj
 0001:000873b0       ?get_restrictions_Call2@@YAPAVlist@@PAVCall@@PAV1@@Z 004883b0 f   Generate:copt.obj
 0001:00087530       ?fcall_exp_Call2_Generate@@YAXPAVCall@@H@Z 00488530 f   Generate:copt.obj
 0001:00087b40       ?c_sorted_arg_any@@YAHHPAVClaireClass@@HPAVClaireBoolean@@@Z 00488b40 f   Generate:copt.obj
 0001:00087d10       ?c_sorted_args_Call@@YAHPAVCall@@PAVlist@@HPAVClaireBoolean@@@Z 00488d10 f   Generate:copt.obj
 0001:00087e50       ?bitvector_I_c_producer@@YAXPAVc_producer@@H@Z 00488e50 f   Generate:copt.obj
 0001:00088040       ?bitvectorSum_integer@@YAXH@Z 00489040 f   Generate:copt.obj
 0001:000880d0       ?signature_I_c_producer@@YAXPAVc_producer@@H@Z 004890d0 f   Generate:copt.obj
 0001:000884a0       ?getC_any@@YAHH@Z          004894a0 f   Generate:copt.obj
 0001:000886e0       ?gassign_c_producer@@YAXPAVc_producer@@PAVGassign@@H@Z 004896e0 f   Generate:copt.obj
 0001:00088810       ?call_slot_c_producer@@YAXPAVc_producer@@PAVCall_slot@@H@Z 00489810 f   Generate:copt.obj
 0001:000889f0       ?call_table_c_producer@@YAXPAVc_producer@@PAVCall_table@@H@Z 004899f0 f   Generate:copt.obj
 0001:00088ce0       ?call_array_c_producer@@YAXPAVc_producer@@PAVCall_array@@H@Z 00489ce0 f   Generate:copt.obj
 0001:00088e30       ?update_c_producer@@YAHPAVc_producer@@PAVUpdate@@H@Z 00489e30 f   Generate:copt.obj
 0001:00089170       ?object_test_c_producer@@YAXPAVc_producer@@HPAVClaireBoolean@@H@Z 0048a170 f   Generate:copt.obj
 0001:000891c0       ?exp_to_protect_c_producer@@YAXPAVc_producer@@PAVto_protect@@H@Z 0048a1c0 f   Generate:copt.obj
 0001:000893f0       ?macro_c_producer@@YAXPAVc_producer@@@Z 0048a3f0 f   Generate:copt.obj
 0001:00089400       ?init_var_c_producer@@YAXPAVc_producer@@PAVClaireClass@@@Z 0048a400 f   Generate:copt.obj
 0001:00089410       ?any_interface_c_producer@@YAXPAVc_producer@@@Z 0048a410 f   Generate:copt.obj
 0001:00089420       ?pointer_cast_c_producer@@YAXPAVc_producer@@PAVClaireClass@@@Z 0048a420 f   Generate:copt.obj
 0001:00089450       ?exp_Assign_c_producer@@YAXPAVc_producer@@PAVAssign@@H@Z 0048a450 f   Generate:copt.obj
 0001:00089530       ?stat_handle_c_producer@@YAXPAVc_producer@@PAVClaireHandle@@HH@Z 0048a530 f   Generate:copt.obj
 0001:000896d0       ?stat_construct_c_producer@@YAXPAVc_producer@@PAVConstruct@@HH@Z 0048a6d0 f   Generate:copt.obj
 0001:00089c70       ?stat_while_c_producer@@YAXPAVc_producer@@PAVWhile@@HH@Z 0048ac70 f   Generate:copt.obj
 0001:0008a0b0       ?stat_gassign_c_producer@@YAXPAVc_producer@@PAVGassign@@HH@Z 0048b0b0 f   Generate:copt.obj
 0001:0008a1e0       ?stat_for_c_producer@@YAXPAVc_producer@@PAVFor@@HH@Z 0048b1e0 f   Generate:copt.obj
 0001:0008a5a0       ?stat_iteration_c_producer@@YAXPAVc_producer@@PAVIteration@@HH@Z 0048b5a0 f   Generate:copt.obj
 0001:0008a910       ?stat_super_c_producer@@YAXPAVc_producer@@PAVSuper@@HH@Z 0048b910 f   Generate:copt.obj
 0001:0008ab30       ?stat_let_c_producer@@YAXPAVc_producer@@PAVLet@@HH@Z 0048bb30 f   Generate:copt.obj
 0001:0008af40       ?unfold_args_list@@YAPAVlist@@PAV1@@Z 0048bf40 f   Generate:gstat.obj
 0001:0008b110       ?c_type_sort_any@@YAPAVClaireType@@H@Z 0048c110 f   Generate:gstat.obj
 0001:0008b230       ?unfold_arg_list@@YAHPAVlist@@0H@Z 0048c230 f   Generate:gstat.obj
 0001:0008b320       ?unfold_use_list@@YAXPAVlist@@HHH@Z 0048c320 f   Generate:gstat.obj
 0001:0008b4a0       ?statement_any@@YAXHHH@Z   0048c4a0 f   Generate:gstat.obj
 0001:0008b930       ?self_statement_Construct@@YAXPAVConstruct@@HH@Z 0048c930 f   Generate:gstat.obj
 0001:0008b970       ?self_statement_If@@YAXPAVIf@@HH@Z 0048c970 f   Generate:gstat.obj
 0001:0008beb0       ?self_statement_Do@@YAXPAVDo@@HH@Z 0048ceb0 f   Generate:gstat.obj
 0001:0008bfb0       ?inner_statement_any@@YAXHHH@Z 0048cfb0 f   Generate:gstat.obj
 0001:0008c180       ?self_statement_Let@@YAXPAVLet@@HH@Z 0048d180 f   Generate:gstat.obj
 0001:0008c1c0       ?self_statement_And@@YAXPAVAnd@@HH@Z 0048d1c0 f   Generate:gstat.obj
 0001:0008c4b0       ?self_statement_Or@@YAXPAVOr@@HH@Z 0048d4b0 f   Generate:gstat.obj
 0001:0008c7a0       ?self_statement_While@@YAXPAVWhile@@HH@Z 0048d7a0 f   Generate:gstat.obj
 0001:0008c7e0       ?self_statement_Assign@@YAXPAVAssign@@HH@Z 0048d7e0 f   Generate:gstat.obj
 0001:0008ca90       ?self_statement_Gassign@@YAXPAVGassign@@HH@Z 0048da90 f   Generate:gstat.obj
 0001:0008cad0       ?self_statement_to_protect@@YAXPAVto_protect@@HH@Z 0048dad0 f   Generate:gstat.obj
 0001:0008ccb0       ?self_statement_For@@YAXPAVFor@@HH@Z 0048dcb0 f   Generate:gstat.obj
 0001:0008ccf0       ?self_statement_Iteration@@YAXPAVIteration@@HH@Z 0048dcf0 f   Generate:gstat.obj
 0001:0008cd30       ?self_statement_Return@@YAXPAVReturn@@HH@Z 0048dd30 f   Generate:gstat.obj
 0001:0008cec0       ?self_statement_Call@@YAXPAVCall@@HH@Z 0048dec0 f   Generate:gstat.obj
 0001:0008d020       ?self_statement_Call_method@@YAXPAVCall_method@@HH@Z 0048e020 f   Generate:gstat.obj
 0001:0008d180       ?self_statement_Call_method1@@YAXPAVCall_method1@@HH@Z 0048e180 f   Generate:gstat.obj
 0001:0008d2e0       ?self_statement_Call_method2@@YAXPAVCall_method2@@HH@Z 0048e2e0 f   Generate:gstat.obj
 0001:0008d440       ?self_statement_Super@@YAXPAVSuper@@HH@Z 0048e440 f   Generate:gstat.obj
 0001:0008d480       ?self_statement_Cast@@YAXPAVCast@@HH@Z 0048e480 f   Generate:gstat.obj
 0001:0008d530       ?self_statement_Handle@@YAXPAVClaireHandle@@HH@Z 0048e530 f   Generate:gstat.obj
 0001:0008d570       ?self_statement_to_CL@@YAXPAVto_CL@@HH@Z 0048e570 f   Generate:gstat.obj
 0001:0008d780       ?self_statement_to_C@@YAXPAVto_C@@HH@Z 0048e780 f   Generate:gstat.obj
 0001:0008d9a0       ?self_statement_C_cast@@YAXPAVC_cast@@HH@Z 0048e9a0 f   Generate:gstat.obj
 0001:0008dbb0       ?self_statement_Call_slot@@YAXPAVCall_slot@@HH@Z 0048ebb0 f   Generate:gstat.obj
 0001:0008ddc0       ?self_statement_Call_table@@YAXPAVCall_table@@HH@Z 0048edc0 f   Generate:gstat.obj
 0001:0008dfd0       ?self_statement_Call_array@@YAXPAVCall_array@@HH@Z 0048efd0 f   Generate:gstat.obj
 0001:0008e280       ?self_statement_Update@@YAXPAVUpdate@@HH@Z 0048f280 f   Generate:gstat.obj
 0001:0008eb90       ?c_func_any@@YAPAVClaireBoolean@@H@Z 0048fb90 f   Generate:gexp.obj
 0001:0008fb20       ?expression_thing@@YAXPAVthing@@H@Z 00490b20 f   Generate:gexp.obj
 0001:0008fb50       ?expression_integer@@YAXHH@Z 00490b50 f   Generate:gexp.obj
 0001:0008fb60       ?expression_any@@YAXHH@Z   00490b60 f   Generate:gexp.obj
 0001:0008fb80       ?expression_string@@YAXPADH@Z 00490b80 f   Generate:gexp.obj
 0001:0008fbb0       ?expression_float_@@YAXHH@Z 00490bb0 f   Generate:gexp.obj
 0001:0008fbe0       ?expression_float@@YAXNH@Z 00490be0 f   Generate:gexp.obj
 0001:0008fc00       ?expression_boolean@@YAXPAVClaireBoolean@@H@Z 00490c00 f   Generate:gexp.obj
 0001:0008fc30       ?expression_environment@@YAXPAVClaireEnvironment@@H@Z 00490c30 f   Generate:gexp.obj
 0001:0008fc60       ?expression_Variable@@YAXPAVVariable@@H@Z 00490c60 f   Generate:gexp.obj
 0001:0008fc90       ?expression_global_variable@@YAXPAVglobal_variable@@H@Z 00490c90 f   Generate:gexp.obj
 0001:0008fcc0       ?expression_Set@@YAXPAVSet@@H@Z 00490cc0 f   Generate:gexp.obj
 0001:0008fdc0       ?expression_set2@@YAXPAVset@@H@Z 00490dc0 f   Generate:gexp.obj
 0001:0008fe80       ?expression_Tuple@@YAXPAVTuple@@H@Z 00490e80 f   Generate:gexp.obj
 0001:0008ff70       ?expression_tuple@@YAXPAVtuple@@H@Z 00490f70 f   Generate:gexp.obj
 0001:0008ffd0       ?expression_List@@YAXPAVList@@H@Z 00490fd0 f   Generate:gexp.obj
 0001:000900d0       ?expression_list@@YAXPAVlist@@H@Z 004910d0 f   Generate:gexp.obj
 0001:00090190       ?expression_Call2@@YAXPAVCall@@H@Z 00491190 f   Generate:gexp.obj
 0001:000901c0       ?expression_Call_method12@@YAXPAVCall_method1@@H@Z 004911c0 f   Generate:gexp.obj
 0001:000901f0       ?expression_Call_method22@@YAXPAVCall_method2@@H@Z 004911f0 f   Generate:gexp.obj
 0001:00090220       ?expression_Call_method2@@YAXPAVCall_method@@H@Z 00491220 f   Generate:gexp.obj
 0001:00090250       ?bexpression_any@@YAXHH@Z  00491250 f   Generate:gexp.obj
 0001:000904c0       ?expression_If@@YAXPAVIf@@H@Z 004914c0 f   Generate:gexp.obj
 0001:00090600       ?expression_Assign@@YAXPAVAssign@@H@Z 00491600 f   Generate:gexp.obj
 0001:000908a0       ?expression_to_protect@@YAXPAVto_protect@@H@Z 004918a0 f   Generate:gexp.obj
 0001:000908d0       ?gc_protect_class@@YAPADPAVClaireClass@@@Z 004918d0 f   Generate:gexp.obj
 0001:00090940       ?expression_Gassign@@YAXPAVGassign@@H@Z 00491940 f   Generate:gexp.obj
 0001:00090970       ?expression_And@@YAXPAVAnd@@H@Z 00491970 f   Generate:gexp.obj
 0001:00090b20       ?expression_Or@@YAXPAVOr@@H@Z 00491b20 f   Generate:gexp.obj
 0001:00090cd0       ?expression_to_CL@@YAXPAVto_CL@@H@Z 00491cd0 f   Generate:gexp.obj
 0001:00090d90       ?expression_to_C@@YAXPAVto_C@@H@Z 00491d90 f   Generate:gexp.obj
 0001:00090e50       ?expression_C_cast@@YAXPAVC_cast@@H@Z 00491e50 f   Generate:gexp.obj
 0001:00090e80       ?expression_Call_slot@@YAXPAVCall_slot@@H@Z 00491e80 f   Generate:gexp.obj
 0001:00090eb0       ?expression_Call_table@@YAXPAVCall_table@@H@Z 00491eb0 f   Generate:gexp.obj
 0001:00090ee0       ?expression_Call_array@@YAXPAVCall_array@@H@Z 00491ee0 f   Generate:gexp.obj
 0001:00090f10       ?expression_Update@@YAXPAVUpdate@@H@Z 00491f10 f   Generate:gexp.obj
 0001:00090f40       ?sign_equal_boolean@@YAXPAVClaireBoolean@@@Z 00491f40 f   Generate:gexp.obj
 0001:00090f70       ?sign_or_boolean@@YAXPAVClaireBoolean@@@Z 00491f70 f   Generate:gexp.obj
 0001:00090fa0       ?bool_exp_any_Generate@@YAXHPAVClaireBoolean@@H@Z 00491fa0 f   Generate:gexp.obj
 0001:000910d0       ?bool_exp_to_CL_Generate@@YAXPAVto_CL@@PAVClaireBoolean@@H@Z 004920d0 f   Generate:gexp.obj
 0001:00091190       ?bool_exp_If_Generate@@YAXPAVIf@@PAVClaireBoolean@@H@Z 00492190 f   Generate:gexp.obj
 0001:00091380       ?bool_exp_And_Generate@@YAXPAVAnd@@PAVClaireBoolean@@H@Z 00492380 f   Generate:gexp.obj
 0001:00091560       ?bool_exp_Or_Generate@@YAXPAVOr@@PAVClaireBoolean@@H@Z 00492560 f   Generate:gexp.obj
 0001:00091730       ?bool_exp_Call_method1_Generate@@YAXPAVCall_method1@@PAVClaireBoolean@@H@Z 00492730 f   Generate:gexp.obj
 0001:00091a60       ?bool_exp_Call_method2_Generate@@YAXPAVCall_method2@@PAVClaireBoolean@@H@Z 00492a60 f   Generate:gexp.obj
 0001:00091ed0       ?bool_exp_ask_any@@YAPAVClaireBoolean@@H@Z 00492ed0 f   Generate:gexp.obj
 0001:000920c0       ?args_list_bag@@YAXPAVbag@@HPAVClaireBoolean@@@Z 004930c0 f   Generate:gexp.obj
 0001:00092180       ?check_var_string@@YAPADPADHH@Z 00493180 f   Generate:gexp.obj
 0001:000921f0       ?build_Variable_string@@YAPAVVariable@@PADH@Z 004931f0 f   Generate:gexp.obj
 0001:00092220       ?bootstrap@KernelClass@@QAEXXZ 00493220 f   Kernel:Kernel.obj
 0001:00094330       ?metaLoad@KernelClass@@QAEXXZ 00495330 f   Kernel:Kernel.obj
 0001:00096980       ?quickSort@bag@@SAXPAHHH@Z 00497980 f   Kernel:Clbag.OBJ
 0001:00096aa0       ?quickClean@bag@@SAHPAHH@Z 00497aa0 f   Kernel:Clbag.OBJ
 0001:00096c00       ?clone@bag@@QAEPAVlist@@XZ 00497c00 f   Kernel:Clbag.OBJ
 0001:00096c10       ?clone@bag@@QAEPAVlist@@PAVClaireType@@@Z 00497c10 f   Kernel:Clbag.OBJ
 0001:00096d10       ?copy_bag@@YAPAVbag@@PAV1@@Z 00497d10 f   Kernel:Clbag.OBJ
 0001:00096dd0       ?empty_bag@@YAPAVbag@@PAV1@@Z 00497dd0 f   Kernel:Clbag.OBJ
 0001:00096e60       ?delete_bag@@YAPAVbag@@PAV1@H@Z 00497e60 f   Kernel:Clbag.OBJ
 0001:00096f50       ?of_bag@@YAPAVClaireType@@PAVbag@@@Z 00497f50 f   Kernel:Clbag.OBJ
 0001:00096f70       ?cast_I_bag@@YAPAVbag@@PAV1@PAVClaireType@@@Z 00497f70 f   Kernel:Clbag.OBJ
 0001:00096f80       ?empty@list@@SAPAV1@XZ     00497f80 f   Kernel:Clbag.OBJ
 0001:00097000       ?empty@list@@SAPAV1@PAVClaireType@@@Z 00498000 f   Kernel:Clbag.OBJ
 0001:00097080       ?make@list@@SAPAV1@H@Z     00498080 f   Kernel:Clbag.OBJ
 0001:00097100       ?make@list@@SAPAV1@HH@Z    00498100 f   Kernel:Clbag.OBJ
 0001:00097180       ?alloc@list@@SAPAV1@HZZ    00498180 f   Kernel:Clbag.OBJ
 0001:00097220       ?alloc@list@@SAPAV1@PAVClaireType@@HZZ 00498220 f   Kernel:Clbag.OBJ
 0001:000972c0       ?domain@list@@SAPAV1@HZZ   004982c0 f   Kernel:Clbag.OBJ
 0001:00097370       ?addFast@list@@QAEPAV1@H@Z 00498370 f   Kernel:Clbag.OBJ
 0001:000973d0       ?equalList@list@@QAEPAVClaireBoolean@@PAV1@@Z 004983d0 f   Kernel:Clbag.OBJ
 0001:00097440       ?memq@list@@QAEPAVClaireBoolean@@H@Z 00498440 f   Kernel:Clbag.OBJ
 0001:00097480       ?contain_ask_list@@YAPAVClaireBoolean@@PAVlist@@H@Z 00498480 f   Kernel:Clbag.OBJ
 0001:00097510       ?add_list@@YAPAVlist@@PAV1@H@Z 00498510 f   Kernel:Clbag.OBJ
 0001:00097560       ?add_I_list@@YAPAVlist@@PAV1@H@Z 00498560 f   Kernel:Clbag.OBJ
 0001:00097570       ?cons_any@@YAPAVlist@@HPAV1@@Z 00498570 f   Kernel:Clbag.OBJ
 0001:00097650       ?make_list_integer@@YAPAVlist@@HH@Z 00498650 f   Kernel:Clbag.OBJ
 0001:00097710       ?index_list@@YAHPAVlist@@H@Z 00498710 f   Kernel:Clbag.OBJ
 0001:00097770       ?add_star_list@@YAPAVlist@@PAV1@0@Z 00498770 f   Kernel:Clbag.OBJ
 0001:00097870       ?append_list@@YAPAVlist@@PAV1@0@Z 00498870 f   Kernel:Clbag.OBJ
 0001:000979a0       ?add_at_list@@YAPAVlist@@PAV1@HH@Z 004989a0 f   Kernel:Clbag.OBJ
 0001:00097a70       ?delete_at_list@@YAPAVlist@@PAV1@H@Z 00498a70 f   Kernel:Clbag.OBJ
 0001:00097ad0       ?skip_list@@YAPAVlist@@PAV1@H@Z 00498ad0 f   Kernel:Clbag.OBJ
 0001:00097b60       ?cdr_list@@YAPAVlist@@PAV1@@Z 00498b60 f   Kernel:Clbag.OBJ
 0001:00097c20       ?shrink_list@@YAPAVbag@@PAV1@H@Z 00498c20 f   Kernel:Clbag.OBJ
 0001:00097c60       ?empty@set@@SAPAV1@XZ      00498c60 f   Kernel:Clbag.OBJ
 0001:00097ce0       ?empty@set@@SAPAV1@PAVClaireType@@@Z 00498ce0 f   Kernel:Clbag.OBJ
 0001:00097d60       ?alloc@set@@SAPAV1@HZZ     00498d60 f   Kernel:Clbag.OBJ
 0001:00097da0       ?alloc@set@@SAPAV1@PAVClaireType@@HZZ 00498da0 f   Kernel:Clbag.OBJ
 0001:00097de0       ?addFast@set@@QAEPAV1@H@Z  00498de0 f   Kernel:Clbag.OBJ
 0001:00097f70       ?equalSet@set@@QAEPAVClaireBoolean@@PAV1@@Z 00498f70 f   Kernel:Clbag.OBJ
 0001:00098030       ?contain_ask_set@@YAPAVClaireBoolean@@PAVset@@H@Z 00499030 f   Kernel:Clbag.OBJ
 0001:00098100       ?add_set@@YAPAVset@@PAV1@H@Z 00499100 f   Kernel:Clbag.OBJ
 0001:00098150       ?add_I_set@@YAPAVset@@PAV1@H@Z 00499150 f   Kernel:Clbag.OBJ
 0001:00098160       ?_exp_set@@YAPAVset@@PAV1@0@Z 00499160 f   Kernel:Clbag.OBJ
 0001:00098300       ?append_set@@YAPAVset@@PAV1@0@Z 00499300 f   Kernel:Clbag.OBJ
 0001:000985e0       ?set_I_bag@@YAPAVset@@PAVbag@@@Z 004995e0 f   Kernel:Clbag.OBJ
 0001:00098650       ?list_I_set@@YAPAVlist@@PAVset@@@Z 00499650 f   Kernel:Clbag.OBJ
 0001:00098670       ?sequence_integer@@YAPAVset@@HH@Z 00499670 f   Kernel:Clbag.OBJ
 0001:00098750       ?empty@tuple@@SAPAV1@XZ    00499750 f   Kernel:Clbag.OBJ
 0001:000987d0       ?alloc@tuple@@SAPAV1@HZZ   004997d0 f   Kernel:Clbag.OBJ
 0001:00098870       ?allocStack@tuple@@SAPAV1@HZZ 00499870 f   Kernel:Clbag.OBJ
 0001:00098900       ?tuple_I_list@@YAPAVtuple@@PAVlist@@@Z 00499900 f   Kernel:Clbag.OBJ
 0001:00098920       ?list_I_tuple@@YAPAVlist@@PAVtuple@@@Z 00499920 f   Kernel:Clbag.OBJ
 0001:00098940       ?addFast@tuple@@QAEPAV1@H@Z 00499940 f   Kernel:Clbag.OBJ
 0001:00098950       ?copyIfNeeded@tuple@@QAEPAV1@XZ 00499950 f   Kernel:Clbag.OBJ
 0001:00098980       ?copy_array@@YAPAHPAH@Z    00499980 f   Kernel:Clbag.OBJ
 0001:000989c0       ?length_array@@YAHPAH@Z    004999c0 f   Kernel:Clbag.OBJ
 0001:000989d0       ?of_array@@YAPAVClaireType@@PAH@Z 004999d0 f   Kernel:Clbag.OBJ
 0001:000989e0       ?make_array_integer@@YAPAHHPAVClaireType@@H@Z 004999e0 f   Kernel:Clbag.OBJ
 0001:00098a90       ?nth_get_array@@YAHPAHH@Z  00499a90 f   Kernel:Clbag.OBJ
 0001:00098b30       ?nth_put_array@@YAXPAHHH@Z 00499b30 f   Kernel:Clbag.OBJ
 0001:00098b80       ?list_I_array@@YAPAVlist@@PAH@Z 00499b80 f   Kernel:Clbag.OBJ
 0001:00098d00       ?array_I_list@@YAPAHPAVlist@@@Z 00499d00 f   Kernel:Clbag.OBJ
 0001:00098d80       ?contain_ask_array@@YAPAVClaireBoolean@@PAHH@Z 00499d80 f   Kernel:Clbag.OBJ
 0001:00098eb0       ?copy_string@@YAPADPAD@Z   00499eb0 f   Kernel:Clstring.obj
 0001:00098f10       ?equal_string@@YAPAVClaireBoolean@@PAD0@Z 00499f10 f   Kernel:Clstring.obj
 0001:00098f50       ?princ_string@@YAXPAD@Z    00499f50 f   Kernel:Clstring.obj
 0001:00098f80       ?self_print_string@@YAXPAD@Z 00499f80 f   Kernel:Clstring.obj
 0001:00099020       ?append_string@@YAPADPAD0@Z 0049a020 f   Kernel:Clstring.obj
 0001:000990e0       ?integer_I_string@@YAHPAD@Z 0049a0e0 f   Kernel:Clstring.obj
 0001:00099100       ?substring_string@@YAPADPADHH@Z 0049a100 f   Kernel:Clstring.obj
 0001:00099190       ?get_string@@YAHPADPAVClaireChar@@@Z 0049a190 f   Kernel:Clstring.obj
 0001:000991c0       ?_less_string@@YAPAVClaireBoolean@@PAD0@Z 0049a1c0 f   Kernel:Clstring.obj
 0001:00099200       ?included_string@@YAHPAD0PAVClaireBoolean@@@Z 0049a200 f   Kernel:Clstring.obj
 0001:00099280       ?nth_string@@YAPAVClaireChar@@PADH@Z 0049a280 f   Kernel:Clstring.obj
 0001:000992e0       ?nth_set_string@@YAXPADHPAVClaireChar@@@Z 0049a2e0 f   Kernel:Clstring.obj
 0001:00099330       ?shrink_string@@YAPADPADH@Z 0049a330 f   Kernel:Clstring.obj
 0001:00099380       ?value_string@@YAHPAD@Z    0049a380 f   Kernel:Clstring.obj
 0001:000993a0       ?value_module@@YAHPAVmodule@@PAD@Z 0049a3a0 f   Kernel:Clstring.obj
 0001:000993c0       ?get_symbol_module@@YAHPAVmodule@@PAD@Z 0049a3c0 f   Kernel:Clstring.obj
 0001:000993f0       ?date_I_integer@@YAPADH@Z  0049a3f0 f   Kernel:Clstring.obj
 0001:00099420       ?getenv_string@@YAPADPAD@Z 0049a420 f   Kernel:Clstring.obj
 0001:00099440       ?make@module@@SAPAV1@PADPAV1@@Z 0049a440 f   Kernel:Clstring.obj
 0001:000994b0       ?hash@module@@QAEIPAD@Z    0049a4b0 f   Kernel:Clstring.obj
 0001:000994f0       ?lookup@module@@QAEPAVsymbol@@PAD@Z 0049a4f0 f   Kernel:Clstring.obj
 0001:00099590       ?getSymbol@module@@QAEPAVsymbol@@PADPAV1@@Z 0049a590 f   Kernel:Clstring.obj
 0001:000995e0       ?initModule@NameSpace@@QAEXPADPAVmodule@@@Z 0049a5e0 f   Kernel:Clstring.obj
 0001:00099600       ?initModule@NameSpace@@QAEXPADPAVmodule@@PAVlist@@02@Z 0049a600 f   Kernel:Clstring.obj
 0001:00099690       ?begin_module@@YAXPAVmodule@@@Z 0049a690 f   Kernel:Clstring.obj
 0001:000996c0       ?end_module@@YAXPAVmodule@@@Z 0049a6c0 f   Kernel:Clstring.obj
 0001:00099710       ?make@symbol@@SAPAV1@PADPAVmodule@@1@Z 0049a710 f   Kernel:Clstring.obj
 0001:000997f0       ?getValue@symbol@@QAEHXZ   0049a7f0 f   Kernel:Clstring.obj
 0001:00099830       ?symbolDebug@@YAXPAVsymbol@@@Z 0049a830 f   Kernel:Clstring.obj
 0001:000998a0       ?symbol_I_string@@YAPAVsymbol@@PADPAVmodule@@@Z 0049a8a0 f   Kernel:Clstring.obj
 0001:000998c0       ?put_symbol@@YAHPAVsymbol@@H@Z 0049a8c0 f   Kernel:Clstring.obj
 0001:000998d0       ?get_symbol@@YAHPAVsymbol@@@Z 0049a8d0 f   Kernel:Clstring.obj
 0001:000998f0       ?append_symbol@@YAPAVsymbol@@PAV1@H@Z 0049a8f0 f   Kernel:Clstring.obj
 0001:00099a10       ?princ_symbol@@YAXPAVsymbol@@@Z 0049aa10 f   Kernel:Clstring.obj
 0001:00099a70       ?defined_symbol@@YAPAVmodule@@PAVsymbol@@@Z 0049aa70 f   Kernel:Clstring.obj
 0001:00099a80       ?module_I_symbol@@YAPAVmodule@@PAVsymbol@@@Z 0049aa80 f   Kernel:Clstring.obj
 0001:00099a90       ?string_I_symbol@@YAPADPAVsymbol@@@Z 0049aa90 f   Kernel:Clstring.obj
 0001:00099aa0       ?gensym_string@@YAPAVsymbol@@PAD@Z 0049aaa0 f   Kernel:Clstring.obj
 0001:00099c80       ?integer_I_symbol@@YAHPAVsymbol@@@Z 0049ac80 f   Kernel:Clstring.obj
 0001:00099cf0       ?princ_integer@@YAXH@Z     0049acf0 f   Kernel:Clstring.obj
 0001:00099d10       ?ch_sign@@YAHH@Z           0049ad10 f   Kernel:Clstring.obj
 0001:00099d20       ?_7_integer@@YAHHH@Z       0049ad20 f   Kernel:Clstring.obj
 0001:00099d50       ?mod_integer@@YAHHH@Z      0049ad50 f   Kernel:Clstring.obj
 0001:00099d80       ?_exp_integer@@YAHHH@Z     0049ad80 f   Kernel:Clstring.obj
 0001:00099dd0       ?exp2_integer@@YAHH@Z      0049add0 f   Kernel:Clstring.obj
 0001:00099e00       ?char_I_integer@@YAPAVClaireChar@@H@Z 0049ae00 f   Kernel:Clstring.obj
 0001:00099e50       ?string_I_integer@@YAPADH@Z 0049ae50 f   Kernel:Clstring.obj
 0001:00099e80       ?make_string_integer@@YAPADHPAVClaireChar@@@Z 0049ae80 f   Kernel:Clstring.obj
 0001:00099ee0       ?make_string_list@@YAPADPAVlist@@@Z 0049aee0 f   Kernel:Clstring.obj
 0001:00099f60       ?times_integer@@YAHHH@Z    0049af60 f   Kernel:Clstring.obj
 0001:00099fc0       ?random_integer@@YAHH@Z    0049afc0 f   Kernel:Clstring.obj
 0001:00099ff0       ?princ_int@@YAXH@Z         0049aff0 f   Kernel:Clstring.obj
 0001:0009a010       ?to_float_@@YAHH@Z         0049b010 f   Kernel:Clstring.obj
 0001:0009a080       ?to_float@@YANH@Z          0049b080 f   Kernel:Clstring.obj
 0001:0009a090       ?integer_I_float_@@YAHH@Z  0049b090 f   Kernel:Clstring.obj
 0001:0009a0c0       ?integer_I_float@@YAHN@Z   0049b0c0 f   Kernel:Clstring.obj
 0001:0009a1a0       ?_inf_float@@YAPAVClaireBoolean@@NN@Z 0049b1a0 f   Kernel:Clstring.obj
 0001:0009a1c0       ?_inf_equal_float@@YAPAVClaireBoolean@@NN@Z 0049b1c0 f   Kernel:Clstring.obj
 0001:0009a1e0       ?_sup_float@@YAPAVClaireBoolean@@NN@Z 0049b1e0 f   Kernel:Clstring.obj
 0001:0009a200       ?_sup_equal_float@@YAPAVClaireBoolean@@NN@Z 0049b200 f   Kernel:Clstring.obj
 0001:0009a220       ?_inf_float_@@YAPAVClaireBoolean@@HH@Z 0049b220 f   Kernel:Clstring.obj
 0001:0009a260       ?_inf_equal_float_@@YAPAVClaireBoolean@@HH@Z 0049b260 f   Kernel:Clstring.obj
 0001:0009a2a0       ?_sup_float_@@YAPAVClaireBoolean@@HH@Z 0049b2a0 f   Kernel:Clstring.obj
 0001:0009a2e0       ?_sup_equal_float_@@YAPAVClaireBoolean@@HH@Z 0049b2e0 f   Kernel:Clstring.obj
 0001:0009a320       ?princ_float@@YAXN@Z       0049b320 f   Kernel:Clstring.obj
 0001:0009a340       ?princ_float_@@YAXH@Z      0049b340 f   Kernel:Clstring.obj
 0001:0009a370       ?checkNextFree@@YAXXZ      0049b370 f   Kernel:Clalloc.OBJ
 0001:0009a3a0       ?GC_DEBUG@@YAHH@Z          0049b3a0 f   Kernel:Clalloc.OBJ
 0001:0009a3b0       ?init@ClaireAllocation@@QAEXXZ 0049b3b0 f   Kernel:Clalloc.OBJ
 0001:0009a5f0       ?log2up@ClaireAllocation@@SAHH@Z 0049b5f0 f   Kernel:Clalloc.OBJ
 0001:0009a610       ?newChunk@ClaireAllocation@@AAEHH@Z 0049b610 f   Kernel:Clalloc.OBJ
 0001:0009a7a0       ?newShort@ClaireAllocation@@AAEHH@Z 0049b7a0 f   Kernel:Clalloc.OBJ
 0001:0009a840       ?newLong@ClaireAllocation@@AAEHH@Z 0049b840 f   Kernel:Clalloc.OBJ
 0001:0009a890       ?makeStatic@ClaireAllocation@@QAEPAVClaireAny@@H@Z 0049b890 f   Kernel:Clalloc.OBJ
 0001:0009a8c0       ?makeAny@ClaireAllocation@@QAEPAVClaireAny@@H@Z 0049b8c0 f   Kernel:Clalloc.OBJ
 0001:0009a920       ?makeString@ClaireAllocation@@QAEPADH@Z 0049b920 f   Kernel:Clalloc.OBJ
 0001:0009a960       ?makeArray@ClaireAllocation@@QAEPAHHPAVClaireType@@@Z 0049b960 f   Kernel:Clalloc.OBJ
 0001:0009a9c0       ?makeContent@ClaireAllocation@@QAEPAHH@Z 0049b9c0 f   Kernel:Clalloc.OBJ
 0001:0009a9f0       ?import@ClaireAllocation@@QAEHPAVClaireClass@@PAH@Z 0049b9f0 f   Kernel:Clalloc.OBJ
 0001:0009aa90       ?makeFunction@ClaireAllocation@@QAEPAVClaireFunction@@P6AHH@ZPAD@Z 0049ba90 f   Kernel:Clalloc.OBJ
 0001:0009aac0       ?error_undefined_function@@YAHXZ 0049bac0 f   Kernel:Clalloc.OBJ
 0001:0009aae0       ?make_function_string@@YAPAVClaireFunction@@PAD@Z 0049bae0 f   Kernel:Clalloc.OBJ
 0001:0009ab00       ?freeChunk@ClaireAllocation@@AAEHH@Z 0049bb00 f   Kernel:Clalloc.OBJ
 0001:0009ab80       ?freeLoop@ClaireAllocation@@AAEHH@Z 0049bb80 f   Kernel:Clalloc.OBJ
 0001:0009ac30       ?freeSimple@ClaireAllocation@@AAEHHH@Z 0049bc30 f   Kernel:Clalloc.OBJ
 0001:0009ac80       ?mergeRight@ClaireAllocation@@AAEHHHH@Z 0049bc80 f   Kernel:Clalloc.OBJ
 0001:0009acf0       ?mergeLeft@ClaireAllocation@@AAEHHHH@Z 0049bcf0 f   Kernel:Clalloc.OBJ
 0001:0009ad60       ?freeObject@ClaireAllocation@@AAEXH@Z 0049bd60 f   Kernel:Clalloc.OBJ
 0001:0009adc0       ?freeString@ClaireAllocation@@AAEXPAD@Z 0049bdc0 f   Kernel:Clalloc.OBJ
 0001:0009ae00       ?freeChain@@YAXXZ          0049be00 f   Kernel:Clalloc.OBJ
 0001:0009ae60       ?gc@ClaireAllocation@@QAEXPAD@Z 0049be60 f   Kernel:Clalloc.OBJ
 0001:0009afb0       ?markHash@ClaireAllocation@@AAEXXZ 0049bfb0 f   Kernel:Clalloc.OBJ
 0001:0009b070       ?markStack@ClaireAllocation@@AAEXXZ 0049c070 f   Kernel:Clalloc.OBJ
 0001:0009b160       ?markPushed@ClaireAllocation@@AAEXH@Z 0049c160 f   Kernel:Clalloc.OBJ
 0001:0009b1c0       ?mark@ClaireAllocation@@AAEXH@Z 0049c1c0 f   Kernel:Clalloc.OBJ
 0001:0009b2c0       ?markAny@ClaireAllocation@@AAEXPAVClaireAny@@@Z 0049c2c0 f   Kernel:Clalloc.OBJ
 0001:0009b350       ?markObject@ClaireAllocation@@AAEXPAVClaireObject@@@Z 0049c350 f   Kernel:Clalloc.OBJ
 0001:0009b450       ?markPrimitive@ClaireAllocation@@AAEXPAVClairePrimitive@@@Z 0049c450 f   Kernel:Clalloc.OBJ
 0001:0009b4e0       ?markBag@ClaireAllocation@@AAEXPAVbag@@@Z 0049c4e0 f   Kernel:Clalloc.OBJ
 0001:0009b580       ?markString@ClaireAllocation@@AAEXPAD@Z 0049c580 f   Kernel:Clalloc.OBJ
 0001:0009b5c0       ?markArray@ClaireAllocation@@AAEXPAH@Z 0049c5c0 f   Kernel:Clalloc.OBJ
 0001:0009b620       ?sweepChunk@ClaireAllocation@@AAEXXZ 0049c620 f   Kernel:Clalloc.OBJ
 0001:0009b690       ?sweepObject@ClaireAllocation@@AAEXXZ 0049c690 f   Kernel:Clalloc.OBJ
 0001:0009b720       ?checkOID@@YAXH@Z          0049c720 f   Kernel:Clalloc.OBJ
 0001:0009b7e0       ?kill@ClaireAllocation@@QAEXH@Z 0049c7e0 f   Kernel:Clalloc.OBJ
 0001:0009b970       ?kill_I_any@@YAXH@Z        0049c970 f   Kernel:Clalloc.OBJ
 0001:0009b990       ?claire_gc@@YAXXZ          0049c990 f   Kernel:Clalloc.OBJ
 0001:0009b9b0       ?GC_OBJ_F@@YAPAVClaireObject@@PAV1@@Z 0049c9b0 f   Kernel:Clalloc.OBJ
 0001:0009b9e0       ?GC_OID@@YAHH@Z            0049c9e0 f   Kernel:Clalloc.OBJ
 0001:0009ba30       ?GC__OID@@YAXHH@Z          0049ca30 f   Kernel:Clalloc.OBJ
 0001:0009ba70       ?GC_STRING@@YAPADPAD@Z     0049ca70 f   Kernel:Clalloc.OBJ
 0001:0009bac0       ?GC__STRING@@YAXPADH@Z     0049cac0 f   Kernel:Clalloc.OBJ
 0001:0009bb10       ?GC_ARRAY@@YAPAHPAH@Z      0049cb10 f   Kernel:Clalloc.OBJ
 0001:0009bb50       ?gc_error@@YAHXZ           0049cb50 f   Kernel:Clalloc.OBJ
 0001:0009bb70       ?GC_RESERVE@@YAXH@Z        0049cb70 f   Kernel:Clalloc.OBJ
 0001:0009bbf0       ?memStat@ClaireAllocation@@QAEXXZ 0049cbf0 f   Kernel:Clalloc.OBJ
 0001:0009bf50       ?memList@ClaireAllocation@@QAEPAVlist@@PAVClaireBoolean@@@Z 0049cf50 f   Kernel:Clalloc.OBJ
 0001:0009c020       ?claire_stat@@YAXXZ        0049d020 f   Kernel:Clalloc.OBJ
 0001:0009c030       ?claire_mem@@YAHH@Z        0049d030 f   Kernel:Clalloc.OBJ
 0001:0009c110       ?close_exception@@YAHPAVClaireException@@@Z 0049d110 f   Kernel:Clenv.obj
 0001:0009c140       ?safe_exception@@YAHPAVClaireException@@@Z 0049d140 f   Kernel:Clenv.obj
 0001:0009c170       ??0ClaireHandler@@QAE@XZ   0049d170 f   Kernel:Clenv.obj
 0001:0009c200       ?catchIt@ClaireHandler@@QAEXXZ 0049d200 f   Kernel:Clenv.obj
 0001:0009c270       ?Cerror@@YAHHHH@Z          0049d270 f   Kernel:Clenv.obj
 0001:0009c350       ?my_handler@@YAXH@Z        0049d350 f   Kernel:Clenv.obj
 0001:0009c370       ?make@system_error@@SAPAV1@HHH@Z 0049d370 f   Kernel:Clenv.obj
 0001:0009c3a0       ?run@ClaireResource@@SAXXZ 0049d3a0 f   Kernel:Clenv.obj
 0001:0009c500       ?init@ClaireResource@@QAEXXZ 0049d500 f   Kernel:Clenv.obj
 0001:0009c520       ?magicInit@ClaireResource@@QAEXXZ 0049d520 f   Kernel:Clenv.obj
 0001:0009c6a0       ?makeCode@ClaireResource@@QAEHHHH@Z 0049d6a0 f   Kernel:Clenv.obj
 0001:0009c6c0       ?hashOid@ClaireResource@@QAEHHH@Z 0049d6c0 f   Kernel:Clenv.obj
 0001:0009c7c0       ?init@ClaireEnvironment@@QAEXXZ 0049d7c0 f   Kernel:Clenv.obj
 0001:0009c830       ?abort@ClaireEnvironment@@QAEXXZ 0049d830 f   Kernel:Clenv.obj
 0001:0009c850       ?restore_state_void@@YAXXZ 0049d850 f   Kernel:Clenv.obj
 0001:0009c890       ?bufferCopy@ClaireEnvironment@@QAEPADXZ 0049d890 f   Kernel:Clenv.obj
 0001:0009c8e0       ?pushInteger@ClaireEnvironment@@QAEXH@Z 0049d8e0 f   Kernel:Clenv.obj
 0001:0009c970       ?localString@ClaireEnvironment@@QAEPADPAD@Z 0049d970 f   Kernel:Clenv.obj
 0001:0009c9a0       ?Cpointer@@YAHHPAVClaireClass@@@Z 0049d9a0 f   Kernel:Clenv.obj
 0001:0009ca20       ?reset_stack@@YAHHH@Z      0049da20 f   Kernel:Clenv.obj
 0001:0009ca40       ?stack_add@@YAXH@Z         0049da40 f   Kernel:Clenv.obj
 0001:0009ca80       ?fcall1@@YAHPAVClaireFunction@@PAVClaireClass@@H1@Z 0049da80 f   Kernel:Clenv.obj
 0001:0009cb90       ?fcall2@@YAHPAVClaireFunction@@PAVClaireClass@@H1H1@Z 0049db90 f   Kernel:Clenv.obj
 0001:0009cd00       ?fcall3@@YAHPAVClaireFunction@@PAVClaireClass@@H1H1H1@Z 0049dd00 f   Kernel:Clenv.obj
 0001:0009cec0       ?stack_apply_function@@YAHPAVClaireFunction@@PAVlist@@HH@Z 0049dec0 f   Kernel:Clenv.obj
 0001:0009f550       ?string_I_function@@YAPADPAVClaireFunction@@@Z 004a0550 f   Kernel:Clenv.obj
 0001:0009f560       ?store_list@@YAHPAVlist@@HHPAVClaireBoolean@@@Z 004a0560 f   Kernel:Clenv.obj
 0001:0009f5e0       ?store_array@@YAHPAHHHPAVClaireBoolean@@@Z 004a05e0 f   Kernel:Clenv.obj
 0001:0009f700       ?store_object@@YAHPAVClaireObject@@HPAVClaireClass@@HPAVClaireBoolean@@@Z 004a0700 f   Kernel:Clenv.obj
 0001:0009f930       ?store_add@@YAPAVlist@@PAV1@H@Z 004a0930 f   Kernel:Clenv.obj
 0001:0009f9a0       ?world_push@@YAXXZ         004a09a0 f   Kernel:Clenv.obj
 0001:0009fa70       ?world_pop@@YAXXZ          004a0a70 f   Kernel:Clenv.obj
 0001:0009fb60       ?world_remove@@YAXXZ       004a0b60 f   Kernel:Clenv.obj
 0001:0009fc00       ?world_slaughter@@YAXXZ    004a0c00 f   Kernel:Clenv.obj
 0001:0009fcb0       ?world_number@@YAHXZ       004a0cb0 f   Kernel:Clenv.obj
 0001:0009fcc0       ?world_get_id@@YAHXZ       004a0cc0 f   Kernel:Clenv.obj
 0001:0009fcd0       ?contains@ClaireCollection@@QAEPAVClaireBoolean@@H@Z 004a0cd0 f   Kernel:Clreflect.obj
 0001:0009fdd0       ?copy_object@@YAPAVClaireObject@@PAV1@@Z 004a0dd0 f   Kernel:Clreflect.obj
 0001:0009fe00       ?equal@@YAPAVClaireBoolean@@HH@Z 004a0e00 f   Kernel:Clreflect.obj
 0001:0009ff10       ?slot_get_object@@YAHPAVClaireObject@@HPAVClaireClass@@@Z 004a0f10 f   Kernel:Clreflect.obj
 0001:000a00d0       ?belong_to@@YAPAVClaireBoolean@@HH@Z 004a10d0 f   Kernel:Clreflect.obj
 0001:000a0160       ?hash_list@@YAHPAVlist@@H@Z 004a1160 f   Kernel:Clreflect.obj
 0001:000a0190       ?boolean_I_ClaireAny@@YAPAVClaireBoolean@@PAVClaireAny@@@Z 004a1190 f   Kernel:Clreflect.obj
 0001:000a01e0       ?boolean_I_any@@YAPAVClaireBoolean@@H@Z 004a11e0 f   Kernel:Clreflect.obj
 0001:000a0220       ?CL_Address@@YAHH@Z        004a1220 f   Kernel:Clreflect.obj
 0001:000a0230       ?CL_Oid@@YAPADH@Z          004a1230 f   Kernel:Clreflect.obj
 0001:000a0260       ?CL_Oid_inv@@YAHPAD@Z      004a1260 f   Kernel:Clreflect.obj
 0001:000a0280       ??RClaireClass@@QAEPAVClaireObject@@H@Z 004a1280 f   Kernel:Clreflect.obj
 0001:000a02b0       ??RClaireClass@@QAEPAVClaireObject@@HH@Z 004a12b0 f   Kernel:Clreflect.obj
 0001:000a02f0       ??RClaireClass@@QAEPAVClaireObject@@HHH@Z 004a12f0 f   Kernel:Clreflect.obj
 0001:000a0340       ?make@ClaireClass@@SAPAV1@PAVClaireAny@@@Z 004a1340 f   Kernel:Clreflect.obj
 0001:000a03c0       ?make@ClaireClass@@SAPAV1@PAD@Z 004a13c0 f   Kernel:Clreflect.obj
 0001:000a0440       ?make@ClaireClass@@SAPAV1@PADPAV1@PAVmodule@@@Z 004a1440 f   Kernel:Clreflect.obj
 0001:000a04d0       ?instantiate@ClaireClass@@QAEPAVClaireObject@@H@Z 004a14d0 f   Kernel:Clreflect.obj
 0001:000a04f0       ?instantiate@ClaireClass@@QAEPAVClaireObject@@XZ 004a14f0 f   Kernel:Clreflect.obj
 0001:000a0660       ?instantiate@ClaireClass@@QAEPAVthing@@PADPAVmodule@@@Z 004a1660 f   Kernel:Clreflect.obj
 0001:000a0760       ?genealogy@ClaireClass@@QAEXXZ 004a1760 f   Kernel:Clreflect.obj
 0001:000a0800       ?addSlot@ClaireClass@@QAEPAVslot@@PAVproperty@@PAVClaireType@@HH@Z 004a1800 f   Kernel:Clreflect.obj
 0001:000a0c50       ?nBits@ClaireClass@@QAEHH@Z 004a1c50 f   Kernel:Clreflect.obj
 0001:000a0cb0       ?totalBits@ClaireClass@@QAEHXZ 004a1cb0 f   Kernel:Clreflect.obj
 0001:000a0d20       ?encode@ClaireClass@@QAEXXZ 004a1d20 f   Kernel:Clreflect.obj
 0001:000a0d30       ?recode@ClaireClass@@QAEXH@Z 004a1d30 f   Kernel:Clreflect.obj
 0001:000a0da0       ?nodeCode@ClaireClass@@QAEXHHHH@Z 004a1da0 f   Kernel:Clreflect.obj
 0001:000a0e10       ?add_slot_class@@YAXPAVClaireClass@@PAVproperty@@PAVClaireType@@HH@Z 004a1e10 f   Kernel:Clreflect.obj
 0001:000a0e30       ?new_object_class@@YAPAVClaireObject@@PAVClaireClass@@@Z 004a1e30 f   Kernel:Clreflect.obj
 0001:000a0e40       ?new_thing_class@@YAPAVthing@@PAVClaireClass@@PAVsymbol@@@Z 004a1e40 f   Kernel:Clreflect.obj
 0001:000a0e60       ?class_I_symbol@@YAPAVClaireClass@@PAVsymbol@@PAV1@@Z 004a1e60 f   Kernel:Clreflect.obj
 0001:000a0e80       ?sort_I_class@@YAPAVClaireClass@@PAV1@@Z 004a1e80 f   Kernel:Clreflect.obj
 0001:000a0ef0       ?make@property@@SAPAV1@PADPAVmodule@@@Z 004a1ef0 f   Kernel:Clreflect.obj
 0001:000a0f50       ?make@property@@SAPAV1@PADHPAVmodule@@@Z 004a1f50 f   Kernel:Clreflect.obj
 0001:000a0f70       ?make@property@@SAPAV1@PADHPAVmodule@@H@Z 004a1f70 f   Kernel:Clreflect.obj
 0001:000a0fa0       ?make@property@@SAPAV1@PADHPAVmodule@@PAVClaireClass@@H@Z 004a1fa0 f   Kernel:Clreflect.obj
 0001:000a0fd0       ?make@operation@@SAPAV1@PADPAVmodule@@H@Z 004a1fd0 f   Kernel:Clreflect.obj
 0001:000a1010       ?make@operation@@SAPAV1@PADHPAVmodule@@H@Z 004a2010 f   Kernel:Clreflect.obj
 0001:000a1050       ??Rproperty@@QAEHH@Z       004a2050 f   Kernel:Clreflect.obj
 0001:000a1080       ??Rproperty@@QAEHHH@Z      004a2080 f   Kernel:Clreflect.obj
 0001:000a10d0       ??Rproperty@@QAEHHHH@Z     004a20d0 f   Kernel:Clreflect.obj
 0001:000a1140       ??Rproperty@@QAEHHHHH@Z    004a2140 f   Kernel:Clreflect.obj
 0001:000a11d0       ??Rproperty@@QAEHHHHHH@Z   004a21d0 f   Kernel:Clreflect.obj
 0001:000a1280       ??Rproperty@@QAEHHHHHHH@Z  004a2280 f   Kernel:Clreflect.obj
 0001:000a1350       ??Rproperty@@QAEHHHHHHHH@Z 004a2350 f   Kernel:Clreflect.obj
 0001:000a1440       ??Rproperty@@QAEHHHHHHHHH@Z 004a2440 f   Kernel:Clreflect.obj
 0001:000a1550       ??Rproperty@@QAEHHHHHHHHHH@Z 004a2550 f   Kernel:Clreflect.obj
 0001:000a1690       ??Rproperty@@QAEHHHHHHHHHHH@Z 004a2690 f   Kernel:Clreflect.obj
 0001:000a17f0       ?super@property@@QAEHPAVClaireClass@@H@Z 004a27f0 f   Kernel:Clreflect.obj
 0001:000a1830       ?stack_apply@property@@QAEHH@Z 004a2830 f   Kernel:Clreflect.obj
 0001:000a18a0       ?addMethod@property@@QAEPAVmethod@@PAVlist@@PAVClaireType@@HPAVClaireFunction@@@Z 004a28a0 f   Kernel:Clreflect.obj
 0001:000a19d0       ?addFloatMethod@property@@QAEPAVmethod@@PAVlist@@PAVClaireType@@HPAVClaireFunction@@2@Z 004a29d0 f   Kernel:Clreflect.obj
 0001:000a1a00       ?inlineDef@method@@QAEPAV1@PAD@Z 004a2a00 f   Kernel:Clreflect.obj
 0001:000a1a20       ?add_method_property@@YAPAVmethod@@PAVproperty@@PAVlist@@PAVClaireType@@HH@Z 004a2a20 f   Kernel:Clreflect.obj
 0001:000a1a60       ?expand@table@@QAEHH@Z     004a2a60 f   Kernel:Clreflect.obj
 0001:000a1b40       ?insertHash@table@@QAEHPAVlist@@HH@Z 004a2b40 f   Kernel:Clreflect.obj
 0001:000a1bf0       ?index_table@@YAHPAVtable@@H@Z 004a2bf0 f   Kernel:Clreflect.obj
 0001:000a1e10       ?index_table2@@YAHPAVtable@@HH@Z 004a2e10 f   Kernel:Clreflect.obj
 0001:000a1fa0       ?get@ClairePort@@UAEDXZ    004a2fa0 f   Kernel:Clport.obj
 0001:000a1fb0       ?put@ClairePort@@UAEXD@Z   004a2fb0 f   Kernel:Clport.obj
 0001:000a1fc0       ?put@ClairePort@@UAEXH@Z   004a2fc0 f   Kernel:Clport.obj
 0001:000a1fd0       ?put@ClairePort@@UAEXN@Z   004a2fd0 f   Kernel:Clport.obj
 0001:000a1fe0       ?flush@ClairePort@@UAEXXZ  004a2fe0 f   Kernel:Clport.obj
 0001:000a1ff0       ?pclose@ClairePort@@UAEXXZ 004a2ff0 f   Kernel:Clport.obj
 0001:000a2000       ?debugSee@ClairePort@@UAEXXZ 004a3000 f   Kernel:Clport.obj
 0001:000a2010       ?getNext@ClairePort@@QAEHXZ 004a3010 f   Kernel:Clport.obj
 0001:000a2020       ?make@ClairePort@@SAPAV1@PAU_iobuf@@@Z 004a3020 f   Kernel:Clport.obj
 0001:000a2050       ?get@CPFile@@UAEDXZ        004a3050 f i Kernel:Clport.obj
 0001:000a2080       ?debugSee@CPFile@@UAEXXZ   004a3080 f i Kernel:Clport.obj
 0001:000a2090       ?put@CPFile@@UAEXD@Z       004a3090 f i Kernel:Clport.obj
 0001:000a20d0       ?put@CPFile@@UAEXH@Z       004a30d0 f i Kernel:Clport.obj
 0001:000a20f0       ?put@CPFile@@UAEXN@Z       004a30f0 f i Kernel:Clport.obj
 0001:000a2220       ?flush@CPFile@@UAEXXZ      004a3220 f i Kernel:Clport.obj
 0001:000a2230       ?pclose@CPFile@@UAEXXZ     004a3230 f i Kernel:Clport.obj
 0001:000a2240       ?use_as_output_port@@YAPAVClairePort@@PAV1@@Z 004a3240 f   Kernel:Clport.obj
 0001:000a2260       ?fclose_port@@YAXPAVClairePort@@@Z 004a3260 f   Kernel:Clport.obj
 0001:000a2290       ?free_I_port@@YAXPAVClairePort@@@Z 004a3290 f   Kernel:Clport.obj
 0001:000a22a0       ?putc_char@@YAXPAVClaireChar@@PAVClairePort@@@Z 004a32a0 f   Kernel:Clport.obj
 0001:000a22c0       ?getc_port@@YAPAVClaireChar@@PAVClairePort@@@Z 004a32c0 f   Kernel:Clport.obj
 0001:000a22e0       ?flush_port@@YAXPAVClairePort@@@Z 004a32e0 f   Kernel:Clport.obj
 0001:000a22f0       ?fopen_string@@YAPAVClairePort@@PAD0@Z 004a32f0 f   Kernel:Clport.obj
 0001:000a2370       ?port_I_void@@YAPAVClairePort@@XZ 004a3370 f   Kernel:Clport.obj
 0001:000a23c0       ?debugSee@CPStringOut@@UAEXXZ 004a33c0 f i Kernel:Clport.obj
 0001:000a23d0       ?put@CPStringOut@@UAEXD@Z  004a33d0 f i Kernel:Clport.obj
 0001:000a2400       ?put@CPStringOut@@UAEXH@Z  004a3400 f i Kernel:Clport.obj
 0001:000a2460       ?put@CPStringOut@@UAEXN@Z  004a3460 f i Kernel:Clport.obj
 0001:000a25c0       ?port_I_string@@YAPAVClairePort@@PAD@Z 004a35c0 f   Kernel:Clport.obj
 0001:000a2600       ?debugSee@CPStringIn@@UAEXXZ 004a3600 f i Kernel:Clport.obj
 0001:000a2610       ?get@CPStringIn@@UAEDXZ    004a3610 f i Kernel:Clport.obj
 0001:000a2630       ?pushback_port@@YAXPAVClairePort@@H@Z 004a3630 f   Kernel:Clport.obj
 0001:000a2640       ?string_I_port@@YAPADPAVClairePort@@@Z 004a3640 f   Kernel:Clport.obj
 0001:000a2670       ?length_port@@YAHPAVClairePort@@@Z 004a3670 f   Kernel:Clport.obj
 0001:000a2690       ?set_length_port@@YAXPAVClairePort@@H@Z 004a3690 f   Kernel:Clport.obj
 0001:000a26b0       ?alpha_char@@YAPAVClaireBoolean@@PAVClaireChar@@@Z 004a36b0 f   Kernel:Clport.obj
 0001:000a2720       ?read_string_port@@YAPADPAVClairePort@@@Z 004a3720 f   Kernel:Clport.obj
 0001:000a27c0       ?read_ident_port@@YAHPAVClairePort@@@Z 004a37c0 f   Kernel:Clport.obj
 0001:000a2910       ?read_number_port@@YAHPAVClairePort@@@Z 004a3910 f   Kernel:Clport.obj
 0001:000a2b90       ?read_thing_port@@YAHPAVClairePort@@PAVmodule@@PAVClaireChar@@1@Z 004a3b90 f   Kernel:Clport.obj
 0001:000a3010       ?init@ClaireChar@@SAXXZ    004a4010 f   Kernel:Clport.obj
 0001:000a3060       ?princ_char@@YAXPAVClaireChar@@@Z 004a4060 f   Kernel:Clport.obj
 0001:000a3080       ?c_princ_c@@YAXPAVClaireChar@@@Z 004a4080 f   Kernel:Clport.obj
 0001:000a3320       ?c_princ_string@@YAXPAD@Z  004a4320 f   Kernel:Clport.obj
 0001:000a3350       ?c_princ_symbol@@YAXPAVsymbol@@@Z 004a4350 f   Kernel:Clport.obj
 0001:000a3390       ?integer_I_char@@YAHPAVClaireChar@@@Z 004a4390 f   Kernel:Clport.obj
 0001:000a33a0       ?time_set_void@@YAXXZ      004a43a0 f   Kernel:Clport.obj
 0001:000a3410       ?time_get_void@@YAHXZ      004a4410 f   Kernel:Clport.obj
 0001:000a3480       ?time_read_void@@YAHXZ     004a4480 f   Kernel:Clport.obj
 0001:000a34f0       ?time_show_void@@YAXXZ     004a44f0 f   Kernel:Clport.obj
 0001:000a35a0       ?claire_shell@@YAXPAD@Z    004a45a0 f   Kernel:Clport.obj
 0001:000a35b0       ?PRstart@@YAPAVPRcount@@PAV1@@Z 004a45b0 f   Kernel:Clport.obj
 0001:000a3600       ?PRend@@YAXPAVPRcount@@@Z  004a4600 f   Kernel:Clport.obj
 0001:000a3650       ?PRloop@@YAXPAVPRcount@@@Z 004a4650 f   Kernel:Clport.obj
 0001:000a3660       ?C_to_Claire@@YAPAVlist@@HQAPAD@Z 004a4660 f   console:clConsole.obj
 0001:000a3710       _main                      004a4710 f   console:clConsole.obj
 0001:000a3910       ?CL_exit@@YAXH@Z           004a4910 f   console:clConsole.obj
 0001:000a3920       ?CL_system@@YAXPAD@Z       004a4920 f   console:clConsole.obj
 0001:000a3930       ?CL_alloc@@YAPAXH@Z        004a4930 f   console:clConsole.obj
 0001:000a3960       ?topLevel@@YAXPAVmeta_reader@@@Z 004a4960 f   console:clConsole.obj
 0001:000a3c90       ?InspectLoop@@YAHPAVlist@@@Z 004a4c90 f   console:clConsole.obj
 0001:000a3cc0       ?loadInit@@YAXXZ           004a4cc0 f   console:clConsole.obj
 0001:000a3d40       ?DebugLoop@@YAXXZ          004a4d40 f   console:clConsole.obj
 0001:000a3d90       ?StepLoop@@YAHXZ           004a4d90 f   console:clConsole.obj
 0001:000a3e00       ?CommandLoopVoid@@YAPADXZ  004a4e00 f   console:clConsole.obj
 0001:000a3e90       ?default_main@@YAXXZ       004a4e90 f   console:clConsole.obj
 0001:000a3fc0       ?see@@YAXHH@Z              004a4fc0 f   console:clConsole.obj
 0001:000a4330       ?see@@YAXH@Z               004a5330 f   console:clConsole.obj
 0001:000a4340       ?see@@YAXPADHH@Z           004a5340 f   console:clConsole.obj
 0001:000a4380       ?seeIt@@YAXPADH@Z          004a5380 f   console:clConsole.obj
 0001:000a43b0       ?see@@YAXPADH@Z            004a53b0 f   console:clConsole.obj
 0001:000a43d0       _longjmp                   004a53d0 f   LIBC:longjmp.obj
 0001:000a444c       __setjmp3                  004a544c f   LIBC:setjmp3.obj
 0001:000a44c7       _mainCRTStartup            004a54c7 f   LIBC:crt0.obj
 0001:000a45a6       __amsg_exit                004a55a6 f   LIBC:crt0.obj
 0001:000a45f0       _strlen                    004a55f0 f   LIBC:strlen.obj
 0001:000a466b       __fpmath                   004a566b f   LIBC:fpinit.obj
 0001:000a4682       __fpclear                  004a5682 f   LIBC:fpinit.obj
 0001:000a4683       __cfltcvt_init             004a5683 f   LIBC:fpinit.obj
 0001:000a46bb       ___setfflag                004a56bb f   LIBC:fpinit.obj
 0001:000a46d0       __CIpow                    004a56d0 f   LIBC:pow.obj
 0001:000a46e9       _pow                       004a56e9 f   LIBC:pow.obj
 0001:000a48ed       _srand                     004a58ed f   LIBC:rand.obj
 0001:000a48f7       _rand                      004a58f7 f   LIBC:rand.obj
 0001:000a4915       _printf                    004a5915 f   LIBC:printf.obj
 0001:000a4946       _strtol                    004a5946 f   LIBC:strtol.obj
 0001:000a4b65       _strtoul                   004a5b65 f   LIBC:strtol.obj
 0001:000a4b7c       _asctime                   004a5b7c f   LIBC:asctime.obj
 0001:000a4c52       _localtime                 004a5c52 f   LIBC:localtim.obj
 0001:000a4db2       _time                      004a5db2 f   LIBC:time.obj
 0001:000a4e8e       _getenv                    004a5e8e f   LIBC:getenv.obj
 0001:000a4f0b       _floor                     004a5f0b f   LIBC:floor.obj
 0001:000a4fdc       __ftol                     004a5fdc f   LIBC:ftol.obj
 0001:000a5003       ??2@YAPAXI@Z               004a6003 f   LIBC:new.obj
 0001:000a5011       _abort                     004a6011 f   LIBC:abort.obj
 0001:000a5028       _signal                    004a6028 f   LIBC:winsig.obj
 0001:000a516c       _raise                     004a616c f   LIBC:winsig.obj
 0001:000a52de       _sprintf                   004a62de f   LIBC:sprintf.obj
 0001:000a5330       _sscanf                    004a6330 f   LIBC:sscanf.obj
 0001:000a5364       __filbuf                   004a6364 f   LIBC:_filbuf.obj
 0001:000a543d       __flsbuf                   004a643d f   LIBC:_flsbuf.obj
 0001:000a5552       _fprintf                   004a6552 f   LIBC:fprintf.obj
 0001:000a5584       _ceil                      004a6584 f   LIBC:ceil.obj
 0001:000a5653       _fflush                    004a6653 f   LIBC:fflush.obj
 0001:000a568e       __flush                    004a668e f   LIBC:fflush.obj
 0001:000a56ea       __flushall                 004a66ea f   LIBC:fflush.obj
 0001:000a5760       _fclose                    004a6760 f   LIBC:fclose.obj
 0001:000a57b6       __fsopen                   004a67b6 f   LIBC:fopen.obj
 0001:000a57d6       _fopen                     004a67d6 f   LIBC:fopen.obj
 0001:000a57e9       _clock                     004a67e9 f   LIBC:clock.obj
 0001:000a582c       ___inittime                004a682c f   LIBC:clock.obj
 0001:000a5861       __cinit                    004a6861 f   LIBC:crt0dat.obj
 0001:000a588e       _exit                      004a688e f   LIBC:crt0dat.obj
 0001:000a589f       __exit                     004a689f f   LIBC:crt0dat.obj
 0001:000a58b0       __cexit                    004a68b0 f   LIBC:crt0dat.obj
 0001:000a58bf       __c_exit                   004a68bf f   LIBC:crt0dat.obj
 0001:000a5981       ___initstdio               004a6981 f   LIBC:_file.obj
 0001:000a5a26       ___endstdio                004a6a26 f   LIBC:_file.obj
 0001:000a5a3a       _atol                      004a6a3a f   LIBC:atox.obj
 0001:000a5ac5       _atoi                      004a6ac5 f   LIBC:atox.obj
 0001:000a5ad0       __atoi64                   004a6ad0 f   LIBC:atox.obj
 0001:000a5b8a       _system                    004a6b8a f   LIBC:system.obj
 0001:000a5c20       _malloc                    004a6c20 f   LIBC:malloc.obj
 0001:000a5c32       __nh_malloc                004a6c32 f   LIBC:malloc.obj
 0001:000a5c5e       __heap_alloc               004a6c5e f   LIBC:malloc.obj
 0001:000a5c94       __global_unwind2           004a6c94 f   LIBC:exsup.obj
 0001:000a5cd6       __local_unwind2            004a6cd6 f   LIBC:exsup.obj
 0001:000a5d2e       __NLG_Return2              004a6d2e f   LIBC:exsup.obj
 0001:000a5d3e       __abnormal_termination     004a6d3e f   LIBC:exsup.obj
 0001:000a5d61       __NLG_Notify1              004a6d61 f   LIBC:exsup.obj
 0001:000a5d6a       __NLG_Notify               004a6d6a f   LIBC:exsup.obj
 0001:000a5d7d       __NLG_Dispatch             004a6d7d f   LIBC:exsup.obj
 0001:000a5d82       __rt_probe_read4@4         004a6d82 f   LIBC:sehsupp.obj
 0001:000a5de7       __XcptFilter               004a6de7 f   LIBC:winxfltr.obj
 0001:000a5f6b       __setenvp                  004a6f6b f   LIBC:stdenvp.obj
 0001:000a6024       __setargv                  004a7024 f   LIBC:stdargv.obj
 0001:000a6271       ___crtGetEnvironmentStringsA 004a7271 f   LIBC:a_env.obj
 0001:000a63a3       __ioinit                   004a73a3 f   LIBC:ioinit.obj
 0001:000a654e       __ioterm                   004a754e f   LIBC:ioinit.obj
 0001:000a6571       __heap_init                004a7571 f   LIBC:heapinit.obj
 0001:000a65ad       __heap_term                004a75ad f   LIBC:heapinit.obj
 0001:000a662c       __except_handler3          004a762c f   LIBC:exsup3.obj
 0001:000a66e9       __seh_longjmp_unwind@4     004a76e9 f   LIBC:exsup3.obj
 0001:000a6704       __FF_MSGBANNER             004a7704 f   LIBC:crt0msg.obj
 0001:000a673d       __NMSG_WRITE               004a773d f   LIBC:crt0msg.obj
 0001:000a6890       __GET_RTERRMSG             004a7890 f   LIBC:crt0msg.obj
 0001:000a68c1       __setdefaultprecision      004a78c1 f   LIBC:fp8.obj
 0001:000a68d3       __ms_p5_test_fdiv          004a78d3 f   LIBC:testfdiv.obj
 0001:000a6911       __ms_p5_mp_test_fdiv       004a7911 f   LIBC:testfdiv.obj
 0001:000a693a       __forcdecpt                004a793a f   LIBC:cvt.obj
 0001:000a6994       __cropzeros                004a7994 f   LIBC:cvt.obj
 0001:000a69e2       __positive                 004a79e2 f   LIBC:cvt.obj
 0001:000a69fa       __fassign                  004a79fa f   LIBC:cvt.obj
 0001:000a6a38       __cftoe                    004a7a38 f   LIBC:cvt.obj
 0001:000a6b3c       __cftof                    004a7b3c f   LIBC:cvt.obj
 0001:000a6c1a       __cftog                    004a7c1a f   LIBC:cvt.obj
 0001:000a6cff       __cfltcvt                  004a7cff f   LIBC:cvt.obj
 0001:000a6d91       __fFEXP                    004a7d91 f   LIBC:87tran.obj
 0001:000a6df8       __rtinfpopse               004a7df8 f   LIBC:87tran.obj
 0001:000a6dfa       __rtinfnpopse              004a7dfa f   LIBC:87tran.obj
 0001:000a6e0a       __fFLN                     004a7e0a f   LIBC:87tran.obj
 0001:000a6ebf       __rtinfpop                 004a7ebf f   LIBC:87tran.obj
 0001:000a6ec1       __rtinfnpop                004a7ec1 f   LIBC:87tran.obj
 0001:000a6ede       __ffexpm1                  004a7ede f   LIBC:87tran.obj
 0001:000a6f90       __trandisp1                004a7f90 f   LIBC:87disp.obj
 0001:000a6ff7       __trandisp2                004a7ff7 f   LIBC:87disp.obj
 0001:000a7083       __rttospopde               004a8083 f   LIBC:87disp.obj
 0001:000a7088       __rttospop                 004a8088 f   LIBC:87disp.obj
 0001:000a708a       __rtnospop                 004a808a f   LIBC:87disp.obj
 0001:000a708c       __rttosnpop                004a808c f   LIBC:87disp.obj
 0001:000a708d       __rtnospopde               004a808d f   LIBC:87disp.obj
 0001:000a7094       __rtzeropop                004a8094 f   LIBC:87disp.obj
 0001:000a7096       __rtzeronpop               004a8096 f   LIBC:87disp.obj
 0001:000a709b       __rtonepop                 004a809b f   LIBC:87disp.obj
 0001:000a709d       __rtonenpop                004a809d f   LIBC:87disp.obj
 0001:000a70a2       __tosnan1                  004a80a2 f   LIBC:87disp.obj
 0001:000a70cd       __nosnan2                  004a80cd f   LIBC:87disp.obj
 0001:000a70cf       __tosnan2                  004a80cf f   LIBC:87disp.obj
 0001:000a70f7       __nan2                     004a80f7 f   LIBC:87disp.obj
 0001:000a7136       __rtindfpop                004a8136 f   LIBC:87disp.obj
 0001:000a7138       __rtindfnpop               004a8138 f   LIBC:87disp.obj
 0001:000a7149       __rttosnpopde              004a8149 f   LIBC:87disp.obj
 0001:000a7153       __rtchsifneg               004a8153 f   LIBC:87disp.obj
 0001:000a7160       __startTwoArgErrorHandling 004a8160 f   LIBC:genexcep.obj
 0001:000a7177       __startOneArgErrorHandling 004a8177 f   LIBC:genexcep.obj
 0001:000a71c0       __twoToTOS                 004a81c0 f   LIBC:common.obj
 0001:000a71d5       __load_CW                  004a81d5 f   LIBC:common.obj
 0001:000a71ec       __convertTOStoQNaN         004a81ec f   LIBC:common.obj
 0001:000a7205       __fload_withFB             004a8205 f   LIBC:common.obj
 0001:000a7248       __checkTOS_withFB          004a8248 f   LIBC:common.obj
 0001:000a725e       __fast_exit                004a825e f   LIBC:common.obj
 0001:000a726b       __math_exit                004a826b f   LIBC:common.obj
 0001:000a7295       __check_overflow_exit      004a8295 f   LIBC:common.obj
 0001:000a72a9       __check_range_exit         004a82a9 f   LIBC:common.obj
 0001:000a734c       __powhlp                   004a834c f   LIBC:powhlp.obj
 0001:000a747c       __d_inttype                004a847c f   LIBC:powhlp.obj
 0001:000a74e1       __stbuf                    004a84e1 f   LIBC:_sftbuf.obj
 0001:000a756e       __ftbuf                    004a856e f   LIBC:_sftbuf.obj
 0001:000a75ab       __output                   004a85ab f   LIBC:output.obj
 0001:000a7db5       __toupper                  004a8db5 f   LIBC:toupper.obj
 0001:000a7dbd       _toupper                   004a8dbd f   LIBC:toupper.obj
 0001:000a7e89       __isctype                  004a8e89 f   LIBC:isctype.obj
 0001:000a7efe       ___tzset                   004a8efe f   LIBC:tzset.obj
 0001:000a7f13       __tzset                    004a8f13 f   LIBC:tzset.obj
 0001:000a8171       __isindst                  004a9171 f   LIBC:tzset.obj
 0001:000a845d       _gmtime                    004a945d f   LIBC:gmtime.obj
 0001:000a8556       ___loctotime_t             004a9556 f   LIBC:dtoxtime.obj
 0001:000a8618       __mbsnbicoll               004a9618 f   LIBC:mbsnbico.obj
 0001:000a8657       ___wtomb_environ           004a9657 f   LIBC:wtombenv.obj
 0001:000a86c5       __handle_qnan1             004a96c5 f   LIBC:fpexcept.obj
 0001:000a8718       __handle_qnan2             004a9718 f   LIBC:fpexcept.obj
 0001:000a8777       __except1                  004a9777 f   LIBC:fpexcept.obj
 0001:000a880f       __except2                  004a980f f   LIBC:fpexcept.obj
 0001:000a88b4       __raise_exc                004a98b4 f   LIBC:fpexcept.obj
 0001:000a8b67       __handle_exc               004a9b67 f   LIBC:fpexcept.obj
 0001:000a8d7e       __umatherr                 004a9d7e f   LIBC:fpexcept.obj
 0001:000a8e06       __set_errno                004a9e06 f   LIBC:fpexcept.obj
 0001:000a8e51       __errcode                  004a9e51 f   LIBC:fpexcept.obj
 0001:000a8e7e       __frnd                     004a9e7e f   LIBC:frnd.obj
 0001:000a8e90       __set_exp                  004a9e90 f   LIBC:util.obj
 0001:000a8eb9       __get_exp                  004a9eb9 f   LIBC:util.obj
 0001:000a8ecd       __add_exp                  004a9ecd f   LIBC:util.obj
 0001:000a8ef9       __set_bexp                 004a9ef9 f   LIBC:util.obj
 0001:000a8f1d       __sptype                   004a9f1d f   LIBC:util.obj
 0001:000a8f77       __decomp                   004a9f77 f   LIBC:util.obj
 0001:000a9038       __statfp                   004aa038 f   LIBC:fpctrl.obj
 0001:000a9046       __clrfp                    004aa046 f   LIBC:fpctrl.obj
 0001:000a9055       __ctrlfp                   004aa055 f   LIBC:fpctrl.obj
 0001:000a9078       __set_statfp               004aa078 f   LIBC:fpctrl.obj
 0001:000a90ce       __input                    004aa0ce f   LIBC:input.obj
 0001:000a9b7f       __read                     004aab7f f   LIBC:read.obj
 0001:000a9d75       __getbuf                   004aad75 f   LIBC:_getbuf.obj
 0001:000a9db9       __lseek                    004aadb9 f   LIBC:lseek.obj
 0001:000a9e53       __write                    004aae53 f   LIBC:write.obj
 0001:000aa000       __isatty                   004ab000 f   LIBC:isatty.obj
 0001:000aa026       __commit                   004ab026 f   LIBC:commit.obj
 0001:000aa07d       _free                      004ab07d f   LIBC:free.obj
 0001:000aa0ac       __close                    004ab0ac f   LIBC:close.obj
 0001:000aa15f       __freebuf                  004ab15f f   LIBC:_freebuf.obj
 0001:000aa18a       __openfile                 004ab18a f   LIBC:_open.obj
 0001:000aa2fa       __getstream                004ab2fa f   LIBC:stream.obj
 0001:000aa380       __aulldiv                  004ab380 f   LIBC:ulldiv.obj
 0001:000aa3f0       __allmul                   004ab3f0 f   LIBC:llmul.obj
 0001:000aa424       _calloc                    004ab424 f   LIBC:calloc.obj
 0001:000aa4a1       __fcloseall                004ab4a1 f   LIBC:closeall.obj
 0001:000aa4f9       __spawnvpe                 004ab4f9 f   LIBC:spawnvpe.obj
 0001:000aa65c       __spawnve                  004ab65c f   LIBC:spawnve.obj
 0001:000aa7f6       __access                   004ab7f6 f   LIBC:access.obj
 0001:000aa83a       ?_set_new_handler@@YAP6AHI@ZP6AHI@Z@Z 004ab83a f   LIBC:handler.obj
 0001:000aa84a       ?_query_new_handler@@YAP6AHI@ZXZ 004ab84a f   LIBC:handler.obj
 0001:000aa850       __callnewh                 004ab850 f   LIBC:handler.obj
 0001:000aa86b       __get_sbh_threshold        004ab86b f   LIBC:sbheap.obj
 0001:000aa871       __set_sbh_threshold        004ab871 f   LIBC:sbheap.obj
 0001:000aa888       ___sbh_heap_init           004ab888 f   LIBC:sbheap.obj
 0001:000aa8c6       ___sbh_find_block          004ab8c6 f   LIBC:sbheap.obj
 0001:000aa8f1       ___sbh_free_block          004ab8f1 f   LIBC:sbheap.obj
 0001:000aac1c       ___sbh_alloc_block         004abc1c f   LIBC:sbheap.obj
 0001:000aaf25       ___sbh_alloc_new_region    004abf25 f   LIBC:sbheap.obj
 0001:000aafd6       ___sbh_alloc_new_group     004abfd6 f   LIBC:sbheap.obj
 0001:000ab0d1       ___sbh_resize_block        004ac0d1 f   LIBC:sbheap.obj
 0001:000ab3c7       ___sbh_heapmin             004ac3c7 f   LIBC:sbheap.obj
 0001:000ab498       ___sbh_heap_check          004ac498 f   LIBC:sbheap.obj
 0001:000ab7d0       _strcpy                    004ac7d0 f   LIBC:strcat.obj
 0001:000ab7e0       _strcat                    004ac7e0 f   LIBC:strcat.obj
 0001:000ab8c0       __setmbcp                  004ac8c0 f   LIBC:mbctype.obj
 0001:000abc84       __getmbcp                  004acc84 f   LIBC:mbctype.obj
 0001:000abc94       ___initmbctable            004acc94 f   LIBC:mbctype.obj
 0001:000abcb0       _memcpy                    004accb0 f   LIBC:memcpy.obj
 0001:000abfe5       ___crtMessageBoxA          004acfe5 f   LIBC:crtmbox.obj
 0001:000ac070       _strncpy                   004ad070 f   LIBC:strncpy.obj
 0001:000ac16e       __statusfp                 004ad16e f   LIBC:ieee87.obj
 0001:000ac181       __clearfp                  004ad181 f   LIBC:ieee87.obj
 0001:000ac195       __control87                004ad195 f   LIBC:ieee87.obj
 0001:000ac1ca       __controlfp                004ad1ca f   LIBC:ieee87.obj
 0001:000ac1e0       __fpreset                  004ad1e0 f   LIBC:ieee87.obj
 0001:000ac35a       __tolower                  004ad35a f   LIBC:tolower.obj
 0001:000ac362       _tolower                   004ad362 f   LIBC:tolower.obj
 0001:000ac42d       __ZeroTail                 004ad42d f   LIBC:intrncvt.obj
 0001:000ac476       __IncMan                   004ad476 f   LIBC:intrncvt.obj
 0001:000ac4cc       __RoundMan                 004ad4cc f   LIBC:intrncvt.obj
 0001:000ac558       __CopyMan                  004ad558 f   LIBC:intrncvt.obj
 0001:000ac573       __FillZeroMan              004ad573 f   LIBC:intrncvt.obj
 0001:000ac57f       __IsZeroMan                004ad57f f   LIBC:intrncvt.obj
 0001:000ac59a       __ShrMan                   004ad59a f   LIBC:intrncvt.obj
 0001:000ac627       __ld12cvt                  004ad627 f   LIBC:intrncvt.obj
 0001:000ac793       __ld12tod                  004ad793 f   LIBC:intrncvt.obj
 0001:000ac7a9       __ld12tof                  004ad7a9 f   LIBC:intrncvt.obj
 0001:000ac7bf       __ld12told                 004ad7bf f   LIBC:intrncvt.obj
 0001:000ac839       __atodbl                   004ad839 f   LIBC:intrncvt.obj
 0001:000ac866       __atoldbl                  004ad866 f   LIBC:intrncvt.obj
 0001:000ac894       __atoflt                   004ad894 f   LIBC:intrncvt.obj
 0001:000ac8c1       __fptostr                  004ad8c1 f   LIBC:_fptostr.obj
 0001:000ac938       __fltout                   004ad938 f   LIBC:cfout.obj
 0001:000ac99c       ___dtold                   004ad99c f   LIBC:cfout.obj
 0001:000aca60       _memset                    004ada60 f   LIBC:memset.obj
 0001:000acac0       _memmove                   004adac0 f   LIBC:memmove.obj
 0001:000acdf5       __fptrap                   004addf5 f   LIBC:crt0fp.obj
 0001:000ace00       _fdiv_main_routine         004ade00 f   LIBC:adj_fdiv.obj
 0001:000acf17       __adj_fdiv_r               004adf17 f   LIBC:adj_fdiv.obj
 0001:000ad3b6       __fdivp_sti_st             004ae3b6 f   LIBC:adj_fdiv.obj
 0001:000ad3c9       __fdivrp_sti_st            004ae3c9 f   LIBC:adj_fdiv.obj
 0001:000ad3dc       __adj_fdiv_m32             004ae3dc f   LIBC:adj_fdiv.obj
 0001:000ad428       __adj_fdiv_m64             004ae428 f   LIBC:adj_fdiv.obj
 0001:000ad474       __adj_fdiv_m16i            004ae474 f   LIBC:adj_fdiv.obj
 0001:000ad4a8       __adj_fdiv_m32i            004ae4a8 f   LIBC:adj_fdiv.obj
 0001:000ad4dc       __adj_fdivr_m32            004ae4dc f   LIBC:adj_fdiv.obj
 0001:000ad528       __adj_fdivr_m64            004ae528 f   LIBC:adj_fdiv.obj
 0001:000ad574       __adj_fdivr_m16i           004ae574 f   LIBC:adj_fdiv.obj
 0001:000ad5a8       __adj_fdivr_m32i           004ae5a8 f   LIBC:adj_fdiv.obj
 0001:000ad5dc       __safe_fdiv                004ae5dc f   LIBC:adj_fdiv.obj
 0001:000ad5f1       __safe_fdivr               004ae5f1 f   LIBC:adj_fdiv.obj
 0001:000ad606       __fprem_common             004ae606 f   LIBC:adj_fdiv.obj
 0001:000ad80c       __adj_fprem                004ae80c f   LIBC:adj_fdiv.obj
 0001:000ad8be       __fprem1_common            004ae8be f   LIBC:adj_fdiv.obj
 0001:000adac4       __adj_fprem1               004aeac4 f   LIBC:adj_fdiv.obj
 0001:000adb79       __safe_fprem               004aeb79 f   LIBC:adj_fdiv.obj
 0001:000adb7f       __safe_fprem1              004aeb7f f   LIBC:adj_fdiv.obj
 0001:000adb85       __adj_fpatan               004aeb85 f   LIBC:adj_fdiv.obj
 0001:000adb88       __adj_fptan                004aeb88 f   LIBC:adj_fdiv.obj
 0001:000adb8b       __87except                 004aeb8b f   LIBC:87except.obj
 0001:000adc5b       __copysign                 004aec5b f   LIBC:ieeemisc.obj
 0001:000adc7c       __chgsign                  004aec7c f   LIBC:ieeemisc.obj
 0001:000adca1       __scalb                    004aeca1 f   LIBC:ieeemisc.obj
 0001:000adcb7       __logb                     004aecb7 f   LIBC:ieeemisc.obj
 0001:000add9e       __nextafter                004aed9e f   LIBC:ieeemisc.obj
 0001:000ae033       __finite                   004af033 f   LIBC:ieeemisc.obj
 0001:000ae047       __isnan                    004af047 f   LIBC:ieeemisc.obj
 0001:000ae075       __fpclass                  004af075 f   LIBC:ieeemisc.obj
 0001:000ae107       _wctomb                    004af107 f   LIBC:wctomb.obj
 0001:000ae170       __aullrem                  004af170 f   LIBC:ullrem.obj
 0001:000ae1e5       ___crtLCMapStringA         004af1e5 f   LIBC:a_map.obj
 0001:000ae434       ___crtGetStringTypeA       004af434 f   LIBC:a_str.obj
 0001:000ae580       _strcmp                    004af580 f   LIBC:strcmp.obj
 0001:000ae604       ___crtCompareStringA       004af604 f   LIBC:a_cmp.obj
 0001:000ae8ac       ___crtsetenv               004af8ac f   LIBC:setenv.obj
 0001:000aeaf2       __matherr                  004afaf2 f   LIBC:matherr.obj
 0001:000aeaf5       _mbtowc                    004afaf5 f   LIBC:mbtowc.obj
 0001:000aebbd       _isalpha                   004afbbd f   LIBC:_ctype.obj
 0001:000aebeb       _isupper                   004afbeb f   LIBC:_ctype.obj
 0001:000aec13       _islower                   004afc13 f   LIBC:_ctype.obj
 0001:000aec3b       _isdigit                   004afc3b f   LIBC:_ctype.obj
 0001:000aec63       _isxdigit                  004afc63 f   LIBC:_ctype.obj
 0001:000aec90       _isspace                   004afc90 f   LIBC:_ctype.obj
 0001:000aecb8       _ispunct                   004afcb8 f   LIBC:_ctype.obj
 0001:000aece0       _isalnum                   004afce0 f   LIBC:_ctype.obj
 0001:000aed0e       _isprint                   004afd0e f   LIBC:_ctype.obj
 0001:000aed3c       _isgraph                   004afd3c f   LIBC:_ctype.obj
 0001:000aed6a       _iscntrl                   004afd6a f   LIBC:_ctype.obj
 0001:000aed92       ___isascii                 004afd92 f   LIBC:_ctype.obj
 0001:000aed9f       ___toascii                 004afd9f f   LIBC:_ctype.obj
 0001:000aeda7       ___iscsymf                 004afda7 f   LIBC:_ctype.obj
 0001:000aede4       ___iscsym                  004afde4 f   LIBC:_ctype.obj
 0001:000aee30       __allshl                   004afe30 f   LIBC:llshl.obj
 0001:000aee4f       _ungetc                    004afe4f f   LIBC:ungetc.obj
 0001:000aeebd       __dosmaperr                004afebd f   LIBC:dosmap.obj
 0001:000aef24       __alloc_osfhnd             004aff24 f   LIBC:osfinfo.obj
 0001:000aefb9       __set_osfhnd               004affb9 f   LIBC:osfinfo.obj
 0001:000af030       __free_osfhnd              004b0030 f   LIBC:osfinfo.obj
 0001:000af0aa       __get_osfhandle            004b00aa f   LIBC:osfinfo.obj
 0001:000af0e7       __open_osfhandle           004b00e7 f   LIBC:osfinfo.obj
 0001:000af184       __open                     004b0184 f   LIBC:open.obj
 0001:000af19b       __sopen                    004b019b f   LIBC:open.obj
 0001:000af454       __mbsrchr                  004b0454 f   LIBC:mbsrchr.obj
 0001:000af4b4       __getpath                  004b04b4 f   LIBC:getpath.obj
 0001:000af528       __mbschr                   004b0528 f   LIBC:mbschr.obj
 0001:000af59b       __dospawn                  004b059b f   LIBC:dospawn.obj
 0001:000af77a       __cenvarg                  004b077a f   LIBC:cenvarg.obj
 0001:000af97e       ___addl                    004b097e f   LIBC:mantold.obj
 0001:000af99f       ___add_12                  004b099f f   LIBC:mantold.obj
 0001:000af9fd       ___shl_12                  004b09fd f   LIBC:mantold.obj
 0001:000afa2b       ___shr_12                  004b0a2b f   LIBC:mantold.obj
 0001:000afa58       ___mtold12                 004b0a58 f   LIBC:mantold.obj
 0001:000afb1f       ___strgtold12              004b0b1f f   LIBC:strgtold.obj
 0001:000afff0       ___STRINGTOLD              004b0ff0 f   LIBC:strgtold.obj
 0001:000b002c       _$I10_OUTPUT               004b102c f   LIBC:x10fout.obj
 0001:000b02bf       _ldexp                     004b12bf f   LIBC:ldexp.obj
 0001:000b04b0       __alloca_probe             004b14b0 f   LIBC:chkstk.obj
 0001:000b04b0       __chkstk                   004b14b0 f   LIBC:chkstk.obj
 0001:000b04df       _realloc                   004b14df f   LIBC:realloc.obj
 0001:000b05ff       __strdup                   004b15ff f   LIBC:strdup.obj
 0001:000b062a       __chsize                   004b162a f   LIBC:chsize.obj
 0001:000b0770       _strrchr                   004b1770 f   LIBC:strrchr.obj
 0001:000b07b0       _strchr                    004b17b0 f   LIBC:strchr.obj
 0001:000b07b6       ___from_strstr_to_strchr   004b17b6 f   LIBC:strchr.obj
 0001:000b086c       ___ld12mul                 004b186c f   LIBC:tenpow.obj
 0001:000b0a8c       ___multtenpow12            004b1a8c f   LIBC:tenpow.obj
 0001:000b0b08       __setmode                  004b1b08 f   LIBC:setmode.obj
 0001:000b0b7e       _GetCommandLineA@0         004b1b7e f   kernel32:KERNEL32.dll
 0001:000b0b84       _GetVersion@0              004b1b84 f   kernel32:KERNEL32.dll
 0001:000b0b8a       _ExitProcess@4             004b1b8a f   kernel32:KERNEL32.dll
 0001:000b0b90       _GetTimeZoneInformation@4  004b1b90 f   kernel32:KERNEL32.dll
 0001:000b0b96       _GetSystemTime@4           004b1b96 f   kernel32:KERNEL32.dll
 0001:000b0b9c       _GetLocalTime@4            004b1b9c f   kernel32:KERNEL32.dll
 0001:000b0ba2       _GetLastError@0            004b1ba2 f   kernel32:KERNEL32.dll
 0001:000b0ba8       _SetConsoleCtrlHandler@8   004b1ba8 f   kernel32:KERNEL32.dll
 0001:000b0bae       _GetSystemTimeAsFileTime@4 004b1bae f   kernel32:KERNEL32.dll
 0001:000b0bb4       _TerminateProcess@8        004b1bb4 f   kernel32:KERNEL32.dll
 0001:000b0bba       _GetCurrentProcess@0       004b1bba f   kernel32:KERNEL32.dll
 0001:000b0bc0       _HeapAlloc@12              004b1bc0 f   kernel32:KERNEL32.dll
 0001:000b0bc6       _RtlUnwind@16              004b1bc6 f   kernel32:KERNEL32.dll
 0001:000b0bcc       _UnhandledExceptionFilter@4 004b1bcc f   kernel32:KERNEL32.dll
 0001:000b0bd2       _GetModuleFileNameA@12     004b1bd2 f   kernel32:KERNEL32.dll
 0001:000b0bd8       _FreeEnvironmentStringsA@4 004b1bd8 f   kernel32:KERNEL32.dll
 0001:000b0bde       _FreeEnvironmentStringsW@4 004b1bde f   kernel32:KERNEL32.dll
 0001:000b0be4       _WideCharToMultiByte@32    004b1be4 f   kernel32:KERNEL32.dll
 0001:000b0bea       _GetEnvironmentStrings@0   004b1bea f   kernel32:KERNEL32.dll
 0001:000b0bf0       _GetEnvironmentStringsW@0  004b1bf0 f   kernel32:KERNEL32.dll
 0001:000b0bf6       _SetHandleCount@4          004b1bf6 f   kernel32:KERNEL32.dll
 0001:000b0bfc       _GetStdHandle@4            004b1bfc f   kernel32:KERNEL32.dll
 0001:000b0c02       _GetFileType@4             004b1c02 f   kernel32:KERNEL32.dll
 0001:000b0c08       _GetStartupInfoA@4         004b1c08 f   kernel32:KERNEL32.dll
 0001:000b0c0e       _HeapDestroy@4             004b1c0e f   kernel32:KERNEL32.dll
 0001:000b0c14       _HeapCreate@12             004b1c14 f   kernel32:KERNEL32.dll
 0001:000b0c1a       _VirtualFree@12            004b1c1a f   kernel32:KERNEL32.dll
 0001:000b0c20       _HeapFree@12               004b1c20 f   kernel32:KERNEL32.dll
 0001:000b0c26       _WriteFile@20              004b1c26 f   kernel32:KERNEL32.dll
 0001:000b0c2c       _GetProcAddress@8          004b1c2c f   kernel32:KERNEL32.dll
 0001:000b0c32       _GetModuleHandleA@4        004b1c32 f   kernel32:KERNEL32.dll
 0001:000b0c38       _RaiseException@16         004b1c38 f   kernel32:KERNEL32.dll
 0001:000b0c3e       _ReadFile@20               004b1c3e f   kernel32:KERNEL32.dll
 0001:000b0c44       _SetFilePointer@16         004b1c44 f   kernel32:KERNEL32.dll
 0001:000b0c4a       _FlushFileBuffers@4        004b1c4a f   kernel32:KERNEL32.dll
 0001:000b0c50       _CloseHandle@4             004b1c50 f   kernel32:KERNEL32.dll
 0001:000b0c56       _GetFileAttributesA@4      004b1c56 f   kernel32:KERNEL32.dll
 0001:000b0c5c       _VirtualAlloc@16           004b1c5c f   kernel32:KERNEL32.dll
 0001:000b0c62       _HeapReAlloc@16            004b1c62 f   kernel32:KERNEL32.dll
 0001:000b0c68       _IsBadWritePtr@8           004b1c68 f   kernel32:KERNEL32.dll
 0001:000b0c6e       _GetCPInfo@8               004b1c6e f   kernel32:KERNEL32.dll
 0001:000b0c74       _GetACP@0                  004b1c74 f   kernel32:KERNEL32.dll
 0001:000b0c7a       _GetOEMCP@0                004b1c7a f   kernel32:KERNEL32.dll
 0001:000b0c80       _LoadLibraryA@4            004b1c80 f   kernel32:KERNEL32.dll
 0001:000b0c86       _MultiByteToWideChar@24    004b1c86 f   kernel32:KERNEL32.dll
 0001:000b0c8c       _LCMapStringA@24           004b1c8c f   kernel32:KERNEL32.dll
 0001:000b0c92       _LCMapStringW@24           004b1c92 f   kernel32:KERNEL32.dll
 0001:000b0c98       _GetStringTypeA@20         004b1c98 f   kernel32:KERNEL32.dll
 0001:000b0c9e       _GetStringTypeW@16         004b1c9e f   kernel32:KERNEL32.dll
 0001:000b0ca4       _CompareStringA@24         004b1ca4 f   kernel32:KERNEL32.dll
 0001:000b0caa       _CompareStringW@24         004b1caa f   kernel32:KERNEL32.dll
 0001:000b0cb0       _SetEnvironmentVariableA@8 004b1cb0 f   kernel32:KERNEL32.dll
 0001:000b0cb6       _SetStdHandle@8            004b1cb6 f   kernel32:KERNEL32.dll
 0001:000b0cbc       _CreateFileA@28            004b1cbc f   kernel32:KERNEL32.dll
 0001:000b0cc2       _GetExitCodeProcess@8      004b1cc2 f   kernel32:KERNEL32.dll
 0001:000b0cc8       _WaitForSingleObject@8     004b1cc8 f   kernel32:KERNEL32.dll
 0001:000b0cce       _CreateProcessA@40         004b1cce f   kernel32:KERNEL32.dll
 0001:000b0cd4       _SetEndOfFile@4            004b1cd4 f   kernel32:KERNEL32.dll
 0002:00000020       __real@8@bfff8000000000000000 004de020     Core:function.obj
 0002:00000028       __real@8@00000000000000000000 004de028     Generate:gexp.obj
 0002:00000030       ??_7CPFile@@6B@            004de030     Kernel:Clport.obj
 0002:00000050       __real@8@400fc350000000000000 004de050     Kernel:Clport.obj
 0002:00000058       __real@8@3feb8637bd05af6c6800 004de058     Kernel:Clport.obj
 0002:00000060       ??_7CPStringOut@@6B@       004de060     Kernel:Clport.obj
 0002:00000080       __real@8@3feea7c5ac471b478800 004de080     Kernel:Clport.obj
 0002:00000088       ??_7CPStringIn@@6B@        004de088     Kernel:Clport.obj
 0002:000000a8       __real@8@4002a000000000000000 004de0a8     Kernel:Clport.obj
 0002:000000c0       __real@8@3fff8000000000000000 004de0c0     LIBC:floor.obj
 0002:000000c8       ??_C@_07OOMJ@cmd?4exe?$AA@ 004de0c8     LIBC:system.obj
 0002:000000d0       ??_C@_0M@IPJP@command?4com?$AA@ 004de0d0     LIBC:system.obj
 0002:000000dc       ??_C@_02JMK@?1c?$AA@       004de0dc     LIBC:system.obj
 0002:000000e0       ??_C@_07KFDO@COMSPEC?$AA@  004de0e0     LIBC:system.obj
 0002:000000f4       ??_C@_0P@GGKG@runtime?5error?5?$AA@ 004de0f4     LIBC:crt0msg.obj
 0002:00000104       ??_C@_02PIMC@?$AN?6?$AA@   004de104     LIBC:crt0msg.obj
 0002:00000108       ??_C@_0O@DELO@TLOSS?5error?$AN?6?$AA@ 004de108     LIBC:crt0msg.obj
 0002:00000118       ??_C@_0N@OMLL@SING?5error?$AN?6?$AA@ 004de118     LIBC:crt0msg.obj
 0002:00000128       ??_C@_0P@OJAK@DOMAIN?5error?$AN?6?$AA@ 004de128     LIBC:crt0msg.obj
 0002:00000138       ??_C@_0CF@EANP@R6028?$AN?6?9?5unable?5to?5initialize?5he@ 004de138     LIBC:crt0msg.obj
 0002:00000160       ??_C@_0DF@ECGN@R6027?$AN?6?9?5not?5enough?5space?5for?5lo@ 004de160     LIBC:crt0msg.obj
 0002:00000198       ??_C@_0DF@FKAC@R6026?$AN?6?9?5not?5enough?5space?5for?5st@ 004de198     LIBC:crt0msg.obj
 0002:000001d0       ??_C@_0CG@DPMN@R6025?$AN?6?9?5pure?5virtual?5function?5c@ 004de1d0     LIBC:crt0msg.obj
 0002:000001f8       ??_C@_0DF@CKIP@R6024?$AN?6?9?5not?5enough?5space?5for?5_o@ 004de1f8     LIBC:crt0msg.obj
 0002:00000230       ??_C@_0CJ@GGOE@R6019?$AN?6?9?5unable?5to?5open?5console?5@ 004de230     LIBC:crt0msg.obj
 0002:0000025c       ??_C@_0CB@LBOB@R6018?$AN?6?9?5unexpected?5heap?5error?$AN?6@ 004de25c     LIBC:crt0msg.obj
 0002:00000280       ??_C@_0CN@FPEG@R6017?$AN?6?9?5unexpected?5multithread?5@ 004de280     LIBC:crt0msg.obj
 0002:000002b0       ??_C@_0CM@OBIC@R6016?$AN?6?9?5not?5enough?5space?5for?5th@ 004de2b0     LIBC:crt0msg.obj
 0002:000002dc       ??_C@_0CB@HPAL@?$AN?6abnormal?5program?5termination?$AN?6@ 004de2dc     LIBC:crt0msg.obj
 0002:00000300       ??_C@_0CM@JOOB@R6009?$AN?6?9?5not?5enough?5space?5for?5en@ 004de300     LIBC:crt0msg.obj
 0002:0000032c       ??_C@_0CK@OIBL@R6008?$AN?6?9?5not?5enough?5space?5for?5ar@ 004de32c     LIBC:crt0msg.obj
 0002:00000358       ??_C@_0CF@LKPB@R6002?$AN?6?9?5floating?5point?5not?5load@ 004de358     LIBC:crt0msg.obj
 0002:00000380       ??_C@_0CF@JPDF@Microsoft?5Visual?5C?$CL?$CL?5Runtime?5Lib@ 004de380     LIBC:crt0msg.obj
 0002:000003a8       ??_C@_0BK@DEOK@Runtime?5Error?$CB?6?6Program?3?5?$AA@ 004de3a8     LIBC:crt0msg.obj
 0002:000003c4       ??_C@_0BH@NNCD@?$DMprogram?5name?5unknown?$DO?$AA@ 004de3c4     LIBC:crt0msg.obj
 0002:000003e0       __real@8@4015800bf60000000000 004de3e0     LIBC:testfdiv.obj
 0002:000003e8       __real@8@4014bffffc0000000000 004de3e8     LIBC:testfdiv.obj
 0002:000003f0       ??_C@_0BK@JEGK@IsProcessorFeaturePresent?$AA@ 004de3f0     LIBC:testfdiv.obj
 0002:0000040c       ??_C@_08OBID@KERNEL32?$AA@ 004de40c     LIBC:testfdiv.obj
 0002:00000418       ??_C@_05OFLO@e?$CL000?$AA@ 004de418     LIBC:cvt.obj
 0002:00000428       __DEFAULT_CW_in_mem        004de428     LIBC:common.obj
 0002:0000042a       __pi_by_2_to_61            004de42a     LIBC:common.obj
 0002:00000468       __real@8@40008000000000000000 004de468     LIBC:powhlp.obj
 0002:00000470       ___lookuptable             004de470     LIBC:output.obj
 0002:000004cc       ??_C@_1O@POHA@?$AA?$CI?$AAn?$AAu?$AAl?$AAl?$AA?$CJ?$AA?$AA@ 004de4cc     LIBC:output.obj
 0002:000004dc       ??_C@_06ONKE@?$CInull?$CJ?$AA@ 004de4dc     LIBC:output.obj
 0002:000004e4       ___dnames                  004de4e4     LIBC:timeset.obj
 0002:000004fc       ___mnames                  004de4fc     LIBC:timeset.obj
 0002:00000524       ??_C@_02JHIA@TZ?$AA@       004de524     LIBC:tzset.obj
 0002:00000528       ??_C@_03GAFO@_yn?$AA@      004de528     LIBC:fpexcept.obj
 0002:0000052c       ??_C@_03GNLD@_y1?$AA@      004de52c     LIBC:fpexcept.obj
 0002:00000530       ??_C@_03MHCE@_y0?$AA@      004de530     LIBC:fpexcept.obj
 0002:00000534       ??_C@_05PAK@frexp?$AA@     004de534     LIBC:fpexcept.obj
 0002:0000053c       ??_C@_04JKCH@fmod?$AA@     004de53c     LIBC:fpexcept.obj
 0002:00000544       ??_C@_06GGHF@_hypot?$AA@   004de544     LIBC:fpexcept.obj
 0002:0000054c       ??_C@_05JNMC@_cabs?$AA@    004de54c     LIBC:fpexcept.obj
 0002:00000554       ??_C@_05MEKH@ldexp?$AA@    004de554     LIBC:fpexcept.obj
 0002:0000055c       ??_C@_04KAOJ@modf?$AA@     004de55c     LIBC:fpexcept.obj
 0002:00000564       ??_C@_04EHAJ@fabs?$AA@     004de564     LIBC:fpexcept.obj
 0002:0000056c       ??_C@_05MFBN@floor?$AA@    004de56c     LIBC:fpexcept.obj
 0002:00000574       ??_C@_04JJMP@ceil?$AA@     004de574     LIBC:fpexcept.obj
 0002:0000057c       ??_C@_03JLPI@tan?$AA@      004de57c     LIBC:fpexcept.obj
 0002:00000580       ??_C@_03DLFL@cos?$AA@      004de580     LIBC:fpexcept.obj
 0002:00000584       ??_C@_03JAMN@sin?$AA@      004de584     LIBC:fpexcept.obj
 0002:00000588       ??_C@_05BFPO@atan2?$AA@    004de588     LIBC:fpexcept.obj
 0002:00000590       ??_C@_04OAMO@acos?$AA@     004de590     LIBC:fpexcept.obj
 0002:00000598       ??_C@_04ELFI@asin?$AA@     004de598     LIBC:fpexcept.obj
 0002:000005a0       ??_C@_04LFAD@tanh?$AA@     004de5a0     LIBC:fpexcept.obj
 0002:000005a8       ??_C@_04PFKD@cosh?$AA@     004de5a8     LIBC:fpexcept.obj
 0002:000005b0       ??_C@_04NPAI@sinh?$AA@     004de5b0     LIBC:fpexcept.obj
 0002:000005b8       ??_C@_05IJHH@log10?$AA@    004de5b8     LIBC:fpexcept.obj
 0002:000005c0       ??_C@_03EGFG@pow?$AA@      004de5c0     LIBC:fpexcept.obj
 0002:000005c4       ??_C@_03CDGJ@exp?$AA@      004de5c4     LIBC:fpexcept.obj
 0002:000005c8       ??_C@_04LNMG@PATH?$AA@     004de5c8     LIBC:spawnvpe.obj
 0002:000005d0       ??_C@_04GGNP@?4com?$AA@    004de5d0     LIBC:spawnve.obj
 0002:000005d8       ??_C@_04KBDN@?4bat?$AA@    004de5d8     LIBC:spawnve.obj
 0002:000005e0       ??_C@_04LFKF@?4cmd?$AA@    004de5e0     LIBC:spawnve.obj
 0002:000005e8       ??_C@_02OFKN@?4?2?$AA@     004de5e8     LIBC:spawnve.obj
 0002:000005ec       ??_C@_0BD@NJFP@GetLastActivePopup?$AA@ 004de5ec     LIBC:crtmbox.obj
 0002:00000600       ??_C@_0BA@GILI@GetActiveWindow?$AA@ 004de600     LIBC:crtmbox.obj
 0002:00000610       ??_C@_0M@PKCK@MessageBoxA?$AA@ 004de610     LIBC:crtmbox.obj
 0002:0000061c       ??_C@_0L@HKL@user32?4dll?$AA@ 004de61c     LIBC:crtmbox.obj
 0002:00000628       ??_C@_01A@?$AA?$AA@        004de628     LIBC:a_map.obj
 0002:0000062c       ??_C@_13A@?$AA?$AA?$AA?$AA@ 004de62c     LIBC:a_map.obj
 0002:00000670       ??_C@_06PAPI@1?$CDQNAN?$AA@ 004de670     LIBC:x10fout.obj
 0002:00000678       ??_C@_05BGNL@1?$CDINF?$AA@ 004de678     LIBC:x10fout.obj
 0002:00000680       ??_C@_05EDPF@1?$CDIND?$AA@ 004de680     LIBC:x10fout.obj
 0002:00000688       ??_C@_06LKFM@1?$CDSNAN?$AA@ 004de688     LIBC:x10fout.obj
 0003:00000000       ___xc_a                    004df000     LIBC:crt0init.obj
 0003:00000104       ___xc_z                    004df104     LIBC:crt0init.obj
 0003:00000208       ___xi_a                    004df208     LIBC:crt0init.obj
 0003:0000041c       ___xi_z                    004df41c     LIBC:crt0init.obj
 0003:00000520       ___xp_a                    004df520     LIBC:crt0init.obj
 0003:00000728       ___xp_z                    004df728     LIBC:crt0init.obj
 0003:0000082c       ___xt_a                    004df82c     LIBC:crt0init.obj
 0003:00000930       ___xt_z                    004df930     LIBC:crt0init.obj
 0003:00000a40       ??_C@_08PNMF@Generate?$AA@ 004dfa40     cclaire-s.obj
 0003:00000a4c       ??_C@_07NCIE@gsystem?$AA@  004dfa4c     cclaire-s.obj
 0003:00000a58       ??_C@_04CHBA@gexp?$AA@     004dfa58     cclaire-s.obj
 0003:00000a60       ??_C@_05JKAK@gstat?$AA@    004dfa60     cclaire-s.obj
 0003:00000a68       ??_C@_04IHDC@cgen?$AA@     004dfa68     cclaire-s.obj
 0003:00000a70       ??_C@_04JJMI@copt?$AA@     004dfa70     cclaire-s.obj
 0003:00000a78       ??_C@_08ELMF@Optimize?$AA@ 004dfa78     cclaire-s.obj
 0003:00000a84       ??_C@_0BL@GCOH@d?3?2claire?2v3?42?2src?2compile?$AA@ 004dfa84     cclaire-s.obj
 0003:00000aa4       ??_C@_07KGCJ@osystem?$AA@  004dfaa4     cclaire-s.obj
 0003:00000ab0       ??_C@_05BJBJ@otool?$AA@    004dfab0     cclaire-s.obj
 0003:00000ab8       ??_C@_05PBLL@ocall?$AA@    004dfab8     cclaire-s.obj
 0003:00000ac0       ??_C@_08DIGL@ocontrol?$AA@ 004dfac0     cclaire-s.obj
 0003:00000acc       ??_C@_07DBK@odefine?$AA@   004dfacc     cclaire-s.obj
 0003:00000ad8       ??_C@_07KKAG@Compile?$AA@  004dfad8     cclaire-s.obj
 0003:00000ae4       ??_C@_06FIDM@Reader?$AA@   004dfae4     cclaire-s.obj
 0003:00000aec       ??_C@_04IFA@read?$AA@      004dfaec     cclaire-s.obj
 0003:00000af4       ??_C@_06FAAK@syntax?$AA@   004dfaf4     cclaire-s.obj
 0003:00000afc       ??_C@_04EDBF@file?$AA@     004dfafc     cclaire-s.obj
 0003:00000b04       ??_C@_07IDN@inspect?$AA@   004dfb04     cclaire-s.obj
 0003:00000b10       ??_C@_08DFDG@Language?$AA@ 004dfb10     cclaire-s.obj
 0003:00000b1c       ??_C@_06MGPH@pretty?$AA@   004dfb1c     cclaire-s.obj
 0003:00000b24       ??_C@_04JNJF@call?$AA@     004dfb24     cclaire-s.obj
 0003:00000b2c       ??_C@_07IPKB@control?$AA@  004dfb2c     cclaire-s.obj
 0003:00000b38       ??_C@_06MJID@define?$AA@   004dfb38     cclaire-s.obj
 0003:00000b40       ??_C@_07GGOF@iClaire?$AA@  004dfb40     cclaire-s.obj
 0003:00000b4c       ??_C@_04BNDI@Core?$AA@     004dfb4c     cclaire-s.obj
 0003:00000b54       ??_C@_0BI@LAFG@d?3?2claire?2v3?42?2src?2meta?$AA@ 004dfb54     cclaire-s.obj
 0003:00000b70       ??_C@_06IM@method?$AA@     004dfb70     cclaire-s.obj
 0003:00000b78       ??_C@_06CHBM@object?$AA@   004dfb78     cclaire-s.obj
 0003:00000b80       ??_C@_08JJOG@function?$AA@ 004dfb80     cclaire-s.obj
 0003:00000b8c       ??_C@_05FPBB@types?$AA@    004dfb8c     cclaire-s.obj
 0003:00000b94       ??_C@_0BD@LJOI@?$HOA?5is?5not?5a?5module?$AA@ 004dfb94     ccmain.obj
 0003:00000bac       ??_C@_0DP@CLIB@?5?5?5?5?5?5?5?5?9cx?5?$DMmain?5file?$DO?5?3?5genera@ 004dfbac     ccmain.obj
 0003:00000bf8       ??_C@_0DP@CKHJ@?5?5?5?5?5?5?5?5?9cl?5?$DMmodule?$DO?3?5compiles?5a@ 004dfbf8     ccmain.obj
 0003:00000c44       ??_C@_0DP@LIBL@?5?5?5?5?5?5?5?5?9cc?5?$DMmodule?$DO?3?5compiles?5a@ 004dfc44     ccmain.obj
 0003:00000c90       ??_C@_0DP@KEGB@?5?5?5?5?5?5?5?5?9cm?5?$DMmodule?$DO?3?5compiles?5a@ 004dfc90     ccmain.obj
 0003:00000cdc       ??_C@_0DP@MEGK@?5?5?5?5?5?5?5?5?9l?5?$DMlib?$DO?5?3?5adds?5?$DMlib?$DO?5to@ 004dfcdc     ccmain.obj
 0003:00000d28       ??_C@_0DH@EMJF@?5?5?5?5?5?5?5?5?9O?5?3?5optimizing?5mode?5?5?5?5@ 004dfd28     ccmain.obj
 0003:00000d6c       ??_C@_0DH@CCJD@?5?5?5?5?5?5?5?5?9safe?5?3?5safe?5mode?5?5?5?5?5?5?5@ 004dfd6c     ccmain.obj
 0003:00000db0       ??_C@_0DH@GGGA@?5?5?5?5?5?5?5?5?9D?5?3?5debug?5mode?5?5?5?5?5?5?5?5?5@ 004dfdb0     ccmain.obj
 0003:00000df4       ??_C@_0DH@IAOD@?5?5?5?5?5?5?5?5?9p?5?3?5profiling?5mode?5?5?5?5?5@ 004dfdf4     ccmain.obj
 0003:00000e38       ??_C@_0DC@PICH@?5?5?5?5?5?5?5?5?9od?5?$DMname?$DO?5?3?5sets?5the?5ou@ 004dfe38     ccmain.obj
 0003:00000e74       ??_C@_0DD@MBDM@?5?5?5?5?5?5?5?5?9ld?5?$DMname?$DO?5?3?5sets?5the?5li@ 004dfe74     ccmain.obj
 0003:00000eb4       ??_C@_0DH@JFPN@?5?5?5?5?5?5?5?5?9o?5?$DMname?$DO?5?3?5sets?5the?5nam@ 004dfeb4     ccmain.obj
 0003:00000ef8       ??_C@_0DP@KKOG@?5?5?5?5?5?5?5?5?9S?5?$DMflag?$DO?5?3?5sets?5the?5glo@ 004dfef8     ccmain.obj
 0003:00000f44       ??_C@_0DH@HCEB@?5?5?5?5?5?5?5?5?9v?5?$DMint?$DO?5?3?5upgrade?5the?5v@ 004dff44     ccmain.obj
 0003:00000f88       ??_C@_0DH@ILFJ@?5?5?5?5?5?5?5?5?9m?5?$DMmodule?$DO?5?3?5load?5?$DMmodu@ 004dff88     ccmain.obj
 0003:00000fcc       ??_C@_0DH@EI@?5?5?5?5?5?5?5?5?9n?5?3?5do?5not?5load?5the?5ini@ 004dffcc     ccmain.obj
 0003:00001010       ??_C@_0DJ@MHGL@?5?5?5?5?5?5?5?5?9env?5?$DMsys?$DO?5?3?5compile?5for@ 004e0010     ccmain.obj
 0003:00001054       ??_C@_0DH@EDKI@?5?5?5?5?5?5?5?5?9f?5?$DMfilename?$DO?5?5?3?5load?5?$DMf@ 004e0054     ccmain.obj
 0003:00001098       ??_C@_0DI@LEOO@?6options?5?9s?5?$DMint?$DO?5?$DMint?$DO?5?3?5set?5me@ 004e0098     ccmain.obj
 0003:000010dc       ??_C@_0ED@GDFO@?9?9?9?9?9?9?9?9?9?9?9?9?9?5CLAIRE?3?5The?5Art?5of@ 004e00dc     ccmain.obj
 0003:0000112c       ??_C@_0L@CLPC@jcmakefile?$AA@ 004e012c     ccmain.obj
 0003:0000113c       ??_C@_0CF@CLDG@?$DN?$DN?$DN?5Light?5Module?5?$HOS?3?$HOS?5?9?$DO?5use?5?$HOS@ 004e013c     ccmain.obj
 0003:00001168       ??_C@_0BH@LBFP@?5is?5an?5unvalid?5option?6?$AA@ 004e0168     ccmain.obj
 0003:00001184       ??_C@_02HAOM@?9n?$AA@      004e0184     ccmain.obj
 0003:00001188       ??_C@_0BH@OPBL@option?3?5?9cx?5?$DMfilename?$DO?$AA@ 004e0188     ccmain.obj
 0003:000011a4       ??_C@_03IGMM@?9cx?$AA@     004e01a4     ccmain.obj
 0003:000011a8       ??_C@_04OMJC@?9cjx?$AA@    004e01a8     ccmain.obj
 0003:000011b0       ??_C@_03HKJC@?9cj?$AA@     004e01b0     ccmain.obj
 0003:000011b4       ??_C@_0BF@ICOH@option?3?5?9cl?5?$DMmodule?$DO?$AA@ 004e01b4     ccmain.obj
 0003:000011d0       ??_C@_03CPHH@?9cm?$AA@     004e01d0     ccmain.obj
 0003:000011d4       ??_C@_0BF@FDLK@option?3?5?9cc?5?$DMmodule?$DO?$AA@ 004e01d4     ccmain.obj
 0003:000011f0       ??_C@_03IELN@?9cc?$AA@     004e01f0     ccmain.obj
 0003:000011f4       ??_C@_0BF@NCF@option?3?5?9cm?5?$DMmodule?$DO?$AA@ 004e01f4     ccmain.obj
 0003:00001210       ??_C@_03IFOA@?9cl?$AA@     004e0210     ccmain.obj
 0003:00001214       ??_C@_0BF@EKHL@option?3?5?9l?5?$DMlibrary?$DO?$AA@ 004e0214     ccmain.obj
 0003:00001230       ??_C@_02CFMC@?9l?$AA@      004e0230     ccmain.obj
 0003:00001234       ??_C@_02IIJL@?9O?$AA@      004e0234     ccmain.obj
 0003:00001238       ??_C@_05ILKK@?9safe?$AA@   004e0238     ccmain.obj
 0003:00001240       ??_C@_02CDJK@?9D?$AA@      004e0240     ccmain.obj
 0003:00001244       ??_C@_02HCFG@?9p?$AA@      004e0244     ccmain.obj
 0003:00001248       ??_C@_0BC@DHP@option?3?5?9o?5?$DMname?$DO?$AA@ 004e0248     ccmain.obj
 0003:00001260       ??_C@_02NKHL@?9o?$AA@      004e0260     ccmain.obj
 0003:00001264       ??_C@_0BC@LCPP@option?3?5?9S?5?$DMFLAG?$DO?$AA@ 004e0264     ccmain.obj
 0003:0000127c       ??_C@_02NPAP@?9S?$AA@      004e027c     ccmain.obj
 0003:00001280       ??_C@_0BI@NFBI@option?3?5?9od?5?$DMdirectory?$DO?$AA@ 004e0280     ccmain.obj
 0003:0000129c       ??_C@_03DOKG@?9od?$AA@     004e029c     ccmain.obj
 0003:000012a0       ??_C@_03FFJ@?9ld?$AA@      004e02a0     ccmain.obj
 0003:000012a4       ??_C@_0BF@EJLL@option?3?5?9v?5?$DMinteger?$DO?$AA@ 004e02a4     ccmain.obj
 0003:000012c0       ??_C@_02INCE@?9v?$AA@      004e02c0     ccmain.obj
 0003:000012c4       ??_C@_0BE@LGGC@option?3?5?9m?5?$DMmodule?$DO?$AA@ 004e02c4     ccmain.obj
 0003:000012dc       ??_C@_04GCLN@init?$AA@     004e02dc     ccmain.obj
 0003:000012e4       ??_C@_02IPFF@?9m?$AA@      004e02e4     ccmain.obj
 0003:000012e8       ??_C@_0BH@MLFM@option?3?5?9env?5?$DMOS?5name?$DO?$AA@ 004e02e8     ccmain.obj
 0003:00001304       ??_C@_04PBIF@?9env?$AA@    004e0304     ccmain.obj
 0003:0000130c       ??_C@_0BG@LHGC@option?3?5?9f?5?$DMfilename?$DO?$AA@ 004e030c     ccmain.obj
 0003:00001328       ??_C@_02CEFE@?9f?$AA@      004e0328     ccmain.obj
 0003:0000132c       ??_C@_0BF@EPGK@option?3?5?9s?5?$DMs1?$DO?5?$DMs2?$DO?$AA@ 004e032c     ccmain.obj
 0003:00001348       ??_C@_02INOP@?9s?$AA@      004e0348     ccmain.obj
 0003:0000134c       ??_C@_05OCAN@?9help?$AA@   004e034c     ccmain.obj
 0003:00001354       ??_C@_01PKMN@?$DP?$AA@     004e0354     ccmain.obj
 0003:00001358       ??_C@_03FFGL@ntv?$AA@      004e0358     ccmain.obj
 0003:0000135c       ??_C@_06CBON@?9c?5?1O2?$AA@ 004e035c     ccmain.obj
 0003:00001364       ??_C@_06KAPF@?9c?5?1Zi?$AA@ 004e0364     ccmain.obj
 0003:0000136c       ??_C@_02CEJP@?9c?$AA@      004e036c     ccmain.obj
 0003:00001370       ??_C@_0CO@CFPG@C?3?2Docume?$HO1?2Yann?2Work?2Ptidej?$HO2?2C@ 004e0370     ccmain.obj
 0003:000013a8       ??_C@_0DE@FNEK@C?3?2Docume?$HO1?2Yann?2Work?2Ptidej?$HO2?2C@ 004e03a8     ccmain.obj
 0003:000013e8       ??_C@_04CFHE@?4cpp?$AA@    004e03e8     ccmain.obj
 0003:000013f0       ??_C@_0DF@LDM@C?3?2Docume?$HO1?2Yann?2Work?2Ptidej?$HO2?2C@ 004e03f0     ccmain.obj
 0003:00001430       ??_C@_01PCFE@?2?$AA@       004e0430     ccmain.obj
 0003:00001434       ??_C@_02CGDN@?$CJ?$DL?$AA@ 004e0434     ccmain.obj
 0003:00001438       ??_C@_01GFI@?$CI?$AA@      004e0438     ccmain.obj
 0003:0000143c       ??_C@_01FCOA@?5?$AA@       004e043c     ccmain.obj
 0003:00001440       ??_C@_08HFFP@?6extern?5?$AA@ 004e0440     ccmain.obj
 0003:0000144c       ??_C@_04HEDC@?4h?$DO?6?$AA@ 004e044c     ccmain.obj
 0003:00001454       ??_C@_0L@PGID@?$CDinclude?5?$DM?$AA@ 004e0454     ccmain.obj
 0003:00001464       ??_C@_01LLF@w?$AA@         004e0464     ccmain.obj
 0003:00001468       ??_C@_02LEGB@?4h?$AA@      004e0468     ccmain.obj
 0003:0000146c       ??_C@_04DOKJ@?4lib?$AA@    004e046c     ccmain.obj
 0003:00001474       ??_C@_03KANG@$Z?2?$AA@     004e0474     ccmain.obj
 0003:00001478       ??_C@_03BDP@$Z?1?$AA@      004e0478     ccmain.obj
 0003:0000147c       ??_C@_0L@CAIE@LIBP?5$Z?5L?5?$AA@ 004e047c     ccmain.obj
 0003:0000148c       ??_C@_03PPPM@ntw?$AA@      004e048c     ccmain.obj
 0003:00001490       ??_C@_03MAAL@?5$Z?$AA@     004e0490     ccmain.obj
 0003:00001494       ??_C@_01KMAE@?0?$AA@       004e0494     ccmain.obj
 0003:00001498       ??_C@_06GPCN@win32v?$AA@   004e0498     ccmain.obj
 0003:000014a0       ??_C@_04HGKA@unix?$AA@     004e04a0     ccmain.obj
 0003:000014a8       ??_C@_01PJCK@?4?$AA@       004e04a8     ccmain.obj
 0003:000014ac       ??_C@_03ENLP@obj?$AA@      004e04ac     ccmain.obj
 0003:000014b0       ??_C@_01PGHN@o?$AA@        004e04b0     ccmain.obj
 0003:000014b4       ??_C@_02CJBE@$T?$AA@       004e04b4     ccmain.obj
 0003:000014b8       ??_C@_03OEJF@?4mk?$AA@     004e04b8     ccmain.obj
 0003:000014bc       ??_C@_0N@BOJJ@nmake?5?1c?5?1f?5?$AA@ 004e04bc     ccmain.obj
 0003:000014cc       ??_C@_08KEPK@make?5?9f?5?$AA@ 004e04cc     ccmain.obj
 0003:000014d8       ??_C@_0EE@HMFI@Unknown?5environment?0?5should?5be?5o@ 004e04d8     ccmain.obj
 0003:0000152c       ??_C@_07MJOI@Console?$AA@  004e052c     ccmain.obj
 0003:00001538       ??_C@_09DKNN@noConsole?$AA@ 004e0538     ccmain.obj
 0003:00001544       ??_C@_03CJEP@gui?$AA@      004e0544     ccmain.obj
 0003:00001548       ??_C@_03GCHN@$T?2?$AA@     004e0548     ccmain.obj
 0003:0000154c       ??_C@_05JMDF@?4exe?5?$AA@  004e054c     ccmain.obj
 0003:00001554       ??_C@_06ILPJ@?5?1OUT?3?$AA@ 004e0554     ccmain.obj
 0003:0000155c       ??_C@_09GJBM@?5$?$CIJUNK?$CJ?5?$AA@ 004e055c     ccmain.obj
 0003:00001568       ??_C@_07BLFM@console?$AA@  004e0568     ccmain.obj
 0003:00001574       ??_C@_07CIAP@windows?$AA@  004e0574     ccmain.obj
 0003:00001580       ??_C@_0BC@KMBB@?7link?5?1subsystem?3?$AA@ 004e0580     ccmain.obj
 0003:00001598       ??_C@_02JJJH@?6?6?$AA@     004e0598     ccmain.obj
 0003:0000159c       ??_C@_08CAFI@?5P?5$T?5F?5?$AA@ 004e059c     ccmain.obj
 0003:000015a8       ??_C@_0BD@LPNC@q?0d?0ST?$DN600K?0c?0mang?$AA@ 004e05a8     ccmain.obj
 0003:000015c0       ??_C@_0P@CEEM@?5d?5all?5option?5?$AA@ 004e05c0     ccmain.obj
 0003:000015d4       ??_C@_03HIDL@?5N?5?$AA@    004e05d4     ccmain.obj
 0003:000015d8       ??_C@_0M@JBKO@?7wlink?5sys?5?$AA@ 004e05d8     ccmain.obj
 0003:000015e8       ??_C@_08BNGE@$?$CIFILES?$CJ?$AA@ 004e05e8     ccmain.obj
 0003:000015f4       ??_C@_06CHGA@?9s?4obj?$AA@ 004e05f4     ccmain.obj
 0003:000015fc       ??_C@_08CMEB@?4lib?5$T?2?$AA@ 004e05fc     ccmain.obj
 0003:00001608       ??_C@_06GANE@?4exe?3?5?$AA@ 004e0608     ccmain.obj
 0003:00001610       ??_C@_0FJ@CJOK@JUNK?5?$DN?5?1NOLOGO?5?1DEBUG?5?1MAP?5?1STAC@ 004e0610     ccmain.obj
 0003:0000167c       ??_C@_0BP@LJFM@?7lib?5?1NOLOGO?5?1OUT?3$?$EA?5$?$CIFILES?$CJ?6?$AA@ 004e067c     ccmain.obj
 0003:000016a4       ??_C@_0L@EKKD@?4lib?5?$CL?9$?$DP?6?$AA@ 004e06a4     ccmain.obj
 0003:000016b4       ??_C@_0BF@GEGA@?7?$CBwlib?5?1q?5?1c?5?1?5b?5$Z?2?$AA@ 004e06b4     ccmain.obj
 0003:000016d0       ??_C@_0BA@DMDE@?4lib?3?5$?$CIFILES?$CJ?6?$AA@ 004e06d0     ccmain.obj
 0003:000016e4       ??_C@_04NFOM@?4exe?$AA@    004e06e4     ccmain.obj
 0003:000016ec       ??_C@_05IGEO@all?3?5?$AA@  004e06ec     ccmain.obj
 0003:000016f4       ??_C@_03FLBM@$?$DM?6?$AA@  004e06f4     ccmain.obj
 0003:000016f8       ??_C@_04NBEI@?1Tp?5?$AA@   004e06f8     ccmain.obj
 0003:00001700       ??_C@_0O@LNAD@$T?2$?$CI?$DMB?$CJ?4obj?5?$AA@ 004e0700     ccmain.obj
 0003:00001710       ??_C@_0BC@GBCE@?7$?$CICC?$CJ?5$?$CIoption?$CJ?5?$AA@ 004e0710     ccmain.obj
 0003:00001728       ??_C@_0BD@FCHB@?$HL$T?$HN?4cpp?$HL$T?$HN?4obj?3?6?$AA@ 004e0728     ccmain.obj
 0003:00001740       ??_C@_08MGLG@FILES?5?$DN?5?$AA@ 004e0740     ccmain.obj
 0003:0000174c       ??_C@_02ENMM@cl?$AA@       004e074c     ccmain.obj
 0003:00001750       ??_C@_06FBOL@wpp386?$AA@   004e0750     ccmain.obj
 0003:00001758       ??_C@_05IENC@CC?5?$DN?5?$AA@ 004e0758     ccmain.obj
 0003:00001760       ??_C@_01BJG@?6?$AA@        004e0760     ccmain.obj
 0003:00001764       ??_C@_05IDBG@?6T?5?$DN?5?$AA@ 004e0764     ccmain.obj
 0003:0000176c       ??_C@_04DHAK@Z?5?$DN?5?$AA@ 004e076c     ccmain.obj
 0003:00001774       ??_C@_0BN@HMNL@?4SUFFIXES?5?3?5?4exe?5?4obj?5?4cpp?6?6?$AA@ 004e0774     ccmain.obj
 0003:00001798       ??_C@_0BB@KBLH@?5?1DCLPC?5?1DCLWIN?6?$AA@ 004e0798     ccmain.obj
 0003:000017ac       ??_C@_09PLFK@option?5?$DN?5?$AA@ 004e07ac     ccmain.obj
 0003:000017b8       ??_C@_02EJFA@nt?$AA@       004e07b8     ccmain.obj
 0003:000017bc       ??_C@_03EHCG@?1Fo?$AA@     004e07bc     ccmain.obj
 0003:000017c0       ??_C@_04FFHB@?1fo?$DN?$AA@ 004e07c0     ccmain.obj
 0003:000017c8       ??_C@_02FKLM@?1I?$AA@      004e07c8     ccmain.obj
 0003:000017cc       ??_C@_03BPOL@?1i?$DN?$AA@  004e07cc     ccmain.obj
 0003:000017d0       ??_C@_0M@GIGL@?7$?$CICXX?$CJ?5?9o?5?$AA@ 004e07d0     ccmain.obj
 0003:000017e0       ??_C@_04MBGC@?9s?4o?$AA@   004e07e0     ccmain.obj
 0003:000017e8       ??_C@_07BFLL@?4lib?5$T?$AA@ 004e07e8     ccmain.obj
 0003:000017f4       ??_C@_02HFBK@?3?5?$AA@     004e07f4     ccmain.obj
 0003:000017f8       ??_C@_0P@DEMH@?4lib?5$?$CIFILES?$CJ?6?$AA@ 004e07f8     ccmain.obj
 0003:0000180c       ??_C@_0P@CMCE@?7$?$CILINK?$CJ?5?9o?5$Z?$AA@ 004e080c     ccmain.obj
 0003:00001820       ??_C@_02ICNO@$Z?$AA@       004e0820     ccmain.obj
 0003:00001824       ??_C@_0DI@PCNM@$T?$CF?4o?3?7$T?$CF?4cc?6?7$?$CICXX?$CJ?5$?$CICXXFLAGS@ 004e0824     ccmain.obj
 0003:00001868       ??_C@_0L@OMNN@?5?9DCLUNIX?5?$AA@ 004e0868     ccmain.obj
 0003:00001878       ??_C@_0O@JCAL@CXXFLAGS?5?$DN?5?9I?$AA@ 004e0878     ccmain.obj
 0003:00001888       ??_C@_0O@LPKJ@LINK?5?$DN?5ld?5?9r?6?$AA@ 004e0888     ccmain.obj
 0003:00001898       ??_C@_0L@CAFA@CXX?5?$DN?5g?$CL?$CL?6?$AA@ 004e0898     ccmain.obj
 0003:000018a8       ??_C@_04MCHG@T?5?$DN?5?$AA@ 004e08a8     ccmain.obj
 0003:000018b0       ??_C@_06EEEA@?5?9?9?9?9?6?$AA@ 004e08b0     ccmain.obj
 0003:000018b8       ??_C@_0CB@PDAI@?$CD?5?9?9?9?5unix?5makefile?5?9?9?9?5version?5@ 004e08b8     ccmain.obj
 0003:000018e0       ??_C@_0L@OLJE@list_I_set?$AA@ 004e08e0     Core:Core.obj
 0003:000018ec       ??_C@_0BA@LHMA@list_I_set_type?$AA@ 004e08ec     Core:Core.obj
 0003:000018fc       ??_C@_09FNBG@set_I_bag?$AA@ 004e08fc     Core:Core.obj
 0003:00001908       ??_C@_0P@HGKD@set_I_bag_type?$AA@ 004e0908     Core:Core.obj
 0003:00001918       ??_C@_0N@HGK@array_I_list?$AA@ 004e0918     Core:Core.obj
 0003:00001928       ??_C@_0BC@FKPE@array_I_list_type?$AA@ 004e0928     Core:Core.obj
 0003:0000193c       ??_C@_0N@LOKI@list_I_array?$AA@ 004e093c     Core:Core.obj
 0003:0000194c       ??_C@_0BC@MGGD@list_I_array_type?$AA@ 004e094c     Core:Core.obj
 0003:00001960       ??_C@_0P@CAAH@make_set_array?$AA@ 004e0960     Core:Core.obj
 0003:00001970       ??_C@_0BE@KMK@make_set_array_type?$AA@ 004e0970     Core:Core.obj
 0003:00001984       ??_C@_0BD@FNGP@make_list_integer2?$AA@ 004e0984     Core:Core.obj
 0003:00001998       ??_C@_0BI@GHEA@make_list_integer2_type?$AA@ 004e0998     Core:Core.obj
 0003:000019b0       ??_C@_0BD@GHHO@make_array_integer?$AA@ 004e09b0     Core:Core.obj
 0003:000019c4       ??_C@_0BI@KGAO@make_array_integer_type?$AA@ 004e09c4     Core:Core.obj
 0003:000019dc       ??_C@_09FLED@nth_array?$AA@ 004e09dc     Core:Core.obj
 0003:000019e8       ??_C@_0P@PJC@nth_array_type?$AA@ 004e09e8     Core:Core.obj
 0003:000019f8       ??_C@_0O@KJIF@nth_get_array?$AA@ 004e09f8     Core:Core.obj
 0003:00001a08       ??_C@_0BD@HOPA@nth_get_array_type?$AA@ 004e0a08     Core:Core.obj
 0003:00001a1c       ??_C@_0BE@MAPI@meet_arg_types_type?$AA@ 004e0a1c     Core:Core.obj
 0003:00001a30       ??_C@_0BF@BPEJ@second_arg_type_type?$AA@ 004e0a30     Core:Core.obj
 0003:00001a48       ??_C@_0BF@PBAF@first_arg_type_type2?$AA@ 004e0a48     Core:Core.obj
 0003:00001a60       ??_C@_0BE@LLNM@first_arg_type_type?$AA@ 004e0a60     Core:Core.obj
 0003:00001a74       ??_C@_0BI@FHIB@abstract_type_operation?$AA@ 004e0a74     Core:Core.obj
 0003:00001a8c       ??_C@_0BC@DIMO@abstract_type_set?$AA@ 004e0a8c     Core:Core.obj
 0003:00001aa0       ??_C@_0BB@DADD@make_set_integer?$AA@ 004e0aa0     Core:Core.obj
 0003:00001ab4       ??_C@_0N@NNLE@integer?$CB_set?$AA@ 004e0ab4     Core:Core.obj
 0003:00001ac4       ??_C@_08CCAE@the_type?$AA@ 004e0ac4     Core:Core.obj
 0003:00001ad0       ??_C@_0N@OAIN@unique?$DP_type?$AA@ 004e0ad0     Core:Core.obj
 0003:00001ae0       ??_C@_06PKHF@?$EA_type?$AA@ 004e0ae0     Core:Core.obj
 0003:00001ae8       ??_C@_0BA@KIDM@of_extract_type?$AA@ 004e0ae8     Core:Core.obj
 0003:00001af8       ??_C@_0M@BOPH@member_type?$AA@ 004e0af8     Core:Core.obj
 0003:00001b04       ??_C@_07OHEO@?$DM?$DN_type?$AA@ 004e0b04     Core:Core.obj
 0003:00001b0c       ??_C@_08HPIG@?$DM?$DNt_type?$AA@ 004e0b0c     Core:Core.obj
 0003:00001b18       ??_C@_09JOLC@?$DM?$DNt_tuple?$AA@ 004e0b18     Core:Core.obj
 0003:00001b24       ??_C@_0O@NMGC@?$DM?$DNt_Reference?$AA@ 004e0b24     Core:Core.obj
 0003:00001b34       ??_C@_09NDCF@?$DM?$DNt_Param?$AA@ 004e0b34     Core:Core.obj
 0003:00001b40       ??_C@_0M@BGKC@?$DM?$DNt_subtype?$AA@ 004e0b40     Core:Core.obj
 0003:00001b4c       ??_C@_0N@OGIA@?$DM?$DNt_Interval?$AA@ 004e0b4c     Core:Core.obj
 0003:00001b5c       ??_C@_09FJEN@?$DM?$DNt_Union?$AA@ 004e0b5c     Core:Core.obj
 0003:00001b68       ??_C@_09DNCI@?$DM?$DNt_class?$AA@ 004e0b68     Core:Core.obj
 0003:00001b74       ??_C@_08BGDN@?$DM?$DNt_bag2?$AA@ 004e0b74     Core:Core.obj
 0003:00001b80       ??_C@_03JPD@?$DM?$DNt?$AA@ 004e0b80     Core:Core.obj
 0003:00001b84       ??_C@_09FBKM@Uall_list?$AA@ 004e0b84     Core:Core.obj
 0003:00001b90       ??_C@_06BGHF@?$FO_list?$AA@ 004e0b90     Core:Core.obj
 0003:00001b98       ??_C@_0L@MNBO@join_class?$AA@ 004e0b98     Core:Core.obj
 0003:00001ba4       ??_C@_06HALG@?$FO_type?$AA@ 004e0ba4     Core:Core.obj
 0003:00001bac       ??_C@_0O@PHCC@glb_Reference?$AA@ 004e0bac     Core:Core.obj
 0003:00001bbc       ??_C@_09LDOH@glb_tuple?$AA@ 004e0bbc     Core:Core.obj
 0003:00001bc8       ??_C@_0M@FMAG@glb_subtype?$AA@ 004e0bc8     Core:Core.obj
 0003:00001bd4       ??_C@_09POHA@glb_Param?$AA@ 004e0bd4     Core:Core.obj
 0003:00001be0       ??_C@_09BAHN@glb_class?$AA@ 004e0be0     Core:Core.obj
 0003:00001bec       ??_C@_0N@KGMK@glb_Interval?$AA@ 004e0bec     Core:Core.obj
 0003:00001bfc       ??_C@_09HEBI@glb_Union?$AA@ 004e0bfc     Core:Core.obj
 0003:00001c08       ??_C@_07NCFD@glb_set?$AA@  004e0c08     Core:Core.obj
 0003:00001c10       ??_C@_03ELBJ@glb?$AA@      004e0c10     Core:Core.obj
 0003:00001c14       ??_C@_06FLPG@?2_type?$AA@  004e0c14     Core:Core.obj
 0003:00001c1c       ??_C@_07LJCG@but_any?$AA@  004e0c1c     Core:Core.obj
 0003:00001c24       ??_C@_0N@KICC@but_any_type?$AA@ 004e0c24     Core:Core.obj
 0003:00001c34       ??_C@_03MOAA@but?$AA@      004e0c34     Core:Core.obj
 0003:00001c38       ??_C@_0L@OBIP@?4?4_integer?$AA@ 004e0c38     Core:Core.obj
 0003:00001c44       ??_C@_0BA@JKFK@?4?4_integer_type?$AA@ 004e0c44     Core:Core.obj
 0003:00001c54       ??_C@_06GDFH@U_type?$AA@   004e0c54     Core:Core.obj
 0003:00001c5c       ??_C@_0M@JHBD@class?$CB_type?$AA@ 004e0c5c     Core:Core.obj
 0003:00001c68       ??_C@_0M@LCGE@member?$DP_any?$AA@ 004e0c68     Core:Core.obj
 0003:00001c74       ??_C@_0L@LDEJ@size_tuple?$AA@ 004e0c74     Core:Core.obj
 0003:00001c80       ??_C@_0L@EGIF@set?$CB_tuple?$AA@ 004e0c80     Core:Core.obj
 0003:00001c8c       ??_C@_0N@ELGM@size_subtype?$AA@ 004e0c8c     Core:Core.obj
 0003:00001c9c       ??_C@_0N@HAJJ@set?$CB_subtype?$AA@ 004e0c9c     Core:Core.obj
 0003:00001cac       ??_C@_0L@PONO@size_Param?$AA@ 004e0cac     Core:Core.obj
 0003:00001cb8       ??_C@_0L@LBC@set?$CB_Param?$AA@ 004e0cb8     Core:Core.obj
 0003:00001cc4       ??_C@_0O@EONN@size_Interval?$AA@ 004e0cc4     Core:Core.obj
 0003:00001cd4       ??_C@_0O@HCOG@set?$CB_Interval?$AA@ 004e0cd4     Core:Core.obj
 0003:00001ce4       ??_C@_0L@HELG@size_Union?$AA@ 004e0ce4     Core:Core.obj
 0003:00001cf0       ??_C@_0L@IBHK@set?$CB_Union?$AA@ 004e0cf0     Core:Core.obj
 0003:00001cfc       ??_C@_0L@BAND@size_class?$AA@ 004e0cfc     Core:Core.obj
 0003:00001d08       ??_C@_0L@OFBP@set?$CB_class?$AA@ 004e0d08     Core:Core.obj
 0003:00001d14       ??_C@_0BA@DDMA@size_list2_Core?$AA@ 004e0d14     Core:Core.obj
 0003:00001d24       ??_C@_08FCFG@size_set?$AA@ 004e0d24     Core:Core.obj
 0003:00001d30       ??_C@_08MFKN@set?$CB_set?$AA@ 004e0d30     Core:Core.obj
 0003:00001d3c       ??_C@_0BA@EFPD@size_collection?$AA@ 004e0d3c     Core:Core.obj
 0003:00001d4c       ??_C@_0BA@GHDH@set?$CB_collection?$AA@ 004e0d4c     Core:Core.obj
 0003:00001d5c       ??_C@_0M@KMAP@?$EA_Reference?$AA@ 004e0d5c     Core:Core.obj
 0003:00001d68       ??_C@_0O@CCEA@get_Reference?$AA@ 004e0d68     Core:Core.obj
 0003:00001d78       ??_C@_0BK@NBMF@self_print_Reference_Core?$AA@ 004e0d78     Core:Core.obj
 0003:00001d94       ??_C@_09NCBE@Reference?$AA@ 004e0d94     Core:Core.obj
 0003:00001da0       ??_C@_0O@0finite?$DP_tuple?$AA@ 004e0da0     Core:Core.obj
 0003:00001db0       ??_C@_08DIEE@nth_type?$AA@ 004e0db0     Core:Core.obj
 0003:00001dbc       ??_C@_0O@MOLA@param_I_class?$AA@ 004e0dbc     Core:Core.obj
 0003:00001dcc       ??_C@_0L@LLJE@nth_class2?$AA@ 004e0dcc     Core:Core.obj
 0003:00001dd8       ??_C@_0L@EECN@nth_class1?$AA@ 004e0dd8     Core:Core.obj
 0003:00001de4       ??_C@_0BA@EFOB@finite?$DP_subtype?$AA@ 004e0de4     Core:Core.obj
 0003:00001df4       ??_C@_0BI@BJFK@self_print_subtype_Core?$AA@ 004e0df4     Core:Core.obj
 0003:00001e0c       ??_C@_07BNAO@subtype?$AA@  004e0e0c     Core:Core.obj
 0003:00001e14       ??_C@_0O@ENJG@finite?$DP_Param?$AA@ 004e0e14     Core:Core.obj
 0003:00001e24       ??_C@_0BG@OHEF@self_print_Param_Core?$AA@ 004e0e24     Core:Core.obj
 0003:00001e3c       ??_C@_05FIKC@Param?$AA@    004e0e3c     Core:Core.obj
 0003:00001e44       ??_C@_0L@DHBB@?9?9_integer?$AA@ 004e0e44     Core:Core.obj
 0003:00001e50       ??_C@_0BB@GEND@finite?$DP_Interval?$AA@ 004e0e50     Core:Core.obj
 0003:00001e64       ??_C@_0BJ@BOAN@self_print_Interval_Core?$AA@ 004e0e64     Core:Core.obj
 0003:00001e80       ??_C@_08JAIL@Interval?$AA@ 004e0e80     Core:Core.obj
 0003:00001e8c       ??_C@_0O@MHPO@finite?$DP_Union?$AA@ 004e0e8c     Core:Core.obj
 0003:00001e9c       ??_C@_0BG@DMOJ@self_print_Union_Core?$AA@ 004e0e9c     Core:Core.obj
 0003:00001eb4       ??_C@_05NCMK@Union?$AA@    004e0eb4     Core:Core.obj
 0003:00001ebc       ??_C@_04FCOP@Type?$AA@     004e0ebc     Core:Core.obj
 0003:00001ec4       ??_C@_09LKED@Ztype_any?$AA@ 004e0ec4     Core:Core.obj
 0003:00001ed0       ??_C@_06JKHK@?$CF_any1?$AA@ 004e0ed0     Core:Core.obj
 0003:00001ed8       ??_C@_0L@GJMF@sort?$CB_type?$AA@ 004e0ed8     Core:Core.obj
 0003:00001ee4       ??_C@_0L@GJI@?$DNtype?$DP_any?$AA@ 004e0ee4     Core:Core.obj
 0003:00001ef0       ??_C@_06IEBC@?$DNtype?$DP?$AA@ 004e0ef0     Core:Core.obj
 0003:00001ef8       ??_C@_0O@ILGP@enumerate_any?$AA@ 004e0ef8     Core:Core.obj
 0003:00001f08       ??_C@_0N@MMBH@finite?$DP_type?$AA@ 004e0f08     Core:Core.obj
 0003:00001f18       ??_C@_02CKJF@?9?9?$AA@     004e0f18     Core:Core.obj
 0003:00001f1c       ??_C@_04CJLB@arg2?$AA@     004e0f1c     Core:Core.obj
 0003:00001f24       ??_C@_04NGAI@arg1?$AA@     004e0f24     Core:Core.obj
 0003:00001f2c       ??_C@_0L@GAIN@CL_Oid_inv?$AA@ 004e0f2c     Core:Core.obj
 0003:00001f38       ??_C@_06KFID@CL_Oid?$AA@   004e0f38     Core:Core.obj
 0003:00001f40       ??_C@_0L@OGGN@CL_Address?$AA@ 004e0f40     Core:Core.obj
 0003:00001f4c       ??_C@_07LLDL@?$DM?$DN_char?$AA@ 004e0f4c     Core:Core.obj
 0003:00001f54       ??_C@_0BF@KLFB@self_print_char_Core?$AA@ 004e0f54     Core:Core.obj
 0003:00001f6c       ??_C@_0BG@CDC@self_print_array_Core?$AA@ 004e0f6c     Core:Core.obj
 0003:00001f84       ??_C@_0L@IEIC@nth?$DN_array?$AA@ 004e0f84     Core:Core.obj
 0003:00001f90       ??_C@_0P@BNEM@difference_set?$AA@ 004e0f90     Core:Core.obj
 0003:00001fa0       ??_C@_0BH@JIDD@make_copy_list_integer?$AA@ 004e0fa0     Core:Core.obj
 0003:00001fb8       ??_C@_0M@BCMO@tuple?$CB_list?$AA@ 004e0fb8     Core:Core.obj
 0003:00001fc4       ??_C@_09HBHA@skip_list?$AA@ 004e0fc4     Core:Core.obj
 0003:00001fd0       ??_C@_0BE@KPNG@build_powerset_list?$AA@ 004e0fd0     Core:Core.obj
 0003:00001fe4       ??_C@_0P@MIKK@quicksort_list?$AA@ 004e0fe4     Core:Core.obj
 0003:00001ff4       ??_C@_0M@JKCB@sort_method?$AA@ 004e0ff4     Core:Core.obj
 0003:00002000       ??_C@_0O@KGPG@hashsize_list?$AA@ 004e1000     Core:Core.obj
 0003:00002010       ??_C@_0BB@COCB@hashlist_integer?$AA@ 004e1010     Core:Core.obj
 0003:00002024       ??_C@_08NGLN@car_list?$AA@ 004e1024     Core:Core.obj
 0003:00002030       ??_C@_0N@DKCJ@nth_set_list?$AA@ 004e1030     Core:Core.obj
 0003:00002040       ??_C@_0M@GNH@rmlast_list?$AA@ 004e1040     Core:Core.obj
 0003:0000204c       ??_C@_09EPDO@last_list?$AA@ 004e104c     Core:Core.obj
 0003:00002058       ??_C@_0P@FANO@last_list_type?$AA@ 004e1058     Core:Core.obj
 0003:00002068       ??_C@_06GNMK@?1?$CL_bag?$AA@ 004e1068     Core:Core.obj
 0003:00002070       ??_C@_0L@ODFF@max_method?$AA@ 004e1070     Core:Core.obj
 0003:0000207c       ??_C@_0BA@ILLH@max_method_type?$AA@ 004e107c     Core:Core.obj
 0003:0000208c       ??_C@_0L@MDBK@min_method?$AA@ 004e108c     Core:Core.obj
 0003:00002098       ??_C@_0BA@HIIO@min_method_type?$AA@ 004e1098     Core:Core.obj
 0003:000020a8       ??_C@_0M@LMHJ@nth_get_bag?$AA@ 004e10a8     Core:Core.obj
 0003:000020b4       ??_C@_07EBBH@nth_bag?$AA@  004e10b4     Core:Core.obj
 0003:000020bc       ??_C@_0N@MIJJ@nth_bag_type?$AA@ 004e10bc     Core:Core.obj
 0003:000020cc       ??_C@_0L@LNGN@length_bag?$AA@ 004e10cc     Core:Core.obj
 0003:000020d8       ??_C@_0O@IKHB@string?$CB_float?$AA@ 004e10d8     Core:Core.obj
 0003:000020e8       ??_C@_0P@PKGH@string?$CB_float_?$AA@ 004e10e8     Core:Core.obj
 0003:000020f8       ??_C@_0L@FMEO@atan_float?$AA@ 004e10f8     Core:Core.obj
 0003:00002104       ??_C@_0M@BALB@atan_float_?$AA@ 004e1104     Core:Core.obj
 0003:00002110       ??_C@_09EGDP@log_float?$AA@ 004e1110     Core:Core.obj
 0003:0000211c       ??_C@_0L@BMKL@log_float_?$AA@ 004e111c     Core:Core.obj
 0003:00002128       ??_C@_0L@BBEP@_exp_float?$AA@ 004e1128     Core:Core.obj
 0003:00002134       ??_C@_0M@DGPM@_exp_float_?$AA@ 004e1134     Core:Core.obj
 0003:00002140       ??_C@_0L@OOMA@sqrt_float?$AA@ 004e1140     Core:Core.obj
 0003:0000214c       ??_C@_0M@OMAD@sqrt_float_?$AA@ 004e114c     Core:Core.obj
 0003:00002158       ??_C@_08KKAD@?9_float2?$AA@ 004e1158     Core:Core.obj
 0003:00002164       ??_C@_09JBEH@?9_float2_?$AA@ 004e1164     Core:Core.obj
 0003:00002170       ??_C@_08ENFJ@_7_float?$AA@ 004e1170     Core:Core.obj
 0003:0000217c       ??_C@_09LBKA@_7_float_?$AA@ 004e117c     Core:Core.obj
 0003:00002188       ??_C@_0M@FCJC@_star_float?$AA@ 004e1188     Core:Core.obj
 0003:00002194       ??_C@_0N@EELP@_star_float_?$AA@ 004e1194     Core:Core.obj
 0003:000021a4       ??_C@_0M@DMHL@_dash_float?$AA@ 004e11a4     Core:Core.obj
 0003:000021b0       ??_C@_0N@MGNB@_dash_float_?$AA@ 004e11b0     Core:Core.obj
 0003:000021c0       ??_C@_0M@HINB@_plus_float?$AA@ 004e11c0     Core:Core.obj
 0003:000021cc       ??_C@_0N@JMJF@_plus_float_?$AA@ 004e11cc     Core:Core.obj
 0003:000021dc       ??_C@_0M@MOKA@princ_float?$AA@ 004e11dc     Core:Core.obj
 0003:000021e8       ??_C@_0N@NICD@princ_float_?$AA@ 004e11e8     Core:Core.obj
 0003:000021f8       ??_C@_0M@KKH@pair_2_list?$AA@ 004e11f8     Core:Core.obj
 0003:00002204       ??_C@_0BB@EHLF@pair_2_list_type?$AA@ 004e1204     Core:Core.obj
 0003:00002218       ??_C@_0M@LEEH@pair_1_list?$AA@ 004e1218     Core:Core.obj
 0003:00002224       ??_C@_0BB@HICF@pair_1_list_type?$AA@ 004e1224     Core:Core.obj
 0003:00002238       ??_C@_08CHFK@pair_any?$AA@ 004e1238     Core:Core.obj
 0003:00002244       ??_C@_04OJPI@pair?$AA@     004e1244     Core:Core.obj
 0003:0000224c       ??_C@_06IEAD@Id_any?$AA@   004e124c     Core:Core.obj
 0003:00002254       ??_C@_0M@EPGE@Id_any_type?$AA@ 004e1254     Core:Core.obj
 0003:00002260       ??_C@_0BA@EJLO@divide?$DP_integer?$AA@ 004e1260     Core:Core.obj
 0003:00002270       ??_C@_0BA@JPEI@factor?$DP_integer?$AA@ 004e1270     Core:Core.obj
 0003:00002280       ??_C@_0M@EKEC@nth_integer?$AA@ 004e1280     Core:Core.obj
 0003:0000228c       ??_C@_09GDNL@?$DO_integer?$AA@ 004e128c     Core:Core.obj
 0003:00002298       ??_C@_0L@GAHF@?$DM?$DN_integer?$AA@ 004e1298     Core:Core.obj
 0003:000022a4       ??_C@_09OHEL@?$DM_integer?$AA@ 004e12a4     Core:Core.obj
 0003:000022b0       ??_C@_0L@DDDH@or_integer?$AA@ 004e12b0     Core:Core.obj
 0003:000022bc       ??_C@_0M@NEA@and_integer?$AA@ 004e12bc     Core:Core.obj
 0003:000022c8       ??_C@_0L@DJCJ@?$DO?$DO_integer?$AA@ 004e12c8     Core:Core.obj
 0003:000022d4       ??_C@_0L@KCDN@?$DM?$DM_integer?$AA@ 004e12d4     Core:Core.obj
 0003:000022e0       ??_C@_07DPPH@CL_exit?$AA@  004e12e0     Core:Core.obj
 0003:000022e8       ??_C@_0BB@BAOO@sequence_integer?$AA@ 004e12e8     Core:Core.obj
 0003:000022fc       ??_C@_0M@HMMD@mod_integer?$AA@ 004e12fc     Core:Core.obj
 0003:00002308       ??_C@_07JMDL@ch_sign?$AA@  004e1308     Core:Core.obj
 0003:00002310       ??_C@_0L@HDAG@?9_integer1?$AA@ 004e1310     Core:Core.obj
 0003:0000231c       ??_C@_0BA@DPM@?9_integer1_type?$AA@ 004e131c     Core:Core.obj
 0003:0000232c       ??_C@_09IMDB@?$CL_integer?$AA@ 004e132c     Core:Core.obj
 0003:00002338       ??_C@_0P@HFIH@?$CL_integer_type?$AA@ 004e1338     Core:Core.obj
 0003:00002348       ??_C@_0O@NFCI@gensym_string?$AA@ 004e1348     Core:Core.obj
 0003:00002358       ??_C@_0P@LBBP@c_princ_symbol?$AA@ 004e1358     Core:Core.obj
 0003:00002368       ??_C@_0BH@GIMI@self_print_symbol_Core?$AA@ 004e1368     Core:Core.obj
 0003:00002380       ??_C@_0BD@PGO@make_string_symbol?$AA@ 004e1380     Core:Core.obj
 0003:00002394       ??_C@_0N@KJCE@value_module?$AA@ 004e1394     Core:Core.obj
 0003:000023a4       ??_C@_0N@MLME@value_string?$AA@ 004e13a4     Core:Core.obj
 0003:000023b4       ??_C@_0O@FAII@getenv_string?$AA@ 004e13b4     Core:Core.obj
 0003:000023c4       ??_C@_0N@GEB@claire_shell?$AA@ 004e13c4     Core:Core.obj
 0003:000023d4       ??_C@_0P@ELFB@nth_put_string?$AA@ 004e13d4     Core:Core.obj
 0003:000023e4       ??_C@_0P@DMLI@nth_get_string?$AA@ 004e13e4     Core:Core.obj
 0003:000023f4       ??_C@_0BA@KALH@externC_string2?$AA@ 004e13f4     Core:Core.obj
 0003:00002404       ??_C@_0BF@KFFG@externC_string2_type?$AA@ 004e1404     Core:Core.obj
 0003:0000241c       ??_C@_0P@JKP@externC_string?$AA@ 004e141c     Core:Core.obj
 0003:0000242c       ??_C@_0BA@JEED@symbol?$CB_string2?$AA@ 004e142c     Core:Core.obj
 0003:0000243c       ??_C@_0BF@PIPC@make_function_string?$AA@ 004e143c     Core:Core.obj
 0003:00002454       ??_C@_06CGBO@strlen?$AA@   004e1454     Core:Core.obj
 0003:0000245c       ??_C@_0P@HIKP@store_listargs?$AA@ 004e145c     Core:Core.obj
 0003:0000246c       ??_C@_07JLKI@world?9?$CB?$AA@ 004e146c     Core:Core.obj
 0003:00002474       ??_C@_06NPFN@world?9?$AA@  004e1474     Core:Core.obj
 0003:0000247c       ??_C@_06CACP@world?$CL?$AA@ 004e147c     Core:Core.obj
 0003:00002484       ??_C@_0BC@DDME@backtrack_integer?$AA@ 004e1484     Core:Core.obj
 0003:00002498       ??_C@_0P@LPAG@commit_integer?$AA@ 004e1498     Core:Core.obj
 0003:000024a8       ??_C@_0N@PPGA@store_array1?$AA@ 004e14a8     Core:Core.obj
 0003:000024b8       ??_C@_0M@NDMB@store_list4?$AA@ 004e14b8     Core:Core.obj
 0003:000024c4       ??_C@_0M@MPDC@gensym_void?$AA@ 004e14c4     Core:Core.obj
 0003:000024d0       ??_C@_0M@NLGM@claire_stat?$AA@ 004e14d0     Core:Core.obj
 0003:000024dc       ??_C@_0P@PPB@time_show_void?$AA@ 004e14dc     Core:Core.obj
 0003:000024ec       ??_C@_0O@EEHM@time_set_void?$AA@ 004e14ec     Core:Core.obj
 0003:000024fc       ??_C@_0P@JDGL@time_read_void?$AA@ 004e14fc     Core:Core.obj
 0003:0000250c       ??_C@_0O@OGCP@time_get_void?$AA@ 004e150c     Core:Core.obj
 0003:0000251c       ??_C@_09NCJJ@claire_gc?$AA@ 004e151c     Core:Core.obj
 0003:00002528       ??_C@_0BC@CNAO@get_symbol_string?$AA@ 004e1528     Core:Core.obj
 0003:0000253c       ??_C@_0BC@EPOO@get_symbol_module?$AA@ 004e153c     Core:Core.obj
 0003:00002550       ??_C@_0N@KEPE@close_module?$AA@ 004e1550     Core:Core.obj
 0003:00002560       ??_C@_0P@LEBP@final_relation?$AA@ 004e1560     Core:Core.obj
 0003:00002570       ??_C@_0BC@MHNA@abstract_property?$AA@ 004e1570     Core:Core.obj
 0003:00002584       ??_C@_0O@NAPK@class?$CB_symbol?$AA@ 004e1584     Core:Core.obj
 0003:00002594       ??_C@_0P@LHEA@inherit?$DP_class?$AA@ 004e1594     Core:Core.obj
 0003:000025a4       ??_C@_0L@FFJC@meet_class?$AA@ 004e15a4     Core:Core.obj
 0003:000025b0       ??_C@_0BA@EIHN@new_thing_class?$AA@ 004e15b0     Core:Core.obj
 0003:000025c0       ??_C@_0BF@ENKF@new_thing_class_type?$AA@ 004e15c0     Core:Core.obj
 0003:000025d8       ??_C@_0BB@HIFL@new_object_class?$AA@ 004e15d8     Core:Core.obj
 0003:000025ec       ??_C@_0BG@IODM@new_object_class_type?$AA@ 004e15ec     Core:Core.obj
 0003:00002604       ??_C@_0L@GGAK@new_class2?$AA@ 004e1604     Core:Core.obj
 0003:00002610       ??_C@_0BA@DGJM@new_class2_type?$AA@ 004e1610     Core:Core.obj
 0003:00002620       ??_C@_0L@JJLD@new_class1?$AA@ 004e1620     Core:Core.obj
 0003:0000262c       ??_C@_0BA@IIHM@new_class1_type?$AA@ 004e162c     Core:Core.obj
 0003:0000263c       ??_C@_0M@OGH@final_class?$AA@ 004e163c     Core:Core.obj
 0003:00002648       ??_C@_0P@PELJ@abstract_class?$AA@ 004e1648     Core:Core.obj
 0003:00002658       ??_C@_0BA@NEDE@ephemeral_class?$AA@ 004e1658     Core:Core.obj
 0003:00002668       ??_C@_05JOMK@?$DO_any?$AA@ 004e1668     Core:Core.obj
 0003:00002670       ??_C@_05NOIA@?$DM_any?$AA@ 004e1670     Core:Core.obj
 0003:00002678       ??_C@_0N@MFJN@check_in_bag?$AA@ 004e1678     Core:Core.obj
 0003:00002688       ??_C@_0N@OFBN@check_in_any?$AA@ 004e1688     Core:Core.obj
 0003:00002698       ??_C@_0N@GKLL@unknown?$DP_any?$AA@ 004e1698     Core:Core.obj
 0003:000026a8       ??_C@_0L@HAPH@known?$DP_any?$AA@ 004e16a8     Core:Core.obj
 0003:000026b4       ??_C@_09BPOA@owner_any?$AA@ 004e16b4     Core:Core.obj
 0003:000026c0       ??_C@_06FPAB@?$CB?$DN_any?$AA@ 004e16c0     Core:Core.obj
 0003:000026c8       ??_C@_07KLJO@not_any?$AA@  004e16c8     Core:Core.obj
 0003:000026d0       ??_C@_0L@LNOH@kill_I_any?$AA@ 004e16d0     Core:Core.obj
 0003:000026dc       ??_C@_05GKFA@kill?$CB?$AA@ 004e16dc     Core:Core.obj
 0003:000026e4       ??_C@_0BC@NLAB@complete_I_object?$AA@ 004e16e4     Core:Core.obj
 0003:000026f8       ??_C@_0BF@IPDH@short_enough_integer?$AA@ 004e16f8     Core:Core.obj
 0003:00002710       ??_C@_09BEJJ@print_any?$AA@ 004e1710     Core:Core.obj
 0003:0000271c       ??_C@_0N@EALC@much_too_far?$AA@ 004e171c     Core:Core.obj
 0003:0000272c       ??_C@_0BM@CHPO@self_print_restriction_Core?$AA@ 004e172c     Core:Core.obj
 0003:00002748       ??_C@_0BJ@OHJ@self_print_function_Core?$AA@ 004e1748     Core:Core.obj
 0003:00002764       ??_C@_0BI@EMJG@self_print_boolean_Core?$AA@ 004e1764     Core:Core.obj
 0003:0000277c       ??_C@_0BE@KG@self_print_any_Core?$AA@ 004e177c     Core:Core.obj
 0003:00002790       ??_C@_0BF@GHIB@apply_self_print_any?$AA@ 004e1790     Core:Core.obj
 0003:000027a8       ??_C@_0BK@GHGC@buffer_set_length_integer?$AA@ 004e17a8     Core:Core.obj
 0003:000027c4       ??_C@_0BD@OPJB@buffer_length_void?$AA@ 004e17c4     Core:Core.obj
 0003:000027d8       ??_C@_0BC@EONG@end_of_print_void?$AA@ 004e17d8     Core:Core.obj
 0003:000027ec       ??_C@_0BF@JIIB@print_in_string_void?$AA@ 004e17ec     Core:Core.obj
 0003:00002804       ??_C@_05KCGF@print?$AA@    004e1804     Core:Core.obj
 0003:0000280c       ??_C@_0N@EKHG@short_enough?$AA@ 004e180c     Core:Core.obj
 0003:0000281c       ??_C@_0BB@JDKL@apply_self_print?$AA@ 004e181c     Core:Core.obj
 0003:00002830       ??_C@_0P@OCBM@pretty_printer?$AA@ 004e1830     Core:Core.obj
 0003:00002840       ??_C@_08OOME@inherit?$DP?$AA@ 004e1840     Core:Core.obj
 0003:0000284c       ??_C@_04HOIF@meet?$AA@     004e184c     Core:Core.obj
 0003:00002854       ??_C@_03CODD@max?$AA@      004e1854     Core:Core.obj
 0003:00002858       ??_C@_03MNGF@min?$AA@      004e1858     Core:Core.obj
 0003:0000285c       ??_C@_01KNJC@?$CG?$AA@     004e185c     Core:Core.obj
 0003:00002860       ??_C@_05GNO@less?$DP?$AA@  004e1860     Core:Core.obj
 0003:00002868       ??_C@_01MHL@U?$AA@         004e1868     Core:Core.obj
 0003:0000286c       ??_C@_02KAII@or?$AA@       004e186c     Core:Core.obj
 0003:00002870       ??_C@_03HFEJ@and?$AA@      004e1870     Core:Core.obj
 0003:00002874       ??_C@_02CNAK@?$DO?$DO?$AA@ 004e1874     Core:Core.obj
 0003:00002878       ??_C@_02FFHB@?$DM?$DM?$AA@ 004e1878     Core:Core.obj
 0003:0000287c       ??_C@_02GMBL@?$CB?$DN?$AA@ 004e187c     Core:Core.obj
 0003:00002880       ??_C@_0BK@MDHF@Sat?5Sep?514?518?302?343?52002?6?$AA@ 004e1880     Core:Core.obj
 0003:0000289c       ??_C@_0M@GKJL@claire_date?$AA@ 004e189c     Core:Core.obj
 0003:000028a8       ??_C@_03GOHA@nil?$AA@      004e18a8     Core:Core.obj
 0003:000028ac       ??_C@_0BE@JEAM@contradiction?$CB_void?$AA@ 004e18ac     Core:Core.obj
 0003:000028c0       ??_C@_0BF@GNMD@contradiction_occurs?$AA@ 004e18c0     Core:Core.obj
 0003:000028d8       ??_C@_03FDEB@?$DM?$DN2?$AA@ 004e18d8     Core:Core.obj
 0003:000028dc       ??_C@_0BG@ICHN@close_global_variable?$AA@ 004e18dc     Core:Core.obj
 0003:000028f4       ??_C@_0BA@HKJF@global_variable?$AA@ 004e18f4     Core:Core.obj
 0003:00002904       ??_C@_09FGLG@princ_bag?$AA@ 004e1904     Core:Core.obj
 0003:00002910       ??_C@_0P@ODJH@tformat_string?$AA@ 004e1910     Core:Core.obj
 0003:00002920       ??_C@_0O@HJLC@format_string?$AA@ 004e1920     Core:Core.obj
 0003:00002930       ??_C@_0BO@MONI@self_print_contradiction_Core?$AA@ 004e1930     Core:Core.obj
 0003:00002950       ??_C@_0O@LHO@contradiction?$AA@ 004e1950     Core:Core.obj
 0003:00002960       ??_C@_0BN@MJLD@self_print_system_error_Core?$AA@ 004e1960     Core:Core.obj
 0003:00002980       ??_C@_0BN@FDHH@self_print_return_error_Core?$AA@ 004e1980     Core:Core.obj
 0003:000029a0       ??_C@_0N@CODM@return_error?$AA@ 004e19a0     Core:Core.obj
 0003:000029b0       ??_C@_0BP@BKDL@self_print_selector_error_Core?$AA@ 004e19b0     Core:Core.obj
 0003:000029d0       ??_C@_0P@HHLK@selector_error?$AA@ 004e19d0     Core:Core.obj
 0003:000029e0       ??_C@_0BM@KANH@self_print_range_error_Core?$AA@ 004e19e0     Core:Core.obj
 0003:000029fc       ??_C@_0M@HK@range_error?$AA@ 004e19fc     Core:Core.obj
 0003:00002a08       ??_C@_0CA@OMAA@self_print_read_slot_error_Core?$AA@ 004e1a08     Core:Core.obj
 0003:00002a28       ??_C@_0BA@JPAM@read_slot_error?$AA@ 004e1a28     Core:Core.obj
 0003:00002a38       ??_C@_0BO@MGMA@self_print_general_error_Core?$AA@ 004e1a38     Core:Core.obj
 0003:00002a58       ??_C@_0O@GBIG@general_error?$AA@ 004e1a58     Core:Core.obj
 0003:00002a68       ??_C@_05KFME@value?$AA@    004e1a68     Core:Core.obj
 0003:00002a70       ??_C@_04CGOG@args?$AA@     004e1a70     Core:Core.obj
 0003:00002a78       ??_C@_05IABL@?$CK?$CKarg?$AA@ 004e1a78     Core:Core.obj
 0003:00002a80       ??_C@_0P@EMMO@reify_listargs?$AA@ 004e1a80     Core:Core.obj
 0003:00002a90       ??_C@_05KMJH@reify?$AA@    004e1a90     Core:Core.obj
 0003:00002a98       ??_C@_0O@PGEF@methods_class?$AA@ 004e1a98     Core:Core.obj
 0003:00002aa8       ??_C@_0BE@LOGC@domain?$CB_restriction?$AA@ 004e1aa8     Core:Core.obj
 0003:00002abc       ??_C@_0BA@HKKJ@invert_relation?$AA@ 004e1abc     Core:Core.obj
 0003:00002acc       ??_C@_0BC@FJAD@check_inverse_any?$AA@ 004e1acc     Core:Core.obj
 0003:00002ae0       ??_C@_05OADB@pname?$AA@    004e1ae0     Core:Core.obj
 0003:00002ae8       ??_C@_0BA@JKH@funcall_lambda3?$AA@ 004e1ae8     Core:Core.obj
 0003:00002af8       ??_C@_0BA@KDDA@funcall_lambda2?$AA@ 004e1af8     Core:Core.obj
 0003:00002b08       ??_C@_0BA@FMIJ@funcall_lambda1?$AA@ 004e1b08     Core:Core.obj
 0003:00002b18       ??_C@_0N@PLLN@StopProperty?$AA@ 004e1b18     Core:Core.obj
 0003:00002b28       ??_C@_0BA@DOIH@make_table_type?$AA@ 004e1b28     Core:Core.obj
 0003:00002b38       ??_C@_0M@NAAG@erase_table?$AA@ 004e1b38     Core:Core.obj
 0003:00002b44       ??_C@_0BB@DPLM@get_index_table2?$AA@ 004e1b44     Core:Core.obj
 0003:00002b58       ??_C@_0BB@MAAF@get_index_table1?$AA@ 004e1b58     Core:Core.obj
 0003:00002b6c       ??_C@_0M@MPKN@nth?$DN_table2?$AA@ 004e1b6c     Core:Core.obj
 0003:00002b78       ??_C@_0L@FFHC@nth_table2?$AA@ 004e1b78     Core:Core.obj
 0003:00002b84       ??_C@_0BA@DIEK@nth_table2_type?$AA@ 004e1b84     Core:Core.obj
 0003:00002b94       ??_C@_0N@PDAM@delete_table?$AA@ 004e1b94     Core:Core.obj
 0003:00002ba4       ??_C@_0BB@BGDD@add_value_table3?$AA@ 004e1ba4     Core:Core.obj
 0003:00002bb8       ??_C@_0BA@INGJ@add_value_array?$AA@ 004e1bb8     Core:Core.obj
 0003:00002bc8       ??_C@_0L@KAKK@add?$CB_table?$AA@ 004e1bc8     Core:Core.obj
 0003:00002bd4       ??_C@_09NNHA@add_table?$AA@ 004e1bd4     Core:Core.obj
 0003:00002be0       ??_C@_09BICH@put_table?$AA@ 004e1be0     Core:Core.obj
 0003:00002bec       ??_C@_0O@NHIO@nth_put_table?$AA@ 004e1bec     Core:Core.obj
 0003:00002bfc       ??_C@_0M@DABE@nth?$DN_table1?$AA@ 004e1bfc     Core:Core.obj
 0003:00002c08       ??_C@_09PBLE@get_table?$AA@ 004e1c08     Core:Core.obj
 0003:00002c14       ??_C@_0P@BBM@get_table_type?$AA@ 004e1c14     Core:Core.obj
 0003:00002c24       ??_C@_0L@KKML@nth_table1?$AA@ 004e1c24     Core:Core.obj
 0003:00002c30       ??_C@_0BA@IGKK@nth_table1_type?$AA@ 004e1c30     Core:Core.obj
 0003:00002c40       ??_C@_0BE@HKCH@add_value_property3?$AA@ 004e1c40     Core:Core.obj
 0003:00002c54       ??_C@_0O@FLKH@put_property2?$AA@ 004e1c54     Core:Core.obj
 0003:00002c64       ??_C@_0P@BNOH@identical?$DP_any?$AA@ 004e1c64     Core:Core.obj
 0003:00002c74       ??_C@_0BC@BCLA@identified?$DP_class?$AA@ 004e1c74     Core:Core.obj
 0003:00002c88       ??_C@_0BC@FBEN@tr_indent_boolean?$AA@ 004e1c88     Core:Core.obj
 0003:00002c9c       ??_C@_0BD@HOLK@pop_debug_property?$AA@ 004e1c9c     Core:Core.obj
 0003:00002cb0       ??_C@_0BE@LLKI@push_debug_property?$AA@ 004e1cb0     Core:Core.obj
 0003:00002cc4       ??_C@_0N@LAED@apply_method?$AA@ 004e1cc4     Core:Core.obj
 0003:00002cd4       ??_C@_0P@BPKI@apply_property?$AA@ 004e1cd4     Core:Core.obj
 0003:00002ce4       ??_C@_0O@LLEK@call_property?$AA@ 004e1ce4     Core:Core.obj
 0003:00002cf4       ??_C@_0P@LMNE@apply_function?$AA@ 004e1cf4     Core:Core.obj
 0003:00002d04       ??_C@_0BA@JIFC@funcall_method3?$AA@ 004e1d04     Core:Core.obj
 0003:00002d14       ??_C@_0BA@DCMF@funcall_method2?$AA@ 004e1d14     Core:Core.obj
 0003:00002d24       ??_C@_0BA@MNHM@funcall_method1?$AA@ 004e1d24     Core:Core.obj
 0003:00002d34       ??_C@_0BB@NJPP@get_args_integer?$AA@ 004e1d34     Core:Core.obj
 0003:00002d48       ??_C@_0L@MDIC@about_void?$AA@ 004e1d48     Core:Core.obj
 0003:00002d54       ??_C@_0N@OLNI@release_void?$AA@ 004e1d54     Core:Core.obj
 0003:00002d64       ??_C@_06NBGB@?5?$FN?5?9?9?6?$AA@ 004e1d64     Core:Core.obj
 0003:00002d6c       ??_C@_07MCIG@MS?5VC?$CL?$CL?$AA@ 004e1d6c     Core:Core.obj
 0003:00002d74       ??_C@_06PFPI@?0?5C?$CL?$CL?3?$AA@ 004e1d74     Core:Core.obj
 0003:00002d7c       ??_C@_06BFJN@?5?$FLos?3?5?$AA@ 004e1d7c     Core:Core.obj
 0003:00002d84       ??_C@_0CA@PPOC@?9?9?5CLAIRE?5run?9time?5library?5v?53?4?$AA@ 004e1d84     Core:Core.obj
 0003:00002da4       ??_C@_0BB@CFEK@find_which_class?$AA@ 004e1da4     Core:Core.obj
 0003:00002db8       ??_C@_0BA@HLDB@find_which_list?$AA@ 004e1db8     Core:Core.obj
 0003:00002dc8       ??_C@_0BE@BCKJ@find_which_property?$AA@ 004e1dc8     Core:Core.obj
 0003:00002ddc       ??_C@_0M@MICK@tmatch?$DP_any?$AA@ 004e1ddc     Core:Core.obj
 0003:00002de8       ??_C@_0N@LDCO@tmatch?$DP_list?$AA@ 004e1de8     Core:Core.obj
 0003:00002df8       ??_C@_0M@BNDF@vmatch?$DP_any?$AA@ 004e1df8     Core:Core.obj
 0003:00002e04       ??_C@_0P@BKON@matching?$DP_list?$AA@ 004e1e04     Core:Core.obj
 0003:00002e14       ??_C@_0M@KLJP@?$EA_property2?$AA@ 004e1e14     Core:Core.obj
 0003:00002e20       ??_C@_0M@FECG@?$EA_property1?$AA@ 004e1e20     Core:Core.obj
 0003:00002e2c       ??_C@_09CPIC@join_list?$AA@ 004e1e2c     Core:Core.obj
 0003:00002e38       ??_C@_0O@FDBN@hashget_class?$AA@ 004e1e38     Core:Core.obj
 0003:00002e48       ??_C@_0BA@EOKF@hashinsert_list?$AA@ 004e1e48     Core:Core.obj
 0003:00002e58       ??_C@_0BB@OPHP@hashinsert_class?$AA@ 004e1e58     Core:Core.obj
 0003:00002e6c       ??_C@_0BH@JILH@hashinsert_restriction?$AA@ 004e1e6c     Core:Core.obj
 0003:00002e84       ??_C@_0BI@OAB@initialize_restriction2?$AA@ 004e1e84     Core:Core.obj
 0003:00002e9c       ??_C@_0BB@IILE@uniform_property?$AA@ 004e1e9c     Core:Core.obj
 0003:00002eb0       ??_C@_0BE@BNKN@uniform_restriction?$AA@ 004e1eb0     Core:Core.obj
 0003:00002ec4       ??_C@_0BI@PBLI@initialize_restriction1?$AA@ 004e1ec4     Core:Core.obj
 0003:00002edc       ??_C@_0BL@LCMO@insert_definition_property?$AA@ 004e1edc     Core:Core.obj
 0003:00002ef8       ??_C@_04PHLL@join?$AA@     004e1ef8     Core:Core.obj
 0003:00002f00       ??_C@_0BD@FDFA@fastcall_relation2?$AA@ 004e1f00     Core:Core.obj
 0003:00002f14       ??_C@_0L@GDMM@multi?$DP_any?$AA@ 004e1f14     Core:Core.obj
 0003:00002f20       ??_C@_06FEKD@multi?$DP?$AA@ 004e1f20     Core:Core.obj
 0003:00002f28       ??_C@_0BE@NJFA@put_store_property2?$AA@ 004e1f28     Core:Core.obj
 0003:00002f3c       ??_C@_0BD@LFDO@set_range_property?$AA@ 004e1f3c     Core:Core.obj
 0003:00002f50       ??_C@_0P@FLGG@erase_property?$AA@ 004e1f50     Core:Core.obj
 0003:00002f60       ??_C@_0BA@PFCB@delete_property?$AA@ 004e1f60     Core:Core.obj
 0003:00002f70       ??_C@_0BC@JFNI@unknown?$DP_property?$AA@ 004e1f70     Core:Core.obj
 0003:00002f84       ??_C@_0BA@PNEM@known?$DP_property?$AA@ 004e1f84     Core:Core.obj
 0003:00002f94       ??_C@_0N@BEFH@add_property?$AA@ 004e1f94     Core:Core.obj
 0003:00002fa4       ??_C@_0BD@OOM@add_value_property?$AA@ 004e1fa4     Core:Core.obj
 0003:00002fb8       ??_C@_0O@KJOE@add?$CB_property?$AA@ 004e1fb8     Core:Core.obj
 0003:00002fc8       ??_C@_0BB@OEJB@update?9_relation?$AA@ 004e1fc8     Core:Core.obj
 0003:00002fdc       ??_C@_0BB@MEBM@update?$CL_relation?$AA@ 004e1fdc     Core:Core.obj
 0003:00002ff0       ??_C@_0BA@FED@update_property?$AA@ 004e1ff0     Core:Core.obj
 0003:00003000       ??_C@_0O@KEBO@put_property1?$AA@ 004e2000     Core:Core.obj
 0003:00003010       ??_C@_0BE@BCGC@range_is_wrong_slot?$AA@ 004e2010     Core:Core.obj
 0003:00003024       ??_C@_0P@OECJ@write_property?$AA@ 004e2024     Core:Core.obj
 0003:00003034       ??_C@_0P@BEPF@hold?$DP_property?$AA@ 004e2034     Core:Core.obj
 0003:00003044       ??_C@_0O@CBIP@read_property?$AA@ 004e2044     Core:Core.obj
 0003:00003054       ??_C@_0BB@PEBJ@funcall_property?$AA@ 004e2054     Core:Core.obj
 0003:00003068       ??_C@_0N@GOID@get_property?$AA@ 004e2068     Core:Core.obj
 0003:00003078       ??_C@_08LIPP@put_slot?$AA@ 004e2078     Core:Core.obj
 0003:00003084       ??_C@_08CLIF@get_slot?$AA@ 004e2084     Core:Core.obj
 0003:00003090       ??_C@_0BB@NPIG@inlineok?$DP_method?$AA@ 004e2090     Core:Core.obj
 0003:000030a4       ??_C@_0BH@FMD@self_eval_ClaireObject?$AA@ 004e20a4     Core:Core.obj
 0003:000030bc       ??_C@_08IDDE@eval_any?$AA@ 004e20bc     Core:Core.obj
 0003:000030c8       ??_C@_0P@CBLO@execute_method?$AA@ 004e20c8     Core:Core.obj
 0003:000030d8       ??_C@_0BJ@KAAB@noeval_message_property2?$AA@ 004e20d8     Core:Core.obj
 0003:000030f4       ??_C@_0BG@EDOF@eval_message_property?$AA@ 004e20f4     Core:Core.obj
 0003:0000310c       ??_C@_04HBMH@main?$AA@     004e210c     Core:Core.obj
 0003:00003114       ??_C@_0L@DPBP@find_which?$AA@ 004e2114     Core:Core.obj
 0003:00003120       ??_C@_07EKD@tmatch?$DP?$AA@ 004e2120     Core:Core.obj
 0003:00003128       ??_C@_07FJII@vmatch?$DP?$AA@ 004e2128     Core:Core.obj
 0003:00003130       ??_C@_09KAEA@matching?$DP?$AA@ 004e2130     Core:Core.obj
 0003:0000313c       ??_C@_09LPBN@put_store?$AA@ 004e213c     Core:Core.obj
 0003:00003148       ??_C@_09EKIN@set_range?$AA@ 004e2148     Core:Core.obj
 0003:00003154       ??_C@_05IACP@erase?$AA@    004e2154     Core:Core.obj
 0003:0000315c       ??_C@_08DCON@unknown?$DP?$AA@ 004e215c     Core:Core.obj
 0003:00003168       ??_C@_06DCOL@known?$DP?$AA@ 004e2168     Core:Core.obj
 0003:00003170       ??_C@_09CIKP@add_value?$AA@ 004e2170     Core:Core.obj
 0003:0000317c       ??_C@_07EBJP@update?9?$AA@ 004e217c     Core:Core.obj
 0003:00003184       ??_C@_07LOON@update?$CL?$AA@ 004e2184     Core:Core.obj
 0003:0000318c       ??_C@_0P@GJGI@range_is_wrong?$AA@ 004e218c     Core:Core.obj
 0003:0000319c       ??_C@_05DDNA@write?$AA@    004e219c     Core:Core.obj
 0003:000031a4       ??_C@_05OCDN@hold?$DP?$AA@ 004e21a4     Core:Core.obj
 0003:000031ac       ??_C@_0O@IDPP@restore_state?$AA@ 004e21ac     Core:Core.obj
 0003:000031bc       ??_C@_09MJIE@inlineok?$DP?$AA@ 004e21bc     Core:Core.obj
 0003:000031c8       ??_C@_09IJKK@self_eval?$AA@ 004e21c8     Core:Core.obj
 0003:000031d4       ??_C@_04CECG@eval?$AA@     004e21d4     Core:Core.obj
 0003:000031dc       ??_C@_0P@GDJ@noeval_message?$AA@ 004e21dc     Core:Core.obj
 0003:000031ec       ??_C@_0N@JAIK@eval_message?$AA@ 004e21ec     Core:Core.obj
 0003:000031fc       ??_C@_05FLHP@debug?$AA@    004e21fc     Core:Core.obj
 0003:00003204       ??_C@_07DACI@execute?$AA@  004e2204     Core:Core.obj
 0003:0000320c       ??_C@_06PFKC@lambda?$AA@   004e220c     Core:Core.obj
 0003:00003214       ??_C@_0BB@MNHO@ephemeral_object?$AA@ 004e2214     Core:Core.obj
 0003:00003228       ??_C@_07BPOH@version?$AA@  004e2228     Core:Core.obj
 0003:00003230       ??_C@_09KHEH@dimension?$AA@ 004e2230     Core:Core.obj
 0003:0000323c       ??_C@_04HIIB@vars?$AA@     004e223c     Core:Core.obj
 0003:00003244       ??_C@_0L@IMFK@make_table?$AA@ 004e2244     Core:Core.obj
 0003:00003250       ??_C@_04EAGN@atan?$AA@     004e2250     Core:Core.obj
 0003:00003258       ??_C@_04FKPE@new?$CB?$AA@  004e2258     Core:Core.obj
 0003:00003260       ??_C@_03BGKD@log?$AA@      004e2260     Core:Core.obj
 0003:00003264       ??_C@_0P@JFAC@make_copy_list?$AA@ 004e2264     Core:Core.obj
 0003:00003274       ??_C@_0P@PMKM@meet_arg_types?$AA@ 004e2274     Core:Core.obj
 0003:00003284       ??_C@_0BA@KEIK@second_arg_type?$AA@ 004e2284     Core:Core.obj
 0003:00003294       ??_C@_0P@NHJM@first_arg_type?$AA@ 004e2294     Core:Core.obj
 0003:000032a4       ??_C@_09BLJP@time_read?$AA@ 004e22a4     Core:Core.obj
 0003:000032b0       ??_C@_0L@NJMH@get_symbol?$AA@ 004e22b0     Core:Core.obj
 0003:000032bc       ??_C@_08JKCD@make_set?$AA@ 004e22bc     Core:Core.obj
 0003:000032c8       ??_C@_06MHN@update?$AA@    004e22c8     Core:Core.obj
 0003:000032d0       ??_C@_05NMLH@?$CFtype?$AA@ 004e22d0     Core:Core.obj
 0003:000032d8       ??_C@_09JMPC@complete?$CB?$AA@ 004e22d8     Core:Core.obj
 0003:000032e4       ??_C@_09JNHN@set_index?$AA@ 004e22e4     Core:Core.obj
 0003:000032f0       ??_C@_06MGGG@index?$CB?$AA@ 004e22f0     Core:Core.obj
 0003:000032f8       ??_C@_08PFOM@set_base?$AA@ 004e22f8     Core:Core.obj
 0003:00003304       ??_C@_05ENIP@base?$CB?$AA@ 004e2304     Core:Core.obj
 0003:0000330c       ??_C@_06MCLG@pbreak?$AA@   004e230c     Core:Core.obj
 0003:00003314       ??_C@_06CEGK@pprint?$AA@   004e2314     Core:Core.obj
 0003:0000331c       ??_C@_05PNBN@width?$AA@    004e231c     Core:Core.obj
 0003:00003324       ??_C@_09OCKF@cprevious?$AA@ 004e2324     Core:Core.obj
 0003:00003330       ??_C@_07MCJF@cpretty?$AA@  004e2330     Core:Core.obj
 0003:00003338       ??_C@_0L@BLMC@make_array?$AA@ 004e2338     Core:Core.obj
 0003:00003344       ??_C@_0BC@ILOE@insert_definition?$AA@ 004e2344     Core:Core.obj
 0003:00003358       ??_C@_04LMBE@sqrt?$AA@     004e2358     Core:Core.obj
 0003:00003360       ??_C@_03IDPP@new?$AA@      004e2360     Core:Core.obj
 0003:00003364       ??_C@_0O@OOML@abstract_type?$AA@ 004e2364     Core:Core.obj
 0003:00003374       ??_C@_03JDAH@the?$AA@      004e2374     Core:Core.obj
 0003:00003378       ??_C@_07BBKP@unique?$DP?$AA@ 004e2378     Core:Core.obj
 0003:00003380       ??_C@_04LNBK@Uall?$AA@     004e2380     Core:Core.obj
 0003:00003388       ??_C@_06IAGC@tuple?$CB?$AA@ 004e2388     Core:Core.obj
 0003:00003390       ??_C@_02OBEK@t2?$AA@       004e2390     Core:Core.obj
 0003:00003394       ??_C@_02BOPD@t1?$AA@       004e2394     Core:Core.obj
 0003:00003398       ??_C@_09LGJB@enumerate?$AA@ 004e2398     Core:Core.obj
 0003:000033a4       ??_C@_09EGL@get_value?$AA@ 004e23a4     Core:Core.obj
 0003:000033b0       ??_C@_04FBLA@Oid?$HO?$AA@  004e23b0     Core:Core.obj
 0003:000033b8       ??_C@_03CKAL@Oid?$AA@      004e23b8     Core:Core.obj
 0003:000033bc       ??_C@_07DPCC@Address?$AA@  004e23bc     Core:Core.obj
 0003:000033c4       ??_C@_06KAPE@member?$AA@   004e23c4     Core:Core.obj
 0003:000033cc       ??_C@_0L@DMMJ@of_extract?$AA@ 004e23cc     Core:Core.obj
 0003:000033d8       ??_C@_0L@EKL@difference?$AA@ 004e23d8     Core:Core.obj
 0003:000033e4       ??_C@_0P@MEB@build_powerset?$AA@ 004e23e4     Core:Core.obj
 0003:000033f4       ??_C@_09JLMA@quicksort?$AA@ 004e23f4     Core:Core.obj
 0003:00003400       ??_C@_04OBLM@sort?$AA@     004e2400     Core:Core.obj
 0003:00003408       ??_C@_08JJAJ@hashsize?$AA@ 004e2408     Core:Core.obj
 0003:00003414       ??_C@_08LMBP@hashlist?$AA@ 004e2414     Core:Core.obj
 0003:00003420       ??_C@_03FDGH@car?$AA@      004e2420     Core:Core.obj
 0003:00003424       ??_C@_06IPPA@rmlast?$AA@   004e2424     Core:Core.obj
 0003:0000342c       ??_C@_04ONL@last?$AA@      004e242c     Core:Core.obj
 0003:00003434       ??_C@_04BAHI@exit?$AA@     004e2434     Core:Core.obj
 0003:0000343c       ??_C@_03BOOH@?9?9?$DP?$AA@ 004e243c     Core:Core.obj
 0003:00003440       ??_C@_06OGMA@getenv?$AA@   004e2440     Core:Core.obj
 0003:00003448       ??_C@_05HPGN@shell?$AA@    004e2448     Core:Core.obj
 0003:00003450       ??_C@_07KMOP@externC?$AA@  004e2450     Core:Core.obj
 0003:00003458       ??_C@_0O@BAEK@make_function?$AA@ 004e2458     Core:Core.obj
 0003:00003468       ??_C@_03OEEH@not?$AA@      004e2468     Core:Core.obj
 0003:0000346c       ??_C@_0BC@ONJD@buffer_set_length?$AA@ 004e246c     Core:Core.obj
 0003:00003480       ??_C@_0O@NLKB@buffer_length?$AA@ 004e2480     Core:Core.obj
 0003:00003490       ??_C@_0BA@IBKH@print_in_string?$AA@ 004e2490     Core:Core.obj
 0003:000034a0       ??_C@_09CAFG@time_show?$AA@ 004e24a0     Core:Core.obj
 0003:000034ac       ??_C@_08BIPN@time_set?$AA@ 004e24ac     Core:Core.obj
 0003:000034b8       ??_C@_08HBMN@time_get?$AA@ 004e24b8     Core:Core.obj
 0003:000034c4       ??_C@_02BGDL@gc?$AA@       004e24c4     Core:Core.obj
 0003:000034c8       ??_C@_05DGKN@push?$CB?$AA@ 004e24c8     Core:Core.obj
 0003:000034d0       ??_C@_09BEBG@put_stack?$AA@ 004e24d0     Core:Core.obj
 0003:000034dc       ??_C@_09PNIF@get_stack?$AA@ 004e24dc     Core:Core.obj
 0003:000034e8       ??_C@_0P@MAHM@contradiction?$CB?$AA@ 004e24e8     Core:Core.obj
 0003:000034f8       ??_C@_07NIKG@tformat?$AA@  004e24f8     Core:Core.obj
 0003:00003500       ??_C@_06PMHG@format?$AA@   004e2500     Core:Core.obj
 0003:00003508       ??_C@_05HICB@wrong?$AA@    004e2508     Core:Core.obj
 0003:00003510       ??_C@_05BDBH@cause?$AA@    004e2510     Core:Core.obj
 0003:00003518       ??_C@_07LOOJ@methods?$AA@  004e2518     Core:Core.obj
 0003:00003520       ??_C@_07ODOA@domain?$CB?$AA@ 004e2520     Core:Core.obj
 0003:00003528       ??_C@_06ENJJ@invert?$AA@   004e2528     Core:Core.obj
 0003:00003530       ??_C@_0O@IDGH@check_inverse?$AA@ 004e2530     Core:Core.obj
 0003:00003540       ??_C@_06CCFK@pair_2?$AA@   004e2540     Core:Core.obj
 0003:00003548       ??_C@_06NNOD@pair_1?$AA@   004e2548     Core:Core.obj
 0003:00003550       ??_C@_02FECH@Id?$AA@       004e2550     Core:Core.obj
 0003:00003554       ??_C@_07FBEI@divide?$DP?$AA@ 004e2554     Core:Core.obj
 0003:0000355c       ??_C@_07CBFO@factor?$DP?$AA@ 004e255c     Core:Core.obj
 0003:00003564       ??_C@_09LANP@get_index?$AA@ 004e2564     Core:Core.obj
 0003:00003570       ??_C@_0L@LLCI@identical?$DP?$AA@ 004e2570     Core:Core.obj
 0003:0000357c       ??_C@_0M@GKFC@identified?$DP?$AA@ 004e257c     Core:Core.obj
 0003:00003588       ??_C@_01PJOB@?$CL?$AA@     004e2588     Core:Core.obj
 0003:0000358c       ??_C@_09MMFD@tr_indent?$AA@ 004e258c     Core:Core.obj
 0003:00003598       ??_C@_09PKNF@pop_debug?$AA@ 004e2598     Core:Core.obj
 0003:000035a4       ??_C@_0L@LLJC@push_debug?$AA@ 004e25a4     Core:Core.obj
 0003:000035b0       ??_C@_08IJBJ@get_args?$AA@ 004e25b0     Core:Core.obj
 0003:000035bc       ??_C@_05FNEB@about?$AA@    004e25bc     Core:Core.obj
 0003:000035c4       ??_C@_01KFMA@?$EA?$AA@     004e25c4     Core:Core.obj
 0003:000035c8       ??_C@_07FCDP@release?$AA@  004e25c8     Core:Core.obj
 0003:000035d0       ??_C@_03KFAP@spy?$AA@      004e25d0     Core:Core.obj
 0003:000035d4       ??_C@_09CIAN@call_step?$AA@ 004e25d4     Core:Core.obj
 0003:000035e0       ??_C@_07COHG@finite?$DP?$AA@ 004e25e0     Core:Core.obj
 0003:000035e8       ??_C@_05NAFO@apply?$AA@    004e25e8     Core:Core.obj
 0003:000035f0       ??_C@_0O@KGJO@end_of_string?$AA@ 004e25f0     Core:Core.obj
 0003:00003600       ??_C@_04LLHI@size?$AA@     004e2600     Core:Core.obj
 0003:00003608       ??_C@_06CBCL@param?$CB?$AA@ 004e2608     Core:Core.obj
 0003:00003610       ??_C@_07MPKK@hashget?$AA@  004e2610     Core:Core.obj
 0003:00003618       ??_C@_0L@MFJA@hashinsert?$AA@ 004e2618     Core:Core.obj
 0003:00003624       ??_C@_07PJKA@uniform?$AA@  004e2624     Core:Core.obj
 0003:0000362c       ??_C@_0L@OJAJ@initialize?$AA@ 004e262c     Core:Core.obj
 0003:00003638       ??_C@_08JGJP@check_in?$AA@ 004e2638     Core:Core.obj
 0003:00003644       ??_C@_05LOEC@owner?$AA@    004e2644     Core:Core.obj
 0003:0000364c       ??_C@_06PDMB@class?$CB?$AA@ 004e264c     Core:Core.obj
 0003:00003654       ??_C@_02HNCO@3?4?$AA@      004e2654     Core:object.obj
 0003:00003658       ??_C@_0BK@EFMD@FOR?5A?5PARTICULAR?5PURPOSE?6?$AA@ 004e2658     Core:object.obj
 0003:00003674       ??_C@_0EK@HGFN@WITHOUT?5LIMITATION?0?5THE?5IMPLIED?5@ 004e2674     Core:object.obj
 0003:000036c0       ??_C@_0EG@NKCE@THIS?5SOFTWARE?5IS?5PROVIDED?5AS?5IS?5@ 004e26c0     Core:object.obj
 0003:00003708       ??_C@_0CD@OBGO@explicit?5agreement?5of?5Yves?5Casea@ 004e2708     Core:object.obj
 0003:0000372c       ??_C@_0EE@OMDD@redistribution?5or?5resale?5in?5any?5@ 004e272c     Core:object.obj
 0003:00003770       ??_C@_0CC@PLLD@use?5in?5binary?5forms?5is?5permitted@ 004e2770     Core:object.obj
 0003:00003794       ??_C@_0DM@GECE@?5Copyright?5?$CIC?$CJ?51994?92001?5Yves?5Ca@ 004e2794     Core:object.obj
 0003:000037d0       ??_C@_0L@LIME@CLAIRE?5v3?4?$AA@ 004e27d0     Core:object.obj
 0003:000037dc       ??_C@_0BL@HBDN@stop?5as?5required?5in?5?$HOS?$CI?$HOA?$CJ?$AA@ 004e27dc     Core:object.obj
 0003:000037f8       ??_C@_02HHDK@?$CJ?6?$AA@   004e27f8     Core:object.obj
 0003:000037fc       ??_C@_01FIMD@?$FN?$AA@     004e27fc     Core:object.obj
 0003:00003800       ??_C@_02HCOD@?5?$FL?$AA@   004e2800     Core:object.obj
 0003:00003804       ??_C@_01FAFK@?$DO?$AA@     004e2804     Core:object.obj
 0003:00003808       ??_C@_01KPOD@?$DN?$AA@     004e2808     Core:object.obj
 0003:0000380c       ??_C@_02IIBJ@?3?$DN?$AA@   004e280c     Core:object.obj
 0003:00003810       ??_C@_01KHLB@?$FL?$AA@     004e2810     Core:object.obj
 0003:00003814       ??_C@_0BN@NCIF@?$FL134?$FN?5Cannot?5apply?5add?5to?5?$HOS?$AA@ 004e2814     Core:object.obj
 0003:00003834       ??_C@_0CE@CLGK@?$FL138?$FN?5the?5value?5?$HOS?$CI?$HOS?$CJ?5is?5unknow@ 004e2834     Core:object.obj
 0003:00003858       ??_C@_0CN@PNBM@?$FL135?$FN?5?$HOS?5does?5not?5belong?5to?5the?5@ 004e2858     Core:object.obj
 0003:00003888       ??_C@_0BE@PBFE@?$HOS?$CI?$HOS?$CJ?5is?5unknown?5?$CB?$AA@ 004e2888     Core:object.obj
 0003:0000389c       ??_C@_0DD@MLPJ@?$FL137?$FN?5?$HOS?5and?5?$HOS?5cannot?5be?5invers@ 004e289c     Core:object.obj
 0003:000038d0       ??_C@_0BN@HIEA@?$CK?$CK?$CK?$CK?5An?5error?5has?5occurred?4?6?$AA@ 004e28d0     Core:object.obj
 0003:000038f0       ??_C@_0N@ILFJ@?$CJ?5is?5unknown?$AA@ 004e28f0     Core:object.obj
 0003:00003900       ??_C@_0BI@NGF@?$CK?$CK?$CK?$CK?$FL138?$FN?5The?5value?5of?5?$AA@ 004e2900     Core:object.obj
 0003:00003918       ??_C@_02BGGP@?4?6?$AA@     004e2918     Core:object.obj
 0003:0000391c       ??_C@_0BG@IAJB@?5does?5not?5belong?$DP?5to?5?$AA@ 004e291c     Core:object.obj
 0003:00003934       ??_C@_0BA@OCOA@?3?5range?5error?0?5?$AA@ 004e2934     Core:object.obj
 0003:00003944       ??_C@_0L@LEMD@?$CK?$CK?$CK?$CK?$FL139?$FN?5?$AA@ 004e2944     Core:object.obj
 0003:00003950       ??_C@_0BK@BHKO@?5is?5a?5wrong?5arg?5list?5for?5?$AA@ 004e2950     Core:object.obj
 0003:0000396c       ??_C@_0L@NOMI@?$CK?$CK?$CK?$CK?$FL141?$FN?5?$AA@ 004e296c     Core:object.obj
 0003:00003978       ??_C@_03JGBJ@?$CJ?4?6?$AA@ 004e2978     Core:object.obj
 0003:0000397c       ??_C@_0CB@MHIL@?5is?5not?5defined?5?$CIwas?5applied?5to?5@ 004e297c     Core:object.obj
 0003:000039a0       ??_C@_0BE@MGNN@?$FL140?$FN?5The?5property?5?$AA@ 004e29a0     Core:object.obj
 0003:000039b4       ??_C@_0DK@OIJE@?$CK?$CK?$CK?$CK?$FL142?$FN?5return?5called?5outside?5@ 004e29b4     Core:object.obj
 0003:000039f0       ??_C@_0CE@FNKE@What?5the?5hell?5is?5this?5?$CB?5?$FLcode?3?5?$HO@ 004e29f0     Core:object.obj
 0003:00003a14       ??_C@_0BN@LPKF@C?$CL?$CL?5imported?5error?5?$CI?$HOS?$CJ?5?3?5?$HOS?$AA@ 004e2a14     Core:object.obj
 0003:00003a34       ??_C@_0BP@JPDA@Wrong?5array?$FL?$HOS?$FN?5init?5value?3?5?$HOS?$AA@ 004e2a34     Core:object.obj
 0003:00003a54       ??_C@_0BO@ONFH@wrong?5NTH?5access?5on?5?$HOS?5and?5?$HOS?$AA@ 004e2a54     Core:object.obj
 0003:00003a74       ??_C@_0CP@GMBD@integer?5multiplication?5overflow?5@ 004e2a74     Core:object.obj
 0003:00003aa4       ??_C@_0CA@KHHA@cannot?5convert?5?$HOS?5to?5an?5integer?$AA@ 004e2aa4     Core:object.obj
 0003:00003ac4       ??_C@_0BH@MPLM@Undefined?5access?5to?5?$HOS?$AA@ 004e2ac4     Core:object.obj
 0003:00003adc       ??_C@_0BE@CAEM@world?5stack?5is?5full?$AA@ 004e2adc     Core:object.obj
 0003:00003af0       ??_C@_0BE@DBJI@cannot?5open?5file?5?$HOA?$AA@ 004e2af0     Core:object.obj
 0003:00003b04       ??_C@_0CC@FAO@reading?5char?5?8?$HOS?8?3?5wrong?5char?3?5?$HO@ 004e2b04     Core:object.obj
 0003:00003b28       ??_C@_0CC@CFLA@User?5interrupt?3?5EXECUTION?5ABORTE@ 004e2b28     Core:object.obj
 0003:00003b4c       ??_C@_0CD@OEEA@Exception?5handling?3?5stack?5overfl@ 004e2b4c     Core:object.obj
 0003:00003b70       ??_C@_0CI@LDLF@Too?5many?5arguments?5?$CI?$HOS?$CJ?5for?5func@ 004e2b70     Core:object.obj
 0003:00003b98       ??_C@_0CD@PDKJ@External?5function?5not?5compiled?5y@ 004e2b98     Core:object.obj
 0003:00003bbc       ??_C@_0CE@HLKF@Attempt?5to?5read?5a?5private?5symbol@ 004e2bbc     Core:object.obj
 0003:00003be0       ??_C@_0BG@MHED@There?5is?5no?5module?5?$HOS?$AA@ 004e2be0     Core:object.obj
 0003:00003bf8       ??_C@_0DH@PKHF@the?5multivalued?5status?5of?5?$HOS?5is?5@ 004e2bf8     Core:object.obj
 0003:00003c30       ??_C@_0CL@LCCJ@internal?5garbage?5protection?5stac@ 004e2c30     Core:object.obj
 0003:00003c5c       ??_C@_0CB@FECP@Wrong?5usage?5of?5time?5counter?5?$FL?$HOA?$FN@ 004e2c5c     Core:object.obj
 0003:00003c80       ??_C@_0BN@NMPH@execution?5stack?5is?5full?5?$FL?$HOA?$FN?$AA@ 004e2c80     Core:object.obj
 0003:00003ca0       ??_C@_0CD@HCHN@Not?5enough?5memory?5to?5instal?5clai@ 004e2ca0     Core:object.obj
 0003:00003cc4       ??_C@_0DA@HKMM@Cannote?5create?5a?5string?5with?5neg@ 004e2cc4     Core:object.obj
 0003:00003cf4       ??_C@_0CK@LJML@Integer?5to?5character?3?5?$HOS?5is?5a?5wr@ 004e2cf4     Core:object.obj
 0003:00003d20       ??_C@_0CP@DOHJ@Integer?5arithmetic?3?5division?1mod@ 004e2d20     Core:object.obj
 0003:00003d50       ??_C@_0BB@BHDO@Integer?5overflow?$AA@ 004e2d50     Core:object.obj
 0003:00003d64       ??_C@_0DH@ICOG@definition?5of?5?$HOS?5is?5in?5conflict?5@ 004e2d64     Core:object.obj
 0003:00003d9c       ??_C@_0CJ@PJNF@Bag?5Type?5Error?3?5?$HOS?5cannot?5be?5add@ 004e2d9c     Core:object.obj
 0003:00003dc8       ??_C@_0CJ@CFAH@Temporary?5output?5string?5buffer?5t@ 004e2dc8     Core:object.obj
 0003:00003df4       ??_C@_0CF@LHIF@Cannot?5create?5a?5subclass?5for?5?$HOS?5@ 004e2df4     Core:object.obj
 0003:00003e1c       ??_C@_0BI@NFPG@Symbol?5Table?5table?5full?$AA@ 004e2e1c     Core:object.obj
 0003:00003e34       ??_C@_0CD@NCJF@nth_string?$FL?$HOS?$FN?3?5string?5too?5short@ 004e2e34     Core:object.obj
 0003:00003e58       ??_C@_0DF@OPOM@Cannot?5create?5an?5imported?5entity@ 004e2e58     Core:object.obj
 0003:00003e90       ??_C@_0BK@OIAC@String?5buffer?5is?5full?3?5?$HOS?$AA@ 004e2e90     Core:object.obj
 0003:00003eac       ??_C@_0CF@JODH@List?5operation?3?5cdr?$CI?$CI?$CJ?$CJ?5is?5undef@ 004e2eac     Core:object.obj
 0003:00003ed4       ??_C@_0CP@IBCK@Skip?5applied?5on?5?$HOS?5with?5a?5negati@ 004e2ed4     Core:object.obj
 0003:00003f04       ??_C@_0CA@BMGG@nth?$FL?$HOS?$FN?5outside?5of?5scope?5for?5?$HOS?$AA@ 004e2f04     Core:object.obj
 0003:00003f24       ??_C@_0DH@IKCF@object?5allocation?0?5too?5large?5for@ 004e2f24     Core:object.obj
 0003:00003f5c       ??_C@_0DI@HBHD@dynamic?5allocation?0?5too?5large?5fo@ 004e2f5c     Core:object.obj
 0003:00003f94       ??_C@_0CJ@HGAF@dynamic?5allocation?0?5item?5is?5too?5@ 004e2f94     Core:object.obj
 0003:00003fc0       ??_C@_0BA@CGAJ@?$FN?5has?5occured?3?6?$AA@ 004e2fc0     Core:object.obj
 0003:00003fd0       ??_C@_0BJ@PKGL@?$CK?$CK?$CK?$CK?5An?5internal?5error?5?$FL?$AA@ 004e2fd0     Core:object.obj
 0003:00003fec       ??_C@_0BN@FGLM@A?5contradiction?5has?5occured?4?$AA@ 004e2fec     Core:object.obj
 0003:0000400c       ??_C@_0BP@JGOH@?$FL143?$FN?5?$HOI?5not?5allowed?5in?5format?$AA@ 004e300c     Core:object.obj
 0003:0000402c       ??_C@_0DF@DBKC@?$FL123?$FN?5YOU?5ARE?5USING?5PRINT_in_str@ 004e302c     Core:function.obj
 0003:00004064       ??_C@_0O@JMGD@?$DMunprintable?3?$AA@ 004e3064     Core:function.obj
 0003:00004074       ??_C@_01FHE@?$DM?$AA@      004e3074     Core:function.obj
 0003:00004078       ??_C@_07CAMD@unknown?$AA@  004e3078     Core:function.obj
 0003:00004080       ??_C@_05NAGO@false?$AA@    004e3080     Core:function.obj
 0003:00004088       ??_C@_04NCCD@true?$AA@     004e3088     Core:function.obj
 0003:00004090       ??_C@_02OJKI@?$CD?8?$AA@   004e3090     Core:function.obj
 0003:00004094       ??_C@_03LKJA@?5?$EA?5?$AA@ 004e3094     Core:function.obj
 0003:00004098       ??_C@_0DD@GMI@?$FL124?$FN?5the?5value?5?$HOS?5does?5not?5belo@ 004e3098     Core:function.obj
 0003:000040cc       ??_C@_0DD@NKFD@?$FL124?$FN?5the?5value?5?$HOS?5does?5not?5belo@ 004e30cc     Core:function.obj
 0003:00004100       ??_C@_0DD@KBCF@?$FL187?$FN?5cannot?5declare?5?$HOS?5as?5ephem@ 004e3100     Core:function.obj
 0003:00004134       ??_C@_0CL@EKGJ@?$FL125?$FN?5ephemeral?5classes?5cannot?5b@ 004e3134     Core:function.obj
 0003:00004160       ??_C@_0CP@JFB@?$FL126?$FN?5ephemeral?5classes?5cannot?5b@ 004e3160     Core:function.obj
 0003:00004190       ??_C@_0BM@NFPJ@?$FL105?$FN?5cannot?5instantiate?5?$HOS?$AA@ 004e3190     Core:function.obj
 0003:000041ac       ??_C@_0CH@FHHJ@?$FL127?$FN?5?$HOS?5can?5no?5longer?5become?5ab@ 004e31ac     Core:function.obj
 0003:000041d4       ??_C@_01KCMF@g?$AA@        004e31d4     Core:function.obj
 0003:000041d8       ??_C@_0BK@KDII@cannot?5execute?5C?5code?3?5?$HOA?$AA@ 004e31d8     Core:function.obj
 0003:000041f4       ??_C@_0BC@NPJF@cannot?5execute?5?$HOA?$AA@ 004e31f4     Core:function.obj
 0003:00004208       ??_C@_0BF@CIOB@Buffer?5string?5access?$AA@ 004e3208     Core:function.obj
 0003:00004220       ??_C@_01FDLN@?1?$AA@       004e3220     Core:function.obj
 0003:00004224       ??_C@_0CB@FIDD@?$FL41?$FN?5nth?$FL?$HOS?$FN?5out?5of?5scope?5for?5?$HOS@ 004e3224     Core:function.obj
 0003:00004248       ??_C@_0CE@NLHF@?$FL183?$FN?5min?5of?5empty?5set?5is?5undefi@ 004e3248     Core:function.obj
 0003:0000426c       ??_C@_0CE@FPDK@?$FL183?$FN?5max?5of?5empty?5set?5is?5undefi@ 004e326c     Core:function.obj
 0003:00004290       ??_C@_0BL@HJGC@?$FL41?$FN?5car?$CInil?$CJ?5is?5undefined?$AA@ 004e3290     Core:function.obj
 0003:000042ac       ??_C@_0BM@OPEO@nth?$FL?$HOS?$FN?5out?5of?5scope?5for?5?$HOS?$AA@ 004e32ac     Core:function.obj
 0003:000042c8       ??_C@_0CG@NOOD@type?5mismatch?5for?5array?5update?5?$HO@ 004e32c8     Core:function.obj
 0003:000042f0       ??_C@_02NKOB@?$DO?$FL?$AA@ 004e32f0     Core:function.obj
 0003:000042f4       ??_C@_06MBLD@array?$DM?$AA@ 004e32f4     Core:function.obj
 0003:000042fc       ??_C@_01HAF@?8?$AA@        004e32fc     Core:function.obj
 0003:00004300       ??_C@_04PDBK@?$CJ?5?$DN?5?$AA@ 004e3300     Core:method.obj
 0003:00004308       ??_C@_06KBKL@read?3?5?$AA@ 004e3308     Core:method.obj
 0003:00004310       ??_C@_0DA@HNOK@?9?9?9?9?5WARNING?3?5inline?5definition?5@ 004e3310     Core:method.obj
 0003:00004340       ??_C@_0BL@KOFH@?$FL132?$FN?5Cannot?5change?5?$HOS?$CI?$HOS?$CJ?$AA@ 004e3340     Core:method.obj
 0003:0000435c       ??_C@_0EF@MOME@are?5you?5still?5using?5this?5dead?5th@ 004e335c     Core:method.obj
 0003:000043a4       ??_C@_0CI@BLHH@?$FL133?$FN?5Inversion?5of?5?$HOS?$CI?$HOS?0?$HOS?$CJ?5imp@ 004e33a4     Core:method.obj
 0003:000043cc       ??_C@_0BE@MCFJ@insert?5?$HOS?5into?5?$HOS?5?6?$AA@ 004e33cc     Core:method.obj
 0003:000043e0       ??_C@_0DL@CCGF@Cannot?5create?5a?5non?9uniform?5rest@ 004e33e0     Core:method.obj
 0003:0000441c       ??_C@_0BK@INKN@?$HOS?5and?5?$HOS?5are?5conflicting?$AA@ 004e341c     Core:method.obj
 0003:00004438       ??_C@_0BB@MDAB@hashinsert?$CI?$HOS?$CJ?5?6?$AA@ 004e3438     Core:method.obj
 0003:0000444c       ??_C@_0BK@JOGI@?$FL178?$FN?5cannot?5enumerate?5?$HOS?$AA@ 004e344c     Core:types.obj
 0003:00004468       ??_C@_01KMMP@?$CJ?$AA@     004e3468     Core:types.obj
 0003:0000446c       ??_C@_03JMDJ@?5U?5?$AA@    004e346c     Core:types.obj
 0003:00004470       ??_C@_04NBEM@?5?4?4?5?$AA@ 004e3470     Core:types.obj
 0003:00004478       ??_C@_0CH@POGK@?$FL182?$FN?5the?5interval?5?$CI?$HOS?5?9?9?5?$HOS?$CJ?5is@ 004e3478     Core:types.obj
 0003:000044a0       ??_C@_02CBKC@?3?$CI?$AA@   004e34a0     Core:types.obj
 0003:000044a4       ??_C@_02GIEM@?0?5?$AA@     004e34a4     Core:types.obj
 0003:000044a8       ??_C@_08PAKM@subtype?$FL?$AA@ 004e34a8     Core:types.obj
 0003:000044b4       ??_C@_0CC@BFED@?$FL177?$FN?5subtyping?5of?5?$HOS?5not?5allowe@ 004e34b4     Core:types.obj
 0003:000044d8       ??_C@_0DF@IPLO@?$FL177?$FN?5the?5subtyping?5expression?5?$HO@ 004e34d8     Core:types.obj
 0003:00004510       ??_C@_03IMP@?$FN?$CJ?$DO?$AA@ 004e3510     Core:types.obj
 0003:00004514       ??_C@_07NINM@?$CIltype?$FL?$AA@ 004e3514     Core:types.obj
 0003:0000451c       ??_C@_05EJDP@?$DMref?3?$AA@ 004e351c     Core:types.obj
 0003:00004524       ??_C@_0CC@CBDL@?$FL179?$FN?5?$CI?$HOS?5?$CF?5?$HOS?$CJ?3?5not?5implemented@ 004e3524     Core:types.obj
 0003:00004548       ??_C@_0CC@PKPH@?$FL180?$FN?5nth?$FL?$HOS?$FN?5out?5of?5scope?5for?5?$HO@ 004e3548     Core:types.obj
 0003:0000456c       ??_C@_0BA@IEJP@interface_class?$AA@ 004e356c     Language:Language.obj
 0003:0000457c       ??_C@_0BD@EPOL@interface_property?$AA@ 004e357c     Language:Language.obj
 0003:00004590       ??_C@_09IHFO@interface?$AA@ 004e3590     Language:Language.obj
 0003:0000459c       ??_C@_0O@OKDA@InterfaceList?$AA@ 004e359c     Language:Language.obj
 0003:000045ac       ??_C@_0BF@DLKL@eventMethod_property?$AA@ 004e35ac     Language:Language.obj
 0003:000045c4       ??_C@_0BH@LLGL@eval_if_write_relation?$AA@ 004e35c4     Language:Language.obj
 0003:000045dc       ??_C@_0BC@JEHL@putCall_relation2?$AA@ 004e35dc     Language:Language.obj
 0003:000045f0       ??_C@_0BC@HMCG@readCall_relation?$AA@ 004e35f0     Language:Language.obj
 0003:00004604       ??_C@_0BE@NKLE@make_demon_relation?$AA@ 004e3604     Language:Language.obj
 0003:00004618       ??_C@_0BA@CHFP@make_filter_any?$AA@ 004e3618     Language:Language.obj
 0003:00004628       ??_C@_0BB@GNMK@make_filter_any_?$AA@ 004e3628     Language:Language.obj
 0003:0000463c       ??_C@_0BH@JLPC@eventMethod?$DP_relation2?$AA@ 004e363c     Language:Language.obj
 0003:00004654       ??_C@_0BC@IIOO@self_eval_Defrule?$AA@ 004e3654     Language:Language.obj
 0003:00004668       ??_C@_09ECPC@eval_rule?$AA@ 004e3668     Language:Language.obj
 0003:00004674       ??_C@_09KLKJ@last_rule?$AA@ 004e3674     Language:Language.obj
 0003:00004680       ??_C@_09GGFA@relations?$AA@ 004e3680     Language:Language.obj
 0003:0000468c       ??_C@_0M@LLDI@rule_object?$AA@ 004e368c     Language:Language.obj
 0003:00004698       ??_C@_02FGJG@?$DM?9?$AA@   004e3698     Language:Language.obj
 0003:0000469c       ??_C@_06DGJA@demons?$AA@   004e369c     Language:Language.obj
 0003:000046a4       ??_C@_0P@ECGM@funcall_demon2?$AA@ 004e36a4     Language:Language.obj
 0003:000046b4       ??_C@_0P@LNNF@funcall_demon1?$AA@ 004e36b4     Language:Language.obj
 0003:000046c4       ??_C@_0BB@KLIN@self_print_demon?$AA@ 004e36c4     Language:Language.obj
 0003:000046d8       ??_C@_06HBLM@unamed?$AA@   004e36d8     Language:Language.obj
 0003:000046e0       ??_C@_05HJCM@demon?$AA@    004e36e0     Language:Language.obj
 0003:000046e8       ??_C@_0BD@MJHB@self_eval_Defarray?$AA@ 004e36e8     Language:Language.obj
 0003:000046fc       ??_C@_09PIM@type?$CB_any?$AA@ 004e36fc     Language:Language.obj
 0003:00004708       ??_C@_0BD@DCLJ@extract_status_any?$AA@ 004e3708     Language:Language.obj
 0003:0000471c       ??_C@_0BF@GJEI@bit_vector_listargs2?$AA@ 004e371c     Language:Language.obj
 0003:00004734       ??_C@_0L@IHM@bit_vector?$AA@ 004e3734     Language:Language.obj
 0003:00004740       ??_C@_07PEKM@SAFE_GC?$AA@  004e3740     Language:Language.obj
 0003:00004748       ??_C@_0M@MFPH@SAFE_RESULT?$AA@ 004e3748     Language:Language.obj
 0003:00004754       ??_C@_0L@PBPG@RETURN_ARG?$AA@ 004e3754     Language:Language.obj
 0003:00004760       ??_C@_0M@MBNA@SLOT_UPDATE?$AA@ 004e3760     Language:Language.obj
 0003:0000476c       ??_C@_0L@GOLI@BAG_UPDATE?$AA@ 004e376c     Language:Language.obj
 0003:00004778       ??_C@_09KHMP@NEW_ALLOC?$AA@ 004e3778     Language:Language.obj
 0003:00004784       ??_C@_0BC@JHJI@extract_range_any?$AA@ 004e3784     Language:Language.obj
 0003:00004798       ??_C@_0BJ@OHEE@extract_class_call_class?$AA@ 004e3798     Language:Language.obj
 0003:000047b4       ??_C@_0BJ@FEJL@extract_pattern_nth_list?$AA@ 004e37b4     Language:Language.obj
 0003:000047d0       ??_C@_0BB@HLPI@extract_item_any?$AA@ 004e37d0     Language:Language.obj
 0003:000047e4       ??_C@_0BB@KIJH@extract_type_any?$AA@ 004e37e4     Language:Language.obj
 0003:000047f8       ??_C@_0BE@IMP@extract_pattern_any?$AA@ 004e37f8     Language:Language.obj
 0003:0000480c       ??_C@_0BH@IIJL@extract_signature_list?$AA@ 004e380c     Language:Language.obj
 0003:00004824       ??_C@_0BD@OEKN@attach_comment_any?$AA@ 004e3824     Language:Language.obj
 0003:00004838       ??_C@_0BE@CAIC@self_eval_Defmethod?$AA@ 004e3838     Language:Language.obj
 0003:0000484c       ??_C@_04JKLK@LDEF?$AA@     004e384c     Language:Language.obj
 0003:00004854       ??_C@_0BD@LIFN@self_eval_Defclass?$AA@ 004e3854     Language:Language.obj
 0003:00004868       ??_C@_0BB@FKGG@self_eval_Defobj?$AA@ 004e3868     Language:Language.obj
 0003:0000487c       ??_C@_0BA@MEOA@complete_object?$AA@ 004e387c     Language:Language.obj
 0003:0000488c       ??_C@_08IFCJ@complete?$AA@ 004e388c     Language:Language.obj
 0003:00004898       ??_C@_0BF@OJH@self_eval_Definition?$AA@ 004e3898     Language:Language.obj
 0003:000048b0       ??_C@_0BL@CNBA@self_print_Defvar_Language?$AA@ 004e38b0     Language:Language.obj
 0003:000048cc       ??_C@_06FKKN@Defvar?$AA@   004e38cc     Language:Language.obj
 0003:000048d4       ??_C@_0BM@PLPC@self_print_Defrule_Language?$AA@ 004e38d4     Language:Language.obj
 0003:000048f0       ??_C@_07LHML@Defrule?$AA@  004e38f0     Language:Language.obj
 0003:000048f8       ??_C@_0BN@EGFE@self_print_Defarray_Language?$AA@ 004e38f8     Language:Language.obj
 0003:00004918       ??_C@_08KOEO@Defarray?$AA@ 004e3918     Language:Language.obj
 0003:00004924       ??_C@_0BO@FDGB@self_print_Defmethod_Language?$AA@ 004e3924     Language:Language.obj
 0003:00004944       ??_C@_09GNOF@Defmethod?$AA@ 004e3944     Language:Language.obj
 0003:00004950       ??_C@_0BN@IMJ@self_print_Defclass_Language?$AA@ 004e3950     Language:Language.obj
 0003:00004970       ??_C@_08NPGC@Defclass?$AA@ 004e3970     Language:Language.obj
 0003:0000497c       ??_C@_0BL@EMKA@self_print_Defobj_Language?$AA@ 004e397c     Language:Language.obj
 0003:00004998       ??_C@_06HPFD@Defobj?$AA@   004e3998     Language:Language.obj
 0003:000049a0       ??_C@_0BP@CPDJ@self_print_Definition_Language?$AA@ 004e39a0     Language:Language.obj
 0003:000049c0       ??_C@_0L@CANK@Definition?$AA@ 004e39c0     Language:Language.obj
 0003:000049cc       ??_C@_09JCGM@Defclaire?$AA@ 004e39cc     Language:Language.obj
 0003:000049d8       ??_C@_0M@JNOF@NeedComment?$AA@ 004e39d8     Language:Language.obj
 0003:000049e4       ??_C@_0M@FMCI@LastComment?$AA@ 004e39e4     Language:Language.obj
 0003:000049f0       ??_C@_09OGOO@function?$CB?$AA@ 004e39f0     Language:Language.obj
 0003:000049fc       ??_C@_0N@JEFJ@extract_item?$AA@ 004e39fc     Language:Language.obj
 0003:00004a0c       ??_C@_0BB@KOCF@self_eval_Branch?$AA@ 004e3a0c     Language:Language.obj
 0003:00004a20       ??_C@_0BB@OCHM@self_eval_Assert?$AA@ 004e3a20     Language:Language.obj
 0003:00004a34       ??_C@_06MHEJ@Assert?$AA@   004e3a34     Language:Language.obj
 0003:00004a3c       ??_C@_0BA@HJLC@self_eval_Trace?$AA@ 004e3a3c     Language:Language.obj
 0003:00004a4c       ??_C@_05EMFM@Trace?$AA@    004e3a4c     Language:Language.obj
 0003:00004a54       ??_C@_0BB@FFMB@self_eval_Printf?$AA@ 004e3a54     Language:Language.obj
 0003:00004a68       ??_C@_0BA@BPPI@self_eval_Error?$AA@ 004e3a68     Language:Language.obj
 0003:00004a78       ??_C@_0BB@FIIH@self_eval_Macro2?$AA@ 004e3a78     Language:Language.obj
 0003:00004a8c       ??_C@_0M@OFFA@macroexpand?$AA@ 004e3a8c     Language:Language.obj
 0003:00004a98       ??_C@_05MGJ@Macro?$AA@     004e3a98     Language:Language.obj
 0003:00004aa0       ??_C@_0BB@PLEI@self_eval_Array2?$AA@ 004e3aa0     Language:Language.obj
 0003:00004ab4       ??_C@_0BA@CEHB@self_eval_Tuple?$AA@ 004e3ab4     Language:Language.obj
 0003:00004ac4       ??_C@_0O@NPEM@self_eval_Set?$AA@ 004e3ac4     Language:Language.obj
 0003:00004ad4       ??_C@_0P@NKGG@self_eval_List?$AA@ 004e3ad4     Language:Language.obj
 0003:00004ae4       ??_C@_0BO@OGMB@self_print_Construct_Language?$AA@ 004e3ae4     Language:Language.obj
 0003:00004b04       ??_C@_06ILBA@Branch?$AA@   004e3b04     Language:Language.obj
 0003:00004b0c       ??_C@_05CKBG@Error?$AA@    004e3b0c     Language:Language.obj
 0003:00004b14       ??_C@_06HAPE@Printf?$AA@   004e3b14     Language:Language.obj
 0003:00004b1c       ??_C@_05MDCJ@Array?$AA@    004e3b1c     Language:Language.obj
 0003:00004b24       ??_C@_03JFAA@Set?$AA@      004e3b24     Language:Language.obj
 0003:00004b28       ??_C@_05BBJP@Tuple?$AA@    004e3b28     Language:Language.obj
 0003:00004b30       ??_C@_04DECM@List?$AA@     004e3b30     Language:Language.obj
 0003:00004b38       ??_C@_09JNNL@Construct?$AA@ 004e3b38     Language:Language.obj
 0003:00004b44       ??_C@_0BB@KOJK@self_eval_Handle?$AA@ 004e3b44     Language:Language.obj
 0003:00004b58       ??_C@_0BL@HKGB@self_print_Handle_Language?$AA@ 004e3b58     Language:Language.obj
 0003:00004b74       ??_C@_06ILKP@Handle?$AA@   004e3b74     Language:Language.obj
 0003:00004b7c       ??_C@_0BA@OIHM@self_eval_While?$AA@ 004e3b7c     Language:Language.obj
 0003:00004b8c       ??_C@_0BK@LBBN@self_print_While_Language?$AA@ 004e3b8c     Language:Language.obj
 0003:00004ba8       ??_C@_05NNJC@While?$AA@    004e3ba8     Language:Language.obj
 0003:00004bb0       ??_C@_0P@JJBK@self_eval_Case?$AA@ 004e3bb0     Language:Language.obj
 0003:00004bc0       ??_C@_0BJ@FMJI@self_print_Case_Language?$AA@ 004e3bc0     Language:Language.obj
 0003:00004bdc       ??_C@_04HHFA@Case?$AA@     004e3bdc     Language:Language.obj
 0003:00004be4       ??_C@_0BB@IPKL@self_eval_Exists?$AA@ 004e3be4     Language:Language.obj
 0003:00004bf8       ??_C@_0BL@EJJJ@self_print_Exists_Language?$AA@ 004e3bf8     Language:Language.obj
 0003:00004c14       ??_C@_06KKJO@Exists?$AA@   004e3c14     Language:Language.obj
 0003:00004c1c       ??_C@_0BC@GNDP@self_eval_Lselect?$AA@ 004e3c1c     Language:Language.obj
 0003:00004c30       ??_C@_0BM@KGJC@self_print_Lselect_Language?$AA@ 004e3c30     Language:Language.obj
 0003:00004c4c       ??_C@_07FCBK@Lselect?$AA@  004e3c4c     Language:Language.obj
 0003:00004c54       ??_C@_0BB@KILI@self_eval_Select?$AA@ 004e3c54     Language:Language.obj
 0003:00004c68       ??_C@_0BL@POMF@self_print_Select_Language?$AA@ 004e3c68     Language:Language.obj
 0003:00004c84       ??_C@_06ININ@Select?$AA@   004e3c84     Language:Language.obj
 0003:00004c8c       ??_C@_0BA@IFNI@self_eval_Image?$AA@ 004e3c8c     Language:Language.obj
 0003:00004c9c       ??_C@_0BK@GHAH@self_print_Image_Language?$AA@ 004e3c9c     Language:Language.obj
 0003:00004cb8       ??_C@_05LADG@Image?$AA@    004e3cb8     Language:Language.obj
 0003:00004cc0       ??_C@_0BC@NAPG@self_eval_Collect?$AA@ 004e3cc0     Language:Language.obj
 0003:00004cd4       ??_C@_0BM@NKJG@self_print_Collect_Language?$AA@ 004e3cd4     Language:Language.obj
 0003:00004cf0       ??_C@_07OPND@Collect?$AA@  004e3cf0     Language:Language.obj
 0003:00004cf8       ??_C@_0O@IDBJ@self_eval_For?$AA@ 004e3cf8     Language:Language.obj
 0003:00004d08       ??_C@_0BI@COHG@self_print_For_Language?$AA@ 004e3d08     Language:Language.obj
 0003:00004d20       ??_C@_03MJFF@For?$AA@      004e3d20     Language:Language.obj
 0003:00004d24       ??_C@_07MOKF@Iterate?$AA@  004e3d24     Language:Language.obj
 0003:00004d2c       ??_C@_07BMBB@iterate?$AA@  004e3d2c     Language:Language.obj
 0003:00004d34       ??_C@_09MBMD@Iteration?$AA@ 004e3d34     Language:Language.obj
 0003:00004d40       ??_C@_0BJ@GCDM@self_print_Let?$CK_Language?$AA@ 004e3d40     Language:Language.obj
 0003:00004d5c       ??_C@_0BJ@ONPO@self_print_Let?$CL_Language?$AA@ 004e3d5c     Language:Language.obj
 0003:00004d78       ??_C@_04CKOM@Let?$CK?$AA@  004e3d78     Language:Language.obj
 0003:00004d80       ??_C@_04IAHL@Let?$CL?$AA@  004e3d80     Language:Language.obj
 0003:00004d88       ??_C@_0P@CNIH@self_eval_When?$AA@ 004e3d88     Language:Language.obj
 0003:00004d98       ??_C@_0BJ@DEMH@self_print_When_Language?$AA@ 004e3d98     Language:Language.obj
 0003:00004db4       ??_C@_04MDMN@When?$AA@     004e3db4     Language:Language.obj
 0003:00004dbc       ??_C@_0O@NAPC@self_eval_Let?$AA@ 004e3dbc     Language:Language.obj
 0003:00004dcc       ??_C@_0O@HFCJ@printbody_Let?$AA@ 004e3dcc     Language:Language.obj
 0003:00004ddc       ??_C@_0BI@DLBL@self_print_Let_Language?$AA@ 004e3ddc     Language:Language.obj
 0003:00004df4       ??_C@_03JKLO@Let?$AA@      004e3df4     Language:Language.obj
 0003:00004df8       ??_C@_0N@EKCA@self_eval_Do?$AA@ 004e3df8     Language:Language.obj
 0003:00004e08       ??_C@_0P@CDGG@printblock_any?$AA@ 004e3e08     Language:Language.obj
 0003:00004e18       ??_C@_0N@CHDI@printdo_list?$AA@ 004e3e18     Language:Language.obj
 0003:00004e28       ??_C@_0BH@DN@self_print_Do_Language?$AA@ 004e3e28     Language:Language.obj
 0003:00004e40       ??_C@_02GHC@Do?$AA@        004e3e40     Language:Language.obj
 0003:00004e44       ??_C@_0N@ENFL@self_eval_If?$AA@ 004e3e44     Language:Language.obj
 0003:00004e54       ??_C@_0N@GJPG@printelse_If?$AA@ 004e3e54     Language:Language.obj
 0003:00004e64       ??_C@_0M@BBPB@printif_any?$AA@ 004e3e64     Language:Language.obj
 0003:00004e70       ??_C@_0N@KCLO@printstat_If?$AA@ 004e3e70     Language:Language.obj
 0003:00004e80       ??_C@_0BH@OFCD@self_print_If_Language?$AA@ 004e3e80     Language:Language.obj
 0003:00004e98       ??_C@_02BAJ@If?$AA@        004e3e98     Language:Language.obj
 0003:00004e9c       ??_C@_0BF@CHAN@instruction_copy_any?$AA@ 004e3e9c     Language:Language.obj
 0003:00004eb4       ??_C@_0P@JHFI@occurrence_any?$AA@ 004e3eb4     Language:Language.obj
 0003:00004ec4       ??_C@_0BB@HFKM@substitution_any?$AA@ 004e3ec4     Language:Language.obj
 0003:00004ed8       ??_C@_0BB@LHCG@self_eval_Return?$AA@ 004e3ed8     Language:Language.obj
 0003:00004eec       ??_C@_0BL@KALN@self_print_Return_Language?$AA@ 004e3eec     Language:Language.obj
 0003:00004f08       ??_C@_06JCBD@Return?$AA@   004e3f08     Language:Language.obj
 0003:00004f10       ??_C@_0P@JKPN@self_eval_Cast?$AA@ 004e3f10     Language:Language.obj
 0003:00004f20       ??_C@_0BJ@CPHO@self_print_Cast_Language?$AA@ 004e3f20     Language:Language.obj
 0003:00004f3c       ??_C@_04HELH@Cast?$AA@     004e3f3c     Language:Language.obj
 0003:00004f44       ??_C@_0BA@BLOA@self_eval_Super?$AA@ 004e3f44     Language:Language.obj
 0003:00004f54       ??_C@_0BK@IILP@self_print_Super_Language?$AA@ 004e3f54     Language:Language.obj
 0003:00004f70       ??_C@_05COAO@Super?$AA@    004e3f70     Language:Language.obj
 0003:00004f78       ??_C@_0BB@JNEM@self_eval_Update?$AA@ 004e3f78     Language:Language.obj
 0003:00004f8c       ??_C@_0BL@CHHG@self_print_Update_Language?$AA@ 004e3f8c     Language:Language.obj
 0003:00004fa8       ??_C@_06LIHJ@Update?$AA@   004e3fa8     Language:Language.obj
 0003:00004fb0       ??_C@_0BF@KGDA@self_eval_Call_table?$AA@ 004e3fb0     Language:Language.obj
 0003:00004fc8       ??_C@_0BP@PNII@self_print_Call_table_Language?$AA@ 004e3fc8     Language:Language.obj
 0003:00004fe8       ??_C@_0L@IIHN@Call_table?$AA@ 004e3fe8     Language:Language.obj
 0003:00004ff4       ??_C@_0BF@DBKI@self_eval_Call_array?$AA@ 004e3ff4     Language:Language.obj
 0003:0000500c       ??_C@_0BP@ELLL@self_print_Call_array_Language?$AA@ 004e400c     Language:Language.obj
 0003:0000502c       ??_C@_0L@BPOF@Call_array?$AA@ 004e402c     Language:Language.obj
 0003:00005038       ??_C@_0BE@KPON@self_eval_Call_slot?$AA@ 004e4038     Language:Language.obj
 0003:0000504c       ??_C@_0BO@NFIH@self_print_Call_slot_Language?$AA@ 004e404c     Language:Language.obj
 0003:0000506c       ??_C@_09OCIK@Call_slot?$AA@ 004e406c     Language:Language.obj
 0003:00005078       ??_C@_0BH@PJDH@self_eval_Call_method2?$AA@ 004e4078     Language:Language.obj
 0003:00005090       ??_C@_0N@NMPL@Call_method2?$AA@ 004e4090     Language:Language.obj
 0003:000050a0       ??_C@_0BH@GIO@self_eval_Call_method1?$AA@ 004e40a0     Language:Language.obj
 0003:000050b8       ??_C@_0N@CDEC@Call_method1?$AA@ 004e40b8     Language:Language.obj
 0003:000050c8       ??_C@_0BG@IJHK@self_eval_Call_method?$AA@ 004e40c8     Language:Language.obj
 0003:000050e0       ??_C@_0CA@POGM@self_print_Call_method_Language?$AA@ 004e40e0     Language:Language.obj
 0003:00005100       ??_C@_0M@EFFE@Call_method?$AA@ 004e4100     Language:Language.obj
 0003:0000510c       ??_C@_0BG@LNGF@Optimized_instruction?$AA@ 004e410c     Language:Language.obj
 0003:00005124       ??_C@_0BA@NEIC@self_eval_Quote?$AA@ 004e4124     Language:Language.obj
 0003:00005134       ??_C@_0BK@GJGM@self_print_Quote_Language?$AA@ 004e4134     Language:Language.obj
 0003:00005150       ??_C@_05OBGM@Quote?$AA@    004e4150     Language:Language.obj
 0003:00005158       ??_C@_0N@DJII@self_eval_Or?$AA@ 004e4158     Language:Language.obj
 0003:00005168       ??_C@_0BH@FJCO@self_print_Or_Language?$AA@ 004e4168     Language:Language.obj
 0003:00005180       ??_C@_02HFNK@Or?$AA@       004e4180     Language:Language.obj
 0003:00005184       ??_C@_0O@HNNA@self_eval_And?$AA@ 004e4184     Language:Language.obj
 0003:00005194       ??_C@_0BI@BJMF@self_print_And_Language?$AA@ 004e4194     Language:Language.obj
 0003:000051ac       ??_C@_03DHJM@And?$AA@      004e41ac     Language:Language.obj
 0003:000051b0       ??_C@_0BC@HGEI@self_eval_Gassign?$AA@ 004e41b0     Language:Language.obj
 0003:000051c4       ??_C@_0BM@GFLH@self_print_Gassign_Language?$AA@ 004e41c4     Language:Language.obj
 0003:000051e0       ??_C@_07EJGN@Gassign?$AA@  004e41e0     Language:Language.obj
 0003:000051e8       ??_C@_0BB@LENM@self_eval_Assign?$AA@ 004e41e8     Language:Language.obj
 0003:000051fc       ??_C@_0BL@FBLC@self_print_Assign_Language?$AA@ 004e41fc     Language:Language.obj
 0003:00005218       ??_C@_06JBOJ@Assign?$AA@   004e4218     Language:Language.obj
 0003:00005220       ??_C@_0L@GMAK@sugar?$DP_any?$AA@ 004e4220     Language:Language.obj
 0003:0000522c       ??_C@_0L@MIMD@printe_any?$AA@ 004e422c     Language:Language.obj
 0003:00005238       ??_C@_0BA@HBDI@self_eval_Call?$CL?$AA@ 004e4238     Language:Language.obj
 0003:00005248       ??_C@_0P@NJJN@self_eval_Call?$AA@ 004e4248     Language:Language.obj
 0003:00005258       ??_C@_0BK@JLAB@self_print_Call?$CL_Language?$AA@ 004e4258     Language:Language.obj
 0003:00005274       ??_C@_0BJ@MEGF@self_print_Call_Language?$AA@ 004e4274     Language:Language.obj
 0003:00005290       ??_C@_05EENG@Call?$CL?$AA@ 004e4290     Language:Language.obj
 0003:00005298       ??_C@_05OOEB@Call?$CK?$AA@ 004e4298     Language:Language.obj
 0003:000052a0       ??_C@_04DHNH@Call?$AA@     004e42a0     Language:Language.obj
 0003:000052a8       ??_C@_08LDCE@LastCall?$AA@ 004e42a8     Language:Language.obj
 0003:000052b4       ??_C@_0BK@OLO@self_print_tuple_Language?$AA@ 004e42b4     Language:Language.obj
 0003:000052d0       ??_C@_0BI@DGCD@self_print_set_Language?$AA@ 004e42d0     Language:Language.obj
 0003:000052e8       ??_C@_0BJ@FAPJ@self_print_list_Language?$AA@ 004e42e8     Language:Language.obj
 0003:00005304       ??_C@_0BB@JOMG@pretty_print_any?$AA@ 004e4304     Language:Language.obj
 0003:00005318       ??_C@_0N@BJBL@printexp_any?$AA@ 004e4318     Language:Language.obj
 0003:00005328       ??_C@_0L@EJEM@printl_bag?$AA@ 004e4328     Language:Language.obj
 0003:00005334       ??_C@_0O@GAGK@printbox_bag3?$AA@ 004e4334     Language:Language.obj
 0003:00005344       ??_C@_0O@MKPN@printbox_bag2?$AA@ 004e4344     Language:Language.obj
 0003:00005354       ??_C@_0O@DFEE@printbox_bag1?$AA@ 004e4354     Language:Language.obj
 0003:00005364       ??_C@_0BC@PLED@set_level_integer?$AA@ 004e4364     Language:Language.obj
 0003:00005378       ??_C@_0P@CKOK@set_level_void?$AA@ 004e4378     Language:Language.obj
 0003:00005388       ??_C@_0P@FFMN@indent_integer?$AA@ 004e4388     Language:Language.obj
 0003:00005398       ??_C@_0P@KALA@lbreak_integer?$AA@ 004e4398     Language:Language.obj
 0003:000053a8       ??_C@_0O@LEPG@checkfar_void?$AA@ 004e43a8     Language:Language.obj
 0003:000053b8       ??_C@_0BA@LAFD@put_buffer_void?$AA@ 004e43b8     Language:Language.obj
 0003:000053c8       ??_C@_0M@OGEJ@lbreak_void?$AA@ 004e43c8     Language:Language.obj
 0003:000053d4       ??_C@_06MFGG@printl?$AA@   004e43d4     Language:Language.obj
 0003:000053dc       ??_C@_0BE@JOMH@make_a_property_any?$AA@ 004e43dc     Language:Language.obj
 0003:000053f0       ??_C@_0BD@DLLP@extract_symbol_any?$AA@ 004e43f0     Language:Language.obj
 0003:00005404       ??_C@_0M@HENI@close_class?$AA@ 004e4404     Language:Language.obj
 0003:00005410       ??_C@_0BD@FNPG@lexical_change_any?$AA@ 004e4410     Language:Language.obj
 0003:00005424       ??_C@_0BC@PHNM@lexical_build_any?$AA@ 004e4424     Language:Language.obj
 0003:00005438       ??_C@_0N@DMII@lambda?$CB_list?$AA@ 004e4438     Language:Language.obj
 0003:00005448       ??_C@_0BB@KAPD@?$CKvariable_index?$CK?$AA@ 004e4448     Language:Language.obj
 0003:0000545c       ??_C@_0BL@NAFE@self_print_lambda_Language?$AA@ 004e445c     Language:Language.obj
 0003:00005478       ??_C@_0N@PAFP@call_lambda2?$AA@ 004e4478     Language:Language.obj
 0003:00005488       ??_C@_0N@EFGN@apply_lambda?$AA@ 004e4488     Language:Language.obj
 0003:00005498       ??_C@_03BCEL@EOS?$AA@      004e4498     Language:Language.obj
 0003:0000549c       ??_C@_03LLPA@EOF?$AA@      004e449c     Language:Language.obj
 0003:000054a0       ??_C@_0BM@JHDI@write_value_global_variable?$AA@ 004e44a0     Language:Language.obj
 0003:000054bc       ??_C@_0BK@KLOO@self_eval_global_variable?$AA@ 004e44bc     Language:Language.obj
 0003:000054d8       ??_C@_0BC@ICGJ@Control_structure?$AA@ 004e44d8     Language:Language.obj
 0003:000054ec       ??_C@_0BF@JBK@Instruction_with_var?$AA@ 004e44ec     Language:Language.obj
 0003:00005504       ??_C@_0BE@IKGH@Complex_instruction?$AA@ 004e4504     Language:Language.obj
 0003:00005518       ??_C@_0BB@JCOH@self_eval_Vardef?$AA@ 004e4518     Language:Language.obj
 0003:0000552c       ??_C@_06LHNC@Vardef?$AA@   004e452c     Language:Language.obj
 0003:00005534       ??_C@_0BF@GIJL@write_value_Variable?$AA@ 004e4534     Language:Language.obj
 0003:0000554c       ??_C@_0BD@NJEG@self_eval_Variable?$AA@ 004e454c     Language:Language.obj
 0003:00005560       ??_C@_0BA@EDCP@ppvariable_list?$AA@ 004e4560     Language:Language.obj
 0003:00005570       ??_C@_0BE@JAJG@ppvariable_Variable?$AA@ 004e4570     Language:Language.obj
 0003:00005584       ??_C@_0BN@NLDP@self_print_Variable_Language?$AA@ 004e4584     Language:Language.obj
 0003:000055a4       ??_C@_08LOHJ@Variable?$AA@ 004e45a4     Language:Language.obj
 0003:000055b0       ??_C@_0BJ@JILJ@self_eval_unbound_symbol?$AA@ 004e45b0     Language:Language.obj
 0003:000055cc       ??_C@_0CD@EKGD@self_print_unbound_symbol_Langua@ 004e45cc     Language:Language.obj
 0003:000055f0       ??_C@_05BBHA@index?$AA@    004e45f0     Language:Language.obj
 0003:000055f8       ??_C@_06MPII@typing?$AA@   004e45f8     Language:Language.obj
 0003:00005600       ??_C@_0BE@BDCC@no_eval_Instruction?$AA@ 004e4600     Language:Language.obj
 0003:00005614       ??_C@_0BC@EDFB@Basic_instruction?$AA@ 004e4614     Language:Language.obj
 0003:00005628       ??_C@_0M@PJEI@Instruction?$AA@ 004e4628     Language:Language.obj
 0003:00005634       ??_C@_07GDEA@putCall?$AA@  004e4634     Language:Language.obj
 0003:0000563c       ??_C@_0N@FPNE@eventMethod?$DP?$AA@ 004e463c     Language:Language.obj
 0003:0000564c       ??_C@_0M@BJBA@eventMethod?$AA@ 004e464c     Language:Language.obj
 0003:00005658       ??_C@_08MMN@readCall?$AA@  004e4658     Language:Language.obj
 0003:00005664       ??_C@_0O@HOHJ@eval_if_write?$AA@ 004e4664     Language:Language.obj
 0003:00005674       ??_C@_0L@KFGN@make_demon?$AA@ 004e4674     Language:Language.obj
 0003:00005680       ??_C@_0M@KDDJ@make_filter?$AA@ 004e4680     Language:Language.obj
 0003:0000568c       ??_C@_08MMKE@priority?$AA@ 004e468c     Language:Language.obj
 0003:00005698       ??_C@_08PACK@forward?$DP?$AA@ 004e4698     Language:Language.obj
 0003:000056a4       ??_C@_05GIP@type?$CB?$AA@  004e46a4     Language:Language.obj
 0003:000056ac       ??_C@_0P@IICP@extract_status?$AA@ 004e46ac     Language:Language.obj
 0003:000056bc       ??_C@_0O@FFNL@extract_range?$AA@ 004e46bc     Language:Language.obj
 0003:000056cc       ??_C@_0BD@NDG@extract_class_call?$AA@ 004e46cc     Language:Language.obj
 0003:000056e0       ??_C@_0BE@NHFE@extract_pattern_nth?$AA@ 004e46e0     Language:Language.obj
 0003:000056f4       ??_C@_0N@KDBK@extract_type?$AA@ 004e46f4     Language:Language.obj
 0003:00005704       ??_C@_0BA@FDNL@extract_pattern?$AA@ 004e4704     Language:Language.obj
 0003:00005714       ??_C@_0BC@KCHP@extract_signature?$AA@ 004e4714     Language:Language.obj
 0003:00005728       ??_C@_0P@NJJ@attach_comment?$AA@ 004e4728     Language:Language.obj
 0003:00005738       ??_C@_05FDBN@ident?$AA@    004e4738     Language:Language.obj
 0003:00005740       ??_C@_09JFLD@printbody?$AA@ 004e4740     Language:Language.obj
 0003:0000574c       ??_C@_0L@EBGE@printblock?$AA@ 004e474c     Language:Language.obj
 0003:00005758       ??_C@_07OJOM@printdo?$AA@  004e4758     Language:Language.obj
 0003:00005760       ??_C@_09MFFO@printelse?$AA@ 004e4760     Language:Language.obj
 0003:0000576c       ??_C@_07OOJH@printif?$AA@  004e476c     Language:Language.obj
 0003:00005774       ??_C@_09LKFH@printstat?$AA@ 004e4774     Language:Language.obj
 0003:00005780       ??_C@_04DJDA@test?$AA@     004e4780     Language:Language.obj
 0003:00005788       ??_C@_05DNMD@other?$AA@    004e4788     Language:Language.obj
 0003:00005790       ??_C@_0BB@PCD@instruction_copy?$AA@ 004e4790     Language:Language.obj
 0003:000057a4       ??_C@_0L@DMDM@occurrence?$AA@ 004e47a4     Language:Language.obj
 0003:000057b0       ??_C@_0N@KJBA@substitution?$AA@ 004e47b0     Language:Language.obj
 0003:000057c0       ??_C@_07KDAG@set_arg?$AA@  004e47c0     Language:Language.obj
 0003:000057c8       ??_C@_07KPDI@cast_to?$AA@  004e47c8     Language:Language.obj
 0003:000057d0       ??_C@_06EECC@sugar?$DP?$AA@ 004e47d0     Language:Language.obj
 0003:000057d8       ??_C@_06DLEJ@printe?$AA@   004e47d8     Language:Language.obj
 0003:000057e0       ??_C@_06CFON@assign?$AA@   004e47e0     Language:Language.obj
 0003:000057e8       ??_C@_0N@GFJI@pretty_print?$AA@ 004e47e8     Language:Language.obj
 0003:000057f8       ??_C@_08HKFD@printexp?$AA@ 004e47f8     Language:Language.obj
 0003:00005804       ??_C@_08JLHG@printbox?$AA@ 004e4804     Language:Language.obj
 0003:00005810       ??_C@_09HOMA@set_level?$AA@ 004e4810     Language:Language.obj
 0003:0000581c       ??_C@_06NHEL@indent?$AA@   004e481c     Language:Language.obj
 0003:00005824       ??_C@_08NFED@checkfar?$AA@ 004e4824     Language:Language.obj
 0003:00005830       ??_C@_0L@HHLE@put_buffer?$AA@ 004e4830     Language:Language.obj
 0003:0000583c       ??_C@_06GDDF@lbreak?$AA@   004e483c     Language:Language.obj
 0003:00005844       ??_C@_0BA@BANI@make_a_property?$AA@ 004e4844     Language:Language.obj
 0003:00005854       ??_C@_0P@IBPF@extract_symbol?$AA@ 004e4854     Language:Language.obj
 0003:00005864       ??_C@_0P@DNBP@lexical_change?$AA@ 004e4864     Language:Language.obj
 0003:00005874       ??_C@_0O@NJAP@lexical_build?$AA@ 004e4874     Language:Language.obj
 0003:00005884       ??_C@_07HGIC@lambda?$CB?$AA@ 004e4884     Language:Language.obj
 0003:0000588c       ??_C@_03GIEB@var?$AA@      004e488c     Language:Language.obj
 0003:00005890       ??_C@_0M@LCLC@write_value?$AA@ 004e4890     Language:Language.obj
 0003:0000589c       ??_C@_0L@LANI@ppvariable?$AA@ 004e489c     Language:Language.obj
 0003:000058a8       ??_C@_07DDJH@no_eval?$AA@  004e48a8     Language:Language.obj
 0003:000058b0       ??_C@_04IIHP@?5?3?3?5?$AA@ 004e48b0     Language:define.obj
 0003:000058b8       ??_C@_04OJCK@?5?3?$DN?5?$AA@ 004e48b8     Language:define.obj
 0003:000058c0       ??_C@_01PKAG@?3?$AA@       004e48c0     Language:define.obj
 0003:000058c4       ??_C@_03FGJK@?5?$DN?5?$AA@ 004e48c4     Language:define.obj
 0003:000058c8       ??_C@_04GEAI@?5?$DM?3?5?$AA@ 004e48c8     Language:define.obj
 0003:000058d0       ??_C@_02HMFM@?9?$DO?$AA@   004e48d0     Language:define.obj
 0003:000058d4       ??_C@_02BGPF@?$DN?$DO?$AA@ 004e48d4     Language:define.obj
 0003:000058d8       ??_C@_04JCEP@?$CJ?5?3?5?$AA@ 004e48d8     Language:define.obj
 0003:000058e0       ??_C@_04KMOB@?$FN?5?3?5?$AA@ 004e48e0     Language:define.obj
 0003:000058e8       ??_C@_03MGPG@?$DN?$DO?5?$AA@ 004e48e8     Language:define.obj
 0003:000058ec       ??_C@_0L@MOMA@?$CJ?5?3?3?5rule?$CI?$AA@ 004e48ec     Language:define.obj
 0003:000058f8       ??_C@_0CL@EDNH@?$FL106?$FN?5the?5object?5?$HOS?5does?5not?5und@ 004e48f8     Language:define.obj
 0003:00005924       ??_C@_0CK@GCOI@?$FL109?$FN?5the?5parent?5class?5?$HOS?5of?5?$HOS?5@ 004e4924     Language:define.obj
 0003:00005950       ??_C@_0DF@DIEM@?$FL181?$FN?5cannot?5overide?5a?5slot?5for?5@ 004e4950     Language:define.obj
 0003:00005988       ??_C@_0CN@CDLK@?$FL108?$FN?5default?$CI?$HOS?$CJ?5?$DN?5?$HOS?5does?5not?5@ 004e4988     Language:define.obj
 0003:000059b8       ??_C@_0CL@NEAE@?$FL107?$FN?5class?5re?9definition?5is?5not@ 004e49b8     Language:define.obj
 0003:000059e4       ??_C@_0CM@EKON@?$FL184?$FN?5the?5close?5method?5?$HOS?5has?5a?5@ 004e49e4     Language:define.obj
 0003:00005a10       ??_C@_0FA@OOPF@?9?9?9?5WARNING?5?$CB?5?$FL186?$FN?5conflict?5bet@ 004e4a10     Language:define.obj
 0003:00005a60       ??_C@_0P@IHCM@XfakeParameter?$AA@ 004e4a60     Language:define.obj
 0003:00005a70       ??_C@_0CE@MDBG@?$FL110?$FN?5wrong?5signature?5definition@ 004e4a70     Language:define.obj
 0003:00005a94       ??_C@_0BO@HOLB@?$FL111?$FN?5wrong?5typed?5argument?5?$HOS?$AA@ 004e4a94     Language:define.obj
 0003:00005ab4       ??_C@_0CD@JOBF@?$FL111?$FN?5wrong?5typed?5argument?5?$HOS?5?$CI?$HO@ 004e4ab4     Language:define.obj
 0003:00005ad8       ??_C@_0BP@MELK@?$FL112?$FN?5wrong?5type?5expression?5?$HOS?$AA@ 004e4ad8     Language:define.obj
 0003:00005af8       ??_C@_0BP@OALK@?$FL114?$FN?5Wrong?5parametrization?5?$HOS?$AA@ 004e4af8     Language:define.obj
 0003:00005b18       ??_C@_0CJ@NKPN@?$FL113?$FN?5Wrong?5lambda?5definition?5la@ 004e4b18     Language:define.obj
 0003:00005b44       ??_C@_0CN@KNPN@?$FL115?$FN?5the?5?$CIresulting?$CJ?5range?5?$HOS?5i@ 004e4b44     Language:define.obj
 0003:00005b74       ??_C@_06FMKK@?0?5l?5?$DN?5?$AA@ 004e4b74     Language:define.obj
 0003:00005b7c       ??_C@_09OGKN@lambda?5?$DN?5?$AA@ 004e4b7c     Language:define.obj
 0003:00005b88       ??_C@_0BJ@GHEL@?5is?5not?5a?5valid?5because?6?$AA@ 004e4b88     Language:define.obj
 0003:00005ba4       ??_C@_0BF@HDBF@The?5type?5expression?5?$AA@ 004e4ba4     Language:define.obj
 0003:00005bbc       ??_C@_0CC@PKIP@?$FL116?$FN?5?$HOS?5not?5allowed?5in?5function@ 004e4bbc     Language:define.obj
 0003:00005be0       ??_C@_0CP@FFMJ@cannot?5define?5a?5new?5rule?5on?5?$HOS?5w@ 004e4be0     Language:define.obj
 0003:00005c10       ??_C@_0BN@HJKO@?$FL188?$FN?5wrong?5event?5filter?3?5?$HOS?$AA@ 004e4c10     Language:define.obj
 0003:00005c30       ??_C@_0DG@PPEA@?$FL188?$FN?5wrong?5event?5filter?5?$HOS?5for?5@ 004e4c30     Language:define.obj
 0003:00005c68       ??_C@_0BI@OONO@make_filter?5?3?5?$HOS?5?$CI?$HOS?$CJ?5?6?$AA@ 004e4c68     Language:define.obj
 0003:00005c80       ??_C@_0BH@PHHM@?9?9?9?5trigger?5?$HOA?$CI?$HOS?0?$HOS?$CJ?6?$AA@ 004e4c80     Language:define.obj
 0003:00005c98       ??_C@_06EELK@_write?$AA@   004e4c98     Language:define.obj
 0003:00005ca0       ??_C@_0DP@JHA@?$FL185?$FN?5cannot?5define?5an?5non?9unifo@ 004e4ca0     Language:define.obj
 0003:00005ce0       ??_C@_0DJ@DCND@?$FL185?$FN?5cannot?5define?5an?5empty?5pro@ 004e4ce0     Language:define.obj
 0003:00005d1c       ??_C@_03FPDE@if?5?$AA@     004e4d1c     Language:control.obj
 0003:00005d20       ??_C@_05BNGI@else?5?$AA@   004e4d20     Language:control.obj
 0003:00005d28       ??_C@_08DPBD@else?5if?5?$AA@ 004e4d28     Language:control.obj
 0003:00005d34       ??_C@_04IBDI@let?5?$AA@    004e4d34     Language:control.obj
 0003:00005d3c       ??_C@_04EACC@?5in?5?$AA@   004e4d3c     Language:control.obj
 0003:00005d44       ??_C@_05HDOM@?5?4?4?4?6?$AA@ 004e4d44     Language:control.obj
 0003:00005d4c       ??_C@_0M@GCBC@start?3?5let?5?$AA@ 004e4d4c     Language:control.obj
 0003:00005d58       ??_C@_05IJIJ@when?5?$AA@   004e4d58     Language:control.obj
 0003:00005d60       ??_C@_0N@CAGK@start?3?5when?5?$AA@ 004e4d60     Language:control.obj
 0003:00005d70       ??_C@_05EMIP@?$CJ?5?3?$DN?5?$AA@ 004e4d70     Language:control.obj
 0003:00005d78       ??_C@_05LPNJ@let?5?$CI?$AA@ 004e4d78     Language:control.obj
 0003:00005d80       ??_C@_04KCGL@for?5?$AA@    004e4d80     Language:control.obj
 0003:00005d88       ??_C@_0BP@FENP@?$FL136?$FN?5?$HOS?5is?5not?5a?5collection?5?$CB?$AA@ 004e4d88     Language:control.obj
 0003:00005da8       ??_C@_0M@EBEB@start?3?5for?5?$AA@ 004e4da8     Language:control.obj
 0003:00005db4       ??_C@_01KCD@?$HN?$AA@      004e4db4     Language:control.obj
 0003:00005db8       ??_C@_03OKJF@?5?$HM?5?$AA@ 004e4db8     Language:control.obj
 0003:00005dbc       ??_C@_06CIDH@list?$HL?5?$AA@ 004e4dbc     Language:control.obj
 0003:00005dc4       ??_C@_02MJBF@?$HL?5?$AA@   004e4dc4     Language:control.obj
 0003:00005dc8       ??_C@_04FMPD@some?$AA@     004e4dc8     Language:control.obj
 0003:00005dd0       ??_C@_06BOJK@exists?$AA@   004e4dd0     Language:control.obj
 0003:00005dd8       ??_C@_06CAAF@forall?$AA@   004e4dd8     Language:control.obj
 0003:00005de0       ??_C@_05EHDN@case?5?$AA@   004e4de0     Language:control.obj
 0003:00005de8       ??_C@_05NJDI@while?$AA@    004e4de8     Language:control.obj
 0003:00005df0       ??_C@_05FPCC@until?$AA@    004e4df0     Language:control.obj
 0003:00005df8       ??_C@_06FIJP@catch?5?$AA@  004e4df8     Language:control.obj
 0003:00005e00       ??_C@_04JING@try?5?$AA@    004e4e00     Language:control.obj
 0003:00005e08       ??_C@_06DPBE@branch?$AA@   004e4e08     Language:control.obj
 0003:00005e10       ??_C@_06HDEN@assert?$AA@   004e4e10     Language:control.obj
 0003:00005e18       ??_C@_05EIPG@trace?$AA@    004e4e18     Language:control.obj
 0003:00005e20       ??_C@_05COLM@error?$AA@    004e4e20     Language:control.obj
 0003:00005e28       ??_C@_06MEPA@printf?$AA@   004e4e28     Language:control.obj
 0003:00005e30       ??_C@_05BFDF@tuple?$AA@    004e4e30     Language:control.obj
 0003:00005e38       ??_C@_03NHNF@set?$AA@      004e4e38     Language:control.obj
 0003:00005e3c       ??_C@_04JOGO@list?$AA@     004e4e3c     Language:control.obj
 0003:00005e44       ??_C@_0BB@ELOI@Syntax?5error?3?5?$HOS?$AA@ 004e4e44     Language:control.obj
 0003:00005e58       ??_C@_0CB@LAKM@?$FL103?$FN?5not?5enough?5arguments?5in?5?$HOS@ 004e4e58     Language:control.obj
 0003:00005e7c       ??_C@_0DA@MHNG@?$FL102?$FN?5the?5first?5argument?5in?5?$HOS?5m@ 004e4e7c     Language:control.obj
 0003:00005eac       ??_C@_0BE@LIJL@Assertion?5Violation?$AA@ 004e4eac     Language:control.obj
 0003:00005ec0       ??_C@_0M@IBLG@?3?5?$CIASSERT?$CJ?5?$AA@ 004e4ec0     Language:control.obj
 0003:00005ecc       ??_C@_06BFGI@?0line?$DN?$AA@ 004e4ecc     Language:control.obj
 0003:00005ed4       ??_C@_0CP@LCKF@?$FL104?$FN?5Syntax?5error?5with?5?$HOS?5?$CIone?5@ 004e4ed4     Language:control.obj
 0003:00005f04       ??_C@_02MMMJ@?$CI?$CJ?$AA@ 004e4f04     Language:call.obj
 0003:00005f08       ??_C@_0L@MJON@?$CJ?5?3delete?5?$AA@ 004e4f08     Language:call.obj
 0003:00005f14       ??_C@_07FIBK@?$CJ?5?3add?5?$AA@ 004e4f14     Language:call.obj
 0003:00005f1c       ??_C@_03KPCC@?$CJ?5?3?$AA@ 004e4f1c     Language:call.obj
 0003:00005f20       ??_C@_03BGN@?$FN?5?3?$AA@  004e4f20     Language:call.obj
 0003:00005f24       ??_C@_05MDLB@?$FN?5?3?$DN?5?$AA@ 004e4f24     Language:call.obj
 0003:00005f2c       ??_C@_02BGGE@?$FL?$FN?$AA@ 004e4f2c     Language:call.obj
 0003:00005f30       ??_C@_02CPFE@?5?3?$AA@     004e4f30     Language:call.obj
 0003:00005f34       ??_C@_0BL@CLNP@?$FL101?$FN?5?$HOS?5is?5not?5a?5variable?$AA@ 004e4f34     Language:call.obj
 0003:00005f50       ??_C@_03LCJI@?5?$CG?5?$AA@ 004e4f50     Language:call.obj
 0003:00005f54       ??_C@_06IJLN@quote?$CI?$AA@ 004e4f54     Language:call.obj
 0003:00005f5c       ??_C@_04EDGK@?5as?5?$AA@   004e4f5c     Language:call.obj
 0003:00005f64       ??_C@_06JEBM@break?$CI?$AA@ 004e4f64     Language:call.obj
 0003:00005f6c       ??_C@_0CC@JLMC@?$FL144?$FN?5evaluate?$CI?$HOS?$CJ?5is?5not?5define@ 004e4f6c     Language:pretty.obj
 0003:00005f90       ??_C@_0BP@NDCE@?$FL145?$FN?5the?5symbol?5?$HOA?5is?5unbound?$AA@ 004e4f90     Language:pretty.obj
 0003:00005fb0       ??_C@_02ENDO@V?$DP?$AA@    004e4fb0     Language:pretty.obj
 0003:00005fb4       ??_C@_0CF@PLGI@?$FL146?$FN?5The?5variable?5?$HOS?5is?5not?5def@ 004e4fb4     Language:pretty.obj
 0003:00005fdc       ??_C@_02NKKI@?$CJ?0?$AA@   004e4fdc     Language:pretty.obj
 0003:00005fe0       ??_C@_08HPHB@lambda?$FL?$CI?$AA@ 004e4fe0     Language:pretty.obj
 0003:00005fec       ??_C@_0CE@PMFB@?$FL147?$FN?5a?5name?5cannot?5be?5made?5from@ 004e4fec     Language:pretty.obj
 0003:00006010       ??_C@_0DC@LBLC@?$FL148?$FN?5Wrong?5selector?3?5?$HOS?0?5cannot@ 004e5010     Language:pretty.obj
 0003:00006044       ??_C@_05CHOK@list?$DM?$AA@ 004e5044     Language:pretty.obj
 0003:0000604c       ??_C@_04FDKD@set?$DM?$AA@  004e504c     Language:pretty.obj
 0003:00006054       ??_C@_01PFFB@?$HL?$AA@     004e5054     Language:pretty.obj
 0003:00006058       ??_C@_06HOEN@tuple?$CI?$AA@ 004e5058     Language:pretty.obj
 0003:00006060       ??_C@_0BD@CLCM@PRdepends_property?$AA@ 004e5060     Reader:Reader.obj
 0003:00006074       ??_C@_0P@DGMC@dependents_any?$AA@ 004e5074     Reader:Reader.obj
 0003:00006084       ??_C@_0BC@IGFI@dependents_method?$AA@ 004e5084     Reader:Reader.obj
 0003:00006098       ??_C@_0O@NLPP@PRdependentOf?$AA@ 004e5098     Reader:Reader.obj
 0003:000060a8       ??_C@_0M@BOLP@PRdependent?$AA@ 004e50a8     Reader:Reader.obj
 0003:000060b4       ??_C@_0M@DMJK@PRshow_void?$AA@ 004e50b4     Reader:Reader.obj
 0003:000060c0       ??_C@_0BA@LMGA@PRtime_property?$AA@ 004e50c0     Reader:Reader.obj
 0003:000060d0       ??_C@_0BA@FBDE@PRshow_property?$AA@ 004e50d0     Reader:Reader.obj
 0003:000060e0       ??_C@_0BB@IFHI@PRlook_property2?$AA@ 004e50e0     Reader:Reader.obj
 0003:000060f4       ??_C@_0P@JALB@PRget_property?$AA@ 004e50f4     Reader:Reader.obj
 0003:00006104       ??_C@_07CDAI@PRcount?$AA@  004e5104     Reader:Reader.obj
 0003:0000610c       ??_C@_09DCLD@mem_class?$AA@ 004e510c     Reader:Reader.obj
 0003:00006118       ??_C@_08DJHL@step_any?$AA@ 004e5118     Reader:Reader.obj
 0003:00006124       ??_C@_0BK@GBDJ@call_step_property_Reader?$AA@ 004e5124     Reader:Reader.obj
 0003:00006140       ??_C@_0BC@LCGP@closure_build_any?$AA@ 004e5140     Reader:Reader.obj
 0003:00006154       ??_C@_0BF@CHFL@closure_build_lambda?$AA@ 004e5154     Reader:Reader.obj
 0003:0000616c       ??_C@_0O@HOGO@block_integer?$AA@ 004e516c     Reader:Reader.obj
 0003:0000617c       ??_C@_0N@EMBN@Show_integer?$AA@ 004e517c     Reader:Reader.obj
 0003:0000618c       ??_C@_0BJ@GFFA@print_debug_info_integer?$AA@ 004e518c     Reader:Reader.obj
 0003:000061a8       ??_C@_0O@KGLG@where_integer?$AA@ 004e51a8     Reader:Reader.obj
 0003:000061b8       ??_C@_0L@CKBF@up_integer?$AA@ 004e51b8     Reader:Reader.obj
 0003:000061c4       ??_C@_0L@OCIA@dn_integer?$AA@ 004e51c4     Reader:Reader.obj
 0003:000061d0       ??_C@_05KJNF@where?$AA@    004e51d0     Reader:Reader.obj
 0003:000061d8       ??_C@_02HJLH@dn?$AA@       004e51d8     Reader:Reader.obj
 0003:000061dc       ??_C@_02HAO@up?$AA@        004e51dc     Reader:Reader.obj
 0003:000061e0       ??_C@_0BA@EEJM@breakpoint_void?$AA@ 004e51e0     Reader:Reader.obj
 0003:000061f0       ??_C@_0BA@JJKE@call_debug_void?$AA@ 004e51f0     Reader:Reader.obj
 0003:00006200       ??_C@_0L@PBLD@debug_void?$AA@ 004e5200     Reader:Reader.obj
 0003:0000620c       ??_C@_0O@CLND@stop_property?$AA@ 004e520c     Reader:Reader.obj
 0003:0000621c       ??_C@_0BE@BKCE@trace_rule_relation?$AA@ 004e521c     Reader:Reader.obj
 0003:00006230       ??_C@_0BB@MIKM@self_trace_Trace?$AA@ 004e5230     Reader:Reader.obj
 0003:00006244       ??_C@_0BF@GNFI@spy_listargs2_Reader?$AA@ 004e5244     Reader:Reader.obj
 0003:0000625c       ??_C@_0M@OJEF@untrace_any?$AA@ 004e525c     Reader:Reader.obj
 0003:00006268       ??_C@_0N@KAOH@trace_on_any?$AA@ 004e5268     Reader:Reader.obj
 0003:00006278       ??_C@_0BF@FKLE@get_from_integer_any?$AA@ 004e5278     Reader:Reader.obj
 0003:00006290       ??_C@_0BB@LH@inspect_loop_any?$AA@ 004e5290     Reader:Reader.obj
 0003:000062a4       ??_C@_0M@HIHL@inspect_any?$AA@ 004e52a4     Reader:Reader.obj
 0003:000062b0       ??_C@_0BA@BFGF@CommandLoopVoid?$AA@ 004e52b0     Reader:Reader.obj
 0003:000062c0       ??_C@_08JCDJ@StepLoop?$AA@ 004e52c0     Reader:Reader.obj
 0003:000062cc       ??_C@_09IEE@DebugLoop?$AA@ 004e52cc     Reader:Reader.obj
 0003:000062d8       ??_C@_0M@IHBD@InspectLoop?$AA@ 004e52d8     Reader:Reader.obj
 0003:000062e4       ??_C@_09HJAP@?$CKshowall?$CK?$AA@ 004e52e4     Reader:Reader.obj
 0003:000062f0       ??_C@_06PADL@?$CKcurd?$CK?$AA@ 004e52f0     Reader:Reader.obj
 0003:000062f8       ??_C@_06MFDP@?$CKmaxd?$CK?$AA@ 004e52f8     Reader:Reader.obj
 0003:00006300       ??_C@_07JGFF@?$CKindex?$CK?$AA@ 004e5300     Reader:Reader.obj
 0003:00006308       ??_C@_06GJDN@?$CKlast?$CK?$AA@ 004e5308     Reader:Reader.obj
 0003:00006310       ??_C@_0N@NCIM@top_debugger?$AA@ 004e5310     Reader:Reader.obj
 0003:00006320       ??_C@_0BB@BNAL@get_from_integer?$AA@ 004e5320     Reader:Reader.obj
 0003:00006334       ??_C@_0N@COC@inspect_loop?$AA@ 004e5334     Reader:Reader.obj
 0003:00006344       ??_C@_0L@DHAH@execute_bk?$AA@ 004e5344     Reader:Reader.obj
 0003:00006350       ??_C@_0L@OKKE@execute_do?$AA@ 004e5350     Reader:Reader.obj
 0003:0000635c       ??_C@_05OBHA@step?$CB?$AA@ 004e535c     Reader:Reader.obj
 0003:00006364       ??_C@_06EAGC@?$DO?$DN_any?$AA@ 004e5364     Reader:Reader.obj
 0003:0000636c       ??_C@_0CD@FMBM@lambda?$FL?$CIself?3any?0x?3any?$CJ?0x?5?$DM?$DN?5sel@ 004e536c     Reader:Reader.obj
 0003:00006390       ??_C@_0O@DMJG@float?$CB_string?$AA@ 004e5390     Reader:Reader.obj
 0003:000063a0       ??_C@_0P@INNB@float?$CB_string_?$AA@ 004e53a0     Reader:Reader.obj
 0003:000063b0       ??_C@_0P@NALD@unknown?$DP_table?$AA@ 004e53b0     Reader:Reader.obj
 0003:000063c0       ??_C@_0CM@DDKO@lambda?$FL?$CIa?3table?0x?3any?$CJ?0get?$CIa?0?5x?$CJ@ 004e53c0     Reader:Reader.obj
 0003:000063ec       ??_C@_0N@PAAD@known?$DP_table?$AA@ 004e53ec     Reader:Reader.obj
 0003:000063fc       ??_C@_0CN@GFAF@lambda?$FL?$CIa?3table?0x?3any?$CJ?0get?$CIa?0?5x?$CJ@ 004e53fc     Reader:Reader.obj
 0003:0000642c       ??_C@_0O@JMGB@hashgrow_list?$AA@ 004e542c     Reader:Reader.obj
 0003:0000643c       ??_C@_0IP@LDGM@lambda?$FL?$CIl?3list?0hi?3property?$CJ?0let?5@ 004e543c     Reader:Reader.obj
 0003:000064cc       ??_C@_07IJFO@max_any?$AA@  004e54cc     Reader:Reader.obj
 0003:000064d4       ??_C@_0CN@IBMI@lambda?$FL?$CIx?3any?0y?3any?$CJ?0?$CIif?5?$CIx?5?$DM?$DN?5y@ 004e54d4     Reader:Reader.obj
 0003:00006504       ??_C@_07OGNF@min_any?$AA@  004e5504     Reader:Reader.obj
 0003:0000650c       ??_C@_0CN@FMBM@lambda?$FL?$CIx?3any?0y?3any?$CJ?0?$CIif?5?$CIx?5?$DM?$DN?5y@ 004e550c     Reader:Reader.obj
 0003:0000653c       ??_C@_0M@BNLP@max_integer?$AA@ 004e553c     Reader:Reader.obj
 0003:00006548       ??_C@_0DF@CGAB@lambda?$FL?$CIx?3integer?0y?3integer?$CJ?0?$CIif@ 004e5548     Reader:Reader.obj
 0003:00006580       ??_C@_0M@MKJP@min_integer?$AA@ 004e5580     Reader:Reader.obj
 0003:0000658c       ??_C@_0DF@PLNF@lambda?$FL?$CIx?3integer?0y?3integer?$CJ?0?$CIif@ 004e558c     Reader:Reader.obj
 0003:000065c4       ??_C@_0L@PKND@kill_class?$AA@ 004e55c4     Reader:Reader.obj
 0003:000065d0       ??_C@_0M@BJFA@kill_object?$AA@ 004e55d0     Reader:Reader.obj
 0003:000065dc       ??_C@_08PIGB@show_any?$AA@ 004e55dc     Reader:Reader.obj
 0003:000065e8       ??_C@_0M@MOPL@pretty_show?$AA@ 004e55e8     Reader:Reader.obj
 0003:000065f4       ??_C@_0BF@CCKL@print_exception_void?$AA@ 004e55f4     Reader:Reader.obj
 0003:0000660c       ??_C@_0BH@JEGG@debug_if_possible_void?$AA@ 004e560c     Reader:Reader.obj
 0003:00006624       ??_C@_04ELAD@EVAL?$AA@     004e5624     Reader:Reader.obj
 0003:0000662c       ??_C@_0L@HLFA@call_debug?$AA@ 004e562c     Reader:Reader.obj
 0003:00006638       ??_C@_01PEMH@q?$AA@        004e5638     Reader:Reader.obj
 0003:0000663c       ??_C@_0M@LNNB@read_string?$AA@ 004e563c     Reader:Reader.obj
 0003:00006648       ??_C@_09CKKA@read_port?$AA@ 004e5648     Reader:Reader.obj
 0003:00006654       ??_C@_0P@IEBP@readblock_port?$AA@ 004e5654     Reader:Reader.obj
 0003:00006664       ??_C@_0N@ECFH@eload_string?$AA@ 004e5664     Reader:Reader.obj
 0003:00006674       ??_C@_0BB@HCKH@add_modules_list?$AA@ 004e5674     Reader:Reader.obj
 0003:00006688       ??_C@_0BD@FBGF@add_modules_module?$AA@ 004e5688     Reader:Reader.obj
 0003:0000669c       ??_C@_0N@JCGA@sload_module?$AA@ 004e569c     Reader:Reader.obj
 0003:000066ac       ??_C@_0M@DNAF@load_module?$AA@ 004e56ac     Reader:Reader.obj
 0003:000066b8       ??_C@_0BB@CPON@load_file_module?$AA@ 004e56b8     Reader:Reader.obj
 0003:000066cc       ??_C@_0N@PAIA@sload_string?$AA@ 004e56cc     Reader:Reader.obj
 0003:000066dc       ??_C@_0M@FPOF@load_string?$AA@ 004e56dc     Reader:Reader.obj
 0003:000066e8       ??_C@_0BB@ENAN@load_file_string?$AA@ 004e56e8     Reader:Reader.obj
 0003:000066fc       ??_C@_0BK@LGAB@restore_state_meta_reader?$AA@ 004e56fc     Reader:Reader.obj
 0003:00006718       ??_C@_0L@HEJM@flush_port?$AA@ 004e5718     Reader:Reader.obj
 0003:00006724       ??_C@_08BMO@?1_string?$AA@ 004e5724     Reader:Reader.obj
 0003:00006730       ??_C@_04JMKJ@?$CKfs?$CK?$AA@ 004e5730     Reader:Reader.obj
 0003:00006738       ??_C@_05LFCD@STDIN?$AA@    004e5738     Reader:Reader.obj
 0003:00006740       ??_C@_05NOKM@stdin?$AA@    004e5740     Reader:Reader.obj
 0003:00006748       ??_C@_06EHCM@STDOUT?$AA@   004e5748     Reader:Reader.obj
 0003:00006750       ??_C@_06JIKH@stdout?$AA@   004e5750     Reader:Reader.obj
 0003:00006758       ??_C@_0BE@PHD@unbind?$CB_meta_reader?$AA@ 004e5758     Reader:Reader.obj
 0003:0000676c       ??_C@_0BC@LPLI@bind?$CB_meta_reader?$AA@ 004e576c     Reader:Reader.obj
 0003:00006780       ??_C@_0BF@PNCG@extract_variable_any?$AA@ 004e5780     Reader:Reader.obj
 0003:00006798       ??_C@_06OMDI@reader?$AA@   004e5798     Reader:Reader.obj
 0003:000067a0       ??_C@_0O@OAOF@Serror_string?$AA@ 004e57a0     Reader:Reader.obj
 0003:000067b0       ??_C@_0L@KDJK@verify_any?$AA@ 004e57b0     Reader:Reader.obj
 0003:000067bc       ??_C@_0BE@KKGM@checkno_meta_reader?$AA@ 004e57bc     Reader:Reader.obj
 0003:000067d0       ??_C@_0BE@CINP@findeol_meta_reader?$AA@ 004e57d0     Reader:Reader.obj
 0003:000067e4       ??_C@_0BC@CDJA@cnext_meta_reader?$AA@ 004e57e4     Reader:Reader.obj
 0003:000067f8       ??_C@_0BD@JJDF@skipc?$CB_meta_reader?$AA@ 004e57f8     Reader:Reader.obj
 0003:0000680c       ??_C@_0BC@HKJD@skipc_meta_reader?$AA@ 004e580c     Reader:Reader.obj
 0003:00006820       ??_C@_0BC@MGI@useless_c_integer?$AA@ 004e5820     Reader:Reader.obj
 0003:00006834       ??_C@_0BE@OPIG@self_eval_delimiter?$AA@ 004e5834     Reader:Reader.obj
 0003:00006848       ??_C@_0BJ@BKBG@nextDefclass_meta_reader?$AA@ 004e5848     Reader:Reader.obj
 0003:00006864       ??_C@_0BF@JNOD@nextinst_meta_reader?$AA@ 004e5864     Reader:Reader.obj
 0003:0000687c       ??_C@_0BH@BBA@nextmethod_meta_reader?$AA@ 004e587c     Reader:Reader.obj
 0003:00006894       ??_C@_0BL@NCHH@nextdefinition_meta_reader?$AA@ 004e5894     Reader:Reader.obj
 0003:000068b0       ??_C@_0BF@PLGI@readcall_meta_reader?$AA@ 004e58b0     Reader:Reader.obj
 0003:000068c8       ??_C@_0BF@BJGB@extract_of_type_Call?$AA@ 004e58c8     Reader:Reader.obj
 0003:000068e0       ??_C@_07HLBN@Do?$CB_any?$AA@ 004e58e0     Reader:Reader.obj
 0003:000068e8       ??_C@_0BG@BFFL@readblock_meta_reader?$AA@ 004e58e8     Reader:Reader.obj
 0003:00006900       ??_C@_0BE@CIHF@nextseq_meta_reader?$AA@ 004e5900     Reader:Reader.obj
 0003:00006914       ??_C@_0BA@MMCF@dereference_any?$AA@ 004e5914     Reader:Reader.obj
 0003:00006924       ??_C@_0BE@NOBB@readset_meta_reader?$AA@ 004e5924     Reader:Reader.obj
 0003:00006938       ??_C@_0BF@EHEB@readcase_meta_reader?$AA@ 004e5938     Reader:Reader.obj
 0003:00006950       ??_C@_0BD@JEMI@readif_meta_reader?$AA@ 004e5950     Reader:Reader.obj
 0003:00006964       ??_C@_0BF@LHOL@readwhen_meta_reader?$AA@ 004e5964     Reader:Reader.obj
 0003:0000697c       ??_C@_0BF@KBDK@readlet?$CK_meta_reader?$AA@ 004e597c     Reader:Reader.obj
 0003:00006994       ??_C@_0BE@KMHH@readlet_meta_reader?$AA@ 004e5994     Reader:Reader.obj
 0003:000069a8       ??_C@_0BH@JNEP@nextstruct_meta_reader?$AA@ 004e59a8     Reader:Reader.obj
 0003:000069c0       ??_C@_0BA@BCOB@precedence?$CB_any?$AA@ 004e59c0     Reader:Reader.obj
 0003:000069d0       ??_C@_0N@OFFM@operand?$CB_any?$AA@ 004e59d0     Reader:Reader.obj
 0003:000069e0       ??_C@_0P@MCIJ@operation?$CB_any?$AA@ 004e59e0     Reader:Reader.obj
 0003:000069f0       ??_C@_0N@NKML@combine?$CB_any?$AA@ 004e59f0     Reader:Reader.obj
 0003:00006a00       ??_C@_0M@NNLF@combine_any?$AA@ 004e5a00     Reader:Reader.obj
 0003:00006a0c       ??_C@_0P@BCJ@operation?$DP_any?$AA@ 004e5a0c     Reader:Reader.obj
 0003:00006a1c       ??_C@_0P@GGGG@Call?$CB_property?$AA@ 004e5a1c     Reader:Reader.obj
 0003:00006a2c       ??_C@_0BA@LBJG@DBregister_Call?$AA@ 004e5a2c     Reader:Reader.obj
 0003:00006a3c       ??_C@_06HJOD@DBline?$AA@   004e5a3c     Reader:Reader.obj
 0003:00006a44       ??_C@_0BO@KPOL@extended_comment?$CB_meta_reader?$AA@ 004e5a44     Reader:Reader.obj
 0003:00006a64       ??_C@_0BO@NFDG@extended_comment?$DP_meta_reader?$AA@ 004e5a64     Reader:Reader.obj
 0003:00006a84       ??_C@_0BE@BMKJ@nexts?$CB_meta_reader3?$AA@ 004e5a84     Reader:Reader.obj
 0003:00006a98       ??_C@_0BE@LGDO@nexts?$CB_meta_reader2?$AA@ 004e5a98     Reader:Reader.obj
 0003:00006aac       ??_C@_0BD@EELG@nexte?$CB_meta_reader?$AA@ 004e5aac     Reader:Reader.obj
 0003:00006ac0       ??_C@_0BE@EJIH@nexts?$CB_meta_reader1?$AA@ 004e5ac0     Reader:Reader.obj
 0003:00006ad4       ??_C@_0BJ@BMOF@nextvariable_meta_reader?$AA@ 004e5ad4     Reader:Reader.obj
 0003:00006af0       ??_C@_0BI@FPPL@read_escape_meta_reader?$AA@ 004e5af0     Reader:Reader.obj
 0003:00006b08       ??_C@_0BC@DHOJ@nexti_meta_reader?$AA@ 004e5b08     Reader:Reader.obj
 0003:00006b1c       ??_C@_0BE@PKFF@nextexp_meta_reader?$AA@ 004e5b1c     Reader:Reader.obj
 0003:00006b30       ??_C@_0BC@PJDB@nexte_meta_reader?$AA@ 004e5b30     Reader:Reader.obj
 0003:00006b44       ??_C@_0BE@ILME@loopexp_meta_reader?$AA@ 004e5b44     Reader:Reader.obj
 0003:00006b58       ??_C@_0BC@IID@nexts_meta_reader?$AA@ 004e5b58     Reader:Reader.obj
 0003:00006b6c       ??_C@_0BF@EPOJ@nextunit_meta_reader?$AA@ 004e5b6c     Reader:Reader.obj
 0003:00006b84       ??_C@_0M@HIME@LastExpRead?$AA@ 004e5b84     Reader:Reader.obj
 0003:00006b90       ??_C@_0N@GADP@Declarations?$AA@ 004e5b90     Reader:Reader.obj
 0003:00006ba0       ??_C@_0O@CFAF@StrictClaire2?$AA@ 004e5ba0     Reader:Reader.obj
 0003:00006bb0       ??_C@_01KALE@?$HM?$AA@     004e5bb0     Reader:Reader.obj
 0003:00006bb4       ??_C@_02CHDK@OR?$AA@       004e5bb4     Reader:Reader.obj
 0003:00006bb8       ??_C@_03LACO@AND?$AA@      004e5bb8     Reader:Reader.obj
 0003:00006bbc       ??_C@_0O@FLOK@stop?$DP_integer?$AA@ 004e5bbc     Reader:Reader.obj
 0003:00006bcc       ??_C@_06DAFB@known?$CB?$AA@ 004e5bcc     Reader:Reader.obj
 0003:00006bd4       ??_C@_05OFMG@quote?$AA@    004e5bd4     Reader:Reader.obj
 0003:00006bdc       ??_C@_04HKPJ@rule?$AA@     004e5bdc     Reader:Reader.obj
 0003:00006be4       ??_C@_05EELJ@break?$AA@    004e5be4     Reader:Reader.obj
 0003:00006bec       ??_C@_06CGBH@return?$AA@   004e5bec     Reader:Reader.obj
 0003:00006bf4       ??_C@_02NNPM@?3?3?$AA@     004e5bf4     Reader:Reader.obj
 0003:00006bf8       ??_C@_02MILE@as?$AA@       004e5bf8     Reader:Reader.obj
 0003:00006bfc       ??_C@_02IAOD@in?$AA@       004e5bfc     Reader:Reader.obj
 0003:00006c00       ??_C@_05HPNL@catch?$AA@    004e5c00     Reader:Reader.obj
 0003:00006c08       ??_C@_04COF@None?$AA@      004e5c08     Reader:Reader.obj
 0003:00006c10       ??_C@_04KIKH@none?$AA@     004e5c10     Reader:Reader.obj
 0003:00006c18       ??_C@_0N@NJHP@keyword?$DP_any?$AA@ 004e5c18     Reader:Reader.obj
 0003:00006c28       ??_C@_03EEAD@Zif?$AA@      004e5c28     Reader:Reader.obj
 0003:00006c2c       ??_C@_02NEFL@if?$AA@       004e5c2c     Reader:Reader.obj
 0003:00006c30       ??_C@_03DGDL@try?$AA@      004e5c30     Reader:Reader.obj
 0003:00006c34       ??_C@_04GJIP@when?$AA@     004e5c34     Reader:Reader.obj
 0003:00006c3c       ??_C@_03NIGL@let?$AA@      004e5c3c     Reader:Reader.obj
 0003:00006c40       ??_C@_04NNBC@case?$AA@     004e5c40     Reader:Reader.obj
 0003:00006c48       ??_C@_03ILIA@for?$AA@      004e5c48     Reader:Reader.obj
 0003:00006c4c       ??_C@_04IIAH@else?$AA@     004e5c4c     Reader:Reader.obj
 0003:00006c54       ??_C@_0BB@BLLE@reserved_keyword?$AA@ 004e5c54     Reader:Reader.obj
 0003:00006c68       ??_C@_07NCOK@?$CKarrow?$CK?$AA@ 004e5c68     Reader:Reader.obj
 0003:00006c70       ??_C@_02KKAD@?$DM?3?$AA@   004e5c70     Reader:Reader.obj
 0003:00006c74       ??_C@_08DDLJ@triangle?$AA@ 004e5c74     Reader:Reader.obj
 0003:00006c80       ??_C@_05KOOC@arrow?$AA@    004e5c80     Reader:Reader.obj
 0003:00006c88       ??_C@_09KCOB@delimiter?$AA@ 004e5c88     Reader:Reader.obj
 0003:00006c94       ??_C@_0BD@MGIJ@firstc_meta_reader?$AA@ 004e5c94     Reader:Reader.obj
 0003:00006ca8       ??_C@_0BB@LDLK@next_meta_reader?$AA@ 004e5ca8     Reader:Reader.obj
 0003:00006cbc       ??_C@_0M@PDGM@meta_reader?$AA@ 004e5cbc     Reader:Reader.obj
 0003:00006cc8       ??_C@_06DDHK@PRtime?$AA@   004e5cc8     Reader:Reader.obj
 0003:00006cd0       ??_C@_06EKNJ@PRshow?$AA@   004e5cd0     Reader:Reader.obj
 0003:00006cd8       ??_C@_0L@FGFO@call_count?$AA@ 004e5cd8     Reader:Reader.obj
 0003:00006ce4       ??_C@_09DEA@PRdepends?$AA@ 004e5ce4     Reader:Reader.obj
 0003:00006cf0       ??_C@_0BA@HFJK@extract_of_type?$AA@ 004e5cf0     Reader:Reader.obj
 0003:00006d00       ??_C@_0L@NCOP@dependents?$AA@ 004e5d00     Reader:Reader.obj
 0003:00006d0c       ??_C@_06CGCD@PRlook?$AA@   004e5d0c     Reader:Reader.obj
 0003:00006d14       ??_C@_05POOE@PRget?$AA@    004e5d14     Reader:Reader.obj
 0003:00006d1c       ??_C@_06CFEL@rstart?$AA@   004e5d1c     Reader:Reader.obj
 0003:00006d24       ??_C@_05BCPD@rloop?$AA@    004e5d24     Reader:Reader.obj
 0003:00006d2c       ??_C@_04KAPC@rnum?$AA@     004e5d2c     Reader:Reader.obj
 0003:00006d34       ??_C@_06GEIA@rdepth?$AA@   004e5d34     Reader:Reader.obj
 0003:00006d3c       ??_C@_05FNL@rtime?$AA@     004e5d3c     Reader:Reader.obj
 0003:00006d44       ??_C@_04HPI@step?$AA@      004e5d44     Reader:Reader.obj
 0003:00006d4c       ??_C@_0O@OPKO@closure_build?$AA@ 004e5d4c     Reader:Reader.obj
 0003:00006d5c       ??_C@_05PNCJ@block?$AA@    004e5d5c     Reader:Reader.obj
 0003:00006d64       ??_C@_04JJNL@Show?$AA@     004e5d64     Reader:Reader.obj
 0003:00006d6c       ??_C@_0BB@JMGC@print_debug_info?$AA@ 004e5d6c     Reader:Reader.obj
 0003:00006d80       ??_C@_0L@PBML@breakpoint?$AA@ 004e5d80     Reader:Reader.obj
 0003:00006d8c       ??_C@_04JPPJ@stop?$AA@     004e5d8c     Reader:Reader.obj
 0003:00006d94       ??_C@_0L@PNNE@trace_rule?$AA@ 004e5d94     Reader:Reader.obj
 0003:00006da0       ??_C@_0L@LEFL@self_trace?$AA@ 004e5da0     Reader:Reader.obj
 0003:00006dac       ??_C@_07EOHP@untrace?$AA@  004e5dac     Reader:Reader.obj
 0003:00006db4       ??_C@_08PIGA@trace_on?$AA@ 004e5db4     Reader:Reader.obj
 0003:00006dc0       ??_C@_0M@EPOI@CommandLoop?$AA@ 004e5dc0     Reader:Reader.obj
 0003:00006dcc       ??_C@_0M@KPKN@step_system?$AA@ 004e5dcc     Reader:Reader.obj
 0003:00006dd8       ??_C@_0N@IKCC@debug_system?$AA@ 004e5dd8     Reader:Reader.obj
 0003:00006de8       ??_C@_0P@EHNM@inspect_system?$AA@ 004e5de8     Reader:Reader.obj
 0003:00006df8       ??_C@_08MEHD@hashgrow?$AA@ 004e5df8     Reader:Reader.obj
 0003:00006e04       ??_C@_04CHLA@kill?$AA@     004e5e04     Reader:Reader.obj
 0003:00006e0c       ??_C@_0BA@MNOD@print_exception?$AA@ 004e5e0c     Reader:Reader.obj
 0003:00006e1c       ??_C@_0BC@BANL@debug_if_possible?$AA@ 004e5e1c     Reader:Reader.obj
 0003:00006e30       ??_C@_05LBNL@eload?$AA@    004e5e30     Reader:Reader.obj
 0003:00006e38       ??_C@_0M@NIEN@add_modules?$AA@ 004e5e38     Reader:Reader.obj
 0003:00006e44       ??_C@_05HDFB@sload?$AA@    004e5e44     Reader:Reader.obj
 0003:00006e4c       ??_C@_04JMJF@load?$AA@     004e5e4c     Reader:Reader.obj
 0003:00006e54       ??_C@_09INKF@load_file?$AA@ 004e5e54     Reader:Reader.obj
 0003:00006e60       ??_C@_07NMKP@unbind?$CB?$AA@ 004e5e60     Reader:Reader.obj
 0003:00006e68       ??_C@_05NKCG@bind?$CB?$AA@ 004e5e68     Reader:Reader.obj
 0003:00006e70       ??_C@_0BB@IJCH@extract_variable?$AA@ 004e5e70     Reader:Reader.obj
 0003:00006e84       ??_C@_06KCFH@Serror?$AA@   004e5e84     Reader:Reader.obj
 0003:00006e8c       ??_C@_06JKGI@verify?$AA@   004e5e8c     Reader:Reader.obj
 0003:00006e94       ??_C@_07CDMB@checkno?$AA@  004e5e94     Reader:Reader.obj
 0003:00006e9c       ??_C@_07KMII@findeol?$AA@  004e5e9c     Reader:Reader.obj
 0003:00006ea4       ??_C@_05GPBP@cnext?$AA@    004e5ea4     Reader:Reader.obj
 0003:00006eac       ??_C@_06HPDL@skipc?$CB?$AA@ 004e5eac     Reader:Reader.obj
 0003:00006eb4       ??_C@_05EMHO@skipc?$AA@    004e5eb4     Reader:Reader.obj
 0003:00006ebc       ??_C@_09EBHO@useless_c?$AA@ 004e5ebc     Reader:Reader.obj
 0003:00006ec8       ??_C@_0N@NFEC@nextDefclass?$AA@ 004e5ec8     Reader:Reader.obj
 0003:00006ed8       ??_C@_08CINO@nextinst?$AA@ 004e5ed8     Reader:Reader.obj
 0003:00006ee4       ??_C@_0L@KPJE@nextmethod?$AA@ 004e5ee4     Reader:Reader.obj
 0003:00006ef0       ??_C@_0P@OBFB@nextdefinition?$AA@ 004e5ef0     Reader:Reader.obj
 0003:00006f00       ??_C@_08KGIP@readcall?$AA@ 004e5f00     Reader:Reader.obj
 0003:00006f0c       ??_C@_03JOHB@Do?$CB?$AA@   004e5f0c     Reader:Reader.obj
 0003:00006f10       ??_C@_09DDBC@readblock?$AA@ 004e5f10     Reader:Reader.obj
 0003:00006f1c       ??_C@_07BMBA@nextseq?$AA@  004e5f1c     Reader:Reader.obj
 0003:00006f24       ??_C@_0M@HLDG@dereference?$AA@ 004e5f24     Reader:Reader.obj
 0003:00006f30       ??_C@_07MNAB@readset?$AA@  004e5f30     Reader:Reader.obj
 0003:00006f38       ??_C@_08OGAI@readcase?$AA@ 004e5f38     Reader:Reader.obj
 0003:00006f44       ??_C@_06OK@readif?$AA@     004e5f44     Reader:Reader.obj
 0003:00006f4c       ??_C@_04DDJJ@show?$AA@     004e5f4c     Reader:Reader.obj
 0003:00006f54       ??_C@_08FCJF@readwhen?$AA@ 004e5f54     Reader:Reader.obj
 0003:00006f60       ??_C@_08LLLE@readlet?$CK?$AA@ 004e5f60     Reader:Reader.obj
 0003:00006f6c       ??_C@_07MCLP@readlet?$AA@  004e5f6c     Reader:Reader.obj
 0003:00006f74       ??_C@_0L@LFNG@nextstruct?$AA@ 004e5f74     Reader:Reader.obj
 0003:00006f80       ??_C@_0M@MCEO@precedence?$CB?$AA@ 004e5f80     Reader:Reader.obj
 0003:00006f8c       ??_C@_08MEIC@operand?$CB?$AA@ 004e5f8c     Reader:Reader.obj
 0003:00006f98       ??_C@_0L@BIFC@operation?$CB?$AA@ 004e5f98     Reader:Reader.obj
 0003:00006fa4       ??_C@_08GCDN@combine?$CB?$AA@ 004e5fa4     Reader:Reader.obj
 0003:00006fb0       ??_C@_07EKGC@combine?$AA@  004e5fb0     Reader:Reader.obj
 0003:00006fb8       ??_C@_0L@BKOI@operation?$DP?$AA@ 004e5fb8     Reader:Reader.obj
 0003:00006fc4       ??_C@_05EFEA@Call?$CB?$AA@ 004e5fc4     Reader:Reader.obj
 0003:00006fcc       ??_C@_0L@OMJG@DBregister?$AA@ 004e5fcc     Reader:Reader.obj
 0003:00006fd8       ??_C@_0BC@NFCF@extended_comment?$CB?$AA@ 004e5fd8     Reader:Reader.obj
 0003:00006fec       ??_C@_0BC@NHJP@extended_comment?$DP?$AA@ 004e5fec     Reader:Reader.obj
 0003:00007000       ??_C@_06MFDL@nexte?$CB?$AA@ 004e6000     Reader:Reader.obj
 0003:00007008       ??_C@_06NIGN@nexts?$CB?$AA@ 004e6008     Reader:Reader.obj
 0003:00007010       ??_C@_0N@LBIL@nextvariable?$AA@ 004e6010     Reader:Reader.obj
 0003:00007020       ??_C@_0M@OHAD@read_escape?$AA@ 004e6020     Reader:Reader.obj
 0003:0000702c       ??_C@_05LCIN@nexti?$AA@    004e602c     Reader:Reader.obj
 0003:00007034       ??_C@_07OIGH@nextexp?$AA@  004e6034     Reader:Reader.obj
 0003:0000703c       ??_C@_05EMGJ@nexte?$AA@    004e603c     Reader:Reader.obj
 0003:00007044       ??_C@_07MEOK@loopexp?$AA@  004e6044     Reader:Reader.obj
 0003:0000704c       ??_C@_05BKGL@nexts?$AA@    004e604c     Reader:Reader.obj
 0003:00007054       ??_C@_08DAIP@nextunit?$AA@ 004e6054     Reader:Reader.obj
 0003:00007060       ??_C@_05NHFC@stop?$DP?$AA@ 004e6060     Reader:Reader.obj
 0003:00007068       ??_C@_08BGNB@keyword?$DP?$AA@ 004e6068     Reader:Reader.obj
 0003:00007074       ??_C@_04ICIO@next?$AA@     004e6074     Reader:Reader.obj
 0003:0000707c       ??_C@_05IECD@curly?$AA@    004e607c     Reader:Reader.obj
 0003:00007084       ??_C@_05FFOK@comma?$AA@    004e6084     Reader:Reader.obj
 0003:0000708c       ??_C@_05PJBL@paren?$AA@    004e608c     Reader:Reader.obj
 0003:00007094       ??_C@_07NNFI@bracket?$AA@  004e6094     Reader:Reader.obj
 0003:0000709c       ??_C@_03GFBM@tab?$AA@      004e609c     Reader:Reader.obj
 0003:000070a0       ??_C@_05GCKI@space?$AA@    004e60a0     Reader:Reader.obj
 0003:000070a8       ??_C@_03HOJH@eof?$AA@      004e60a8     Reader:Reader.obj
 0003:000070ac       ??_C@_08BCHP@toplevel?$AA@ 004e60ac     Reader:Reader.obj
 0003:000070b8       ??_C@_08JPK@maxstack?$AA@  004e60b8     Reader:Reader.obj
 0003:000070c4       ??_C@_09ICII@last_form?$AA@ 004e60c4     Reader:Reader.obj
 0003:000070d0       ??_C@_06LLDN@firstc?$AA@   004e60d0     Reader:Reader.obj
 0003:000070d8       ??_C@_07HHOE@nb_line?$AA@  004e60d8     Reader:Reader.obj
 0003:000070e0       ??_C@_05BNDL@fromp?$AA@    004e60e0     Reader:Reader.obj
 0003:000070e8       ??_C@_07ILCC@s_index?$AA@  004e60e8     Reader:Reader.obj
 0003:000070f0       ??_C@_0DA@NCLO@?$FL117?$FN?5loose?5delimiter?5?$HOS?5in?5prog@ 004e60f0     Reader:file.obj
 0003:00007120       ??_C@_0CC@CNOC@?$FL118?$FN?5read?5wrong?5char?5?$HOS?5after?5?$HO@ 004e6120     Reader:file.obj
 0003:00007144       ??_C@_0CG@HHJF@?$FL119?$FN?5read?5?$HOS?5instead?5of?5a?5?$HOS?5in@ 004e6144     Reader:file.obj
 0003:0000716c       ??_C@_03IFF@?$FN?3?6?$AA@  004e616c     Reader:file.obj
 0003:00007170       ??_C@_0BJ@LIHC@?9?9?9?9?5Syntax?5Error?$FLline?3?5?$AA@ 004e6170     Reader:file.obj
 0003:0000718c       ??_C@_03NLEC@?5?6?6?$AA@   004e618c     Reader:file.obj
 0003:00007190       ??_C@_06HAMA@?$CJ?$FN?6?9?9?5?$AA@ 004e6190     Reader:file.obj
 0003:00007198       ??_C@_04NGPO@?6?9?9?5?$AA@ 004e6198     Reader:file.obj
 0003:000071a0       ??_C@_0CD@BBHA@?$FL120?$FN?5the?5file?5?$HOA?5cannot?5be?5open@ 004e61a0     Reader:file.obj
 0003:000071c4       ??_C@_01LHO@r?$AA@         004e61c4     Reader:file.obj
 0003:000071c8       ??_C@_03HDNL@?4cl?$AA@     004e61c8     Reader:file.obj
 0003:000071cc       ??_C@_0BN@FELO@?9?9?9?9?5?$FLload?5CLAIRE?5file?3?5?$HOA?$FN?6?$AA@ 004e61cc     Reader:file.obj
 0003:000071ec       ??_C@_0BO@BHIO@?9?9?9?9?5?$FLeload?5CLAIRE?5file?3?5?$HOA?$FN?6?$AA@ 004e61ec     Reader:file.obj
 0003:0000720c       ??_C@_0BH@HNJH@?$FL117?$FN?5Loose?5?$HOS?5in?5file?$AA@ 004e620c     Reader:file.obj
 0003:00007224       ??_C@_0DE@EBBG@?$CK?$CK?$CK?$CK?$CK?$CK?5ERROR?$FL121?$FN?3?5unprintable?5e@ 004e6224     Reader:file.obj
 0003:00007258       ??_C@_06KFIN@?5is?5a?5?$AA@ 004e6258     Reader:file.obj
 0003:00007260       ??_C@_0BH@FHFL@?$FL?$DP?$DP?$FN?5?$HOA?5is?5not?5a?5float?$AA@ 004e6260     Reader:file.obj
 0003:00007278       ??_C@_03NAME@?4?4?4?$AA@   004e6278     Reader:inspect.obj
 0003:0000727c       ??_C@_0CB@LPEL@?$DN?$DO?5given?5to?5inspector?5is?5wrong?4?6@ 004e627c     Reader:inspect.obj
 0003:000072a0       ??_C@_0BO@FANB@?$FL128?$FN?5?$HOS?5should?5be?5an?5integer?$AA@ 004e62a0     Reader:inspect.obj
 0003:000072c0       ??_C@_0BK@KBOI@?5is?5not?5a?5good?5index?5for?5?$AA@ 004e62c0     Reader:inspect.obj
 0003:000072dc       ??_C@_0BK@OOCF@?5in?5not?5a?5good?5index?5for?5?$AA@ 004e62dc     Reader:inspect.obj
 0003:000072f8       ??_C@_0CD@KNIF@?$FL129?$FN?5trace?5not?5implemented?5on?5?$HO@ 004e62f8     Reader:inspect.obj
 0003:0000731c       ??_C@_0CF@JJCM@?$FL130?$FN?5untrace?5not?5implemented?5on@ 004e631c     Reader:inspect.obj
 0003:00007344       ??_C@_02NEME@?5?6?$AA@     004e6344     Reader:inspect.obj
 0003:00007348       ??_C@_04HCBP@?3add?$AA@    004e6348     Reader:inspect.obj
 0003:00007350       ??_C@_02CEEM@?$CJ?5?$AA@   004e6350     Reader:inspect.obj
 0003:00007354       ??_C@_0BA@MEFN@?$CJ?5by?5an?5update?5?$AA@ 004e6354     Reader:inspect.obj
 0003:00007364       ??_C@_0BE@HFMD@?5is?5triggered?5for?5?$CI?$AA@ 004e6364     Reader:inspect.obj
 0003:00007378       ??_C@_0O@MDBM@?9?9?9?5the?5rule?5?$AA@ 004e6378     Reader:inspect.obj
 0003:00007388       ??_C@_0BE@CHDO@debugger?5installed?6?$AA@ 004e6388     Reader:inspect.obj
 0003:0000739c       ??_C@_0BC@ELJK@debugger?5removed?6?$AA@ 004e639c     Reader:inspect.obj
 0003:000073b0       ??_C@_09LJMO@?5in?5line?5?$AA@ 004e63b0     Reader:inspect.obj
 0003:000073bc       ??_C@_0BC@FAN@?5?6?9?9?9?9?5Last?5call?5?$AA@ 004e63bc     Reader:inspect.obj
 0003:000073d0       ??_C@_06MCBO@break?$DO?$AA@ 004e63d0     Reader:inspect.obj
 0003:000073d8       ??_C@_07PDEJ@?$CJ?5?$FLq?$FN?5?$DO?$AA@ 004e63d8     Reader:inspect.obj
 0003:000073e0       ??_C@_09EFHG@break?5in?5?$AA@ 004e63e0     Reader:inspect.obj
 0003:000073ec       ??_C@_02GJAC@?$FN?$DO?$AA@ 004e63ec     Reader:inspect.obj
 0003:000073f0       ??_C@_06FGOK@debug?$FL?$AA@ 004e63f0     Reader:inspect.obj
 0003:000073f8       ??_C@_02MDFO@?$FN?3?$AA@   004e63f8     Reader:inspect.obj
 0003:000073fc       ??_C@_03DADG@?5?5?$FL?$AA@ 004e63fc     Reader:inspect.obj
 0003:00007400       ??_C@_09OHBF@?0?5narg?5?$DN?5?$AA@ 004e6400     Reader:inspect.obj
 0003:0000740c       ??_C@_07DNMN@?$FN?3?5p?5?$DN?5?$AA@ 004e640c     Reader:inspect.obj
 0003:00007414       ??_C@_03DMDD@?5?9?5?$AA@   004e6414     Reader:inspect.obj
 0003:00007418       ??_C@_04ENNO@?5?9?$DO?5?$AA@ 004e6418     Reader:inspect.obj
 0003:00007420       ??_C@_0L@JBFB@?$DMcompiled?3?$AA@ 004e6420     Reader:inspect.obj
 0003:0000742c       ??_C@_04PGEL@?$FN?5?$DO?5?$AA@ 004e642c     Reader:inspect.obj
 0003:00007434       ??_C@_0N@HMMO@exit?5stepper?$AA@ 004e6434     Reader:inspect.obj
 0003:00007444       ??_C@_0CO@ECAB@?$CJ?5?3?5?$FL?$CIi?$CJn?0?$CIo?$CJut?0e?$CIx?$CJit?0?$CIt?$CJrace?0?$CI@ 004e6444     Reader:inspect.obj
 0003:00007474       ??_C@_0CL@HNJB@?$FL131?$FN?5Cannot?5profile?5a?5reified?5p@ 004e6474     Reader:inspect.obj
 0003:000074a0       ??_C@_04MIPD@?5ms?6?$AA@   004e64a0     Reader:inspect.obj
 0003:000074a8       ??_C@_0L@BPHH@?5calls?5?9?$DO?5?$AA@ 004e64a8     Reader:inspect.obj
 0003:000074b4       ??_C@_05PDIO@?5?5?5?$CK?5?$AA@ 004e64b4     Reader:inspect.obj
 0003:000074bc       ??_C@_0CF@GMCH@?9?9?9?9?9?9?9?9?9?9?9?9?9?9?9?9?9?9?9?9?9?9?9?9?9?9?9?9?9?9?9?9@ 004e64bc     Reader:inspect.obj
 0003:000074e4       ??_C@_0CE@JCAI@?$FL164?$FN?5?$HOS?5cannot?5be?5assigned?5with@ 004e64e4     Reader:syntax.obj
 0003:00007508       ??_C@_0CA@FAFN@?$FL165?$FN?5?$HOS?5is?5illegal?5after?5a?5let?$AA@ 004e6508     Reader:syntax.obj
 0003:00007528       ??_C@_0CB@JLAH@?$FL165?$FN?5?$HOS?5is?5illegal?5after?5a?5when@ 004e6528     Reader:syntax.obj
 0003:0000754c       ??_C@_0BK@CJG@?$FL161?$FN?5missing?5?$HOS?5after?5?$HOS?$AA@ 004e654c     Reader:syntax.obj
 0003:00007568       ??_C@_0BO@BDPO@?$FL167?$FN?5missing?5?$CJ?5or?5?0?5after?5?$HOS?$AA@ 004e6568     Reader:syntax.obj
 0003:00007588       ??_C@_0BO@KDEE@?$FL166?$FN?5Missing?5?$CI?5after?5case?5?$HOS?$AA@ 004e6588     Reader:syntax.obj
 0003:000075a8       ??_C@_0CL@LBKE@?$FL169?$FN?5missing?5separation?5between@ 004e65a8     Reader:syntax.obj
 0003:000075d4       ??_C@_0BN@MENE@?$FL168?$FN?5missing?5?$HM?5in?5selection?$AA@ 004e65d4     Reader:syntax.obj
 0003:000075f4       ??_C@_0DD@LGLI@?$FL170?$FN?5cannot?5use?5a?5variable?5?$CI?$HOS?$CJ@ 004e65f4     Reader:syntax.obj
 0003:00007628       ??_C@_0CG@LMFA@?$FL170?$FN?5cannot?5use?5?$HOS?5in?5a?5set?5con@ 004e6628     Reader:syntax.obj
 0003:00007650       ??_C@_0CO@ILM@?$FL171?$FN?5Read?5the?5character?5?$HOS?5insi@ 004e6650     Reader:syntax.obj
 0003:00007680       ??_C@_0CE@BAOB@?$FL173?$FN?5Expression?5starting?5with?5e@ 004e6680     Reader:syntax.obj
 0003:000076a4       ??_C@_0CK@LCKJ@?$FL172?$FN?5the?5sequence?5?4?4?4?$HOS?5must?5en@ 004e66a4     Reader:syntax.obj
 0003:000076d0       ??_C@_0CI@MNDD@?$FL174?$FN?5Wrong?5instantiation?5list?5?$HO@ 004e66d0     Reader:syntax.obj
 0003:000076f8       ??_C@_0CC@GCNG@?$FL149?$FN?5wrong?5keyword?5?$CI?$HOS?$CJ?5after?5?$HO@ 004e66f8     Reader:syntax.obj
 0003:0000771c       ??_C@_0BK@IDMJ@?$FL176?$FN?5Missing?5?$FN?5after?5?$HOS?5?$AA@ 004e671c     Reader:syntax.obj
 0003:00007738       ??_C@_0BO@DGMC@?$FL175?$FN?5Wrong?5form?5?$HOS?5in?5?$HOS?$CI?$HOS?$CJ?$AA@ 004e6738     Reader:syntax.obj
 0003:00007758       ??_C@_0BP@EAEM@?$FL151?$FN?5?$HOS?5not?5allowed?5after?5?$HOS?6?$AA@ 004e6758     Reader:read.obj
 0003:00007778       ??_C@_0DC@JFFN@?$FL152?$FN?5Separation?5missing?5between@ 004e6778     Reader:read.obj
 0003:000077ac       ??_C@_0CC@MFOF@?$FL150?$FN?5Illegal?5use?5of?5?3?$HOS?5after?5?$HO@ 004e67ac     Reader:read.obj
 0003:000077d0       ??_C@_0BI@JEBC@?$FL154?$FN?5?$HOS?$DM?$HOS?5not?5allowed?$AA@ 004e67d0     Reader:read.obj
 0003:000077e8       ??_C@_0BP@HOIJ@?$FL153?$FN?5eof?5inside?5an?5expression?$AA@ 004e67e8     Reader:read.obj
 0003:00007808       ??_C@_0BM@GKOM@?$FL159?$FN?5missing?5?$CI?5after?5?$HOS?$EA?$HOS?$AA@ 004e6808     Reader:read.obj
 0003:00007824       ??_C@_0BP@DGOA@?$FL158?$FN?5wrong?5type?5in?5call?5?$HOS?$EA?$HOS?$AA@ 004e6824     Reader:read.obj
 0003:00007844       ??_C@_0BN@LPAG@?$FL157?$FN?5?$HOS?5cannot?5follow?5list?$HL?$AA@ 004e6844     Reader:read.obj
 0003:00007864       ??_C@_0CE@NGOP@?$FL156?$FN?5wrong?5use?5of?5exists?$CI?$HOS?5?$HOS?5@ 004e6864     Reader:read.obj
 0003:00007888       ??_C@_0CD@GCGJ@?$FL155?$FN?5missing?5?$HM?5in?5exists?5?1?5fora@ 004e6888     Reader:read.obj
 0003:000078ac       ??_C@_0CC@GEBB@?$FL160?$FN?5wrong?5use?5of?5special?5char?5@ 004e68ac     Reader:read.obj
 0003:000078d0       ??_C@_0CC@OMEE@?$FL161?$FN?5Missing?5keyword?5?$HOS?5after?5?$HO@ 004e68d0     Reader:read.obj
 0003:000078f4       ??_C@_0CE@EN@?$FL162?$FN?5Missing?5separator?5?$HOS?5after@ 004e68f4     Reader:read.obj
 0003:00007918       ??_C@_0CC@LEG@?$FL163?$FN?5wrong?5separator?5?$HOS?5after?5?$HO@ 004e6918     Reader:read.obj
 0003:0000793c       ??_C@_03MGLN@?2n?$CC?$AA@  004e693c     Reader:read.obj
 0003:00007940       ??_C@_02DNGC@?0?$CC?$AA@   004e6940     Reader:read.obj
 0003:00007944       ??_C@_06EABA@trace?$CI?$AA@ 004e6944     Reader:read.obj
 0003:0000794c       ??_C@_07MLCL@assert?$CI?$AA@ 004e694c     Reader:read.obj
 0003:00007954       ??_C@_02FCOO@?1?1?$AA@     004e6954     Reader:read.obj
 0003:00007958       ??_C@_0BM@CLM@compileEventMethod_property?$AA@ 004e6958     Optimize:Optimize.obj
 0003:00007974       ??_C@_0BK@GNOA@compile_if_write_relation?$AA@ 004e6974     Optimize:Optimize.obj
 0003:00007990       ??_C@_0BI@JJDE@c_code_Defrule_Optimize?$AA@ 004e6990     Optimize:Optimize.obj
 0003:000079a8       ??_C@_0BJ@HAHO@c_type_Defrule2_Optimize?$AA@ 004e69a8     Optimize:Optimize.obj
 0003:000079c4       ??_C@_0BB@NOCC@lexical_num_any2?$AA@ 004e69c4     Optimize:Optimize.obj
 0003:000079d8       ??_C@_0BC@FOE@Tighten_relation2?$AA@ 004e69d8     Optimize:Optimize.obj
 0003:000079ec       ??_C@_0BG@DNLD@Produce_remove_table2?$AA@ 004e69ec     Optimize:Optimize.obj
 0003:00007a04       ??_C@_0BJ@BFGJ@Produce_remove_property2?$AA@ 004e6a04     Optimize:Optimize.obj
 0003:00007a20       ??_C@_0BG@OKJG@Produce_get_relation2?$AA@ 004e6a20     Optimize:Optimize.obj
 0003:00007a38       ??_C@_0BD@OPKK@Produce_put_table2?$AA@ 004e6a38     Optimize:Optimize.obj
 0003:00007a4c       ??_C@_0BI@OKEF@Produce_erase_property2?$AA@ 004e6a4c     Optimize:Optimize.obj
 0003:00007a64       ??_C@_0BG@CIGC@Produce_put_property2?$AA@ 004e6a64     Optimize:Optimize.obj
 0003:00007a7c       ??_C@_0BM@PLPA@compute_set_write_relation2?$AA@ 004e6a7c     Optimize:Optimize.obj
 0003:00007a98       ??_C@_0CD@HEID@compute_if_write_inverse_relatio@ 004e6a98     Optimize:Optimize.obj
 0003:00007abc       ??_C@_0BJ@LDLL@c_code_Defarray_Optimize?$AA@ 004e6abc     Optimize:Optimize.obj
 0003:00007ad8       ??_C@_0BG@EFGK@compile_lambda_string?$AA@ 004e6ad8     Optimize:Optimize.obj
 0003:00007af0       ??_C@_0CA@GOHA@function_name_property_Optimize?$AA@ 004e6af0     Optimize:Optimize.obj
 0003:00007b10       ??_C@_0O@KBOF@function_name?$AA@ 004e6b10     Optimize:Optimize.obj
 0003:00007b20       ??_C@_0L@JFCB@?$DNsig?$DP_list?$AA@ 004e6b20     Optimize:Optimize.obj
 0003:00007b2c       ??_C@_05CMG@?$DNsig?$DP?$AA@ 004e6b2c     Optimize:Optimize.obj
 0003:00007b34       ??_C@_0BI@DGGH@extract_signature?$CB_list?$AA@ 004e6b34     Optimize:Optimize.obj
 0003:00007b4c       ??_C@_0BH@PJLD@extract_status_new_any?$AA@ 004e6b4c     Optimize:Optimize.obj
 0003:00007b64       ??_C@_0BD@HPOO@add_method?$CB_method?$AA@ 004e6b64     Optimize:Optimize.obj
 0003:00007b78       ??_C@_0BF@IFAO@add_method_property2?$AA@ 004e6b78     Optimize:Optimize.obj
 0003:00007b90       ??_C@_0BK@CEBJ@c_code_Defmethod_Optimize?$AA@ 004e6b90     Optimize:Optimize.obj
 0003:00007bac       ??_C@_0BK@IBOA@c_type_Defmethod_Optimize?$AA@ 004e6bac     Optimize:Optimize.obj
 0003:00007bc8       ??_C@_04NEPK@SHIT?$AA@     004e6bc8     Optimize:Optimize.obj
 0003:00007bd0       ??_C@_0BJ@PNCG@c_code_Defclass_Optimize?$AA@ 004e6bd0     Optimize:Optimize.obj
 0003:00007bec       ??_C@_0BH@HFE@c_code_Defobj_Optimize?$AA@ 004e6bec     Optimize:Optimize.obj
 0003:00007c04       ??_C@_0P@DFMH@analyze?$CB_class?$AA@ 004e6c04     Optimize:Optimize.obj
 0003:00007c14       ??_C@_0N@GHEO@total?$DP_class?$AA@ 004e6c14     Optimize:Optimize.obj
 0003:00007c24       ??_C@_0BL@OBMD@c_code_Definition_Optimize?$AA@ 004e6c24     Optimize:Optimize.obj
 0003:00007c40       ??_C@_07DDEA@_CL_obj?$AA@  004e6c40     Optimize:Optimize.obj
 0003:00007c48       ??_C@_06INM@?$CKname?$CK?$AA@ 004e6c48     Optimize:Optimize.obj
 0003:00007c50       ??_C@_0BL@IFGG@c_type_Definition_Optimize?$AA@ 004e6c50     Optimize:Optimize.obj
 0003:00007c6c       ??_C@_0BG@HNIC@c_code_Tuple_Optimize?$AA@ 004e6c6c     Optimize:Optimize.obj
 0003:00007c84       ??_C@_0BG@NHFF@c_type_Tuple_Optimize?$AA@ 004e6c84     Optimize:Optimize.obj
 0003:00007c9c       ??_C@_0BE@OAOM@c_code_Set_Optimize?$AA@ 004e6c9c     Optimize:Optimize.obj
 0003:00007cb0       ??_C@_0BE@JGDE@c_type_Set_Optimize?$AA@ 004e6cb0     Optimize:Optimize.obj
 0003:00007cc4       ??_C@_0BF@OBKC@c_code_List_Optimize?$AA@ 004e6cc4     Optimize:Optimize.obj
 0003:00007cdc       ??_C@_0BF@DGNE@c_type_List_Optimize?$AA@ 004e6cdc     Optimize:Optimize.obj
 0003:00007cf4       ??_C@_0N@IOAO@Iterate_any3?$AA@ 004e6cf4     Optimize:Optimize.obj
 0003:00007d04       ??_C@_0GJ@MODN@lambda?$FL?$CIx?3?1?$CL?$FLtuple?$CIany?0any?$CJ?$FN?0v?3V@ 004e6d04     Optimize:Optimize.obj
 0003:00007d70       ??_C@_0N@CEJJ@Iterate_any2?$AA@ 004e6d70     Optimize:Optimize.obj
 0003:00007d80       ??_C@_0HD@ODPE@lambda?$FL?$CIx?3but?$FLtuple?$CIany?0any?$CJ?$FN?0v?3@ 004e6d80     Optimize:Optimize.obj
 0003:00007df4       ??_C@_0BA@FJDE@Iterate_Collect?$AA@ 004e6df4     Optimize:Optimize.obj
 0003:00007e04       ??_C@_0HM@IBOE@lambda?$FL?$CIx?3Collect?0v?3Variable?0e?3a@ 004e6e04     Optimize:Optimize.obj
 0003:00007e80       ??_C@_0P@GKNK@Iterate_Select?$AA@ 004e6e80     Optimize:Optimize.obj
 0003:00007e90       ??_C@_0HL@MIDG@lambda?$FL?$CIx?3Select?0v?3Variable?0e?3an@ 004e6e90     Optimize:Optimize.obj
 0003:00007f0c       ??_C@_0BA@OEPN@Iterate_Lselect?$AA@ 004e6f0c     Optimize:Optimize.obj
 0003:00007f1c       ??_C@_0HM@BBPC@lambda?$FL?$CIx?3Lselect?0v?3Variable?0e?3a@ 004e6f1c     Optimize:Optimize.obj
 0003:00007f98       ??_C@_0N@NLCA@Iterate_any1?$AA@ 004e6f98     Optimize:Optimize.obj
 0003:00007fa8       ??_C@_0IK@IMCD@lambda?$FL?$CIx?3?4?4?$FLtuple?$CIinteger?0integ@ 004e6fa8     Optimize:Optimize.obj
 0003:00008034       ??_C@_0O@OBPD@Iterate_class?$AA@ 004e7034     Optimize:Optimize.obj
 0003:00008044       ??_C@_0IJ@HGEI@lambda?$FL?$CIx?3class?0v?3Variable?0e?3any@ 004e7044     Optimize:Optimize.obj
 0003:000080d0       ??_C@_0O@LNGC@iterate_array?$AA@ 004e70d0     Optimize:Optimize.obj
 0003:000080e0       ??_C@_0IA@FOMG@lambda?$FL?$CIx?3array?0v?3Variable?0e?3any@ 004e70e0     Optimize:Optimize.obj
 0003:00008160       ??_C@_0BB@NPGJ@iterate_Interval?$AA@ 004e7160     Optimize:Optimize.obj
 0003:00008174       ??_C@_0KI@ICFF@lambda?$FL?$CIx?3Interval?0v?3Variable?$FLra@ 004e7174     Optimize:Optimize.obj
 0003:0000821c       ??_C@_0BD@EFIF@Iterate?$CB_Iteration?$AA@ 004e721c     Optimize:Optimize.obj
 0003:00008230       ??_C@_0BG@MIAM@c_code_While_Optimize?$AA@ 004e7230     Optimize:Optimize.obj
 0003:00008248       ??_C@_0BG@GCNL@c_type_While_Optimize?$AA@ 004e7248     Optimize:Optimize.obj
 0003:00008260       ??_C@_0BI@JPEN@c_type_Lselect_Optimize?$AA@ 004e7260     Optimize:Optimize.obj
 0003:00008278       ??_C@_0BH@KMJL@c_type_Select_Optimize?$AA@ 004e7278     Optimize:Optimize.obj
 0003:00008290       ??_C@_0BG@LEMB@c_type_Image_Optimize?$AA@ 004e7290     Optimize:Optimize.obj
 0003:000082a8       ??_C@_0BH@CGN@c_code_Exists_Optimize?$AA@ 004e72a8     Optimize:Optimize.obj
 0003:000082c0       ??_C@_0BH@BLMH@c_type_Exists_Optimize?$AA@ 004e72c0     Optimize:Optimize.obj
 0003:000082d8       ??_C@_0BH@KFKL@inner_select_Iteration?$AA@ 004e72d8     Optimize:Optimize.obj
 0003:000082f0       ??_C@_0BI@PAGJ@c_code_select_Iteration?$AA@ 004e72f0     Optimize:Optimize.obj
 0003:00008308       ??_C@_0BI@MEFE@c_code_Lselect_Optimize?$AA@ 004e7308     Optimize:Optimize.obj
 0003:00008320       ??_C@_0BH@LFDB@c_code_Select_Optimize?$AA@ 004e7320     Optimize:Optimize.obj
 0003:00008338       ??_C@_0BK@OCLJ@c_code_Iteration_Optimize?$AA@ 004e7338     Optimize:Optimize.obj
 0003:00008354       ??_C@_0BK@EHEA@c_type_Iteration_Optimize?$AA@ 004e7354     Optimize:Optimize.obj
 0003:00008370       ??_C@_0BA@FMHI@c_gc?$DP_Iteration?$AA@ 004e7370     Optimize:Optimize.obj
 0003:00008380       ??_C@_0BE@HHBL@c_code_multiple_For?$AA@ 004e7380     Optimize:Optimize.obj
 0003:00008394       ??_C@_0BE@EFOI@c_code_For_Optimize?$AA@ 004e7394     Optimize:Optimize.obj
 0003:000083a8       ??_C@_0BE@DDDA@c_type_For_Optimize?$AA@ 004e73a8     Optimize:Optimize.obj
 0003:000083bc       ??_C@_09FNOF@c_gc?$DP_Let?$AA@ 004e73bc     Optimize:Optimize.obj
 0003:000083c8       ??_C@_0BF@KICB@c_code_When_Optimize?$AA@ 004e73c8     Optimize:Optimize.obj
 0003:000083e0       ??_C@_0BF@HPFH@c_type_When_Optimize?$AA@ 004e73e0     Optimize:Optimize.obj
 0003:000083f8       ??_C@_0BE@FAIF@c_code_Let_Optimize?$AA@ 004e73f8     Optimize:Optimize.obj
 0003:0000840c       ??_C@_0BE@CGFN@c_type_Let_Optimize?$AA@ 004e740c     Optimize:Optimize.obj
 0003:00008420       ??_C@_08FNKE@c_gc?$DP_Do?$AA@ 004e7420     Optimize:Optimize.obj
 0003:0000842c       ??_C@_0BD@BDIJ@c_code_Do_Optimize?$AA@ 004e742c     Optimize:Optimize.obj
 0003:00008440       ??_C@_0BD@MLHJ@c_type_Do_Optimize?$AA@ 004e7440     Optimize:Optimize.obj
 0003:00008454       ??_C@_0BF@MAHO@c_code_Case_Optimize?$AA@ 004e7454     Optimize:Optimize.obj
 0003:0000846c       ??_C@_0BF@BHAI@c_type_Case_Optimize?$AA@ 004e746c     Optimize:Optimize.obj
 0003:00008484       ??_C@_08FKNP@c_gc?$DP_If?$AA@ 004e7484     Optimize:Optimize.obj
 0003:00008490       ??_C@_0BD@PGJH@c_code_If_Optimize?$AA@ 004e7490     Optimize:Optimize.obj
 0003:000084a4       ??_C@_0BD@COGH@c_type_If_Optimize?$AA@ 004e74a4     Optimize:Optimize.obj
 0003:000084b8       ??_C@_0BB@HKKN@extendedTest?$DP_If?$AA@ 004e74b8     Optimize:Optimize.obj
 0003:000084cc       ??_C@_0BG@NJOK@c_code_Error_Optimize?$AA@ 004e74cc     Optimize:Optimize.obj
 0003:000084e4       ??_C@_0BG@HDDN@c_type_Error_Optimize?$AA@ 004e74e4     Optimize:Optimize.obj
 0003:000084fc       ??_C@_0BH@IFDD@c_code_Printf_Optimize?$AA@ 004e74fc     Optimize:Optimize.obj
 0003:00008514       ??_C@_0BH@JMJJ@c_type_Printf_Optimize?$AA@ 004e7514     Optimize:Optimize.obj
 0003:0000852c       ??_C@_0BG@KJFD@c_type_Macro_Optimize?$AA@ 004e752c     Optimize:Optimize.obj
 0003:00008544       ??_C@_0BG@DIE@c_code_Macro_Optimize?$AA@ 004e7544     Optimize:Optimize.obj
 0003:0000855c       ??_C@_0BH@MCNF@c_code_Branch_Optimize?$AA@ 004e755c     Optimize:Optimize.obj
 0003:00008574       ??_C@_0BH@NLHP@c_type_Branch_Optimize?$AA@ 004e7574     Optimize:Optimize.obj
 0003:0000858c       ??_C@_0BG@BDMH@c_type_Trace_Optimize?$AA@ 004e758c     Optimize:Optimize.obj
 0003:000085a4       ??_C@_0BH@KOOM@c_type_Assert_Optimize?$AA@ 004e75a4     Optimize:Optimize.obj
 0003:000085bc       ??_C@_0BG@LJBA@c_code_Trace_Optimize?$AA@ 004e75bc     Optimize:Optimize.obj
 0003:000085d4       ??_C@_0BH@LHEG@c_code_Assert_Optimize?$AA@ 004e75d4     Optimize:Optimize.obj
 0003:000085ec       ??_C@_0BP@IGJM@c_code_Call_function2_Optimize?$AA@ 004e75ec     Optimize:Optimize.obj
 0003:0000860c       ??_C@_0BP@OHD@c_type_Call_function2_Optimize?$AA@ 004e760c     Optimize:Optimize.obj
 0003:0000862c       ??_C@_0BK@DONG@self_print_Call_function2?$AA@ 004e762c     Optimize:Optimize.obj
 0003:00008648       ??_C@_0P@KNIL@Call_function2?$AA@ 004e7648     Optimize:Optimize.obj
 0003:00008658       ??_C@_0BG@PBKO@c_code_Super_Optimize?$AA@ 004e7658     Optimize:Optimize.obj
 0003:00008670       ??_C@_0BG@FLHJ@c_type_Super_Optimize?$AA@ 004e7670     Optimize:Optimize.obj
 0003:00008688       ??_C@_0BF@LDJI@c_code_Cast_Optimize?$AA@ 004e7688     Optimize:Optimize.obj
 0003:000086a0       ??_C@_0BF@GEOO@c_type_Cast_Optimize?$AA@ 004e76a0     Optimize:Optimize.obj
 0003:000086b8       ??_C@_0N@MFAM@c_gc?$DP_Handle?$AA@ 004e76b8     Optimize:Optimize.obj
 0003:000086c8       ??_C@_0BH@DBJF@c_code_Handle_Optimize?$AA@ 004e76c8     Optimize:Optimize.obj
 0003:000086e0       ??_C@_0BH@CIDP@c_type_Handle_Optimize?$AA@ 004e76e0     Optimize:Optimize.obj
 0003:000086f8       ??_C@_0BH@OLEJ@c_code_Return_Optimize?$AA@ 004e76f8     Optimize:Optimize.obj
 0003:00008710       ??_C@_0BH@PCOD@c_type_Return_Optimize?$AA@ 004e7710     Optimize:Optimize.obj
 0003:00008728       ??_C@_0BB@LMFD@c_gc?$DP_to_protect?$AA@ 004e7728     Optimize:Optimize.obj
 0003:0000873c       ??_C@_0BL@KJPB@c_code_to_protect_Optimize?$AA@ 004e773c     Optimize:Optimize.obj
 0003:00008758       ??_C@_0BL@MNFE@c_type_to_protect_Optimize?$AA@ 004e7758     Optimize:Optimize.obj
 0003:00008774       ??_C@_0BG@BAHN@c_code_Quote_Optimize?$AA@ 004e7774     Optimize:Optimize.obj
 0003:0000878c       ??_C@_0BG@LKKK@c_type_Quote_Optimize?$AA@ 004e778c     Optimize:Optimize.obj
 0003:000087a4       ??_C@_0BD@EKJK@c_code_Or_Optimize?$AA@ 004e77a4     Optimize:Optimize.obj
 0003:000087b8       ??_C@_0BD@JCGK@c_type_Or_Optimize?$AA@ 004e77b8     Optimize:Optimize.obj
 0003:000087cc       ??_C@_0BE@HCFL@c_code_And_Optimize?$AA@ 004e77cc     Optimize:Optimize.obj
 0003:000087e0       ??_C@_0BE@EID@c_type_And_Optimize?$AA@ 004e77e0     Optimize:Optimize.obj
 0003:000087f4       ??_C@_0O@PJCD@c_gc?$DP_Gassign?$AA@ 004e77f4     Optimize:Optimize.obj
 0003:00008804       ??_C@_0BI@HHB@c_code_Gassign_Optimize?$AA@ 004e7804     Optimize:Optimize.obj
 0003:0000881c       ??_C@_0BI@FMGI@c_type_Gassign_Optimize?$AA@ 004e781c     Optimize:Optimize.obj
 0003:00008834       ??_C@_0N@NPEK@c_gc?$DP_Assign?$AA@ 004e7834     Optimize:Optimize.obj
 0003:00008844       ??_C@_0BH@BKEG@c_code_Assign_Optimize?$AA@ 004e7844     Optimize:Optimize.obj
 0003:0000885c       ??_C@_0BH@DOM@c_type_Assign_Optimize?$AA@ 004e785c     Optimize:Optimize.obj
 0003:00008874       ??_C@_0BG@HANO@inline_optimize?$DP_Call?$AA@ 004e7874     Optimize:Optimize.obj
 0003:0000888c       ??_C@_0BB@IMAL@c_inline?$DP_method?$AA@ 004e788c     Optimize:Optimize.obj
 0003:000088a0       ??_C@_0BE@GOAH@nth_type_check_type?$AA@ 004e78a0     Optimize:Optimize.obj
 0003:000088b4       ??_C@_0JK@CHF@lambda?$FL?$CItl?3type?0ti?3type?0tx?3type?$CJ@ 004e78b4     Optimize:Optimize.obj
 0003:00008950       ??_C@_0BM@HJOF@functional?$CB_method_Optimize?$AA@ 004e7950     Optimize:Optimize.obj
 0003:0000896c       ??_C@_0M@BBJ@functional?$CB?$AA@ 004e796c     Optimize:Optimize.obj
 0003:00008978       ??_C@_0BC@NBJJ@c_gc?$DP_Call_method?$AA@ 004e7978     Optimize:Optimize.obj
 0003:0000898c       ??_C@_0BM@GICP@c_code_Call_method_Optimize?$AA@ 004e798c     Optimize:Optimize.obj
 0003:000089a8       ??_C@_0BM@OKEL@c_type_Call_method_Optimize?$AA@ 004e79a8     Optimize:Optimize.obj
 0003:000089c4       ??_C@_0BE@FHLG@Call_method?$CB_method?$AA@ 004e79c4     Optimize:Optimize.obj
 0003:000089d8       ??_C@_0BG@EJCK@c_code_method_method2?$AA@ 004e79d8     Optimize:Optimize.obj
 0003:000089f0       ??_C@_0BG@LGJD@c_code_method_method1?$AA@ 004e79f0     Optimize:Optimize.obj
 0003:00008a08       ??_C@_0BH@HFCI@c_type_Update_Optimize?$AA@ 004e7a08     Optimize:Optimize.obj
 0003:00008a20       ??_C@_0BC@MGIB@Update?$DP_relation2?$AA@ 004e7a20     Optimize:Optimize.obj
 0003:00008a34       ??_C@_0BB@DPGF@Update?$DP_relation?$AA@ 004e7a34     Optimize:Optimize.obj
 0003:00008a48       ??_C@_0BC@GPHN@c_code_array_Call?$AA@ 004e7a48     Optimize:Optimize.obj
 0003:00008a5c       ??_C@_0BC@ICMM@c_code_table_Call?$AA@ 004e7a5c     Optimize:Optimize.obj
 0003:00008a70       ??_C@_0BA@BJOF@c_code_nth_Call?$AA@ 004e7a70     Optimize:Optimize.obj
 0003:00008a80       ??_C@_0BD@GPA@c_code_belong_Call?$AA@ 004e7a80     Optimize:Optimize.obj
 0003:00008a94       ??_C@_0BC@DFHH@c_code_not_Select?$AA@ 004e7a94     Optimize:Optimize.obj
 0003:00008aa8       ??_C@_0BD@EDGF@c_code_delete_Call?$AA@ 004e7aa8     Optimize:Optimize.obj
 0003:00008abc       ??_C@_0BE@KLKG@c_code_add_bag_Call?$AA@ 004e7abc     Optimize:Optimize.obj
 0003:00008ad0       ??_C@_0BA@LCID@c_code_add_Call?$AA@ 004e7ad0     Optimize:Optimize.obj
 0003:00008ae0       ??_C@_0BF@BIB@c_code_hold_property?$AA@ 004e7ae0     Optimize:Optimize.obj
 0003:00008af8       ??_C@_0BC@HECA@c_code_write_Call?$AA@ 004e7af8     Optimize:Optimize.obj
 0003:00008b0c       ??_C@_0BL@OBOE@c_type_Call_array_Optimize?$AA@ 004e7b0c     Optimize:Optimize.obj
 0003:00008b28       ??_C@_0BL@FHNH@c_type_Call_table_Optimize?$AA@ 004e7b28     Optimize:Optimize.obj
 0003:00008b44       ??_C@_0BK@HAG@c_type_Call_slot_Optimize?$AA@ 004e7b44     Optimize:Optimize.obj
 0003:00008b60       ??_C@_0BA@HPDB@c_gc?$DP_Call_slot?$AA@ 004e7b60     Optimize:Optimize.obj
 0003:00008b70       ??_C@_0M@PJAI@daccess_any?$AA@ 004e7b70     Optimize:Optimize.obj
 0003:00008b7c       ??_C@_0L@HHBA@c_gc?$DP_Call?$AA@ 004e7b7c     Optimize:Optimize.obj
 0003:00008b88       ??_C@_0BG@LKMG@open_message_property?$AA@ 004e7b88     Optimize:Optimize.obj
 0003:00008ba0       ??_C@_0BB@ECMM@c_code_call_Call?$AA@ 004e7ba0     Optimize:Optimize.obj
 0003:00008bb4       ??_C@_0BF@FIID@c_code_Call_Optimize?$AA@ 004e7bb4     Optimize:Optimize.obj
 0003:00008bcc       ??_C@_0BF@IPPF@c_type_Call_Optimize?$AA@ 004e7bcc     Optimize:Optimize.obj
 0003:00008be4       ??_C@_0BB@KDOP@use_range_method?$AA@ 004e7be4     Optimize:Optimize.obj
 0003:00008bf8       ??_C@_0BD@DOHO@restriction?$CB_class?$AA@ 004e7bf8     Optimize:Optimize.obj
 0003:00008c0c       ??_C@_0BC@EPMH@restriction?$CB_list?$AA@ 004e7c0c     Optimize:Optimize.obj
 0003:00008c20       ??_C@_0BG@IFKD@restriction?$CB_property?$AA@ 004e7c20     Optimize:Optimize.obj
 0003:00008c38       ??_C@_09JHGO@ambiguous?$AA@ 004e7c38     Optimize:Optimize.obj
 0003:00008c44       ??_C@_0O@GHFN@c_boolean_any?$AA@ 004e7c44     Optimize:Optimize.obj
 0003:00008c54       ??_C@_0BE@JOJN@bound_variables_any?$AA@ 004e7c54     Optimize:Optimize.obj
 0003:00008c68       ??_C@_09EADN@eval_any2?$AA@ 004e7c68     Optimize:Optimize.obj
 0003:00008c74       ??_C@_0BD@KPLL@c_substitution_any?$AA@ 004e7c74     Optimize:Optimize.obj
 0003:00008c88       ??_C@_0BC@JJAF@c_inline_arg?$DP_any?$AA@ 004e7c88     Optimize:Optimize.obj
 0003:00008c9c       ??_C@_0BB@MCDJ@c_inline_method2?$AA@ 004e7c9c     Optimize:Optimize.obj
 0003:00008cb0       ??_C@_0BB@DNIA@c_inline_method1?$AA@ 004e7cb0     Optimize:Optimize.obj
 0003:00008cc4       ??_C@_0BC@HEPM@identifiable?$DP_any?$AA@ 004e7cc4     Optimize:Optimize.obj
 0003:00008cd8       ??_C@_0BH@OOKE@?$CKnon_identifiable_set?$CK?$AA@ 004e7cd8     Optimize:Optimize.obj
 0003:00008cf0       ??_C@_0BB@GBJM@inner2outer?$DP_any?$AA@ 004e7cf0     Optimize:Optimize.obj
 0003:00008d04       ??_C@_0BG@KKA@gc_register_Variable2?$AA@ 004e7d04     Optimize:Optimize.obj
 0003:00008d1c       ??_C@_0BF@BOEC@gc_register_Variable?$AA@ 004e7d1c     Optimize:Optimize.obj
 0003:00008d34       ??_C@_0BA@EMOC@designated?$DP_any?$AA@ 004e7d34     Optimize:Optimize.obj
 0003:00008d44       ??_C@_0BE@LAON@?$CKsimple_operations?$CK?$AA@ 004e7d44     Optimize:Optimize.obj
 0003:00008d58       ??_C@_0BL@GNLN@get_indexed_class_Optimize?$AA@ 004e7d58     Optimize:Optimize.obj
 0003:00008d74       ??_C@_0BB@DKPA@Variable?$CB_symbol?$AA@ 004e7d74     Optimize:Optimize.obj
 0003:00008d88       ??_C@_0BB@LMJB@need_protect_any?$AA@ 004e7d88     Optimize:Optimize.obj
 0003:00008d9c       ??_C@_0L@LCDC@c_gc?$CB_any2?$AA@ 004e7d9c     Optimize:Optimize.obj
 0003:00008da8       ??_C@_0L@ENIL@c_gc?$CB_any1?$AA@ 004e7da8     Optimize:Optimize.obj
 0003:00008db4       ??_C@_0BB@NHNJ@gcsafe?$DP_property?$AA@ 004e7db4     Optimize:Optimize.obj
 0003:00008dc8       ??_C@_0N@BCJE@gcsafe?$DP_type?$AA@ 004e7dc8     Optimize:Optimize.obj
 0003:00008dd8       ??_C@_0O@CEEF@gcsafe?$DP_class?$AA@ 004e7dd8     Optimize:Optimize.obj
 0003:00008de8       ??_C@_06DACG@?$CF_any5?$AA@ 004e7de8     Optimize:Optimize.obj
 0003:00008df0       ??_C@_0FD@CPEE@lambda?$FL?$CIx?3any?0y?3but?$FLtuple?$CIany?0an@ 004e7df0     Optimize:Optimize.obj
 0003:00008e44       ??_C@_06JKLB@?$CF_any4?$AA@ 004e7e44     Optimize:Optimize.obj
 0003:00008e4c       ??_C@_0FD@FDAM@lambda?$FL?$CIx?3any?0y?3?4?4?$FLtuple?$CIany?0any@ 004e7e4c     Optimize:Optimize.obj
 0003:00008ea0       ??_C@_0BA@LLGH@member_code_any?$AA@ 004e7ea0     Optimize:Optimize.obj
 0003:00008eb0       ??_C@_0BC@OEC@member_code_Param?$AA@ 004e7eb0     Optimize:Optimize.obj
 0003:00008ec4       ??_C@_0BF@KAPD@member_code_Interval?$AA@ 004e7ec4     Optimize:Optimize.obj
 0003:00008edc       ??_C@_0BC@IECK@member_code_Union?$AA@ 004e7edc     Optimize:Optimize.obj
 0003:00008ef0       ??_C@_0BB@LCNM@member_code_Type?$AA@ 004e7ef0     Optimize:Optimize.obj
 0003:00008f04       ??_C@_0BD@NMFO@member_code_class2?$AA@ 004e7f04     Optimize:Optimize.obj
 0003:00008f18       ??_C@_0BC@CIEI@self_code_Pattern?$AA@ 004e7f18     Optimize:Optimize.obj
 0003:00008f2c       ??_C@_0BE@PGPJ@self_code_Reference?$AA@ 004e7f2c     Optimize:Optimize.obj
 0003:00008f40       ??_C@_0BD@HNKO@self_code_Interval?$AA@ 004e7f40     Optimize:Optimize.obj
 0003:00008f54       ??_C@_0BA@BIO@self_code_Union?$AA@ 004e7f54     Optimize:Optimize.obj
 0003:00008f64       ??_C@_0BA@ILOG@self_code_Param?$AA@ 004e7f64     Optimize:Optimize.obj
 0003:00008f74       ??_C@_0BC@DIJL@self_code_subtype?$AA@ 004e7f74     Optimize:Optimize.obj
 0003:00008f88       ??_C@_0BF@OOMN@c_code_Type_Optimize?$AA@ 004e7f88     Optimize:Optimize.obj
 0003:00008fa0       ??_C@_0BA@NFID@c_srange_method?$AA@ 004e7fa0     Optimize:Optimize.obj
 0003:00008fb0       ??_C@_0P@FNEP@range_sets_any?$AA@ 004e7fb0     Optimize:Optimize.obj
 0003:00008fc0       ??_C@_0M@PGCP@c_check_any?$AA@ 004e7fc0     Optimize:Optimize.obj
 0003:00008fcc       ??_C@_0BF@JJEI@range_infer_case_any?$AA@ 004e7fcc     Optimize:Optimize.obj
 0003:00008fe4       ??_C@_0BG@NEB@range_infers_Variable?$AA@ 004e7fe4     Optimize:Optimize.obj
 0003:00008ffc       ??_C@_0BK@FMIH@range_infers_for_Variable?$AA@ 004e7ffc     Optimize:Optimize.obj
 0003:00009018       ??_C@_0BD@FBME@enumerate_code_any?$AA@ 004e8018     Optimize:Optimize.obj
 0003:0000902c       ??_C@_0N@HKN@pmember_type?$AA@ 004e802c     Optimize:Optimize.obj
 0003:0000903c       ??_C@_0L@JEEA@ptype_type?$AA@ 004e803c     Optimize:Optimize.obj
 0003:00009048       ??_C@_0BE@ICJN@sort_abstract?$DP_type?$AA@ 004e8048     Optimize:Optimize.obj
 0003:0000905c       ??_C@_0BE@IFO@sort_abstract?$CB_type?$AA@ 004e805c     Optimize:Optimize.obj
 0003:00009070       ??_C@_0N@FAFF@extends_type?$AA@ 004e8070     Optimize:Optimize.obj
 0003:00009080       ??_C@_0P@NOEE@extended?$DP_type?$AA@ 004e8080     Optimize:Optimize.obj
 0003:00009090       ??_C@_0O@MFDB@stupid_t_any2?$AA@ 004e8090     Optimize:Optimize.obj
 0003:000090a0       ??_C@_0O@DKII@stupid_t_any1?$AA@ 004e80a0     Optimize:Optimize.obj
 0003:000090b0       ??_C@_0O@CLMI@sort_Variable?$AA@ 004e80b0     Optimize:Optimize.obj
 0003:000090c0       ??_C@_09GDHC@osort_any?$AA@ 004e80c0     Optimize:Optimize.obj
 0003:000090cc       ??_C@_09BKEJ@psort_any?$AA@ 004e80cc     Optimize:Optimize.obj
 0003:000090d8       ??_C@_0M@HBJP@sort?$DN_class?$AA@ 004e80d8     Optimize:Optimize.obj
 0003:000090e4       ??_C@_0BA@DJGI@c_warn_Variable?$AA@ 004e80e4     Optimize:Optimize.obj
 0003:000090f4       ??_C@_0BA@LNIL@c_warn_property?$AA@ 004e80f4     Optimize:Optimize.obj
 0003:00009104       ??_C@_0N@FIEN@c_warn_Super?$AA@ 004e8104     Optimize:Optimize.obj
 0003:00009114       ??_C@_0M@HEDJ@c_warn_Call?$AA@ 004e8114     Optimize:Optimize.obj
 0003:00009120       ??_C@_0O@PGDL@Cerror_string?$AA@ 004e8120     Optimize:Optimize.obj
 0003:00009130       ??_C@_09EPEJ@warn_void?$AA@ 004e8130     Optimize:Optimize.obj
 0003:0000913c       ??_C@_08CLAJ@optUnion?$AA@ 004e813c     Optimize:Optimize.obj
 0003:00009148       ??_C@_0N@JDHB@nth_property?$AA@ 004e8148     Optimize:Optimize.obj
 0003:00009158       ??_C@_09ENLE@less?$DP_any?$AA@ 004e8158     Optimize:Optimize.obj
 0003:00009164       ??_C@_0O@KJGC@less?$DP_Pattern?$AA@ 004e8164     Optimize:Optimize.obj
 0003:00009174       ??_C@_0M@EMNF@glb_Pattern?$AA@ 004e8174     Optimize:Optimize.obj
 0003:00009180       ??_C@_06MPFE@?$CF_any3?$AA@ 004e8180     Optimize:Optimize.obj
 0003:00009188       ??_C@_0BD@LJNL@self_print_Pattern?$AA@ 004e8188     Optimize:Optimize.obj
 0003:0000919c       ??_C@_0BH@PABO@c_code_C_cast_Optimize?$AA@ 004e819c     Optimize:Optimize.obj
 0003:000091b4       ??_C@_0BH@OJLE@c_type_C_cast_Optimize?$AA@ 004e81b4     Optimize:Optimize.obj
 0003:000091cc       ??_C@_0N@CMGO@c_gc?$DP_C_cast?$AA@ 004e81cc     Optimize:Optimize.obj
 0003:000091dc       ??_C@_0BC@GEBP@self_print_C_cast?$AA@ 004e81dc     Optimize:Optimize.obj
 0003:000091f0       ??_C@_0BF@OODM@c_type_to_C_Optimize?$AA@ 004e81f0     Optimize:Optimize.obj
 0003:00009208       ??_C@_0L@NJLG@c_gc?$DP_to_C?$AA@ 004e8208     Optimize:Optimize.obj
 0003:00009214       ??_C@_0BA@DIDL@self_print_to_C?$AA@ 004e8214     Optimize:Optimize.obj
 0003:00009224       ??_C@_0M@ECPN@c_gc?$DP_to_CL?$AA@ 004e8224     Optimize:Optimize.obj
 0003:00009230       ??_C@_0BG@KIDC@c_type_to_CL_Optimize?$AA@ 004e8230     Optimize:Optimize.obj
 0003:00009248       ??_C@_0BB@DDBM@self_print_to_CL?$AA@ 004e8248     Optimize:Optimize.obj
 0003:0000925c       ??_C@_0BF@FPID@self_eval_to_protect?$AA@ 004e825c     Optimize:Optimize.obj
 0003:00009274       ??_C@_0BG@DDE@self_print_to_protect?$AA@ 004e8274     Optimize:Optimize.obj
 0003:0000928c       ??_C@_0P@KOKP@stats_meta_OPT?$AA@ 004e828c     Optimize:Optimize.obj
 0003:0000929c       ??_C@_0N@GINK@turbo_module?$AA@ 004e829c     Optimize:Optimize.obj
 0003:000092ac       ??_C@_0N@PGNG@oload_string?$AA@ 004e82ac     Optimize:Optimize.obj
 0003:000092bc       ??_C@_0N@JEDG@oload_module?$AA@ 004e82bc     Optimize:Optimize.obj
 0003:000092cc       ??_C@_0BA@LGAH@known?$CB_listargs?$AA@ 004e82cc     Optimize:Optimize.obj
 0003:000092dc       ??_C@_0BC@CMNG@get_module_object?$AA@ 004e82dc     Optimize:Optimize.obj
 0003:000092f0       ??_C@_0BB@KKGB@stable?$DP_relation?$AA@ 004e82f0     Optimize:Optimize.obj
 0003:00009304       ??_C@_0BD@IPNK@allocate?$DP_property?$AA@ 004e8304     Optimize:Optimize.obj
 0003:00009318       ??_C@_0BL@DLBI@selector_register_property?$AA@ 004e8318     Optimize:Optimize.obj
 0003:00009334       ??_C@_0BE@NBBM@c_register_property?$AA@ 004e8334     Optimize:Optimize.obj
 0003:00009348       ??_C@_0BC@KBP@c_register_object?$AA@ 004e8348     Optimize:Optimize.obj
 0003:0000935c       ??_C@_0BD@KGGK@legal?$DP_environment?$AA@ 004e835c     Optimize:Optimize.obj
 0003:00009370       ??_C@_0O@GELL@legal?$DP_module?$AA@ 004e8370     Optimize:Optimize.obj
 0003:00009380       ??_C@_0P@IEEL@s_test_method2?$AA@ 004e8380     Optimize:Optimize.obj
 0003:00009390       ??_C@_0BD@EPIL@showstatus_method2?$AA@ 004e8390     Optimize:Optimize.obj
 0003:000093a4       ??_C@_0BC@DKCD@c_status_property?$AA@ 004e83a4     Optimize:Optimize.obj
 0003:000093b8       ??_C@_0BB@EDIL@c_return_integer?$AA@ 004e83b8     Optimize:Optimize.obj
 0003:000093cc       ??_C@_0BE@LDMP@status?$CB_restriction?$AA@ 004e83cc     Optimize:Optimize.obj
 0003:000093e0       ??_C@_09DOEO@c_or_list?$AA@ 004e83e0     Optimize:Optimize.obj
 0003:000093ec       ??_C@_0DP@IGBH@lambda?$FL?$CIl?3list?$CJ?0let?5d?5?3?$DN?50?5in?5?$CIf@ 004e83ec     Optimize:Optimize.obj
 0003:0000942c       ??_C@_0N@IICH@c_or_integer?$AA@ 004e842c     Optimize:Optimize.obj
 0003:0000943c       ??_C@_0N@LIKH@c_status_any?$AA@ 004e843c     Optimize:Optimize.obj
 0003:0000944c       ??_C@_0BE@OAJK@selector_psort_Call?$AA@ 004e844c     Optimize:Optimize.obj
 0003:00009460       ??_C@_0BE@LPGI@c_sort_any_Optimize?$AA@ 004e8460     Optimize:Optimize.obj
 0003:00009474       ??_C@_09EPBB@c_gc?$DP_any?$AA@ 004e8474     Optimize:Optimize.obj
 0003:00009480       ??_C@_0BF@DEB@c_code_any2_Optimize?$AA@ 004e8480     Optimize:Optimize.obj
 0003:00009498       ??_C@_0BF@JDAH@c_code_any1_Optimize?$AA@ 004e8498     Optimize:Optimize.obj
 0003:000094b0       ??_C@_0BM@HOAL@c_strict_check_any_Optimize?$AA@ 004e84b0     Optimize:Optimize.obj
 0003:000094cc       ??_C@_0BC@BEGA@c_strict_code_any?$AA@ 004e84cc     Optimize:Optimize.obj
 0003:000094e0       ??_C@_0BE@ILCP@c_type_any_Optimize?$AA@ 004e84e0     Optimize:Optimize.obj
 0003:000094f4       ??_C@_09GCGG@safe_any2?$AA@ 004e84f4     Optimize:Optimize.obj
 0003:00009500       ??_C@_0P@GNMB@safe_any2_type?$AA@ 004e8500     Optimize:Optimize.obj
 0003:00009510       ??_C@_03MNJO@OPT?$AA@      004e8510     Optimize:Optimize.obj
 0003:00009514       ??_C@_07NNN@Pattern?$AA@   004e8514     Optimize:Optimize.obj
 0003:0000951c       ??_C@_06GCMN@C_cast?$AA@   004e851c     Optimize:Optimize.obj
 0003:00009524       ??_C@_04JJHB@to_C?$AA@     004e8524     Optimize:Optimize.obj
 0003:0000952c       ??_C@_05OBLN@to_CL?$AA@    004e852c     Optimize:Optimize.obj
 0003:00009534       ??_C@_0L@HBMO@to_protect?$AA@ 004e8534     Optimize:Optimize.obj
 0003:00009540       ??_C@_0L@MEJH@get_module?$AA@ 004e8540     Optimize:Optimize.obj
 0003:0000954c       ??_C@_09HKA@self_code?$AA@ 004e854c     Optimize:Optimize.obj
 0003:00009558       ??_C@_06PIFF@Cerror?$AA@   004e8558     Optimize:Optimize.obj
 0003:00009560       ??_C@_0L@CNMG@anyObject?$CB?$AA@ 004e8560     Optimize:Optimize.obj
 0003:0000956c       ??_C@_07LJFA@object?$CB?$AA@ 004e856c     Optimize:Optimize.obj
 0003:00009574       ??_C@_08KEJI@stupid_t?$AA@ 004e8574     Optimize:Optimize.obj
 0003:00009580       ??_C@_0P@EIPP@c_strict_check?$AA@ 004e8580     Optimize:Optimize.obj
 0003:00009590       ??_C@_0O@IJAI@c_strict_code?$AA@ 004e8590     Optimize:Optimize.obj
 0003:000095a0       ??_C@_0M@EMHG@member_code?$AA@ 004e85a0     Optimize:Optimize.obj
 0003:000095ac       ??_C@_0N@CANA@need_protect?$AA@ 004e85ac     Optimize:Optimize.obj
 0003:000095bc       ??_C@_07IPNE@c_check?$AA@  004e85bc     Optimize:Optimize.obj
 0003:000095c4       ??_C@_0P@MGGM@compile_lambda?$AA@ 004e85c4     Optimize:Optimize.obj
 0003:000095d4       ??_C@_05INJC@osort?$AA@    004e85d4     Optimize:Optimize.obj
 0003:000095dc       ??_C@_05OOBH@psort?$AA@    004e85dc     Optimize:Optimize.obj
 0003:000095e4       ??_C@_05GDAC@sort?$DN?$AA@ 004e85e4     Optimize:Optimize.obj
 0003:000095ec       ??_C@_0M@HNHA@designated?$DP?$AA@ 004e85ec     Optimize:Optimize.obj
 0003:000095f8       ??_C@_06OJIA@c_sort?$AA@   004e85f8     Optimize:Optimize.obj
 0003:00009600       ??_C@_0M@JHCN@c_interface?$AA@ 004e8600     Optimize:Optimize.obj
 0003:0000960c       ??_C@_0M@FBKF@c_statement?$AA@ 004e860c     Optimize:Optimize.obj
 0003:00009618       ??_C@_08LDHN@bool_exp?$AA@ 004e8618     Optimize:Optimize.obj
 0003:00009624       ??_C@_0N@GHMH@c_expression?$AA@ 004e8624     Optimize:Optimize.obj
 0003:00009634       ??_C@_0BE@NCO@make_float_function?$AA@ 004e8634     Optimize:Optimize.obj
 0003:00009648       ??_C@_0BA@KMCA@make_c_function?$AA@ 004e8648     Optimize:Optimize.obj
 0003:00009658       ??_C@_0M@ODFP@get_indexed?$AA@ 004e8658     Optimize:Optimize.obj
 0003:00009664       ??_C@_04NBO@c_gc?$AA@      004e8664     Optimize:Optimize.obj
 0003:0000966c       ??_C@_06KCBA@c_code?$AA@   004e866c     Optimize:Optimize.obj
 0003:00009674       ??_C@_06PAJB@c_type?$AA@   004e8674     Optimize:Optimize.obj
 0003:0000967c       ??_C@_0L@OLNN@?9c?5?1Ox?5?1G6?$AA@ 004e867c     Optimize:Optimize.obj
 0003:00009688       ??_C@_08HHAG@compiler?$AA@ 004e8688     Optimize:Optimize.obj
 0003:00009694       ??_C@_06DGGK@Kernel?$AA@   004e8694     Optimize:Optimize.obj
 0003:0000969c       ??_C@_0P@HOFA@claire_modules?$AA@ 004e869c     Optimize:Optimize.obj
 0003:000096ac       ??_C@_0L@DFD@claire_lib?$AA@ 004e86ac     Optimize:Optimize.obj
 0003:000096b8       ??_C@_07LILK@?1w0?5?1zq?$AA@ 004e86b8     Optimize:Optimize.obj
 0003:000096c0       ??_C@_0P@KMCE@claire_options?$AA@ 004e86c0     Optimize:Optimize.obj
 0003:000096d0       ??_C@_0O@BPCE@meta_compiler?$AA@ 004e86d0     Optimize:Optimize.obj
 0003:000096e0       ??_C@_08KFMI@meta_OPT?$AA@ 004e86e0     Optimize:Optimize.obj
 0003:000096ec       ??_C@_09IABP@home_void?$AA@ 004e86ec     Optimize:Optimize.obj
 0003:000096f8       ??_C@_08NDDG@if_write?$AA@ 004e86f8     Optimize:Optimize.obj
 0003:00009704       ??_C@_06DKLM@status?$AA@   004e8704     Optimize:Optimize.obj
 0003:0000970c       ??_C@_06POGP@srange?$AA@   004e870c     Optimize:Optimize.obj
 0003:00009714       ??_C@_08NJBM@c_srange?$AA@ 004e8714     Optimize:Optimize.obj
 0003:00009720       ??_C@_06GLAO@s_test?$AA@   004e8720     Optimize:Optimize.obj
 0003:00009728       ??_C@_0BD@HLOA@compileEventMethod?$AA@ 004e8728     Optimize:Optimize.obj
 0003:0000973c       ??_C@_0BB@JKCF@compile_if_write?$AA@ 004e873c     Optimize:Optimize.obj
 0003:00009750       ??_C@_0N@IOAF@inner_select?$AA@ 004e8750     Optimize:Optimize.obj
 0003:00009760       ??_C@_0O@CHJG@c_code_select?$AA@ 004e8760     Optimize:Optimize.obj
 0003:00009770       ??_C@_07DOHC@pmember?$AA@  004e8770     Optimize:Optimize.obj
 0003:00009778       ??_C@_0N@LHBC@inner2outer?$DP?$AA@ 004e8778     Optimize:Optimize.obj
 0003:00009788       ??_C@_0M@PAN@lexical_num?$AA@ 004e8788     Optimize:Optimize.obj
 0003:00009794       ??_C@_0O@HNJK@Produce_erase?$AA@ 004e8794     Optimize:Optimize.obj
 0003:000097a4       ??_C@_05BEGE@diet?$DP?$AA@ 004e87a4     Optimize:Optimize.obj
 0003:000097ac       ??_C@_0P@PMPB@c_code_add_bag?$AA@ 004e87ac     Optimize:Optimize.obj
 0003:000097bc       ??_C@_07GKMJ@Tighten?$AA@  004e87bc     Optimize:Optimize.obj
 0003:000097c4       ??_C@_0BC@DGO@compute_set_write?$AA@ 004e87c4     Optimize:Optimize.obj
 0003:000097d8       ??_C@_0BJ@EG@compute_if_write_inverse?$AA@ 004e87d8     Optimize:Optimize.obj
 0003:000097f4       ??_C@_0P@PEFA@Produce_remove?$AA@ 004e87f4     Optimize:Optimize.obj
 0003:00009804       ??_C@_0M@GCIE@Produce_get?$AA@ 004e8804     Optimize:Optimize.obj
 0003:00009810       ??_C@_0M@JHCG@Produce_put?$AA@ 004e8810     Optimize:Optimize.obj
 0003:0000981c       ??_C@_0BA@BLEJ@c_code_multiple?$AA@ 004e881c     Optimize:Optimize.obj
 0003:0000982c       ??_C@_09BPMN@overflow?$DP?$AA@ 004e882c     Optimize:Optimize.obj
 0003:00009838       ??_C@_04KOJK@safe?$AA@     004e8838     Optimize:Optimize.obj
 0003:00009840       ??_C@_0L@HHOO@showstatus?$AA@ 004e8840     Optimize:Optimize.obj
 0003:0000984c       ??_C@_0M@CKPN@add_method?$CB?$AA@ 004e884c     Optimize:Optimize.obj
 0003:00009858       ??_C@_0BD@DJAM@extract_status_new?$AA@ 004e8858     Optimize:Optimize.obj
 0003:0000986c       ??_C@_0BD@BINF@extract_signature?$CB?$AA@ 004e886c     Optimize:Optimize.obj
 0003:00009880       ??_C@_08NKJA@analyze?$CB?$AA@ 004e8880     Optimize:Optimize.obj
 0003:0000988c       ??_C@_06HNKC@total?$DP?$AA@ 004e888c     Optimize:Optimize.obj
 0003:00009894       ??_C@_08MILJ@Iterate?$CB?$AA@ 004e8894     Optimize:Optimize.obj
 0003:000098a0       ??_C@_0O@DPDG@extendedTest?$DP?$AA@ 004e88a0     Optimize:Optimize.obj
 0003:000098b0       ??_C@_0P@JKIL@nth_type_check?$AA@ 004e88b0     Optimize:Optimize.obj
 0003:000098c0       ??_C@_0N@IKDC@Call_method?$CB?$AA@ 004e88c0     Optimize:Optimize.obj
 0003:000098d0       ??_C@_07GPHF@Update?$DP?$AA@ 004e88d0     Optimize:Optimize.obj
 0003:000098d8       ??_C@_0L@PNDO@c_code_not?$AA@ 004e88d8     Optimize:Optimize.obj
 0003:000098e4       ??_C@_0O@HDDB@c_code_belong?$AA@ 004e88e4     Optimize:Optimize.obj
 0003:000098f4       ??_C@_0L@EOKI@c_code_nth?$AA@ 004e88f4     Optimize:Optimize.obj
 0003:00009900       ??_C@_0N@NIAB@c_code_array?$AA@ 004e8900     Optimize:Optimize.obj
 0003:00009910       ??_C@_0N@EPJJ@c_code_table?$AA@ 004e8910     Optimize:Optimize.obj
 0003:00009920       ??_C@_0O@JNOP@c_code_delete?$AA@ 004e8920     Optimize:Optimize.obj
 0003:00009930       ??_C@_0L@PEDB@c_code_add?$AA@ 004e8930     Optimize:Optimize.obj
 0003:0000993c       ??_C@_0M@HCJA@c_code_hold?$AA@ 004e893c     Optimize:Optimize.obj
 0003:00009948       ??_C@_0N@CMFC@c_code_write?$AA@ 004e8948     Optimize:Optimize.obj
 0003:00009958       ??_C@_07KKPM@daccess?$AA@  004e8958     Optimize:Optimize.obj
 0003:00009960       ??_C@_0BB@JHIC@inline_optimize?$DP?$AA@ 004e8960     Optimize:Optimize.obj
 0003:00009974       ??_C@_09DCPM@use_range?$AA@ 004e8974     Optimize:Optimize.obj
 0003:00009980       ??_C@_09NLAJ@c_boolean?$AA@ 004e8980     Optimize:Optimize.obj
 0003:0000998c       ??_C@_09IDMM@c_inline?$DP?$AA@ 004e898c     Optimize:Optimize.obj
 0003:00009998       ??_C@_0N@GDFD@restriction?$CB?$AA@ 004e8998     Optimize:Optimize.obj
 0003:000099a8       ??_C@_0O@HOHG@c_inline_arg?$DP?$AA@ 004e89a8     Optimize:Optimize.obj
 0003:000099b8       ??_C@_0P@CHFP@c_substitution?$AA@ 004e89b8     Optimize:Optimize.obj
 0003:000099c8       ??_C@_0BA@LGIB@bound_variables?$AA@ 004e89c8     Optimize:Optimize.obj
 0003:000099d8       ??_C@_08BKA@c_inline?$AA@  004e89d8     Optimize:Optimize.obj
 0003:000099e4       ??_C@_0O@HCPP@identifiable?$DP?$AA@ 004e89e4     Optimize:Optimize.obj
 0003:000099f4       ??_C@_09JHMJ@Variable?$CB?$AA@ 004e89f4     Optimize:Optimize.obj
 0003:00009a00       ??_C@_0L@DBCP@range_sets?$AA@ 004e8a00     Optimize:Optimize.obj
 0003:00009a0c       ??_C@_05PJHK@c_gc?$CB?$AA@ 004e8a0c     Optimize:Optimize.obj
 0003:00009a14       ??_C@_0BB@BJKJ@range_infer_case?$AA@ 004e8a14     Optimize:Optimize.obj
 0003:00009a28       ??_C@_0M@CBJM@gc_register?$AA@ 004e8a28     Optimize:Optimize.obj
 0003:00009a34       ??_C@_0N@MCHD@range_infers?$AA@ 004e8a34     Optimize:Optimize.obj
 0003:00009a44       ??_C@_0BB@BLKE@range_infers_for?$AA@ 004e8a44     Optimize:Optimize.obj
 0003:00009a58       ??_C@_0O@BOJD@c_code_method?$AA@ 004e8a58     Optimize:Optimize.obj
 0003:00009a68       ??_C@_0P@HOCP@enumerate_code?$AA@ 004e8a68     Optimize:Optimize.obj
 0003:00009a78       ??_C@_07DGPL@extends?$AA@  004e8a78     Optimize:Optimize.obj
 0003:00009a80       ??_C@_09EDFG@extended?$DP?$AA@ 004e8a80     Optimize:Optimize.obj
 0003:00009a8c       ??_C@_0P@PFEH@sort_abstract?$DP?$AA@ 004e8a8c     Optimize:Optimize.obj
 0003:00009a9c       ??_C@_0N@OALC@open_message?$AA@ 004e8a9c     Optimize:Optimize.obj
 0003:00009aac       ??_C@_06KIOM@c_warn?$AA@   004e8aac     Optimize:Optimize.obj
 0003:00009ab4       ??_C@_04KANA@warn?$AA@     004e8ab4     Optimize:Optimize.obj
 0003:00009abc       ??_C@_0P@PHPN@sort_abstract?$CB?$AA@ 004e8abc     Optimize:Optimize.obj
 0003:00009acc       ??_C@_05KKBO@stats?$AA@    004e8acc     Optimize:Optimize.obj
 0003:00009ad4       ??_C@_05HCCF@turbo?$AA@    004e8ad4     Optimize:Optimize.obj
 0003:00009adc       ??_C@_05PALL@oload?$AA@    004e8adc     Optimize:Optimize.obj
 0003:00009ae4       ??_C@_09HMF@allocate?$DP?$AA@ 004e8ae4     Optimize:Optimize.obj
 0003:00009af0       ??_C@_0BC@MNHI@selector_register?$AA@ 004e8af0     Optimize:Optimize.obj
 0003:00009b04       ??_C@_06PBBG@legal?$DP?$AA@ 004e8b04     Optimize:Optimize.obj
 0003:00009b0c       ??_C@_07PCKF@stable?$DP?$AA@ 004e8b0c     Optimize:Optimize.obj
 0003:00009b14       ??_C@_07IEEN@status?$CB?$AA@ 004e8b14     Optimize:Optimize.obj
 0003:00009b1c       ??_C@_08BGE@c_return?$AA@  004e8b1c     Optimize:Optimize.obj
 0003:00009b28       ??_C@_04LLKN@c_or?$AA@     004e8b28     Optimize:Optimize.obj
 0003:00009b30       ??_C@_08BNMP@c_status?$AA@ 004e8b30     Optimize:Optimize.obj
 0003:00009b3c       ??_C@_0P@LHBB@selector_psort?$AA@ 004e8b3c     Optimize:Optimize.obj
 0003:00009b4c       ??_C@_07KLK@gcsafe?$DP?$AA@ 004e8b4c     Optimize:Optimize.obj
 0003:00009b54       ??_C@_05PLMA@c_gc?$DP?$AA@ 004e8b54     Optimize:Optimize.obj
 0003:00009b5c       ??_C@_0L@EGDL@c_register?$AA@ 004e8b5c     Optimize:Optimize.obj
 0003:00009b68       ??_C@_0M@BPIM@c_code_call?$AA@ 004e8b68     Optimize:Optimize.obj
 0003:00009b74       ??_C@_05PHAG@ptype?$AA@    004e8b74     Optimize:Optimize.obj
 0003:00009b7c       ??_C@_07MHLD@options?$AA@  004e8b7c     Optimize:Optimize.obj
 0003:00009b84       ??_C@_0M@BKB@headers_dir?$AA@ 004e8b84     Optimize:Optimize.obj
 0003:00009b90       ??_C@_0O@OAGP@libraries_dir?$AA@ 004e8b90     Optimize:Optimize.obj
 0003:00009ba0       ??_C@_07LDKA@greedy?$DP?$AA@ 004e8ba0     Optimize:Optimize.obj
 0003:00009ba8       ??_C@_0M@LAD@class2file?$DP?$AA@ 004e8ba8     Optimize:Optimize.obj
 0003:00009bb4       ??_C@_08MPDB@loading?$DP?$AA@ 004e8bb4     Optimize:Optimize.obj
 0003:00009bc0       ??_C@_09JLKB@libraries?$AA@ 004e8bc0     Optimize:Optimize.obj
 0003:00009bcc       ??_C@_06NPBP@naming?$AA@   004e8bcc     Optimize:Optimize.obj
 0003:00009bd4       ??_C@_03MBEN@env?$AA@      004e8bd4     Optimize:Optimize.obj
 0003:00009bd8       ??_C@_06IGKH@safety?$AA@   004e8bd8     Optimize:Optimize.obj
 0003:00009be0       ??_C@_07IGMH@active?$DP?$AA@ 004e8be0     Optimize:Optimize.obj
 0003:00009be8       ??_C@_06LJG@debug?$DP?$AA@ 004e8be8     Optimize:Optimize.obj
 0003:00009bf0       ??_C@_07JONJ@headers?$AA@  004e8bf0     Optimize:Optimize.obj
 0003:00009bf8       ??_C@_06GJMP@knowns?$AA@   004e8bf8     Optimize:Optimize.obj
 0003:00009c00       ??_C@_06HOIN@unsure?$AA@   004e8c00     Optimize:Optimize.obj
 0003:00009c08       ??_C@_09EDDF@recompute?$AA@ 004e8c08     Optimize:Optimize.obj
 0003:00009c14       ??_C@_07MJJG@online?$DP?$AA@ 004e8c14     Optimize:Optimize.obj
 0003:00009c1c       ??_C@_08LMHK@use_nth?$DN?$AA@ 004e8c1c     Optimize:Optimize.obj
 0003:00009c28       ??_C@_0L@GGIJ@use_update?$AA@ 004e8c28     Optimize:Optimize.obj
 0003:00009c34       ??_C@_05KOIE@cfile?$AA@    004e8c34     Optimize:Optimize.obj
 0003:00009c3c       ??_C@_08DMNB@profile?$DP?$AA@ 004e8c3c     Optimize:Optimize.obj
 0003:00009c48       ??_C@_09FBI@in_method?$AA@ 004e8c48     Optimize:Optimize.obj
 0003:00009c54       ??_C@_05PCMN@level?$AA@    004e8c54     Optimize:Optimize.obj
 0003:00009c5c       ??_C@_0L@IACB@loop_index?$AA@ 004e8c5c     Optimize:Optimize.obj
 0003:00009c68       ??_C@_07HLKM@loop_gc?$AA@  004e8c68     Optimize:Optimize.obj
 0003:00009c70       ??_C@_08EHIA@max_vars?$AA@ 004e8c70     Optimize:Optimize.obj
 0003:00009c7c       ??_C@_07EDJN@outfile?$AA@  004e8c7c     Optimize:Optimize.obj
 0003:00009c84       ??_C@_0L@BPMD@cinterface?$AA@ 004e8c84     Optimize:Optimize.obj
 0003:00009c90       ??_C@_09CILM@to_remove?$AA@ 004e8c90     Optimize:Optimize.obj
 0003:00009c9c       ??_C@_06KEFI@ignore?$AA@   004e8c9c     Optimize:Optimize.obj
 0003:00009ca4       ??_C@_0M@JMA@alloc_stack?$AA@ 004e8ca4     Optimize:Optimize.obj
 0003:00009cb0       ??_C@_0L@CCCL@protection?$AA@ 004e8cb0     Optimize:Optimize.obj
 0003:00009cbc       ??_C@_0L@OBAO@allocation?$AA@ 004e8cbc     Optimize:Optimize.obj
 0003:00009cc8       ??_C@_0O@KAEK@legal_modules?$AA@ 004e8cc8     Optimize:Optimize.obj
 0003:00009cd8       ??_C@_0N@DJGJ@need_modules?$AA@ 004e8cd8     Optimize:Optimize.obj
 0003:00009ce8       ??_C@_0O@OEJE@need_to_close?$AA@ 004e8ce8     Optimize:Optimize.obj
 0003:00009cf8       ??_C@_09LPHA@functions?$AA@ 004e8cf8     Optimize:Optimize.obj
 0003:00009d04       ??_C@_0L@FPAP@properties?$AA@ 004e8d04     Optimize:Optimize.obj
 0003:00009d10       ??_C@_07OAMO@objects?$AA@  004e8d10     Optimize:Optimize.obj
 0003:00009d18       ??_C@_0N@HBEB@instructions?$AA@ 004e8d18     Optimize:Optimize.obj
 0003:00009d28       ??_C@_04EMLE@home?$AA@     004e8d28     Optimize:Optimize.obj
 0003:00009d30       ??_C@_0CB@BCKM@unsafe?5typed?5list?3?5?$HOS?5not?5in?5?$HOS?6@ 004e8d30     Optimize:odefine.obj
 0003:00009d54       ??_C@_0CA@BIFH@unsafe?5typed?5set?3?5?$HOS?5not?5in?5?$HOS?6?$AA@ 004e8d54     Optimize:odefine.obj
 0003:00009d74       ??_C@_0P@HDLM@?$HOS?5is?5unknown?6?$AA@ 004e8d74     Optimize:odefine.obj
 0003:00009d84       ??_C@_0CL@IDJM@?$FLinternal?$FN?5cannot?5compile?5unknow@ 004e8d84     Optimize:odefine.obj
 0003:00009db0       ??_C@_05JCHM@_type?$AA@    004e8db0     Optimize:odefine.obj
 0003:00009db8       ??_C@_0CL@EGCA@?$FLinternal?$FN?5the?5method?5?$HOS?5?$EA?5?$HOS?5is@ 004e8db8     Optimize:odefine.obj
 0003:00009de4       ??_C@_01NON@_?$AA@         004e8de4     Optimize:odefine.obj
 0003:00009de8       ??_C@_06HPPA@AHAHA?5?$AA@  004e8de8     Optimize:odefine.obj
 0003:00009df0       ??_C@_0BH@LEGM@wrong?5status?5?$HOS?5?9?$DO?5?$HOS?6?$AA@ 004e8df0     Optimize:odefine.obj
 0003:00009e08       ??_C@_0CD@CMC@?$FLinternal?$FN?5the?5table?5?$HOS?5is?5unkno@ 004e8e08     Optimize:odefine.obj
 0003:00009e2c       ??_C@_02FFCL@ZZ?$AA@       004e8e2c     Optimize:odefine.obj
 0003:00009e30       ??_C@_02JBGN@YY?$AA@       004e8e30     Optimize:odefine.obj
 0003:00009e34       ??_C@_02CNFA@XX?$AA@       004e8e34     Optimize:odefine.obj
 0003:00009e38       ??_C@_0L@GCDG@_set_write?$AA@ 004e8e38     Optimize:odefine.obj
 0003:00009e44       ??_C@_0BL@PMGF@compute?5set_write?5for?5?$HOS?5?6?$AA@ 004e8e44     Optimize:odefine.obj
 0003:00009e60       ??_C@_0BE@HBLP@compile?5a?5rule?5?$HOS?5?6?$AA@ 004e8e60     Optimize:odefine.obj
 0003:00009e74       ??_C@_0BL@JNDO@?$FL213?$FN?5?$HOS?5is?5not?5a?5variable?$AA@ 004e8e74     Optimize:ocontrol.obj
 0003:00009e90       ??_C@_0BH@DPLO@?$FL214?$FN?5cannot?5assign?5?$HOS?$AA@ 004e8e90     Optimize:ocontrol.obj
 0003:00009ea8       ??_C@_0BE@ENJ@?$FL206?$FN?5void?5?$HOS?5in?5?$HOS?$AA@ 004e8ea8     Optimize:ocontrol.obj
 0003:00009ebc       ??_C@_0DJ@FAM@?$FLinternal?$FN?5optimization?5of?5quote@ 004e8ebc     Optimize:ocontrol.obj
 0003:00009ef8       ??_C@_0CD@PCDN@Assertion?5violation?5in?5?$HOA?5line?5?$HO@ 004e8ef8     Optimize:ocontrol.obj
 0003:00009f1c       ??_C@_0CB@MOEI@?$FL210?$FN?5not?5enough?5arguments?5in?5?$HOS@ 004e8f1c     Optimize:ocontrol.obj
 0003:00009f40       ??_C@_0DA@IFGA@?$FL209?$FN?5the?5first?5argument?5in?5?$HOS?5m@ 004e8f40     Optimize:ocontrol.obj
 0003:00009f70       ??_C@_0DA@HOIO@?$FL208?$FN?5wrong?5type?5declaration?5for@ 004e8f70     Optimize:ocontrol.obj
 0003:00009fa0       ??_C@_0DA@COJI@?9?9?9?9?5note?3?5use?5an?5expended?5itera@ 004e8fa0     Optimize:ocontrol.obj
 0003:00009fd0       ??_C@_0DB@OEOH@unsafe?5bag?5construction?5?$CI?$HOS?$CJ?5?3?5a@ 004e8fd0     Optimize:ocontrol.obj
 0003:0000a004       ??_C@_04HJEA@_bag?$AA@     004e9004     Optimize:ocontrol.obj
 0003:0000a00c       ??_C@_0CJ@LGAB@unsafe?5typed?5collect?5?$CI?$HOS?$CJ?3?5?$HOS?5no@ 004e900c     Optimize:ocontrol.obj
 0003:0000a038       ??_C@_04JFHD@_out?$AA@     004e9038     Optimize:ocontrol.obj
 0003:0000a040       ??_C@_03KPH@_in?$AA@       004e9040     Optimize:ocontrol.obj
 0003:0000a044       ??_C@_05DGCC@_some?$AA@    004e9044     Optimize:ocontrol.obj
 0003:0000a04c       ??_C@_0CD@CAMG@?$HOS?8s?52nd?9order?5type?5failed?5on?5?$HOS@ 004e904c     Optimize:ocall.obj
 0003:0000a070       ??_C@_0DN@CEFL@?$FL207?$FN?5inline?5?$HOS?3?5range?5?$HOS?5is?5inc@ 004e9070     Optimize:ocall.obj
 0003:0000a0b0       ??_C@_0BG@INOE@Non?5diet?5call?5?$HOS?$CI?$HOA?$CJ?6?$AA@ 004e90b0     Optimize:ocall.obj
 0003:0000a0c8       ??_C@_0BN@JLCG@?$FL206?$FN?5use?5of?5void?5?$HOS?5in?5?$HOS?$HOS?$AA@ 004e90c8     Optimize:ocall.obj
 0003:0000a0e8       ??_C@_0BG@LGEA@?$HOS?5is?5not?5a?5diet?5call?$AA@ 004e90e8     Optimize:ocall.obj
 0003:0000a100       ??_C@_0BO@LKNL@sort?5error?5in?5?$HOS?3?5?$HOS?5is?5a?5?$HOS?6?$AA@ 004e9100     Optimize:ocall.obj
 0003:0000a120       ??_C@_0O@BKBL@in?5call?5?$HOS?$HOS?6?$AA@ 004e9120     Optimize:ocall.obj
 0003:0000a130       ??_C@_0CH@FPDI@unsafe?5update?5on?5bag?3?5type?5?$HOS?5in@ 004e9130     Optimize:ocall.obj
 0003:0000a158       ??_C@_0N@IEPB@?$FLto_protect?5?$AA@ 004e9158     Optimize:otool.obj
 0003:0000a168       ??_C@_02BGAM@?$HN?3?$AA@   004e9168     Optimize:otool.obj
 0003:0000a16c       ??_C@_03MDJL@CL?$HL?$AA@   004e916c     Optimize:otool.obj
 0003:0000a170       ??_C@_02GEAL@C?$HL?$AA@    004e9170     Optimize:otool.obj
 0003:0000a174       ??_C@_02HHHD@?$DO?$HN?$AA@ 004e9174     Optimize:otool.obj
 0003:0000a178       ??_C@_02COGP@?$CJ?$FN?$AA@ 004e9178     Optimize:otool.obj
 0003:0000a17c       ??_C@_07DFGM@?$FLtuple?$CI?$AA@ 004e917c     Optimize:otool.obj
 0003:0000a184       ??_C@_0P@HKNI@?9?9?9?9?5WARNING?3?5?$AA@ 004e9184     Optimize:otool.obj
 0003:0000a194       ??_C@_0BG@PAOL@?9?9?9?9?5WARNING?$FLin?5?$HOS?$FN?3?5?$AA@ 004e9194     Optimize:otool.obj
 0003:0000a1ac       ??_C@_0BL@GMEO@?9?9?9?9?5file?5read?5up?5to?5line?5?$AA@ 004e91ac     Optimize:otool.obj
 0003:0000a1c8       ??_C@_0BI@IOMH@?9?9?9?9?5Compiler?5Error?$FLin?5?$AA@ 004e91c8     Optimize:otool.obj
 0003:0000a1e0       ??_C@_0BP@MKDJ@wrongly?5typed?5message?5?$HOS?5?$FL?$HOS?$FN?6?$AA@ 004e91e0     Optimize:otool.obj
 0003:0000a200       ??_C@_0BP@IJN@the?5property?5?$HOS?5is?5undefined?4?6?$AA@ 004e9200     Optimize:otool.obj
 0003:0000a220       ??_C@_0CF@HMJH@?$FL205?$FN?5message?5?$HOS?5sent?5to?5void?5ob@ 004e9220     Optimize:otool.obj
 0003:0000a248       ??_C@_0CM@OEOD@?$HOS?5of?5type?5?$HOS?5is?5put?5in?5the?5vari@ 004e9248     Optimize:otool.obj
 0003:0000a274       ??_C@_0EF@NFGN@?$FL212?$FN?5the?5value?5?$HOS?5of?5type?5?$HOS?5ca@ 004e9274     Optimize:otool.obj
 0003:0000a2bc       ??_C@_0CD@FMCK@range?5of?5variable?5in?5?$HOS?5is?5wrong@ 004e92bc     Optimize:otool.obj
 0003:0000a2e0       ??_C@_0BI@PHMF@failed?5substitution?3?5?$HOS?$AA@ 004e92e0     Optimize:otool.obj
 0003:0000a2f8       ??_C@_0BP@NFNP@a?5strange?5problem?5happens?5?$HOA?5?6?$AA@ 004e92f8     Optimize:otool.obj
 0003:0000a318       ??_C@_0N@JNGD@CLAIRE3_HOME?$AA@ 004e9318     Optimize:osystem.obj
 0003:0000a328       ??_C@_0BM@IPFA@c_type?5of?5?$HOS?5is?5not?5defined?$AA@ 004e9328     Optimize:osystem.obj
 0003:0000a344       ??_C@_0CG@FJIE@?$FL215?$FN?5the?5symbol?5?$HOA?5is?5unbound_s@ 004e9344     Optimize:osystem.obj
 0003:0000a36c       ??_C@_0CC@LGBD@Need?5explict?5cast?3?5?$HOS?5is?5not?5a?5?$HO@ 004e936c     Optimize:osystem.obj
 0003:0000a390       ??_C@_0CO@FMDO@?$FLinternal?$FN?5c_code?$CI?$HOS?$CJ?5should?5hav@ 004e9390     Optimize:osystem.obj
 0003:0000a3c0       ??_C@_0CM@DFAN@?$FLinternal?$FN?5c_sort?5is?5not?5impleme@ 004e93c0     Optimize:osystem.obj
 0003:0000a3ec       ??_C@_0BP@MDNP@?$FLinternal?$FN?5oops?5?4?4?5I?5forgot?5?$HOS?$AA@ 004e93ec     Optimize:osystem.obj
 0003:0000a40c       ??_C@_0BD@ENLP@status?$CI?$HOS?$CJ?5?3?$DN?5?$HOS?5?6?$AA@ 004e940c     Optimize:osystem.obj
 0003:0000a420       ??_C@_0CE@DEMG@?9?9?9?9?5ERROR?3?5?$HOS?5implies?5using?5?$HOS?5@ 004e9420     Optimize:osystem.obj
 0003:0000a444       ??_C@_0BE@DIIK@legal_modules?5?$DN?5?$HOS?6?$AA@ 004e9444     Optimize:osystem.obj
 0003:0000a458       ??_C@_0BE@LPFL@stat_let_c_producer?$AA@ 004e9458     Generate:Generate.obj
 0003:0000a46c       ??_C@_0BG@CKEG@stat_super_c_producer?$AA@ 004e946c     Generate:Generate.obj
 0003:0000a484       ??_C@_0BK@JCBH@stat_iteration_c_producer?$AA@ 004e9484     Generate:Generate.obj
 0003:0000a4a0       ??_C@_0BE@LILJ@stat_for_c_producer?$AA@ 004e94a0     Generate:Generate.obj
 0003:0000a4b4       ??_C@_0BI@MKJB@stat_gassign_c_producer?$AA@ 004e94b4     Generate:Generate.obj
 0003:0000a4cc       ??_C@_0BG@PIJJ@stat_while_c_producer?$AA@ 004e94cc     Generate:Generate.obj
 0003:0000a4e4       ??_C@_0BK@GLED@stat_construct_c_producer?$AA@ 004e94e4     Generate:Generate.obj
 0003:0000a500       ??_C@_0BH@PMAH@stat_handle_c_producer?$AA@ 004e9500     Generate:Generate.obj
 0003:0000a518       ??_C@_0BG@DINM@exp_Assign_c_producer?$AA@ 004e9518     Generate:Generate.obj
 0003:0000a530       ??_C@_0BI@DMAG@pointer_cast_c_producer?$AA@ 004e9530     Generate:Generate.obj
 0003:0000a548       ??_C@_0BJ@CFDN@any_interface_c_producer?$AA@ 004e9548     Generate:Generate.obj
 0003:0000a564       ??_C@_0BE@EGHC@init_var_c_producer?$AA@ 004e9564     Generate:Generate.obj
 0003:0000a578       ??_C@_0BB@LLJO@macro_c_producer?$AA@ 004e9578     Generate:Generate.obj
 0003:0000a58c       ??_C@_0BK@CFMD@exp_to_protect_c_producer?$AA@ 004e958c     Generate:Generate.obj
 0003:0000a5a8       ??_C@_0BH@MON@object_test_c_producer?$AA@ 004e95a8     Generate:Generate.obj
 0003:0000a5c0       ??_C@_0BC@DOPF@update_c_producer?$AA@ 004e95c0     Generate:Generate.obj
 0003:0000a5d4       ??_C@_0BG@JFCA@call_array_c_producer?$AA@ 004e95d4     Generate:Generate.obj
 0003:0000a5ec       ??_C@_0BG@NONC@call_table_c_producer?$AA@ 004e95ec     Generate:Generate.obj
 0003:0000a604       ??_C@_0BF@KFBK@call_slot_c_producer?$AA@ 004e9604     Generate:Generate.obj
 0003:0000a61c       ??_C@_0BD@DNIF@gassign_c_producer?$AA@ 004e961c     Generate:Generate.obj
 0003:0000a630       ??_C@_08HFNF@getC_any?$AA@ 004e9630     Generate:Generate.obj
 0003:0000a63c       ??_C@_0BG@HBBD@signature?$CB_c_producer?$AA@ 004e963c     Generate:Generate.obj
 0003:0000a654       ??_C@_0BF@NGKH@bitvectorSum_integer?$AA@ 004e9654     Generate:Generate.obj
 0003:0000a66c       ??_C@_0O@DFPK@bitvectorList?$AA@ 004e966c     Generate:Generate.obj
 0003:0000a67c       ??_C@_0BG@JLPL@bitvector?$CB_c_producer?$AA@ 004e967c     Generate:Generate.obj
 0003:0000a694       ??_C@_0BD@HAKB@c_sorted_args_Call?$AA@ 004e9694     Generate:Generate.obj
 0003:0000a6a8       ??_C@_0BB@OILK@c_sorted_arg_any?$AA@ 004e96a8     Generate:Generate.obj
 0003:0000a6bc       ??_C@_0BJ@IHOC@fcall_exp_Call2_Generate?$AA@ 004e96bc     Generate:Generate.obj
 0003:0000a6d8       ??_C@_0BH@GONO@get_restrictions_Call2?$AA@ 004e96d8     Generate:Generate.obj
 0003:0000a6f0       ??_C@_0BG@JKKI@fcall?$DP_Call2_Generate?$AA@ 004e96f0     Generate:Generate.obj
 0003:0000a708       ??_C@_0M@JPOI@FCALLSTINKS?$AA@ 004e9708     Generate:Generate.obj
 0003:0000a714       ??_C@_07IIJB@FCLimit?$AA@  004e9714     Generate:Generate.obj
 0003:0000a71c       ??_C@_09IANN@fcall_exp?$AA@ 004e971c     Generate:Generate.obj
 0003:0000a728       ??_C@_06OCJN@fcall?$DP?$AA@ 004e9728     Generate:Generate.obj
 0003:0000a730       ??_C@_0BH@HBGM@inline_exp_c_producer5?$AA@ 004e9730     Generate:Generate.obj
 0003:0000a748       ??_C@_0BP@PFH@print_external_call_c_producer?$AA@ 004e9748     Generate:Generate.obj
 0003:0000a768       ??_C@_0BH@IOBO@inline_exp_c_producer3?$AA@ 004e9768     Generate:Generate.obj
 0003:0000a780       ??_C@_0BH@CEIJ@inline_exp_c_producer2?$AA@ 004e9780     Generate:Generate.obj
 0003:0000a798       ??_C@_0BH@NLDA@inline_exp_c_producer1?$AA@ 004e9798     Generate:Generate.obj
 0003:0000a7b0       ??_C@_0BK@JCBL@methods_bodies_c_producer?$AA@ 004e97b0     Generate:Generate.obj
 0003:0000a7cc       ??_C@_0BN@MOGP@methods_interface_c_producer?$AA@ 004e97cc     Generate:Generate.obj
 0003:0000a7ec       ??_C@_0BK@KLJL@create_loadModules_string?$AA@ 004e97ec     Generate:Generate.obj
 0003:0000a808       ??_C@_0BM@DNGB@generate_system_file_string?$AA@ 004e9808     Generate:Generate.obj
 0003:0000a824       ??_C@_0BK@PDDG@bag_expression_c_producer?$AA@ 004e9824     Generate:Generate.obj
 0003:0000a840       ??_C@_0BN@LKDO@gc_protection_exp_c_producer?$AA@ 004e9840     Generate:Generate.obj
 0003:0000a860       ??_C@_0BB@OKPG@cast?$CB_c_producer?$AA@ 004e9860     Generate:Generate.obj
 0003:0000a874       ??_C@_0BD@BBJJ@addFast_c_producer?$AA@ 004e9874     Generate:Generate.obj
 0003:0000a888       ??_C@_0BE@GJAA@c_member_c_producer?$AA@ 004e9888     Generate:Generate.obj
 0003:0000a89c       ??_C@_0BF@EFBP@char_exp_c_producer2?$AA@ 004e989c     Generate:Generate.obj
 0003:0000a8b4       ??_C@_0BG@KCIK@char_exp?$DP_c_producer2?$AA@ 004e98b4     Generate:Generate.obj
 0003:0000a8cc       ??_C@_0BF@BEOB@equal_exp_c_producer?$AA@ 004e98cc     Generate:Generate.obj
 0003:0000a8e4       ??_C@_0BJ@KKMD@bitvector_exp_c_producer?$AA@ 004e98e4     Generate:Generate.obj
 0003:0000a900       ??_C@_0BH@IHPP@inherit_exp_c_producer?$AA@ 004e9900     Generate:Generate.obj
 0003:0000a918       ??_C@_0BF@FIEH@bool_exp?$CB_c_producer?$AA@ 004e9918     Generate:Generate.obj
 0003:0000a930       ??_C@_0BJ@HLGI@public_static_c_producer?$AA@ 004e9930     Generate:Generate.obj
 0003:0000a94c       ??_C@_0BB@MOO@to_c_c_producer2?$AA@ 004e994c     Generate:Generate.obj
 0003:0000a960       ??_C@_0BB@PDFH@to_c_c_producer1?$AA@ 004e9960     Generate:Generate.obj
 0003:0000a974       ??_C@_0BB@GPNJ@to_cl_c_producer?$AA@ 004e9974     Generate:Generate.obj
 0003:0000a988       ??_C@_0BG@OKIA@interface?$CB_c_producer?$AA@ 004e9988     Generate:Generate.obj
 0003:0000a9a0       ??_C@_0BM@MDHN@c_interface_method_Generate?$AA@ 004e99a0     Generate:Generate.obj
 0003:0000a9bc       ??_C@_0BM@IECF@c_interface_class2_Generate?$AA@ 004e99bc     Generate:Generate.obj
 0003:0000a9d8       ??_C@_0BM@BEGD@c_interface_class1_Generate?$AA@ 004e99d8     Generate:Generate.obj
 0003:0000a9f4       ??_C@_0CB@NCMB@update_function_entry_c_producer@ 004e99f4     Generate:Generate.obj
 0003:0000aa18       ??_C@_0CB@IGEE@create_function_entry_c_producer@ 004e9a18     Generate:Generate.obj
 0003:0000aa3c       ??_C@_0CD@PMMK@generate_tuple_function_c_produc@ 004e9a3c     Generate:Generate.obj
 0003:0000aa60       ??_C@_0O@HJCP@at_c_producer?$AA@ 004e9a60     Generate:Generate.obj
 0003:0000aa70       ??_C@_0CD@PLFG@generate_float_function_c_produc@ 004e9a70     Generate:Generate.obj
 0003:0000aa94       ??_C@_0CF@IHME@generate_regular_function_c_prod@ 004e9a94     Generate:Generate.obj
 0003:0000aabc       ??_C@_0CD@EBOI@generate_function_start_c_produc@ 004e9abc     Generate:Generate.obj
 0003:0000aae0       ??_C@_0BK@MPJE@protect_result_c_producer?$AA@ 004e9ae0     Generate:Generate.obj
 0003:0000aafc       ??_C@_0BH@HPGA@debug_intro_c_producer?$AA@ 004e9afc     Generate:Generate.obj
 0003:0000ab14       ??_C@_0P@IEJL@gc_usage?$CK_list?$AA@ 004e9b14     Generate:Generate.obj
 0003:0000ab24       ??_C@_09DMMI@gc_or_any?$AA@ 004e9b24     Generate:Generate.obj
 0003:0000ab30       ??_C@_0N@KPLH@gc_usage_any?$AA@ 004e9b30     Generate:Generate.obj
 0003:0000ab40       ??_C@_0BL@EIAI@gc_introduction_c_producer?$AA@ 004e9b40     Generate:Generate.obj
 0003:0000ab5c       ??_C@_0BO@MCKK@generate_interface_c_producer?$AA@ 004e9b5c     Generate:Generate.obj
 0003:0000ab7c       ??_C@_0BM@BOMB@generate_profile_c_producer?$AA@ 004e9b7c     Generate:Generate.obj
 0003:0000ab98       ??_C@_0BM@GPDP@define_variable_c_producer2?$AA@ 004e9b98     Generate:Generate.obj
 0003:0000abb4       ??_C@_0BC@OEPM@start_file_string?$AA@ 004e9bb4     Generate:Generate.obj
 0003:0000abc8       ??_C@_0BO@ODNC@generate_meta_load_c_producer?$AA@ 004e9bc8     Generate:Generate.obj
 0003:0000abe8       ??_C@_0BP@BCAL@generate_start_file_c_producer?$AA@ 004e9be8     Generate:Generate.obj
 0003:0000ac08       ??_C@_0BM@KDBN@generate_classes_c_producer?$AA@ 004e9c08     Generate:Generate.obj
 0003:0000ac24       ??_C@_0BN@OLH@generate_end_file_c_producer?$AA@ 004e9c24     Generate:Generate.obj
 0003:0000ac44       ??_C@_0CA@KCKF@end_module_interface_c_producer?$AA@ 004e9c44     Generate:Generate.obj
 0003:0000ac64       ??_C@_0CC@JPML@start_module_interface_c_produce@ 004e9c64     Generate:Generate.obj
 0003:0000ac88       ??_C@_0BD@GELG@declare_c_producer?$AA@ 004e9c88     Generate:Generate.obj
 0003:0000ac9c       ??_C@_0BD@MBAN@module?$CB_c_producer?$AA@ 004e9c9c     Generate:Generate.obj
 0003:0000acb0       ??_C@_0BG@MCA@namespace?$CB_c_producer?$AA@ 004e9cb0     Generate:Generate.obj
 0003:0000acc8       ??_C@_0BE@CDEA@stat_exp_c_producer?$AA@ 004e9cc8     Generate:Generate.obj
 0003:0000acdc       ??_C@_0BE@DBAD@produce_c_producer2?$AA@ 004e9cdc     Generate:Generate.obj
 0003:0000acf0       ??_C@_0BB@OKJH@ident_c_producer?$AA@ 004e9cf0     Generate:Generate.obj
 0003:0000ad04       ??_C@_0BC@PMMD@ident_c_producer3?$AA@ 004e9d04     Generate:Generate.obj
 0003:0000ad18       ??_C@_0BE@MHAD@string?$CB_c_producer2?$AA@ 004e9d18     Generate:Generate.obj
 0003:0000ad2c       ??_C@_0BE@DILK@string?$CB_c_producer1?$AA@ 004e9d2c     Generate:Generate.obj
 0003:0000ad40       ??_C@_0N@CEBL@ClairePort?5?$CK?$AA@ 004e9d40     Generate:Generate.obj
 0003:0000ad50       ??_C@_06HBLA@char?5?$CK?$AA@ 004e9d50     Generate:Generate.obj
 0003:0000ad58       ??_C@_0N@HGKD@ClaireChar?5?$CK?$AA@ 004e9d58     Generate:Generate.obj
 0003:0000ad68       ??_C@_07LBBJ@double?5?$AA@ 004e9d68     Generate:Generate.obj
 0003:0000ad70       ??_C@_05HIBH@OID?5?$CK?$AA@ 004e9d70     Generate:Generate.obj
 0003:0000ad78       ??_C@_09OFDO@OID?5?$CI?$CK?$CJ?$CI?$CJ?$AA@ 004e9d78     Generate:Generate.obj
 0003:0000ad84       ??_C@_0BB@JNII@ClaireCollection?$AA@ 004e9d84     Generate:Generate.obj
 0003:0000ad98       ??_C@_08MEFN@_SAFE_GC?$AA@ 004e9d98     Generate:Generate.obj
 0003:0000ada4       ??_C@_0N@PDN@_SAFE_RESULT?$AA@ 004e9da4     Generate:Generate.obj
 0003:0000adb4       ??_C@_0M@DLCL@_RETURN_ARG?$AA@ 004e9db4     Generate:Generate.obj
 0003:0000adc0       ??_C@_0N@LBK@_SLOT_UPDATE?$AA@ 004e9dc0     Generate:Generate.obj
 0003:0000add0       ??_C@_0M@KEGF@_BAG_UPDATE?$AA@ 004e9dd0     Generate:Generate.obj
 0003:0000addc       ??_C@_0L@HKCE@_NEW_ALLOC?$AA@ 004e9ddc     Generate:Generate.obj
 0003:0000ade8       ??_C@_0N@GGN@SystemObject?$AA@ 004e9de8     Generate:Generate.obj
 0003:0000adf8       ??_C@_05IMIP@FINAL?$AA@    004e9df8     Generate:Generate.obj
 0003:0000ae00       ??_C@_08BHLN@ABSTRACT?$AA@ 004e9e00     Generate:Generate.obj
 0003:0000ae0c       ??_C@_0BC@COGC@ClaireEnvironment?$AA@ 004e9e0c     Generate:Generate.obj
 0003:0000ae20       ??_C@_0M@DAHG@SystemThing?$AA@ 004e9e20     Generate:Generate.obj
 0003:0000ae2c       ??_C@_0L@BJOI@ClaireType?$AA@ 004e9e2c     Generate:Generate.obj
 0003:0000ae38       ??_C@_0P@MNHP@ClaireFunction?$AA@ 004e9e38     Generate:Generate.obj
 0003:0000ae48       ??_C@_0O@OPCJ@ClaireBoolean?$AA@ 004e9e48     Generate:Generate.obj
 0003:0000ae58       ??_C@_07HCIH@_delete?$AA@  004e9e58     Generate:Generate.obj
 0003:0000ae60       ??_C@_0N@CAAP@ClaireObject?$AA@ 004e9e60     Generate:Generate.obj
 0003:0000ae70       ??_C@_0P@ONHM@ClaireRelation?$AA@ 004e9e70     Generate:Generate.obj
 0003:0000ae80       ??_C@_04KPBN@_eof?$AA@     004e9e80     Generate:Generate.obj
 0003:0000ae88       ??_C@_0BA@GJAK@ClaireInterface?$AA@ 004e9e88     Generate:Generate.obj
 0003:0000ae98       ??_C@_0L@EFJN@ClaireChar?$AA@ 004e9e98     Generate:Generate.obj
 0003:0000aea4       ??_C@_05CPDG@BREAK?$AA@    004e9ea4     Generate:Generate.obj
 0003:0000aeac       ??_C@_05BEFE@CATCH?$AA@    004e9eac     Generate:Generate.obj
 0003:0000aeb4       ??_C@_0N@EBJB@ClaireImport?$AA@ 004e9eb4     Generate:Generate.obj
 0003:0000aec4       ??_C@_0N@DILI@ClaireHandle?$AA@ 004e9ec4     Generate:Generate.obj
 0003:0000aed4       ??_C@_07FBHA@DEFAULT?$AA@  004e9ed4     Generate:Generate.obj
 0003:0000aedc       ??_C@_0P@PIEL@ClaireOperator?$AA@ 004e9edc     Generate:Generate.obj
 0003:0000aeec       ??_C@_07MLHL@PRIVATE?$AA@  004e9eec     Generate:Generate.obj
 0003:0000aef4       ??_C@_0M@KFEO@ClaireClass?$AA@ 004e9ef4     Generate:Generate.obj
 0003:0000af00       ??_C@_03EGJI@NEW?$AA@      004e9f00     Generate:Generate.obj
 0003:0000af04       ??_C@_06PJJM@RETURN?$AA@   004e9f04     Generate:Generate.obj
 0003:0000af0c       ??_C@_0BA@OLFC@ClaireException?$AA@ 004e9f0c     Generate:Generate.obj
 0003:0000af1c       ??_C@_0O@EGGO@ClairePattern?$AA@ 004e9f1c     Generate:Generate.obj
 0003:0000af2c       ??_C@_0L@PNJB@ClaireVoid?$AA@ 004e9f2c     Generate:Generate.obj
 0003:0000af38       ??_C@_06BLHL@PRINTF?$AA@   004e9f38     Generate:Generate.obj
 0003:0000af40       ??_C@_03CBCA@NOT?$AA@      004e9f40     Generate:Generate.obj
 0003:0000af44       ??_C@_08MGAG@ClaireOr?$AA@ 004e9f44     Generate:Generate.obj
 0003:0000af50       ??_C@_09DACP@ClaireAnd?$AA@ 004e9f50     Generate:Generate.obj
 0003:0000af5c       ??_C@_02FDOJ@IF?$AA@       004e9f5c     Generate:Generate.obj
 0003:0000af60       ??_C@_02FEJC@DO?$AA@       004e9f60     Generate:Generate.obj
 0003:0000af64       ??_C@_0L@PGGG@collection?$AA@ 004e9f64     Generate:Generate.obj
 0003:0000af70       ??_C@_0O@MHED@system_object?$AA@ 004e9f70     Generate:Generate.obj
 0003:0000af80       ??_C@_05OHAA@final?$AA@    004e9f80     Generate:Generate.obj
 0003:0000af88       ??_C@_08BPFA@abstract?$AA@ 004e9f88     Generate:Generate.obj
 0003:0000af94       ??_C@_0M@PHAJ@environment?$AA@ 004e9f94     Generate:Generate.obj
 0003:0000afa0       ??_C@_0N@BOGC@system_thing?$AA@ 004e9fa0     Generate:Generate.obj
 0003:0000afb0       ??_C@_04PIKN@type?$AA@     004e9fb0     Generate:Generate.obj
 0003:0000afb8       ??_C@_07HGCO@boolean?$AA@  004e9fb8     Generate:Generate.obj
 0003:0000afc0       ??_C@_06IDPA@delete?$AA@   004e9fc0     Generate:Generate.obj
 0003:0000afc8       ??_C@_06NILE@System?$AA@   004e9fc8     Generate:Generate.obj
 0003:0000afd0       ??_C@_08LJOF@relation?$AA@ 004e9fd0     Generate:Generate.obj
 0003:0000afdc       ??_C@_04KENI@char?$AA@     004e9fdc     Generate:Generate.obj
 0003:0000afe4       ??_C@_06EGIC@import?$AA@   004e9fe4     Generate:Generate.obj
 0003:0000afec       ??_C@_07FMEP@default?$AA@  004e9fec     Generate:Generate.obj
 0003:0000aff4       ??_C@_08KMNC@operator?$AA@ 004e9ff4     Generate:Generate.obj
 0003:0000b000       ??_C@_07MGEE@private?$AA@  004ea000     Generate:Generate.obj
 0003:0000b008       ??_C@_05LGKP@class?$AA@    004ea008     Generate:Generate.obj
 0003:0000b010       ??_C@_09FAG@exception?$AA@ 004ea010     Generate:Generate.obj
 0003:0000b01c       ??_C@_04BMNE@void?$AA@     004ea01c     Generate:Generate.obj
 0003:0000b024       ??_C@_02NDCA@do?$AA@       004ea024     Generate:Generate.obj
 0003:0000b028       ??_C@_03NBIJ@C?$CL?$CL?$AA@ 004ea028     Generate:Generate.obj
 0003:0000b02c       ??_C@_0M@NGAJ@C?$CL?$CLPRODUCER?$AA@ 004ea02c     Generate:Generate.obj
 0003:0000b038       ??_C@_0L@DKKI@c_producer?$AA@ 004ea038     Generate:Generate.obj
 0003:0000b044       ??_C@_0BG@CEAB@self_statement_Update?$AA@ 004ea044     Generate:Generate.obj
 0003:0000b05c       ??_C@_0BK@GPBK@self_statement_Call_array?$AA@ 004ea05c     Generate:Generate.obj
 0003:0000b078       ??_C@_0BK@PIIC@self_statement_Call_table?$AA@ 004ea078     Generate:Generate.obj
 0003:0000b094       ??_C@_0BJ@BNNO@self_statement_Call_slot?$AA@ 004ea094     Generate:Generate.obj
 0003:0000b0b0       ??_C@_0BG@POLF@self_statement_C_cast?$AA@ 004ea0b0     Generate:Generate.obj
 0003:0000b0c8       ??_C@_0BE@BBND@self_statement_to_C?$AA@ 004ea0c8     Generate:Generate.obj
 0003:0000b0dc       ??_C@_0BF@JJDF@self_statement_to_CL?$AA@ 004ea0dc     Generate:Generate.obj
 0003:0000b0f4       ??_C@_0BG@BHNH@self_statement_Handle?$AA@ 004ea0f4     Generate:Generate.obj
 0003:0000b10c       ??_C@_0BE@PMBF@self_statement_Cast?$AA@ 004ea10c     Generate:Generate.obj
 0003:0000b120       ??_C@_0BF@FGIG@self_statement_Super?$AA@ 004ea120     Generate:Generate.obj
 0003:0000b138       ??_C@_0BM@KKEG@self_statement_Call_method2?$AA@ 004ea138     Generate:Generate.obj
 0003:0000b154       ??_C@_0BM@FFPP@self_statement_Call_method1?$AA@ 004ea154     Generate:Generate.obj
 0003:0000b170       ??_C@_0BL@PICE@self_statement_Call_method?$AA@ 004ea170     Generate:Generate.obj
 0003:0000b18c       ??_C@_0BE@LPHF@self_statement_Call?$AA@ 004ea18c     Generate:Generate.obj
 0003:0000b1a0       ??_C@_0BG@OGL@self_statement_Return?$AA@ 004ea1a0     Generate:Generate.obj
 0003:0000b1b8       ??_C@_0BJ@DOJH@self_statement_Iteration?$AA@ 004ea1b8     Generate:Generate.obj
 0003:0000b1d4       ??_C@_0BD@GLJN@self_statement_For?$AA@ 004ea1d4     Generate:Generate.obj
 0003:0000b1e8       ??_C@_0BK@BDB@self_statement_to_protect?$AA@ 004ea1e8     Generate:Generate.obj
 0003:0000b204       ??_C@_0BH@BAPB@self_statement_Gassign?$AA@ 004ea204     Generate:Generate.obj
 0003:0000b21c       ??_C@_0BG@NJB@self_statement_Assign?$AA@ 004ea21c     Generate:Generate.obj
 0003:0000b234       ??_C@_0BF@KFBK@self_statement_While?$AA@ 004ea234     Generate:Generate.obj
 0003:0000b24c       ??_C@_0BC@LNMI@self_statement_Or?$AA@ 004ea24c     Generate:Generate.obj
 0003:0000b260       ??_C@_0BD@JFFE@self_statement_And?$AA@ 004ea260     Generate:Generate.obj
 0003:0000b274       ??_C@_0BD@DIHG@self_statement_Let?$AA@ 004ea274     Generate:Generate.obj
 0003:0000b288       ??_C@_0BE@GDAD@inner_statement_any?$AA@ 004ea288     Generate:Generate.obj
 0003:0000b29c       ??_C@_0BC@MOGA@self_statement_Do?$AA@ 004ea29c     Generate:Generate.obj
 0003:0000b2b0       ??_C@_0BC@MJBL@self_statement_If?$AA@ 004ea2b0     Generate:Generate.obj
 0003:0000b2c4       ??_C@_0BJ@GCIP@self_statement_Construct?$AA@ 004ea2c4     Generate:Generate.obj
 0003:0000b2e0       ??_C@_0O@OAPC@statement_any?$AA@ 004ea2e0     Generate:Generate.obj
 0003:0000b2f0       ??_C@_0BA@MJLD@unfold_use_list?$AA@ 004ea2f0     Generate:Generate.obj
 0003:0000b300       ??_C@_0BA@GODF@unfold_arg_list?$AA@ 004ea300     Generate:Generate.obj
 0003:0000b310       ??_C@_0BA@BLNF@c_type_sort_any?$AA@ 004ea310     Generate:Generate.obj
 0003:0000b320       ??_C@_0BB@ONMK@unfold_args_list?$AA@ 004ea320     Generate:Generate.obj
 0003:0000b334       ??_C@_0BG@MCLK@build_Variable_string?$AA@ 004ea334     Generate:Generate.obj
 0003:0000b34c       ??_C@_0BB@MBKG@check_var_string?$AA@ 004ea34c     Generate:Generate.obj
 0003:0000b360       ??_C@_0O@IBMH@args_list_bag?$AA@ 004ea360     Generate:Generate.obj
 0003:0000b370       ??_C@_0O@NICO@bool_exp?$DP_any?$AA@ 004ea370     Generate:Generate.obj
 0003:0000b380       ??_C@_0BP@CAMA@bool_exp_Call_method2_Generate?$AA@ 004ea380     Generate:Generate.obj
 0003:0000b3a0       ??_C@_0BP@LAIG@bool_exp_Call_method1_Generate?$AA@ 004ea3a0     Generate:Generate.obj
 0003:0000b3c0       ??_C@_0BF@CNOM@bool_exp_Or_Generate?$AA@ 004ea3c0     Generate:Generate.obj
 0003:0000b3d8       ??_C@_0BG@JEIK@bool_exp_And_Generate?$AA@ 004ea3d8     Generate:Generate.obj
 0003:0000b3f0       ??_C@_0BF@JBOB@bool_exp_If_Generate?$AA@ 004ea3f0     Generate:Generate.obj
 0003:0000b408       ??_C@_0BI@LINL@bool_exp_to_CL_Generate?$AA@ 004ea408     Generate:Generate.obj
 0003:0000b420       ??_C@_0BG@BLCG@bool_exp_any_Generate?$AA@ 004ea420     Generate:Generate.obj
 0003:0000b438       ??_C@_0BA@HNA@sign_or_boolean?$AA@ 004ea438     Generate:Generate.obj
 0003:0000b448       ??_C@_0BD@MPOJ@sign_equal_boolean?$AA@ 004ea448     Generate:Generate.obj
 0003:0000b45c       ??_C@_0BC@BOLO@expression_Update?$AA@ 004ea45c     Generate:Generate.obj
 0003:0000b470       ??_C@_0BG@JBEA@expression_Call_array?$AA@ 004ea470     Generate:Generate.obj
 0003:0000b488       ??_C@_0BG@GNI@expression_Call_table?$AA@ 004ea488     Generate:Generate.obj
 0003:0000b4a0       ??_C@_0BF@EHDG@expression_Call_slot?$AA@ 004ea4a0     Generate:Generate.obj
 0003:0000b4b8       ??_C@_0BC@MEAK@expression_C_cast?$AA@ 004ea4b8     Generate:Generate.obj
 0003:0000b4cc       ??_C@_0BA@NCMP@expression_to_C?$AA@ 004ea4cc     Generate:Generate.obj
 0003:0000b4dc       ??_C@_0BB@CGPG@expression_to_CL?$AA@ 004ea4dc     Generate:Generate.obj
 0003:0000b4f0       ??_C@_0O@HANI@expression_Or?$AA@ 004ea4f0     Generate:Generate.obj
 0003:0000b500       ??_C@_0P@IJJJ@expression_And?$AA@ 004ea500     Generate:Generate.obj
 0003:0000b510       ??_C@_0BD@ECML@expression_Gassign?$AA@ 004ea510     Generate:Generate.obj
 0003:0000b524       ??_C@_0BB@BNPB@gc_protect_class?$AA@ 004ea524     Generate:Generate.obj
 0003:0000b538       ??_C@_0BG@PPGL@expression_to_protect?$AA@ 004ea538     Generate:Generate.obj
 0003:0000b550       ??_C@_0BC@DHCO@expression_Assign?$AA@ 004ea550     Generate:Generate.obj
 0003:0000b564       ??_C@_0O@EAL@expression_If?$AA@ 004ea564     Generate:Generate.obj
 0003:0000b574       ??_C@_0BA@EPBB@bexpression_any?$AA@ 004ea574     Generate:Generate.obj
 0003:0000b584       ??_C@_0BI@MNCF@expression_Call_method2?$AA@ 004ea584     Generate:Generate.obj
 0003:0000b59c       ??_C@_0BJ@HNHD@expression_Call_method22?$AA@ 004ea59c     Generate:Generate.obj
 0003:0000b5b8       ??_C@_0BJ@EGIM@expression_Call_method12?$AA@ 004ea5b8     Generate:Generate.obj
 0003:0000b5d4       ??_C@_0BB@NEMC@expression_Call2?$AA@ 004ea5d4     Generate:Generate.obj
 0003:0000b5e8       ??_C@_0BA@NFNA@expression_list?$AA@ 004ea5e8     Generate:Generate.obj
 0003:0000b5f8       ??_C@_0BA@HPJC@expression_List?$AA@ 004ea5f8     Generate:Generate.obj
 0003:0000b608       ??_C@_0BB@NCHO@expression_tuple?$AA@ 004ea608     Generate:Generate.obj
 0003:0000b61c       ??_C@_0BB@NGNE@expression_Tuple?$AA@ 004ea61c     Generate:Generate.obj
 0003:0000b630       ??_C@_0BA@LDNH@expression_set2?$AA@ 004ea630     Generate:Generate.obj
 0003:0000b640       ??_C@_0P@CLAF@expression_Set?$AA@ 004ea640     Generate:Generate.obj
 0003:0000b650       ??_C@_0BL@FHBG@expression_global_variable?$AA@ 004ea650     Generate:Generate.obj
 0003:0000b66c       ??_C@_0BE@CHC@expression_Variable?$AA@ 004ea66c     Generate:Generate.obj
 0003:0000b680       ??_C@_0BH@CJIH@expression_environment?$AA@ 004ea680     Generate:Generate.obj
 0003:0000b698       ??_C@_0BD@HNII@expression_boolean?$AA@ 004ea698     Generate:Generate.obj
 0003:0000b6ac       ??_C@_0BB@DPIP@expression_float?$AA@ 004ea6ac     Generate:Generate.obj
 0003:0000b6c0       ??_C@_0BC@HCNC@expression_float_?$AA@ 004ea6c0     Generate:Generate.obj
 0003:0000b6d4       ??_C@_0BC@OKBB@expression_string?$AA@ 004ea6d4     Generate:Generate.obj
 0003:0000b6e8       ??_C@_0P@DGEP@expression_any?$AA@ 004ea6e8     Generate:Generate.obj
 0003:0000b6f8       ??_C@_0BD@KKPK@expression_integer?$AA@ 004ea6f8     Generate:Generate.obj
 0003:0000b70c       ??_C@_0BB@IGGH@expression_thing?$AA@ 004ea70c     Generate:Generate.obj
 0003:0000b720       ??_C@_0L@HPOF@c_func_any?$AA@ 004ea720     Generate:Generate.obj
 0003:0000b72c       ??_C@_0BD@HCJA@set_outfile_lambda?$AA@ 004ea72c     Generate:Generate.obj
 0003:0000b740       ??_C@_0BB@NPDK@c_princ_function?$AA@ 004ea740     Generate:Generate.obj
 0003:0000b754       ??_C@_0BG@BJLO@get_dependents_method?$AA@ 004ea754     Generate:Generate.obj
 0003:0000b76c       ??_C@_0BA@DIHO@need_debug?$DP_any?$AA@ 004ea76c     Generate:Generate.obj
 0003:0000b77c       ??_C@_0BF@DFJL@typed_args_list_list?$AA@ 004ea77c     Generate:Generate.obj
 0003:0000b794       ??_C@_0BC@ECIM@check_sort_method?$AA@ 004ea794     Generate:Generate.obj
 0003:0000b7a8       ??_C@_0M@GDH@WrongMethod?$AA@ 004ea7a8     Generate:Generate.obj
 0003:0000b7b4       ??_C@_0L@KLEK@c_safe_any?$AA@ 004ea7b4     Generate:Generate.obj
 0003:0000b7c0       ??_C@_0BE@KCNB@outer_statement_any?$AA@ 004ea7c0     Generate:Generate.obj
 0003:0000b7d4       ??_C@_0O@GIME@print_body_Do?$AA@ 004ea7d4     Generate:Generate.obj
 0003:0000b7e4       ??_C@_0P@MMCE@print_body_any?$AA@ 004ea7e4     Generate:Generate.obj
 0003:0000b7f4       ??_C@_0O@GPLP@print_body_If?$AA@ 004ea7f4     Generate:Generate.obj
 0003:0000b804       ??_C@_0BJ@BPAC@print_c_function_lambda2?$AA@ 004ea804     Generate:Generate.obj
 0003:0000b820       ??_C@_0CA@OIBA@make_c_function_lambda_Generate?$AA@ 004ea820     Generate:Generate.obj
 0003:0000b840       ??_C@_0BG@MNHI@generate_file_string2?$AA@ 004ea840     Generate:Generate.obj
 0003:0000b858       ??_C@_0M@DHK@get_module2?$AA@ 004ea858     Generate:Generate.obj
 0003:0000b864       ??_C@_0N@ONKE@parents_list?$AA@ 004ea864     Generate:Generate.obj
 0003:0000b874       ??_C@_0P@GHLJ@parents_module?$AA@ 004ea874     Generate:Generate.obj
 0003:0000b884       ??_C@_0BK@HGFG@generate_functions_module?$AA@ 004ea884     Generate:Generate.obj
 0003:0000b8a0       ??_C@_0BK@NGPG@generate_meta_load_module?$AA@ 004ea8a0     Generate:Generate.obj
 0003:0000b8bc       ??_C@_0BI@HMDH@generate_objects_module?$AA@ 004ea8bc     Generate:Generate.obj
 0003:0000b8d4       ??_C@_0BK@FNKM@generate_interface_module?$AA@ 004ea8d4     Generate:Generate.obj
 0003:0000b8f0       ??_C@_0BE@MIFC@generate_c2f_module?$AA@ 004ea8f0     Generate:Generate.obj
 0003:0000b904       ??_C@_0BI@IHKD@generate_classes_module?$AA@ 004ea904     Generate:Generate.obj
 0003:0000b91c       ??_C@_09JFFK@classFile?$AA@ 004ea91c     Generate:Generate.obj
 0003:0000b928       ??_C@_0BG@DCMB@generate_file_string1?$AA@ 004ea928     Generate:Generate.obj
 0003:0000b940       ??_C@_0BE@HIJJ@generate_f2f_module?$AA@ 004ea940     Generate:Generate.obj
 0003:0000b954       ??_C@_0BG@PONH@generate_files_module?$AA@ 004ea954     Generate:Generate.obj
 0003:0000b96c       ??_C@_0P@BNPI@compile_module?$AA@ 004ea96c     Generate:Generate.obj
 0003:0000b97c       ??_C@_0O@ODOL@c_test_method?$AA@ 004ea97c     Generate:Generate.obj
 0003:0000b98c       ??_C@_0L@NCIH@c_test_any?$AA@ 004ea98c     Generate:Generate.obj
 0003:0000b998       ??_C@_0BB@CNNM@close_block_void?$AA@ 004ea998     Generate:Generate.obj
 0003:0000b9ac       ??_C@_0P@LAGE@new_block_void?$AA@ 004ea9ac     Generate:Generate.obj
 0003:0000b9bc       ??_C@_0P@DFMK@breakline_void?$AA@ 004ea9bc     Generate:Generate.obj
 0003:0000b9cc       ??_C@_0O@IFHP@indent_c_void?$AA@ 004ea9cc     Generate:Generate.obj
 0003:0000b9dc       ??_C@_0BB@PHKB@interface?$CB_class?$AA@ 004ea9dc     Generate:Generate.obj
 0003:0000b9f0       ??_C@_0M@HBLM@ident_class?$AA@ 004ea9f0     Generate:Generate.obj
 0003:0000b9fc       ??_C@_0M@IGDP@ident_thing?$AA@ 004ea9fc     Generate:Generate.obj
 0003:0000ba08       ??_C@_0N@PKB@ident_symbol?$AA@ 004eaa08     Generate:Generate.obj
 0003:0000ba18       ??_C@_08EBOI@PRODUCER?$AA@ 004eaa18     Generate:Generate.obj
 0003:0000ba24       ??_C@_08EJAF@producer?$AA@ 004eaa24     Generate:Generate.obj
 0003:0000ba30       ??_C@_0N@FMBL@?$CKlength_bag?$CK?$AA@ 004eaa30     Generate:Generate.obj
 0003:0000ba40       ??_C@_0P@EMAC@?$CKlength_array?$CK?$AA@ 004eaa40     Generate:Generate.obj
 0003:0000ba50       ??_C@_0O@KDGC@?$CKmax_integer?$CK?$AA@ 004eaa50     Generate:Generate.obj
 0003:0000ba60       ??_C@_0O@CLLF@?$CKmin_integer?$CK?$AA@ 004eaa60     Generate:Generate.obj
 0003:0000ba70       ??_C@_09HANI@?$CKcontain?$CK?$AA@ 004eaa70     Generate:Generate.obj
 0003:0000ba7c       ??_C@_0M@KAHA@?$CKnot_equal?$CK?$AA@ 004eaa7c     Generate:Generate.obj
 0003:0000ba88       ??_C@_09EEIC@?$CKunknown?$CK?$AA@ 004eaa88     Generate:Generate.obj
 0003:0000ba94       ??_C@_07GAGC@?$CKknown?$CK?$AA@ 004eaa94     Generate:Generate.obj
 0003:0000ba9c       ??_C@_05LLFI@?$CKnot?$CK?$AA@ 004eaa9c     Generate:Generate.obj
 0003:0000baa4       ??_C@_0M@OCHA@?$CKnth?$DN_list?$CK?$AA@ 004eaaa4     Generate:Generate.obj
 0003:0000bab0       ??_C@_0P@GNKJ@?$CKnth_1_string?$CK?$AA@ 004eaab0     Generate:Generate.obj
 0003:0000bac0       ??_C@_0N@JHPE@?$CKnth_string?$CK?$AA@ 004eaac0     Generate:Generate.obj
 0003:0000bad0       ??_C@_0M@LDKM@?$CKnth_1_bag?$CK?$AA@ 004eaad0     Generate:Generate.obj
 0003:0000badc       ??_C@_0L@HEPH@?$CKnth_list?$CK?$AA@ 004eaadc     Generate:Generate.obj
 0003:0000bae8       ??_C@_0O@BDF@?$CKnth_integer?$CK?$AA@ 004eaae8     Generate:Generate.obj
 0003:0000baf8       ??_C@_0O@KLDN@?$CKdiv_integer?$CK?$AA@ 004eaaf8     Generate:Generate.obj
 0003:0000bb08       ??_C@_0M@KBOO@?$CK?9_integer?$CK?$AA@ 004eab08     Generate:Generate.obj
 0003:0000bb14       ??_C@_0M@IBGD@?$CK?$CL_integer?$CK?$AA@ 004eab14     Generate:Generate.obj
 0003:0000bb20       ??_C@_0M@OKB@?$CK?$CK_integer?$CK?$AA@ 004eab20     Generate:Generate.obj
 0003:0000bb2c       ??_C@_09PEDO@?$CKch_sign?$CK?$AA@ 004eab2c     Generate:Generate.obj
 0003:0000bb38       ??_C@_0N@DNJB@?$CK?9?9_integer?$CK?$AA@ 004eab38     Generate:Generate.obj
 0003:0000bb48       ??_C@_0N@EOAN@?$CK?$DP_interval?$CK?$AA@ 004eab48     Generate:Generate.obj
 0003:0000bb58       ??_C@_0BI@MAAF@generate_tuple_function?$AA@ 004eab58     Generate:Generate.obj
 0003:0000bb70       ??_C@_0L@LJNN@exp_Assign?$AA@ 004eab70     Generate:Generate.obj
 0003:0000bb7c       ??_C@_08LPEP@stat_let?$AA@ 004eab7c     Generate:Generate.obj
 0003:0000bb88       ??_C@_0BF@JECH@end_module_interface?$AA@ 004eab88     Generate:Generate.obj
 0003:0000bba0       ??_C@_0M@PLMA@bexpression?$AA@ 004eaba0     Generate:Generate.obj
 0003:0000bbac       ??_C@_09LKME@bool_exp?$CB?$AA@ 004eabac     Generate:Generate.obj
 0003:0000bbb8       ??_C@_09LIHO@bool_exp?$DP?$AA@ 004eabb8     Generate:Generate.obj
 0003:0000bbc4       ??_C@_08CBNK@char_exp?$AA@ 004eabc4     Generate:Generate.obj
 0003:0000bbd0       ??_C@_09JLOM@char_exp?$DP?$AA@ 004eabd0     Generate:Generate.obj
 0003:0000bbdc       ??_C@_0BA@KMMH@define_variable?$AA@ 004eabdc     Generate:Generate.obj
 0003:0000bbec       ??_C@_08EEEN@stat_exp?$AA@ 004eabec     Generate:Generate.obj
 0003:0000bbf8       ??_C@_05NGKJ@gc_or?$AA@    004eabf8     Generate:Generate.obj
 0003:0000bc00       ??_C@_09NLGE@gc_usage?$CK?$AA@ 004eac00     Generate:Generate.obj
 0003:0000bc0c       ??_C@_08BCJN@gc_usage?$AA@ 004eac0c     Generate:Generate.obj
 0003:0000bc18       ??_C@_0BA@INFA@gc_introduction?$AA@ 004eac18     Generate:Generate.obj
 0003:0000bc28       ??_C@_0P@JOGO@methods_bodies?$AA@ 004eac28     Generate:Generate.obj
 0003:0000bc38       ??_C@_0BC@CDJD@methods_interface?$AA@ 004eac38     Generate:Generate.obj
 0003:0000bc4c       ??_C@_0BA@LFMD@outer_statement?$AA@ 004eac4c     Generate:Generate.obj
 0003:0000bc5c       ??_C@_06KGKG@c_safe?$AA@   004eac5c     Generate:Generate.obj
 0003:0000bc64       ??_C@_0L@OHG@print_body?$AA@ 004eac64     Generate:Generate.obj
 0003:0000bc70       ??_C@_0BI@DPHM@generate_function_start?$AA@ 004eac70     Generate:Generate.obj
 0003:0000bc88       ??_C@_0N@CNGG@c_sorted_arg?$AA@ 004eac88     Generate:Generate.obj
 0003:0000bc98       ??_C@_0O@BME@c_sorted_args?$AA@ 004eac98     Generate:Generate.obj
 0003:0000bca8       ??_C@_0BB@EJKM@get_restrictions?$AA@ 004eaca8     Generate:Generate.obj
 0003:0000bcbc       ??_C@_0L@CMEC@bitvector?$CB?$AA@ 004eacbc     Generate:Generate.obj
 0003:0000bcc8       ??_C@_0L@CJNL@signature?$CB?$AA@ 004eacc8     Generate:Generate.obj
 0003:0000bcd4       ??_C@_04MMMH@getC?$AA@     004eacd4     Generate:Generate.obj
 0003:0000bcdc       ??_C@_0BE@LFOA@print_external_call?$AA@ 004eacdc     Generate:Generate.obj
 0003:0000bcf0       ??_C@_0BD@BMMI@create_loadModules?$AA@ 004eacf0     Generate:Generate.obj
 0003:0000bd04       ??_C@_0BF@KEBE@generate_system_file?$AA@ 004ead04     Generate:Generate.obj
 0003:0000bd1c       ??_C@_07JKAC@addFast?$AA@  004ead1c     Generate:Generate.obj
 0003:0000bd24       ??_C@_08IHIH@c_member?$AA@ 004ead24     Generate:Generate.obj
 0003:0000bd30       ??_C@_0N@HOIA@bitvectorSum?$AA@ 004ead30     Generate:Generate.obj
 0003:0000bd40       ??_C@_0BK@POOB@generate_regular_function?$AA@ 004ead40     Generate:Generate.obj
 0003:0000bd5c       ??_C@_0BI@JOCM@generate_float_function?$AA@ 004ead5c     Generate:Generate.obj
 0003:0000bd74       ??_C@_0L@OEAP@good_names?$AA@ 004ead74     Generate:Generate.obj
 0003:0000bd80       ??_C@_09GLCB@bad_names?$AA@ 004ead80     Generate:Generate.obj
 0003:0000bd8c       ??_C@_0N@MBCH@pointer_cast?$AA@ 004ead8c     Generate:Generate.obj
 0003:0000bd9c       ??_C@_0O@FNMD@any_interface?$AA@ 004ead9c     Generate:Generate.obj
 0003:0000bdac       ??_C@_0M@NFCM@stat_handle?$AA@ 004eadac     Generate:Generate.obj
 0003:0000bdb8       ??_C@_0L@KNFC@stat_super?$AA@ 004eadb8     Generate:Generate.obj
 0003:0000bdc4       ??_C@_0P@NBMD@stat_iteration?$AA@ 004eadc4     Generate:Generate.obj
 0003:0000bdd4       ??_C@_08OMKE@stat_for?$AA@ 004eadd4     Generate:Generate.obj
 0003:0000bde0       ??_C@_0N@IFDD@stat_gassign?$AA@ 004eade0     Generate:Generate.obj
 0003:0000bdf0       ??_C@_0L@FOMO@stat_while?$AA@ 004eadf0     Generate:Generate.obj
 0003:0000bdfc       ??_C@_08DBHI@init_var?$AA@ 004eadfc     Generate:Generate.obj
 0003:0000be08       ??_C@_0P@INNL@stat_construct?$AA@ 004eae08     Generate:Generate.obj
 0003:0000be18       ??_C@_0P@JHJH@self_statement?$AA@ 004eae18     Generate:Generate.obj
 0003:0000be28       ??_C@_0L@CKLM@unfold_use?$AA@ 004eae28     Generate:Generate.obj
 0003:0000be34       ??_C@_0L@7unfold_arg?$AA@  004eae34     Generate:Generate.obj
 0003:0000be40       ??_C@_0M@GJNN@c_type_sort?$AA@ 004eae40     Generate:Generate.obj
 0003:0000be4c       ??_C@_0M@NCOJ@unfold_args?$AA@ 004eae4c     Generate:Generate.obj
 0003:0000be58       ??_C@_0P@IBIJ@build_Variable?$AA@ 004eae58     Generate:Generate.obj
 0003:0000be68       ??_C@_09GFH@check_var?$AA@ 004eae68     Generate:Generate.obj
 0003:0000be74       ??_C@_09HHOB@args_list?$AA@ 004eae74     Generate:Generate.obj
 0003:0000be80       ??_C@_0M@OPMN@inherit_exp?$AA@ 004eae80     Generate:Generate.obj
 0003:0000be8c       ??_C@_0O@PDDF@bitvector_exp?$AA@ 004eae8c     Generate:Generate.obj
 0003:0000be9c       ??_C@_0M@IILG@object_test?$AA@ 004eae9c     Generate:Generate.obj
 0003:0000bea8       ??_C@_09OJJM@equal_exp?$AA@ 004eaea8     Generate:Generate.obj
 0003:0000beb4       ??_C@_05IMD@macro?$AA@     004eaeb4     Generate:Generate.obj
 0003:0000bebc       ??_C@_07EFLH@sign_or?$AA@  004eaebc     Generate:Generate.obj
 0003:0000bec4       ??_C@_0L@DFFM@sign_equal?$AA@ 004eaec4     Generate:Generate.obj
 0003:0000bed0       ??_C@_0L@OHKM@call_array?$AA@ 004eaed0     Generate:Generate.obj
 0003:0000bedc       ??_C@_0L@HADE@call_table?$AA@ 004eaedc     Generate:Generate.obj
 0003:0000bee8       ??_C@_09KLIP@call_slot?$AA@ 004eaee8     Generate:Generate.obj
 0003:0000bef4       ??_C@_04MLJB@to_c?$AA@     004eaef4     Generate:Generate.obj
 0003:0000befc       ??_C@_05GGAP@to_cl?$AA@    004eaefc     Generate:Generate.obj
 0003:0000bf04       ??_C@_07JLNJ@gassign?$AA@  004eaf04     Generate:Generate.obj
 0003:0000bf0c       ??_C@_0L@GMN@gc_protect?$AA@ 004eaf0c     Generate:Generate.obj
 0003:0000bf18       ??_C@_0P@HGFN@exp_to_protect?$AA@ 004eaf18     Generate:Generate.obj
 0003:0000bf28       ??_C@_0BC@DDLM@gc_protection_exp?$AA@ 004eaf28     Generate:Generate.obj
 0003:0000bf3c       ??_C@_0L@CMMI@inline_exp?$AA@ 004eaf3c     Generate:Generate.obj
 0003:0000bf48       ??_C@_0P@KJBD@bag_expression?$AA@ 004eaf48     Generate:Generate.obj
 0003:0000bf58       ??_C@_02JNFB@at?$AA@       004eaf58     Generate:Generate.obj
 0003:0000bf5c       ??_C@_07HLNC@produce?$AA@  004eaf5c     Generate:Generate.obj
 0003:0000bf64       ??_C@_0P@KLBP@get_dependents?$AA@ 004eaf64     Generate:Generate.obj
 0003:0000bf74       ??_C@_0BG@GHKM@update_function_entry?$AA@ 004eaf74     Generate:Generate.obj
 0003:0000bf8c       ??_C@_0BA@OCAG@inner_statement?$AA@ 004eaf8c     Generate:Generate.obj
 0003:0000bf9c       ??_C@_0M@FFJO@debug_intro?$AA@ 004eaf9c     Generate:Generate.obj
 0003:0000bfa8       ??_C@_0BB@LBC@generate_profile?$AA@ 004eafa8     Generate:Generate.obj
 0003:0000bfbc       ??_C@_0M@FILE@set_outfile?$AA@ 004eafbc     Generate:Generate.obj
 0003:0000bfc8       ??_C@_0M@KFAM@need_debug?$DP?$AA@ 004eafc8     Generate:Generate.obj
 0003:0000bfd4       ??_C@_0P@CEIC@protect_result?$AA@ 004eafd4     Generate:Generate.obj
 0003:0000bfe4       ??_C@_0L@HHNC@check_sort?$AA@ 004eafe4     Generate:Generate.obj
 0003:0000bff0       ??_C@_0BG@HLPC@create_function_entry?$AA@ 004eaff0     Generate:Generate.obj
 0003:0000c008       ??_C@_0BB@CPID@print_c_function?$AA@ 004eb008     Generate:Generate.obj
 0003:0000c01c       ??_C@_07CEKA@declare?$AA@  004eb01c     Generate:Generate.obj
 0003:0000c024       ??_C@_0O@PHDL@public_static?$AA@ 004eb024     Generate:Generate.obj
 0003:0000c034       ??_C@_0L@JNJP@namespace?$CB?$AA@ 004eb034     Generate:Generate.obj
 0003:0000c040       ??_C@_0BA@OKLG@typed_args_list?$AA@ 004eb040     Generate:Generate.obj
 0003:0000c050       ??_C@_0BC@BNLB@generate_end_file?$AA@ 004eb050     Generate:Generate.obj
 0003:0000c064       ??_C@_0BB@PHCO@generate_objects?$AA@ 004eb064     Generate:Generate.obj
 0003:0000c078       ??_C@_0BD@LGEM@generate_functions?$AA@ 004eb078     Generate:Generate.obj
 0003:0000c08c       ??_C@_0BE@DGKD@generate_start_file?$AA@ 004eb08c     Generate:Generate.obj
 0003:0000c0a0       ??_C@_0BD@PGMB@generate_meta_load?$AA@ 004eb0a0     Generate:Generate.obj
 0003:0000c0b4       ??_C@_0L@OOKK@start_file?$AA@ 004eb0b4     Generate:Generate.obj
 0003:0000c0c0       ??_C@_0O@JDEO@generate_file?$AA@ 004eb0c0     Generate:Generate.obj
 0003:0000c0d0       ??_C@_0BH@EACG@start_module_interface?$AA@ 004eb0d0     Generate:Generate.obj
 0003:0000c0e8       ??_C@_0BD@IOGC@generate_interface?$AA@ 004eb0e8     Generate:Generate.obj
 0003:0000c0fc       ??_C@_0N@OKMI@generate_f2f?$AA@ 004eb0fc     Generate:Generate.obj
 0003:0000c10c       ??_C@_0N@PAIE@generate_c2f?$AA@ 004eb10c     Generate:Generate.obj
 0003:0000c11c       ??_C@_0BB@NPPF@generate_classes?$AA@ 004eb11c     Generate:Generate.obj
 0003:0000c130       ??_C@_0P@BAHK@generate_files?$AA@ 004eb130     Generate:Generate.obj
 0003:0000c140       ??_C@_09GIFL@outmodule?$AA@ 004eb140     Generate:Generate.obj
 0003:0000c14c       ??_C@_07IDLH@parents?$AA@  004eb14c     Generate:Generate.obj
 0003:0000c154       ??_C@_07HILC@compile?$AA@  004eb154     Generate:Generate.obj
 0003:0000c15c       ??_C@_09EBNG@statement?$AA@ 004eb15c     Generate:Generate.obj
 0003:0000c168       ??_C@_0L@NMNH@expression?$AA@ 004eb168     Generate:Generate.obj
 0003:0000c174       ??_C@_06GAIL@c_func?$AA@   004eb174     Generate:Generate.obj
 0003:0000c17c       ??_C@_06DBAM@c_test?$AA@   004eb17c     Generate:Generate.obj
 0003:0000c184       ??_C@_0M@DPFO@close_block?$AA@ 004eb184     Generate:Generate.obj
 0003:0000c190       ??_C@_09PPDB@new_block?$AA@ 004eb190     Generate:Generate.obj
 0003:0000c19c       ??_C@_09LCA@breakline?$AA@ 004eb19c     Generate:Generate.obj
 0003:0000c1a8       ??_C@_08PNIC@indent_c?$AA@ 004eb1a8     Generate:Generate.obj
 0003:0000c1b4       ??_C@_0L@LDPA@interface?$CB?$AA@ 004eb1b4     Generate:Generate.obj
 0003:0000c1c0       ??_C@_0L@OKGO@interfaces?$AA@ 004eb1c0     Generate:Generate.obj
 0003:0000c1cc       ??_C@_09BMKK@extension?$AA@ 004eb1cc     Generate:Generate.obj
 0003:0000c1d8       ??_C@_0P@KDBI@open_operators?$AA@ 004eb1d8     Generate:Generate.obj
 0003:0000c1e8       ??_C@_0BB@BHEO@open_comparators?$AA@ 004eb1e8     Generate:Generate.obj
 0003:0000c1fc       ??_C@_02IHLC@?5?5?$AA@     004eb1fc     Generate:gsystem.obj
 0003:0000c200       ??_C@_02LOOK@?$HN?5?$AA@   004eb200     Generate:gsystem.obj
 0003:0000c204       ??_C@_06NMEN@result?$AA@   004eb204     Generate:gsystem.obj
 0003:0000c20c       ??_C@_08PLHA@stat?5?9?$DO?5?$AA@ 004eb20c     Generate:gsystem.obj
 0003:0000c218       ??_C@_08EDLD@exp?5?5?9?$DO?5?$AA@ 004eb218     Generate:gsystem.obj
 0003:0000c224       ??_C@_05GHEF@?$FN?5?9?$DO?5?$AA@ 004eb224     Generate:gsystem.obj
 0003:0000c22c       ??_C@_04CALJ@opt?$FL?$AA@  004eb22c     Generate:gsystem.obj
 0003:0000c234       ??_C@_02DIMO@?$FN?6?$AA@   004eb234     Generate:gsystem.obj
 0003:0000c238       ??_C@_07GNFP@?5?$FLsort?5?$AA@ 004eb238     Generate:gsystem.obj
 0003:0000c240       ??_C@_08IOAF@type?5?9?$DO?5?$AA@ 004eb240     Generate:gsystem.obj
 0003:0000c24c       ??_C@_07HNKI@Opt?5?$DN?$DO?5?$AA@ 004eb24c     Generate:gsystem.obj
 0003:0000c254       ??_C@_0BJ@KHCL@?9?9?9?9?5Compiling?5?$HOS?5?9?9?9?9?5?6?$AA@ 004eb254     Generate:gsystem.obj
 0003:0000c270       ??_C@_0CM@JABI@?9?9?9?9?5WARNING?3?5?$HOS?5should?5be?5decla@ 004eb270     Generate:gsystem.obj
 0003:0000c29c       ??_C@_0BK@KLIH@call?5generate_files?5?$HOS?5?5?6?$AA@ 004eb29c     Generate:gsystem.obj
 0003:0000c2b8       ??_C@_0CJ@PGFA@?$CK?$CK?$CK?$CK?5Compiling?5the?5module?5?$HOA?5?$FLv?4@ 004eb2b8     Generate:gsystem.obj
 0003:0000c2e4       ??_C@_0DI@IJHK@?$FL211?$FN?5?5?$HOS?5cannot?5be?5used?5both?5as@ 004eb2e4     Generate:gsystem.obj
 0003:0000c31c       ??_C@_0CK@JGKM@?$CL?$CL?$CL?$CL?5Compiling?5the?5file?5?$HOA?4cl?5?$FLv@ 004eb31c     Generate:gsystem.obj
 0003:0000c348       ??_C@_0CH@NOCM@?$DN?$DN?$DN?$DN?5Generate?5?$HOA?5files?5for?5modul@ 004eb348     Generate:gsystem.obj
 0003:0000c370       ??_C@_0CI@CALI@?$DN?$DN?$DN?$DN?5generate?5file?5for?5module?5?$HOS@ 004eb370     Generate:gsystem.obj
 0003:0000c398       ??_C@_0L@JAGJ@GC_UNBIND?$DL?$AA@ 004eb398     Generate:gsystem.obj
 0003:0000c3a4       ??_C@_01FAJB@?$DL?$AA@     004eb3a4     Generate:gsystem.obj
 0003:0000c3a8       ??_C@_08LKCE@public?5?5?$AA@ 004eb3a8     Generate:gsystem.obj
 0003:0000c3b4       ??_C@_0BM@JEIO@?1?$CK?5declaration?5of?5fields?5?$CK?1?$AA@ 004eb3b4     Generate:gsystem.obj
 0003:0000c3d0       ??_C@_05HDAD@?$CI?$CJ?5?$HL?$HN?$AA@ 004eb3d0     Generate:gsystem.obj
 0003:0000c3d8       ??_C@_07MEDG@public?5?$AA@ 004eb3d8     Generate:gsystem.obj
 0003:0000c3e0       ??_C@_0CD@CEOC@?1?$CK?5empty?5constructor?5by?5default?5@ 004eb3e0     Generate:gsystem.obj
 0003:0000c404       ??_C@_09MAND@?5extends?5?$AA@ 004eb404     Generate:gsystem.obj
 0003:0000c410       ??_C@_0O@JLDF@public?5class?5?$AA@ 004eb410     Generate:gsystem.obj
 0003:0000c420       ??_C@_0M@PBA@?5in?5module?5?$AA@ 004eb420     Generate:gsystem.obj
 0003:0000c42c       ??_C@_0BD@MLJC@?1?1?5class?5file?5for?5?$AA@ 004eb42c     Generate:gsystem.obj
 0003:0000c440       ??_C@_0CA@GKHA@?$CL?$CL?$CL?$CL?5Creating?5the?5file?5?$HOA?4java?6?$AA@ 004eb440     Generate:gsystem.obj
 0003:0000c460       ??_C@_01FNLH@a?$AA@        004eb460     Generate:gsystem.obj
 0003:0000c464       ??_C@_0DC@DOEL@?$DN?$DN?$DN?$DN?5Generate?5inteface?5?$CI?4h?$CJ?5file@ 004eb464     Generate:gsystem.obj
 0003:0000c498       ??_C@_04IFLH@?$DL?1?1?5?$AA@ 004eb498     Generate:gsystem.obj
 0003:0000c4a0       ??_C@_0DF@HBGN@?$FL217?$FN?5?$HOS?5and?5?$HOS?5cannot?5be?5define@ 004eb4a0     Generate:gsystem.obj
 0003:0000c4d8       ??_C@_04HNCK@_cl_?$AA@     004eb4d8     Generate:gsystem.obj
 0003:0000c4e0       ??_C@_03DPLC@?1?1?5?$AA@   004eb4e0     Generate:gsystem.obj
 0003:0000c4e4       ??_C@_0CE@NEDO@?1?1?5instructions?5from?5module?5sour@ 004eb4e4     Generate:gsystem.obj
 0003:0000c508       ??_C@_0CB@NLKJ@?1?1?5definition?5of?5the?5properties?5@ 004eb508     Generate:gsystem.obj
 0003:0000c52c       ??_C@_0CF@GOAH@?1?1?5definition?5of?5the?5meta?9model?5@ 004eb52c     Generate:gsystem.obj
 0003:0000c554       ??_C@_0CA@FMNI@?1?1?5definition?5of?5class?5methods?5?$AA@ 004eb554     Generate:gsystem.obj
 0003:0000c574       ??_C@_03GGHG@?6?1?1?$AA@   004eb574     Generate:gsystem.obj
 0003:0000c578       ??_C@_03CPKD@?$CF?$CJ?6?$AA@ 004eb578     Generate:gsystem.obj
 0003:0000c57c       ??_C@_02NDAK@?5?$CI?$AA@   004eb57c     Generate:gsystem.obj
 0003:0000c580       ??_C@_02GLLI@?$FN?5?$AA@   004eb580     Generate:gsystem.obj
 0003:0000c584       ??_C@_07OFMG@return?5?$AA@ 004eb584     Generate:gsystem.obj
 0003:0000c58c       ??_C@_09HPND@?$CIResult?$CJ?$DL?$AA@ 004eb58c     Generate:gsystem.obj
 0003:0000c598       ??_C@_06GIEJ@Result?$AA@   004eb598     Generate:gsystem.obj
 0003:0000c5a0       ??_C@_0CF@EPIA@?$FL218?$FN?5Sort?5error?3?5Cannot?5compile@ 004eb5a0     Generate:gsystem.obj
 0003:0000c5c8       ??_C@_0BM@KKFA@You?5can?5look?5at?5WrongMethod?$AA@ 004eb5c8     Generate:gsystem.obj
 0003:0000c5e4       ??_C@_0DE@PBDL@?9?9?9?9?5note?3?5?$HOS?8s?5range?5was?5found?5@ 004eb5e4     Generate:gsystem.obj
 0003:0000c618       ??_C@_01KBCC@v?$AA@        004eb618     Generate:cgen.obj
 0003:0000c61c       ??_C@_05OIDB@CNULL?$AA@    004eb61c     Generate:cgen.obj
 0003:0000c624       ??_C@_03BGBC@?4it?$AA@     004eb624     Generate:cgen.obj
 0003:0000c628       ??_C@_05LIHF@?4_cl_?$AA@   004eb628     Generate:cgen.obj
 0003:0000c630       ??_C@_02BKBE@?4_?$AA@      004eb630     Generate:cgen.obj
 0003:0000c634       ??_C@_0O@IJFM@symbol?3?3make?$CI?$AA@ 004eb634     Generate:cgen.obj
 0003:0000c644       ??_C@_06GNAI@CFALSE?$AA@   004eb644     Generate:cgen.obj
 0003:0000c64c       ??_C@_05FEDN@CTRUE?$AA@    004eb64c     Generate:cgen.obj
 0003:0000c654       ??_C@_07KJNJ@?9?$DOvalue?$AA@ 004eb654     Generate:cgen.obj
 0003:0000c65c       ??_C@_05CLLM@ClEnv?$AA@    004eb65c     Generate:cgen.obj
 0003:0000c664       ??_C@_02BIMI@?8?$CJ?$AA@   004eb664     Generate:cgen.obj
 0003:0000c668       ??_C@_08OEBB@_char_?$CI?8?$AA@ 004eb668     Generate:cgen.obj
 0003:0000c674       ??_C@_0M@NGJG@_function_?$CI?$AA@ 004eb674     Generate:cgen.obj
 0003:0000c680       ??_C@_0CD@JPII@Class?3?5public?5NameSpace?5?$HL?6public@ 004eb680     Generate:cgen.obj
 0003:0000c6a4       ??_C@_06FJFG@class?5?$AA@  004eb6a4     Generate:cgen.obj
 0003:0000c6ac       ??_C@_0BK@GMEF@?6?6?1?1?5namespace?5class?5for?5?$AA@ 004eb6ac     Generate:cgen.obj
 0003:0000c6c8       ??_C@_0BC@DNHD@extern?5NameSpace?5?$AA@ 004eb6c8     Generate:cgen.obj
 0003:0000c6dc       ??_C@_02DAMG@?$DL?6?$AA@   004eb6dc     Generate:cgen.obj
 0003:0000c6e0       ??_C@_06ONFC@Class?5?$AA@  004eb6e0     Generate:cgen.obj
 0003:0000c6e8       ??_C@_07KEHG@extern?5?$AA@ 004eb6e8     Generate:cgen.obj
 0003:0000c6f0       ??_C@_0BG@CNAD@?5void?5metaLoad?$CI?$CJ?$DL?$HN?$DL?6?6?$AA@ 004eb6f0     Generate:cgen.obj
 0003:0000c708       ??_C@_0BJ@JKJ@?6?6?1?1?5module?5definition?5?6?$AA@ 004eb708     Generate:cgen.obj
 0003:0000c724       ??_C@_07BJIA@?3?3make?$CI?$AA@ 004eb724     Generate:cgen.obj
 0003:0000c72c       ??_C@_08DKJK@property?$AA@ 004eb72c     Generate:cgen.obj
 0003:0000c738       ??_C@_09CFMM@operation?$AA@ 004eb738     Generate:cgen.obj
 0003:0000c744       ??_C@_04PBGF@?4h?$CC?6?$AA@ 004eb744     Generate:cgen.obj
 0003:0000c74c       ??_C@_0L@PEDJ@?$CDinclude?5?$CC?$AA@ 004eb74c     Generate:cgen.obj
 0003:0000c758       ??_C@_0BC@INEK@?6?$CDdefine?5CLAIREH_?$AA@ 004eb758     Generate:cgen.obj
 0003:0000c76c       ??_C@_0BB@DMAE@?$CDifndef?5CLAIREH_?$AA@ 004eb76c     Generate:cgen.obj
 0003:0000c780       ??_C@_0CE@EFDL@?1?1?5interface?5defination?5for?5modu@ 004eb780     Generate:cgen.obj
 0003:0000c7a4       ??_C@_08MEMI@?6?$CDendif?6?$AA@ 004eb7a4     Generate:cgen.obj
 0003:0000c7b0       ??_C@_0L@HLEF@NameSpace?5?$AA@ 004eb7b0     Generate:cgen.obj
 0003:0000c7bc       ??_C@_03JMKG@?$DL?6?6?$AA@ 004eb7bc     Generate:cgen.obj
 0003:0000c7c0       ??_C@_0BD@PNNO@?5extends?5NameSpace?$AA@ 004eb7c0     Generate:cgen.obj
 0003:0000c7d4       ??_C@_03FMDL@?5?$CK?1?$AA@ 004eb7d4     Generate:cgen.obj
 0003:0000c7d8       ??_C@_0BK@JL@?1?$CK?5class?5file?5for?5module?5?$AA@ 004eb7d8     Generate:cgen.obj
 0003:0000c7f4       ??_C@_0CA@OLHE@?$CL?$CL?$CL?$CL?5Creating?5the?5file?5?$HOA?4cpp?5?6?$AA@ 004eb7f4     Generate:cgen.obj
 0003:0000c814       ??_C@_0BH@NHBO@ClEnv?9?$DOmodule_I?5?$DN?5it?$DL?6?$AA@ 004eb814     Generate:cgen.obj
 0003:0000c82c       ??_C@_08BJHP@GC_BIND?$DL?$AA@ 004eb82c     Generate:cgen.obj
 0003:0000c838       ??_C@_0BD@FEII@Class?3?3metaLoad?$CI?$CJ?5?$AA@ 004eb838     Generate:cgen.obj
 0003:0000c84c       ??_C@_05JDPM@void?5?$AA@   004eb84c     Generate:cgen.obj
 0003:0000c854       ??_C@_0BF@PLFE@?$CDinclude?5?$DMKernel?4h?$DO?6?$AA@ 004eb854     Generate:cgen.obj
 0003:0000c86c       ??_C@_0BF@CNBJ@?$CDinclude?5?$DMclaire?4h?$DO?6?$AA@ 004eb86c     Generate:cgen.obj
 0003:0000c884       ??_C@_09COKD@?5?$CK?$CK?$CK?$CK?$CK?1?6?6?$AA@ 004eb884     Generate:cgen.obj
 0003:0000c890       ??_C@_0L@IEEB@?5?1?5safety?5?$AA@ 004eb890     Generate:cgen.obj
 0003:0000c89c       ??_C@_0BI@PBFK@?4cl?5?6?5?5?5?5?5?5?5?5?5?$FLversion?5?$AA@ 004eb89c     Generate:cgen.obj
 0003:0000c8b4       ??_C@_0CD@FPFI@?1?$CK?$CK?$CK?$CK?$CK?5CLAIRE?5Compilation?5of?5fil@ 004eb8b4     Generate:cgen.obj
 0003:0000c8d8       ??_C@_03MHIE@?$DN?50?$AA@  004eb8d8     Generate:cgen.obj
 0003:0000c8dc       ??_C@_04OKDP@?$DN0?40?$AA@ 004eb8dc     Generate:cgen.obj
 0003:0000c8e4       ??_C@_03KGEL@?$CJ?$CJ?$DL?$AA@ 004eb8e4     Generate:cgen.obj
 0003:0000c8e8       ??_C@_0CL@LPNO@?5?5?5PRcount?5?$CKPR_x?5?$DN?5PRstart?$CIPRget@ 004eb8e8     Generate:cgen.obj
 0003:0000c914       ??_C@_03MFGH@?5?5?5?$AA@   004eb914     Generate:cgen.obj
 0003:0000c918       ??_C@_07GMNA@public?3?$AA@ 004eb918     Generate:cgen.obj
 0003:0000c920       ??_C@_09DKLC@?3?5public?5?$AA@ 004eb920     Generate:cgen.obj
 0003:0000c92c       ??_C@_08KBPJ@?6?6class?5?$AA@ 004eb92c     Generate:cgen.obj
 0003:0000c938       ??_C@_07HANA@?6class?5?$AA@ 004eb938     Generate:cgen.obj
 0003:0000c940       ??_C@_0BH@NNPF@?$CJ?$DL?5?5?1?1?5v3?40?455?5optim?5?$CB?$AA@ 004eb940     Generate:cgen.obj
 0003:0000c958       ??_C@_0M@NDEE@GC_RESERVE?$CI?$AA@ 004eb958     Generate:cgen.obj
 0003:0000c964       ??_C@_0CI@ECFP@GC_RESERVE?$CI1?$CJ?$DL?5?5?1?1?5HOHO?5v3?40?455?5@ 004eb964     Generate:cgen.obj
 0003:0000c98c       ??_C@_03EKNB@?$HN?$CJ?$DL?$AA@ 004eb98c     Generate:cgen.obj
 0003:0000c990       ??_C@_05PBON@PUSH?$CI?$AA@ 004eb990     Generate:cgen.obj
 0003:0000c998       ??_C@_0BE@JAGI@PUSH?$CI_oid_?$CIClEnv?$CJ?$CJ?$DL?$AA@ 004eb998     Generate:cgen.obj
 0003:0000c9ac       ??_C@_02MPPN@?0?$HL?$AA@   004eb9ac     Generate:cgen.obj
 0003:0000c9b0       ??_C@_08LJFA@DB_BIND?$CI?$AA@ 004eb9b0     Generate:cgen.obj
 0003:0000c9bc       ??_C@_0N@PGHE@PRend?$CIPR_x?$CJ?$DL?$AA@ 004eb9bc     Generate:cgen.obj
 0003:0000c9cc       ??_C@_0L@JEKO@DB_UNBIND?$CI?$AA@ 004eb9cc     Generate:cgen.obj
 0003:0000c9d8       ??_C@_0BD@FII@GC_UNBIND?$DL?5return?5?$AA@ 004eb9d8     Generate:cgen.obj
 0003:0000c9ec       ??_C@_04NMMK@?5?$CK?1?6?$AA@ 004eb9ec     Generate:cgen.obj
 0003:0000c9f4       ??_C@_03PCJF@?$CJ?5?$FL?$AA@ 004eb9f4     Generate:cgen.obj
 0003:0000c9f8       ??_C@_0BL@NMLJ@?6?1?$CK?5The?5c?$CL?$CL?5function?5for?3?5?$AA@ 004eb9f8     Generate:cgen.obj
 0003:0000ca14       ??_C@_08ODED@float_v?$CI?$AA@ 004eba14     Generate:cgen.obj
 0003:0000ca20       ??_C@_08IMHN@_float_?$CI?$AA@ 004eba20     Generate:cgen.obj
 0003:0000ca2c       ??_C@_0BB@ONJE@?9?$DOcopyIfNeeded?$CI?$CJ?$AA@ 004eba2c     Generate:cgen.obj
 0003:0000ca40       ??_C@_02IGCE@?5?$CK?$AA@   004eba40     Generate:cgen.obj
 0003:0000ca44       ??_C@_04GBEN@OID?5?$AA@    004eba44     Generate:cgen.obj
 0003:0000ca4c       ??_C@_04FHKM@int?5?$AA@    004eba4c     Generate:cgen.obj
 0003:0000ca54       ??_C@_0CN@JBM@?$FLinternal?$FN?5to_cl?5for?5a?5?$HOS?5is?5not@ 004eba54     Generate:cgen.obj
 0003:0000ca84       ??_C@_09EAJH@?0?$CIint?5?$CK?$CJ?5?$AA@ 004eba84     Generate:cgen.obj
 0003:0000ca90       ??_C@_0BB@BKLF@ClAlloc?9?$DOimport?$CI?$AA@ 004eba90     Generate:cgen.obj
 0003:0000caa4       ??_C@_08GGGA@_array_?$CI?$AA@ 004ebaa4     Generate:cgen.obj
 0003:0000cab0       ??_C@_09PKED@_string_?$CI?$AA@ 004ebab0     Generate:cgen.obj
 0003:0000cabc       ??_C@_0L@GBEB@_integer_?$CI?$AA@ 004ebabc     Generate:cgen.obj
 0003:0000cac8       ??_C@_06HHDB@_oid_?$CI?$AA@ 004ebac8     Generate:cgen.obj
 0003:0000cad0       ??_C@_0O@GLIG@Kernel?4cfalse?$AA@ 004ebad0     Generate:cgen.obj
 0003:0000cae0       ??_C@_0N@DKEH@Kernel?4ctrue?$AA@ 004ebae0     Generate:cgen.obj
 0003:0000caf0       ??_C@_07KOD@_void_?$CI?$AA@ 004ebaf0     Generate:cgen.obj
 0003:0000caf8       ??_C@_0L@FEEN@Kernel?4nil?$AA@ 004ebaf8     Generate:cgen.obj
 0003:0000cb04       ??_C@_04BAK@NULL?$AA@      004ebb04     Generate:cgen.obj
 0003:0000cb0c       ??_C@_0CM@BICI@?$FLinternal?$FN?5to_c?5for?5a?5?$HOS?5is?5not?5@ 004ebb0c     Generate:cgen.obj
 0003:0000cb38       ??_C@_08MAOF@EXPORT?$CI?$CI?$AA@ 004ebb38     Generate:cgen.obj
 0003:0000cb44       ??_C@_08MPKJ@array_v?$CI?$AA@ 004ebb44     Generate:cgen.obj
 0003:0000cb50       ??_C@_09BEOO@string_v?$CI?$AA@ 004ebb50     Generate:cgen.obj
 0003:0000cb5c       ??_C@_07NHBK@char_v?$CI?$AA@ 004ebb5c     Generate:cgen.obj
 0003:0000cb64       ??_C@_07BIKA@OBJECT?$CI?$AA@ 004ebb64     Generate:cgen.obj
 0003:0000cb6c       ??_C@_0BD@LPPI@?5?$DP?5CTRUE?5?3?5CFALSE?$CJ?$AA@ 004ebb6c     Generate:cgen.obj
 0003:0000cb80       ??_C@_0CB@NECN@?5?$DP?5Kernel?4ctrue?5?3?5Kernel?4cfalse?$CJ@ 004ebb80     Generate:cgen.obj
 0003:0000cba4       ??_C@_08EIFM@INHERIT?$CI?$AA@ 004ebba4     Generate:cgen.obj
 0003:0000cbb0       ??_C@_09LGLE@BCONTAIN?$CI?$AA@ 004ebbb0     Generate:cgen.obj
 0003:0000cbbc       ??_C@_0BE@ENFD@?$HOS?5?$DN?5?$HOS?5will?5fail?5?$CB?$AA@ 004ebbbc     Generate:cgen.obj
 0003:0000cbd0       ??_C@_07DACP@?5CTRUE?$CJ?$AA@ 004ebbd0     Generate:cgen.obj
 0003:0000cbd8       ??_C@_07OHO@?$CIequal?$CI?$AA@ 004ebbd8     Generate:cgen.obj
 0003:0000cbe0       ??_C@_06HJMK@?5NULL?$CJ?$AA@ 004ebbe0     Generate:cgen.obj
 0003:0000cbe8       ??_C@_0P@FDNM@?$CIequal_string?$CI?$AA@ 004ebbe8     Generate:cgen.obj
 0003:0000cbf8       ??_C@_08MGEO@?9?$DOascii?$CJ?$AA@ 004ebbf8     Generate:cgen.obj
 0003:0000cc04       ??_C@_08DBGH@?$CI?$CIchar?$CJ?5?$AA@ 004ebc04     Generate:cgen.obj
 0003:0000cc10       ??_C@_05IHCF@?5?9?51?$FN?$AA@ 004ebc10     Generate:cgen.obj
 0003:0000cc18       ??_C@_07MLGB@CLREAD?$CI?$AA@ 004ebc18     Generate:cgen.obj
 0003:0000cc20       ??_C@_09HMIG@?9?$DOaddFast?$AA@ 004ebc20     Generate:cgen.obj
 0003:0000cc2c       ??_C@_04PIED@?5?$CK?$CJ?5?$AA@ 004ebc2c     Generate:cgen.obj
 0003:0000cc34       ??_C@_02GGFO@?$CI?$CI?$AA@ 004ebc34     Generate:cgen.obj
 0003:0000cc38       ??_C@_03ENCN@ANY?$AA@      004ebc38     Generate:cgen.obj
 0003:0000cc3c       ??_C@_06JDFN@STRING?$AA@   004ebc3c     Generate:cgen.obj
 0003:0000cc44       ??_C@_03KNLJ@OID?$AA@      004ebc44     Generate:cgen.obj
 0003:0000cc48       ??_C@_04MEEK@GC__?$AA@     004ebc48     Generate:cgen.obj
 0003:0000cc50       ??_C@_05FIIA@Stack?$AA@    004ebc50     Generate:cgen.obj
 0003:0000cc58       ??_C@_07CKBE@?3?3alloc?$AA@ 004ebc58     Generate:cgen.obj
 0003:0000cc60       ??_C@_08MCGC@?3?3empty?$CI?$AA@ 004ebc60     Generate:cgen.obj
 0003:0000cc6c       ??_C@_0CF@PMEB@?6void?5call_main?$CI?$CJ?5?$HLdefault_main?$CI@ 004ebc6c     Generate:cgen.obj
 0003:0000cc94       ??_C@_0BD@JMGH@?$CIClEnv?9?$DOparams?$CJ?$DL?$HN?6?$AA@ 004ebc94     Generate:cgen.obj
 0003:0000cca8       ??_C@_0BD@GNMC@void?5call_main?$CI?$CJ?5?$HL?$AA@ 004ebca8     Generate:cgen.obj
 0003:0000ccbc       ??_C@_0M@DHBN@?$CIlist?5?$CKl?$CJ?$DL?6?$AA@ 004ebcbc     Generate:cgen.obj
 0003:0000ccc8       ??_C@_09JBOJ@main_list?$AA@ 004ebcc8     Generate:cgen.obj
 0003:0000ccd4       ??_C@_0O@DOCL@?6extern?5void?5?$AA@ 004ebcd4     Generate:cgen.obj
 0003:0000cce4       ??_C@_07FMBL@?$FN?5?9?9?9?6?6?$AA@ 004ebce4     Generate:cgen.obj
 0003:0000ccec       ??_C@_04ECJL@?5?0?5?$FL?$AA@ 004ebcec     Generate:cgen.obj
 0003:0000ccf4       ??_C@_0CG@CLON@?1?1?5?9?9?9?5System?5configuration?5file@ 004ebcf4     Generate:cgen.obj
 0003:0000cd1c       ??_C@_03LALA@?$CJ?$DL?6?$AA@ 004ebd1c     Generate:cgen.obj
 0003:0000cd20       ??_C@_0BE@JJHD@PRdepends_property?$CI?$AA@ 004ebd20     Generate:cgen.obj
 0003:0000cd34       ??_C@_0BI@LGBF@ClAlloc?9?$DOstatusGC?5?$DN?52?$DL?6?$AA@ 004ebd34     Generate:cgen.obj
 0003:0000cd4c       ??_C@_02GDLA@?$DL?5?$AA@   004ebd4c     Generate:cgen.obj
 0003:0000cd50       ??_C@_0BD@MOFH@ClEnv?9?$DOmodule_I?5?$DN?5?$AA@ 004ebd50     Generate:cgen.obj
 0003:0000cd64       ??_C@_0BB@FJHO@?4it?9?$DOstatus?5?$DN?52?$DL?$AA@ 004ebd64     Generate:cgen.obj
 0003:0000cd78       ??_C@_05BPHB@load_?$AA@    004ebd78     Generate:cgen.obj
 0003:0000cd80       ??_C@_0BB@FFCJ@?4it?9?$DOevaluate?5?$DN?5?$AA@ 004ebd80     Generate:cgen.obj
 0003:0000cd94       ??_C@_0N@JAKP@?4metaLoad?$CI?$CJ?$DL?$AA@ 004ebd94     Generate:cgen.obj
 0003:0000cda4       ??_C@_0P@EDBE@?1?1module?5load?5?$AA@ 004ebda4     Generate:cgen.obj
 0003:0000cdb4       ??_C@_0N@GDCG@?4initModule?$CI?$AA@ 004ebdb4     Generate:cgen.obj
 0003:0000cdc4       ??_C@_0BG@JNOF@?1?1module?5definitions?5?$AA@ 004ebdc4     Generate:cgen.obj
 0003:0000cddc       ??_C@_0BH@KIMJ@?6?6void?5loadModules?$CI?$CJ?5?6?$AA@ 004ebddc     Generate:cgen.obj
 0003:0000cdf4       ??_C@_0P@OPJK@?4metaLoad?$CI?$CJ?$DL?$HN?6?$AA@ 004ebdf4     Generate:cgen.obj
 0003:0000ce04       ??_C@_04CAKH@?$CI?$CJ?5?$HL?$AA@ 004ebe04     Generate:cgen.obj
 0003:0000ce0c       ??_C@_0L@DDBH@void?5load_?$AA@ 004ebe0c     Generate:cgen.obj
 0003:0000ce18       ??_C@_04CHAD@?$CJ?$DL?5?5?$AA@ 004ebe18     Generate:cgen.obj
 0003:0000ce20       ??_C@_03OIKN@?$DL?$HN?6?$AA@ 004ebe20     Generate:cgen.obj
 0003:0000ce24       ??_C@_05BBAE@?$CIthis?$AA@ 004ebe24     Generate:cgen.obj
 0003:0000ce2c       ??_C@_07CIAD@?0?$CIint?$CJ?5?$AA@ 004ebe2c     Generate:cgen.obj
 0003:0000ce34       ??_C@_0BD@ONDD@?9?$DOfcall?$CI?$CIint?$CJ?5this?$AA@ 004ebe34     Generate:cgen.obj
 0003:0000ce48       ??_C@_08IJLN@return?5?$CI?$AA@ 004ebe48     Generate:cgen.obj
 0003:0000ce54       ??_C@_03LLG@?7?$HL?5?$AA@  004ebe54     Generate:cgen.obj
 0003:0000ce58       ??_C@_0BF@NEMM@?1?1?5interface?5method?5?$AA@ 004ebe58     Generate:cgen.obj
 0003:0000ce70       ??_C@_0CJ@JPGC@?5?$DN?$DN?5CTRUE?$CJ?5?$DP?5Kernel?4false?5?3?5Kern@ 004ebe70     Generate:copt.obj
 0003:0000ce9c       ??_C@_03CFHG@?$FL0?$FN?$AA@ 004ebe9c     Generate:copt.obj
 0003:0000cea0       ??_C@_07IBJE@?9?$DOascii?$AA@ 004ebea0     Generate:copt.obj
 0003:0000cea8       ??_C@_08BAAH@?9?$DOlength?$AA@ 004ebea8     Generate:copt.obj
 0003:0000ceb4       ??_C@_09KEOD@OPT_EVAL?$CI?$AA@ 004ebeb4     Generate:copt.obj
 0003:0000cec0       ??_C@_05GKOE@sqrt?$CI?$AA@ 004ebec0     Generate:copt.obj
 0003:0000cec8       ??_C@_06JDIN@OWNER?$CI?$AA@ 004ebec8     Generate:copt.obj
 0003:0000ced0       ??_C@_02GGJF@?$CI?9?$AA@   004ebed0     Generate:copt.obj
 0003:0000ced4       ??_C@_0N@BGJK@?9?$DOinlineDef?$CI?$AA@ 004ebed4     Generate:copt.obj
 0003:0000cee4       ??_C@_06JPEI@?5?9?51?$FN?$CJ?$AA@ 004ebee4     Generate:copt.obj
 0003:0000ceec       ??_C@_07BELG@_char_?$CI?$AA@ 004ebeec     Generate:copt.obj
 0003:0000cef4       ??_C@_0L@IOCE@?9?$DOaddFast?$CI?$AA@ 004ebef4     Generate:copt.obj
 0003:0000cf00       ??_C@_03FBGL@?$CJ?$CJ?$FL?$AA@ 004ebf00     Generate:copt.obj
 0003:0000cf04       ??_C@_03JJGL@?$CI?$CK?$CI?$AA@ 004ebf04     Generate:copt.obj
 0003:0000cf08       ??_C@_07CGIO@?9?$DOmemq?$CI?$AA@ 004ebf08     Generate:copt.obj
 0003:0000cf10       ??_C@_09BJHM@_integer_?$AA@ 004ebf10     Generate:copt.obj
 0003:0000cf1c       ??_C@_05EAHG@?4it?$CJ?$CJ?$AA@ 004ebf1c     Generate:copt.obj
 0003:0000cf24       ??_C@_0BG@KPGJ@?5?$DN?5ClaireClass?3?3make?$CI?$AA@ 004ebf24     Generate:copt.obj
 0003:0000cf3c       ??_C@_03DHMP@?5?3?5?$AA@   004ebf3c     Generate:copt.obj
 0003:0000cf40       ??_C@_04NOEP@?$CJ?5?$DP?5?$AA@ 004ebf40     Generate:copt.obj
 0003:0000cf48       ??_C@_04FFN@?5?$DM?$DN?5?$AA@ 004ebf48     Generate:copt.obj
 0003:0000cf50       ??_C@_0BF@CNOI@add_method_property?$CI?$AA@ 004ebf50     Generate:copt.obj
 0003:0000cf68       ??_C@_01POCP@?7?$AA@       004ebf68     Generate:copt.obj
 0003:0000cf6c       ??_C@_07MLOM@Method?$CI?$AA@ 004ebf6c     Generate:copt.obj
 0003:0000cf74       ??_C@_05PMGO@Float?$AA@    004ebf74     Generate:copt.obj
 0003:0000cf7c       ??_C@_05MCGH@?9?$DOadd?$AA@ 004ebf7c     Generate:copt.obj
 0003:0000cf84       ??_C@_0N@GIHN@CL_ADD_SLOT?$CI?$AA@ 004ebf84     Generate:copt.obj
 0003:0000cf94       ??_C@_02JFFM@?$FN?0?$AA@   004ebf94     Generate:copt.obj
 0003:0000cf98       ??_C@_07OIGG@STOREI?$CI?$AA@ 004ebf98     Generate:copt.obj
 0003:0000cfa0       ??_C@_02NBBN@?$CJ?$FL?$AA@ 004ebfa0     Generate:copt.obj
 0003:0000cfa4       ??_C@_09MLHC@STOREI?$CI?$CI?$CK?$AA@ 004ebfa4     Generate:copt.obj
 0003:0000cfb0       ??_C@_0BA@HNCA@?5?9?51?$FN?5?$DN?5?$CIchar?$CJ?5?$AA@ 004ebfb0     Generate:copt.obj
 0003:0000cfc0       ??_C@_02JGLL@?$FN?$DN?$AA@ 004ebfc0     Generate:copt.obj
 0003:0000cfc4       ??_C@_04BJLJ@?$CI?$CI?$CK?$CI?$AA@ 004ebfc4     Generate:copt.obj
 0003:0000cfcc       ??_C@_0CF@MOAH@?$FL216?$FN?5?$HOS?5has?5more?5than?510?5parame@ 004ebfcc     Generate:copt.obj
 0003:0000cff4       ??_C@_02DDHA@?$CI?$CK?$AA@ 004ebff4     Generate:copt.obj
 0003:0000cff8       ??_C@_02NKGD@?$CJ?$CJ?$AA@ 004ebff8     Generate:copt.obj
 0003:0000cffc       ??_C@_02HAPE@?$CJ?$CI?$AA@ 004ebffc     Generate:copt.obj
 0003:0000d000       ??_C@_06CFOL@?5?$CK?$CJ?5?$CI?$CK?$AA@ 004ec000     Generate:copt.obj
 0003:0000d008       ??_C@_0P@GOID@?9?$DOinstantiate?$CI?$AA@ 004ec008     Generate:copt.obj
 0003:0000d018       ??_C@_0BA@OMAB@property?3?3make?$CI?$AA@ 004ec018     Generate:copt.obj
 0003:0000d028       ??_C@_0BA@MGIN@?$CIClEnv?9?$DOindex?$DN?5?$AA@ 004ec028     Generate:copt.obj
 0003:0000d038       ??_C@_0P@KLKI@?$CIClEnv?9?$DObase?$DN?5?$AA@ 004ec038     Generate:copt.obj
 0003:0000d048       ??_C@_0P@PHLP@?$CIClEnv?9?$DOstack?$FL?$AA@ 004ec048     Generate:copt.obj
 0003:0000d058       ??_C@_0N@OFGH@ClEnv?9?$DOindex?$AA@ 004ec058     Generate:copt.obj
 0003:0000d068       ??_C@_0M@OPLD@ClEnv?9?$DObase?$AA@ 004ec068     Generate:copt.obj
 0003:0000d074       ??_C@_0O@PPBJ@ClEnv?9?$DOstack?$FL?$AA@ 004ec074     Generate:copt.obj
 0003:0000d084       ??_C@_0EC@FCLP@?$CK?$CK?$CK?$CK?$DO?5fcall?$CI?$HOS?$CJ?5fails?5?$CIselectorO@ 004ec084     Generate:copt.obj
 0003:0000d0c8       ??_C@_0BB@PBIJ@?$CIClaireObject?5?$CK?$CJ?$AA@ 004ec0c8     Generate:copt.obj
 0003:0000d0dc       ??_C@_05FJOF@?9?$DOisa?$AA@ 004ec0dc     Generate:copt.obj
 0003:0000d0e4       ??_C@_09BDBI@?$CIINHERIT?$CI?$AA@ 004ec0e4     Generate:copt.obj
 0003:0000d0f0       ??_C@_08JKAE@?9?$DOfcall?$CI?$AA@ 004ec0f0     Generate:copt.obj
 0003:0000d0fc       ??_C@_0BC@OBBB@?$CIClaireObject?5?$CK?$CJ?5?$AA@ 004ec0fc     Generate:copt.obj
 0003:0000d110       ??_C@_07JCFF@?$CI?$CIint?$CJ?5?$AA@ 004ec110     Generate:copt.obj
 0003:0000d118       ??_C@_01PLJA@0?$AA@        004ec118     Generate:copt.obj
 0003:0000d11c       ??_C@_09EKJP@?$DMfucking?5?$AA@ 004ec11c     Generate:copt.obj
 0003:0000d128       ??_C@_0O@GDEK@list?3?3domain?$CI?$AA@ 004ec128     Generate:copt.obj
 0003:0000d138       ??_C@_02BEEP@?$DN?5?$AA@   004ec138     Generate:copt.obj
 0003:0000d13c       ??_C@_08KMMA@?$CISTOREI?$CI?$AA@ 004ec13c     Generate:copt.obj
 0003:0000d148       ??_C@_05ENMF@KNOWN?$AA@    004ec148     Generate:copt.obj
 0003:0000d150       ??_C@_07JBEO@NOTNULL?$AA@  004ec150     Generate:copt.obj
 0003:0000d158       ??_C@_03ELMM@?5?$CL?5?$AA@ 004ec158     Generate:copt.obj
 0003:0000d15c       ??_C@_03FNGG@?5?$CK?5?$AA@ 004ec15c     Generate:copt.obj
 0003:0000d160       ??_C@_0L@DCMP@?9?$DOgraph?$CJ?$CJ?$FL?$AA@ 004ec160     Generate:copt.obj
 0003:0000d16c       ??_C@_06EDBF@KNOWN?$CI?$AA@ 004ec16c     Generate:copt.obj
 0003:0000d174       ??_C@_09CGOF@?$CI?$CIOID?5?$CK?$CJ?5?$AA@ 004ec174     Generate:copt.obj
 0003:0000d180       ??_C@_0N@FKJK@?$CI?$CIdouble?5?$CK?$CJ?5?$AA@ 004ec180     Generate:copt.obj
 0003:0000d190       ??_C@_01FLOP@I?$AA@        004ec190     Generate:copt.obj
 0003:0000d194       ??_C@_01KEJN@O?$AA@        004ec194     Generate:copt.obj
 0003:0000d198       ??_C@_01FKLC@F?$AA@        004ec198     Generate:copt.obj
 0003:0000d19c       ??_C@_05JMKO@STORE?$AA@    004ec19c     Generate:copt.obj
 0003:0000d1a4       ??_C@_07LKBM@_write?$CI?$AA@ 004ec1a4     Generate:copt.obj
 0003:0000d1ac       ??_C@_0L@LNIN@?5OBJ_CODE?$CJ?$AA@ 004ec1ac     Generate:copt.obj
 0003:0000d1b8       ??_C@_06HOMG@?$CICTAG?$CI?$AA@ 004ec1b8     Generate:copt.obj
 0003:0000d1c0       ??_C@_03KDEJ@?5?$CK?$CJ?$AA@ 004ec1c0     Generate:copt.obj
 0003:0000d1c4       ??_C@_0BH@FMDM@else?5PREVIOUS_HANDLER?$DL?$AA@ 004ec1c4     Generate:copt.obj
 0003:0000d1dc       ??_C@_0BE@PJHO@c_handle?4catchIt?$CI?$CJ?$DL?$AA@ 004ec1dc     Generate:copt.obj
 0003:0000d1f0       ??_C@_0M@DNBK@?$CJ?5?$DN?$DN?5CTRUE?$CJ?$AA@ 004ec1f0     Generate:copt.obj
 0003:0000d1fc       ??_C@_0CO@LNKI@else?5if?5?$CIbelong_to?$CI_oid_?$CIClEnv?9?$DO@ 004ec1fc     Generate:copt.obj
 0003:0000d22c       ??_C@_0BC@HDJM@ClEnv?9?$DOcHandle?9?9?$DL?$AA@ 004ec22c     Generate:copt.obj
 0003:0000d240       ??_C@_0N@CLAI@if?5ERROR_IN?5?$AA@ 004ec240     Generate:copt.obj
 0003:0000d250       ??_C@_0CK@BDF@ClaireHandler?5c_handle?5?$DN?5ClaireH@ 004ec250     Generate:copt.obj
 0003:0000d27c       ??_C@_07DNKN@GC_ANY?$CI?$AA@ 004ec27c     Generate:copt.obj
 0003:0000d284       ??_C@_07JJLI@BUG?3?5?$HOS?$AA@ 004ec284     Generate:copt.obj
 0003:0000d28c       ??_C@_05LGDE@v_bag?$AA@    004ec28c     Generate:copt.obj
 0003:0000d294       ??_C@_0CI@EDEB@?$FL202?$FN?5A?5do?5should?5have?5been?5used@ 004ec294     Generate:copt.obj
 0003:0000d2bc       ??_C@_0L@OMGF@GC_UNLOOP?$DL?$AA@ 004ec2bc     Generate:copt.obj
 0003:0000d2c8       ??_C@_0BO@KPKE@?1?1?5HOHO?0?5GC_LOOP?5not?5needed?5?$CB?$AA@ 004ec2c8     Generate:copt.obj
 0003:0000d2e8       ??_C@_08GFHD@GC_LOOP?$DL?$AA@ 004ec2e8     Generate:copt.obj
 0003:0000d2f4       ??_C@_02OJEM@?$DN?$DN?$AA@ 004ec2f4     Generate:copt.obj
 0003:0000d2f8       ??_C@_07MFLF@while?5?$CI?$AA@ 004ec2f8     Generate:copt.obj
 0003:0000d300       ??_C@_08LFO@?$DN?5_oid_?$CI?$AA@ 004ec300     Generate:copt.obj
 0003:0000d30c       ??_C@_0O@NDGI@OID?5gc_local?$DL?$AA@ 004ec30c     Generate:copt.obj
 0003:0000d31c       ??_C@_07NHKJ@v_while?$AA@  004ec31c     Generate:copt.obj
 0003:0000d324       ??_C@_09KGIB@?5?$DN?5truc?$CJ?$DL?$AA@ 004ec324     Generate:copt.obj
 0003:0000d330       ??_C@_07IPKE@?0truc?$CJ?$DL?$AA@ 004ec330     Generate:copt.obj
 0003:0000d338       ??_C@_04CNFB@truc?$AA@     004ec338     Generate:copt.obj
 0003:0000d340       ??_C@_09OAML@OID?5truc?$DL?$AA@ 004ec340     Generate:copt.obj
 0003:0000d34c       ??_C@_0O@LDNC@PRloop?$CIPR_x?$CJ?$DL?$AA@ 004ec34c     Generate:copt.obj
 0003:0000d35c       ??_C@_05GJBL@bag?5?$CK?$AA@ 004ec35c     Generate:copt.obj
 0003:0000d364       ??_C@_08BJAH@_support?$AA@ 004ec364     Generate:copt.obj
 0003:0000d370       ??_C@_03BNOJ@?$CJ?$DL?$CJ?$AA@ 004ec370     Generate:copt.obj
 0003:0000d374       ??_C@_08ME@?$CJ?$DL?5NEXT?$CI?$AA@ 004ec374     Generate:copt.obj
 0003:0000d380       ??_C@_0M@GGMC@for?5?$CISTART?$CI?$AA@ 004ec380     Generate:copt.obj
 0003:0000d38c       ??_C@_0BB@MJKM@?$DN?5_oid_?$CICFALSE?$CJ?$DL?$AA@ 004ec38c     Generate:copt.obj
 0003:0000d3a0       ??_C@_08GJEJ@ITERATE?$CI?$AA@ 004ec3a0     Generate:copt.obj
 0003:0000d3ac       ??_C@_0P@GBNO@?$CJ?$CJ?$FLCLcount?$FN?5?$DN?5?$AA@ 004ec3ac     Generate:copt.obj
 0003:0000d3bc       ??_C@_0N@NCEM@?$CI?$CK?$CI?$CIlist?5?$CK?$CJ?5?$AA@ 004ec3bc     Generate:copt.obj
 0003:0000d3cc       ??_C@_0N@HCJE@?$CJ?$CJ?$FLCLcount?$FN?$DL?$AA@ 004ec3cc     Generate:copt.obj
 0003:0000d3dc       ??_C@_06KAEI@?5?$DN?5?$CI?$CK?$CI?$AA@ 004ec3dc     Generate:copt.obj
 0003:0000d3e4       ??_C@_0BF@EGCP@?9?$DOlength?$DL?5CLcount?$CL?$CL?$CJ?$AA@ 004ec3e4     Generate:copt.obj
 0003:0000d3fc       ??_C@_0BN@IKPG@for?5?$CICLcount?$DN?51?$DL?5CLcount?5?$DM?$DN?5?$AA@ 004ec3fc     Generate:copt.obj
 0003:0000d41c       ??_C@_08MKFL@?9?$DOclone?$CI?$AA@ 004ec41c     Generate:copt.obj
 0003:0000d428       ??_C@_09FLMG@?0CLcount?$DL?$AA@ 004ec428     Generate:copt.obj
 0003:0000d434       ??_C@_06JIAA@?$DL?5OID?5?$AA@ 004ec434     Generate:copt.obj
 0003:0000d43c       ??_C@_06PHA@v_list?$AA@    004ec43c     Generate:copt.obj
 0003:0000d444       ??_C@_05HEAF@v_val?$AA@    004ec444     Generate:copt.obj
 0003:0000d44c       ??_C@_0CJ@MCPF@?$FL203?$FN?5you?5should?5have?5used?5a?5FOR@ 004ec44c     Generate:copt.obj
 0003:0000d478       ??_C@_08NLHO@?9?$DOsuper?$CI?$AA@ 004ec478     Generate:copt.obj
 0003:0000d484       ??_C@_05GHKI@v_rec?$AA@    004ec484     Generate:copt.obj
 0003:0000d48c       ??_C@_02IAHH@UU?$AA@       004ec48c     Generate:gstat.obj
 0003:0000d490       ??_C@_0DA@PJAO@?$FLinternal?$FN?5design?5bug?5c_func?$CI?$HOS?$CJ@ 004ec490     Generate:gstat.obj
 0003:0000d4c0       ??_C@_0CF@JFBM@?$FL201?$FN?5Loose?5delimiter?5in?5program@ 004ec4c0     Generate:gstat.obj
 0003:0000d4e8       ??_C@_04FHEL@?5?$DN?$DN?5?$AA@ 004ec4e8     Generate:gstat.obj
 0003:0000d4f0       ??_C@_04JAH@if?5?$CI?$AA@  004ec4f0     Generate:gstat.obj
 0003:0000d4f8       ??_C@_02HKLB@?5?$DN?$AA@   004ec4f8     Generate:gstat.obj
 0003:0000d4fc       ??_C@_05GLLH@v_and?$AA@    004ec4fc     Generate:gstat.obj
 0003:0000d504       ??_C@_04FOJG@v_or?$AA@     004ec504     Generate:gstat.obj
 0003:0000d50c       ??_C@_0CJ@IAEI@?$FL204?$FN?5break?5not?5inside?5a?5For?5or?5@ 004ec50c     Generate:gstat.obj
 0003:0000d538       ??_C@_06MCNF@break?$DL?$AA@ 004ec538     Generate:gstat.obj
 0003:0000d540       ??_C@_04JOCC@V_CL?$AA@     004ec540     Generate:gstat.obj
 0003:0000d548       ??_C@_03GMD@V_C?$AA@       004ec548     Generate:gstat.obj
 0003:0000d54c       ??_C@_04JPHP@V_CC?$AA@     004ec54c     Generate:gstat.obj
 0003:0000d554       ??_C@_07HDDG@va_arg2?$AA@  004ec554     Generate:gstat.obj
 0003:0000d55c       ??_C@_07IMIP@va_arg1?$AA@  004ec55c     Generate:gstat.obj
 0003:0000d564       ??_C@_0BA@CHEH@Kernel?4emptySet?$AA@ 004ec564     Generate:gexp.obj
 0003:0000d574       ??_C@_02HJJN@?5?$CJ?$AA@   004ec574     Generate:gexp.obj
 0003:0000d578       ??_C@_02CPJP@?5?$DP?$AA@   004ec578     Generate:gexp.obj
 0003:0000d57c       ??_C@_02KCBI@?$CL?$CL?$AA@ 004ec57c     Generate:gexp.obj
 0003:0000d580       ??_C@_09HMF@GC_OBJECT?$AA@ 004ec580     Generate:gexp.obj
 0003:0000d58c       ??_C@_08PONM@GC_ARRAY?$AA@ 004ec58c     Generate:gexp.obj
 0003:0000d598       ??_C@_09GMAP@GC_STRING?$AA@ 004ec598     Generate:gexp.obj
 0003:0000d5a4       ??_C@_06BFGB@GC_OID?$AA@   004ec5a4     Generate:gexp.obj
 0003:0000d5ac       ??_C@_03HLMP@?5?$DP?5?$AA@ 004ec5ac     Generate:gexp.obj
 0003:0000d5b0       ??_C@_02PDP@?$CG?$CG?$AA@  004ec5b0     Generate:gexp.obj
 0003:0000d5b4       ??_C@_02FKBE@?$HM?$HM?$AA@ 004ec5b4     Generate:gexp.obj
 0003:0000d5b8       ??_C@_01PIHH@?$CB?$AA@     004ec5b8     Generate:gexp.obj
 0003:0000d5bc       ??_C@_01FBAH@1?$AA@        004ec5bc     Generate:gexp.obj
 0003:0000d5c0       ?CTRUE@@3PAVClaireBoolean@@A 004ec5c0     Kernel:Kernel.obj
 0003:0000d5c4       ??_C@_07BMMC@keyword?$AA@  004ec5c4     Kernel:Kernel.obj
 0003:0000d5cc       ??_C@_0P@ODFJ@unbound_symbol?$AA@ 004ec5cc     Kernel:Kernel.obj
 0003:0000d5dc       ??_C@_06GMLA@system?$AA@   004ec5dc     Kernel:Kernel.obj
 0003:0000d5e4       ??_C@_0N@HBPC@system_error?$AA@ 004ec5e4     Kernel:Kernel.obj
 0003:0000d5f4       ??_C@_05FABL@table?$AA@    004ec5f4     Kernel:Kernel.obj
 0003:0000d5fc       ??_C@_05EBCM@thing?$AA@    004ec5fc     Kernel:Kernel.obj
 0003:0000d604       ??_C@_08NDGK@listargs?$AA@ 004ec604     Kernel:Kernel.obj
 0003:0000d610       ??_C@_03KIMK@bag?$AA@      004ec610     Kernel:Kernel.obj
 0003:0000d614       ??_C@_04IOEK@port?$AA@     004ec614     Kernel:Kernel.obj
 0003:0000d61c       ??_C@_05MHID@array?$AA@    004ec61c     Kernel:Kernel.obj
 0003:0000d624       ??_C@_06EMNG@string?$AA@   004ec624     Kernel:Kernel.obj
 0003:0000d62c       ??_C@_09HOEO@primitive?$AA@ 004ec62c     Kernel:Kernel.obj
 0003:0000d638       ??_C@_07KBFM@integer?$AA@  004ec638     Kernel:Kernel.obj
 0003:0000d640       ??_C@_08ELGP@external?$AA@ 004ec640     Kernel:Kernel.obj
 0003:0000d64c       ??_C@_0O@MGJP@count_trigger?$AA@ 004ec64c     Kernel:Kernel.obj
 0003:0000d65c       ??_C@_0M@HOGJ@count_level?$AA@ 004ec65c     Kernel:Kernel.obj
 0003:0000d668       ??_C@_0L@DJOH@count_call?$AA@ 004ec668     Kernel:Kernel.obj
 0003:0000d674       ??_C@_0L@EGKB@last_index?$AA@ 004ec674     Kernel:Kernel.obj
 0003:0000d680       ??_C@_0L@MKO@last_debug?$AA@ 004ec680     Kernel:Kernel.obj
 0003:0000d68c       ??_C@_06CKBL@ctrace?$AA@   004ec68c     Kernel:Kernel.obj
 0003:0000d694       ??_C@_04NFMI@cout?$AA@     004ec694     Kernel:Kernel.obj
 0003:0000d69c       ??_C@_09MALM@ephemeral?$AA@ 004ec69c     Kernel:Kernel.obj
 0003:0000d6a8       ??_C@_04KHOB@open?$AA@     004ec6a8     Kernel:Kernel.obj
 0003:0000d6b0       ??_C@_05JMGP@close?$AA@    004ec6b0     Kernel:Kernel.obj
 0003:0000d6b8       ??_C@_04GMNC@spy?$CB?$AA@  004ec6b8     Kernel:Kernel.obj
 0003:0000d6c0       ??_C@_0L@DEHC@exception?$CB?$AA@ 004ec6c0     Kernel:Kernel.obj
 0003:0000d6cc       ??_C@_07KNLF@verbose?$AA@  004ec6cc     Kernel:Kernel.obj
 0003:0000d6d4       ??_C@_07COOL@inline?$DP?$AA@ 004ec6d4     Kernel:Kernel.obj
 0003:0000d6dc       ??_C@_04JJMM@uses?$AA@     004ec6dc     Kernel:Kernel.obj
 0003:0000d6e4       ??_C@_06LOOG@source?$AA@   004ec6e4     Kernel:Kernel.obj
 0003:0000d6ec       ??_C@_07DEBJ@made_of?$AA@  004ec6ec     Kernel:Kernel.obj
 0003:0000d6f4       ??_C@_07IPNE@part_of?$AA@  004ec6f4     Kernel:Kernel.obj
 0003:0000d6fc       ??_C@_05HIBL@parts?$AA@    004ec6fc     Kernel:Kernel.obj
 0003:0000d704       ??_C@_0L@DJKH@precedence?$AA@ 004ec704     Kernel:Kernel.obj
 0003:0000d710       ??_C@_0L@GOIH@functional?$AA@ 004ec710     Kernel:Kernel.obj
 0003:0000d71c       ??_C@_03PKH@arg?$AA@       004ec71c     Kernel:Kernel.obj
 0003:0000d720       ??_C@_0N@HFKL@multivalued?$DP?$AA@ 004ec720     Kernel:Kernel.obj
 0003:0000d730       ??_C@_06BCDK@store?$DP?$AA@ 004ec730     Kernel:Kernel.obj
 0003:0000d738       ??_C@_04NIOK@body?$AA@     004ec738     Kernel:Kernel.obj
 0003:0000d740       ??_C@_07BDIG@formula?$AA@  004ec740     Kernel:Kernel.obj
 0003:0000d748       ??_C@_08OMHO@evaluate?$AA@ 004ec748     Kernel:Kernel.obj
 0003:0000d754       ??_C@_07EMFJ@module?$CB?$AA@ 004ec754     Kernel:Kernel.obj
 0003:0000d75c       ??_C@_06JCM@debug?$CB?$AA@ 004ec75c     Kernel:Kernel.obj
 0003:0000d764       ??_C@_04PIEA@base?$AA@     004ec764     Kernel:Kernel.obj
 0003:0000d76c       ??_C@_07DLPD@inverse?$AA@  004ec76c     Kernel:Kernel.obj
 0003:0000d774       ??_C@_0L@NIJD@definition?$AA@ 004ec774     Kernel:Kernel.obj
 0003:0000d780       ??_C@_0N@DKMN@restrictions?$AA@ 004ec780     Kernel:Kernel.obj
 0003:0000d790       ??_C@_06LODP@trace?$CB?$AA@ 004ec790     Kernel:Kernel.obj
 0003:0000d798       ??_C@_08CCMG@selector?$AA@ 004ec798     Kernel:Kernel.obj
 0003:0000d7a4       ??_C@_05MGIA@range?$AA@    004ec7a4     Kernel:Kernel.obj
 0003:0000d7ac       ??_C@_06JHGE@domain?$AA@   004ec7ac     Kernel:Kernel.obj
 0003:0000d7b4       ??_C@_05KPOJ@graph?$AA@    004ec7b4     Kernel:Kernel.obj
 0003:0000d7bc       ??_C@_07DKAN@reified?$AA@  004ec7bc     Kernel:Kernel.obj
 0003:0000d7c4       ??_C@_0L@MOFP@dispatcher?$AA@ 004ec7c4     Kernel:Kernel.obj
 0003:0000d7d0       ??_C@_0L@EACF@dictionary?$AA@ 004ec7d0     Kernel:Kernel.obj
 0003:0000d7dc       ??_C@_06CJJO@ident?$DP?$AA@ 004ec7dc     Kernel:Kernel.obj
 0003:0000d7e4       ??_C@_04KKCM@code?$AA@     004ec7e4     Kernel:Kernel.obj
 0003:0000d7ec       ??_C@_06HILF@params?$AA@   004ec7ec     Kernel:Kernel.obj
 0003:0000d7f4       ??_C@_09GNNK@prototype?$AA@ 004ec7f4     Kernel:Kernel.obj
 0003:0000d800       ??_C@_09MMGO@instances?$AA@ 004ec800     Kernel:Kernel.obj
 0003:0000d80c       ??_C@_0M@PGLC@descendents?$AA@ 004ec80c     Kernel:Kernel.obj
 0003:0000d818       ??_C@_09FMMO@ancestors?$AA@ 004ec818     Kernel:Kernel.obj
 0003:0000d824       ??_C@_08BPEK@subclass?$AA@ 004ec824     Kernel:Kernel.obj
 0003:0000d830       ??_C@_0L@CEDM@superclass?$AA@ 004ec830     Kernel:Kernel.obj
 0003:0000d83c       ??_C@_05KJGN@slots?$AA@    004ec83c     Kernel:Kernel.obj
 0003:0000d844       ??_C@_07EBEE@comment?$AA@  004ec844     Kernel:Kernel.obj
 0003:0000d84c       ??_C@_05FO@sname?$AA@      004ec84c     Kernel:Kernel.obj
 0003:0000d854       ??_C@_04OPJK@name?$AA@     004ec854     Kernel:Kernel.obj
 0003:0000d85c       ??_C@_03HGMK@isa?$AA@      004ec85c     Kernel:Kernel.obj
 0003:0000d860       ??_C@_05PIME@float?$AA@    004ec860     Kernel:Kernel.obj
 0003:0000d868       ??_C@_03IIEK@any?$AA@      004ec868     Kernel:Kernel.obj
 0003:0000d86c       ??_C@_04IEHK@slot?$AA@     004ec86c     Kernel:Kernel.obj
 0003:0000d874       ??_C@_0M@CEHF@restriction?$AA@ 004ec874     Kernel:Kernel.obj
 0003:0000d880       ??_C@_09DEML@NoDefault?$AA@ 004ec880     Kernel:Kernel.obj
 0003:0000d88c       ??_C@_06DDGG@symbol?$AA@   004ec88c     Kernel:Kernel.obj
 0003:0000d894       ??_C@_07NMLD@mClaire?$AA@  004ec894     Kernel:Kernel.obj
 0003:0000d89c       ??_C@_06PPAF@claire?$AA@   004ec89c     Kernel:Kernel.obj
 0003:0000d8a4       ??_C@_06CODG@module?$AA@   004ec8a4     Kernel:Kernel.obj
 0003:0000d8ac       ??_C@_0BD@EJB@restore_state_void?$AA@ 004ec8ac     Kernel:Kernel.obj
 0003:0000d8c0       ??_C@_0N@PDFE@world_get_id?$AA@ 004ec8c0     Kernel:Kernel.obj
 0003:0000d8d0       ??_C@_0N@MDPJ@world_number?$AA@ 004ec8d0     Kernel:Kernel.obj
 0003:0000d8e0       ??_C@_0BA@FLDN@world_slaughter?$AA@ 004ec8e0     Kernel:Kernel.obj
 0003:0000d8f0       ??_C@_0N@EHBF@world_remove?$AA@ 004ec8f0     Kernel:Kernel.obj
 0003:0000d900       ??_C@_09KMMN@world_pop?$AA@ 004ec900     Kernel:Kernel.obj
 0003:0000d90c       ??_C@_0L@ECDJ@world_push?$AA@ 004ec90c     Kernel:Kernel.obj
 0003:0000d918       ??_C@_09GDCK@store_add?$AA@ 004ec918     Kernel:Kernel.obj
 0003:0000d924       ??_C@_0N@ENLM@store_object?$AA@ 004ec924     Kernel:Kernel.obj
 0003:0000d934       ??_C@_0M@GHBA@store_array?$AA@ 004ec934     Kernel:Kernel.obj
 0003:0000d940       ??_C@_0L@NOA@store_list?$AA@ 004ec940     Kernel:Kernel.obj
 0003:0000d94c       ??_C@_0BC@ILPH@string_I_function?$AA@ 004ec94c     Kernel:Kernel.obj
 0003:0000d960       ??_C@_0BF@CBDF@stack_apply_function?$AA@ 004ec960     Kernel:Kernel.obj
 0003:0000d978       ??_C@_06BMHJ@fcall3?$AA@   004ec978     Kernel:Kernel.obj
 0003:0000d980       ??_C@_06LGOO@fcall2?$AA@   004ec980     Kernel:Kernel.obj
 0003:0000d988       ??_C@_06EJFH@fcall1?$AA@   004ec988     Kernel:Kernel.obj
 0003:0000d990       ??_C@_09POKN@stack_add?$AA@ 004ec990     Kernel:Kernel.obj
 0003:0000d99c       ??_C@_0BA@KINP@close_exception?$AA@ 004ec99c     Kernel:Kernel.obj
 0003:0000d9ac       ??_C@_0P@HOMH@integer_I_char?$AA@ 004ec9ac     Kernel:Kernel.obj
 0003:0000d9bc       ??_C@_0L@LPOG@claire_mem?$AA@ 004ec9bc     Kernel:Kernel.obj
 0003:0000d9c8       ??_C@_0P@MOKP@c_princ_string?$AA@ 004ec9c8     Kernel:Kernel.obj
 0003:0000d9d8       ??_C@_09BEHE@c_princ_c?$AA@ 004ec9d8     Kernel:Kernel.obj
 0003:0000d9e4       ??_C@_0L@MACG@princ_char?$AA@ 004ec9e4     Kernel:Kernel.obj
 0003:0000d9f0       ??_C@_0BB@LDH@_sup_equal_float?$AA@ 004ec9f0     Kernel:Kernel.obj
 0003:0000da04       ??_C@_0BC@NOOG@_sup_equal_float_?$AA@ 004eca04     Kernel:Kernel.obj
 0003:0000da18       ??_C@_0L@JBJN@_sup_float?$AA@ 004eca18     Kernel:Kernel.obj
 0003:0000da24       ??_C@_0N@DKKM@?$CK_sup_float_?$AA@ 004eca24     Kernel:Kernel.obj
 0003:0000da34       ??_C@_0BB@KHKM@_inf_equal_float?$AA@ 004eca34     Kernel:Kernel.obj
 0003:0000da48       ??_C@_0BC@DDEK@_inf_equal_float_?$AA@ 004eca48     Kernel:Kernel.obj
 0003:0000da5c       ??_C@_0L@DGAH@_inf_float?$AA@ 004eca5c     Kernel:Kernel.obj
 0003:0000da68       ??_C@_0M@OMNL@_inf_float_?$AA@ 004eca68     Kernel:Kernel.obj
 0003:0000da74       ??_C@_0BA@CKBO@integer_I_float?$AA@ 004eca74     Kernel:Kernel.obj
 0003:0000da84       ??_C@_0BB@KKMH@integer_I_float_?$AA@ 004eca84     Kernel:Kernel.obj
 0003:0000da98       ??_C@_09DLAJ@to_float?5?$AA@ 004eca98     Kernel:Kernel.obj
 0003:0000daa4       ??_C@_09GEAE@to_float_?$AA@ 004ecaa4     Kernel:Kernel.obj
 0003:0000dab0       ??_C@_0O@LEFA@princ_integer?$AA@ 004ecab0     Kernel:Kernel.obj
 0003:0000dac0       ??_C@_0O@JGMN@times_integer?$AA@ 004ecac0     Kernel:Kernel.obj
 0003:0000dad0       ??_C@_05HLMP@srand?$AA@    004ecad0     Kernel:Kernel.obj
 0003:0000dad8       ??_C@_0P@KKIK@random_integer?$AA@ 004ecad8     Kernel:Kernel.obj
 0003:0000dae8       ??_C@_0BE@GBGA@make_string_integer?$AA@ 004ecae8     Kernel:Kernel.obj
 0003:0000dafc       ??_C@_0BC@LPFA@string_I_integer?5?$AA@ 004ecafc     Kernel:Kernel.obj
 0003:0000db10       ??_C@_0P@CIJK@char_I_integer?$AA@ 004ecb10     Kernel:Kernel.obj
 0003:0000db20       ??_C@_0N@JPHN@exp2_integer?$AA@ 004ecb20     Kernel:Kernel.obj
 0003:0000db30       ??_C@_0N@JMLO@_exp_integer?$AA@ 004ecb30     Kernel:Kernel.obj
 0003:0000db40       ??_C@_0L@GODJ@_7_integer?$AA@ 004ecb40     Kernel:Kernel.obj
 0003:0000db4c       ??_C@_0BB@ENLE@integer_I_symbol?$AA@ 004ecb4c     Kernel:Kernel.obj
 0003:0000db60       ??_C@_0P@PNMN@symbol?$CB_string?$AA@ 004ecb60     Kernel:Kernel.obj
 0003:0000db70       ??_C@_0L@KOCO@put_symbol?$AA@ 004ecb70     Kernel:Kernel.obj
 0003:0000db7c       ??_C@_0BA@FJEM@string_I_symbol?$AA@ 004ecb7c     Kernel:Kernel.obj
 0003:0000db8c       ??_C@_0P@LAKE@defined_symbol?$AA@ 004ecb8c     Kernel:Kernel.obj
 0003:0000db9c       ??_C@_0N@DPFA@princ_symbol?$AA@ 004ecb9c     Kernel:Kernel.obj
 0003:0000dbac       ??_C@_0O@HEDH@append_symbol?$AA@ 004ecbac     Kernel:Kernel.obj
 0003:0000dbbc       ??_C@_0L@NGD@end_module?$AA@ 004ecbbc     Kernel:Kernel.obj
 0003:0000dbc8       ??_C@_0N@CCKJ@begin_module?$AA@ 004ecbc8     Kernel:Kernel.obj
 0003:0000dbd8       ??_C@_0M@FFJC@free_I_port?$AA@ 004ecbd8     Kernel:Kernel.obj
 0003:0000dbe4       ??_C@_0BA@MAHI@read_thing_port?$AA@ 004ecbe4     Kernel:Kernel.obj
 0003:0000dbf4       ??_C@_0BB@MPFF@read_number_port?$AA@ 004ecbf4     Kernel:Kernel.obj
 0003:0000dc08       ??_C@_0BA@GMMI@read_ident_port?$AA@ 004ecc08     Kernel:Kernel.obj
 0003:0000dc18       ??_C@_0BB@ICKI@read_string_port?$AA@ 004ecc18     Kernel:Kernel.obj
 0003:0000dc2c       ??_C@_0BA@PGKC@set_length_port?$AA@ 004ecc2c     Kernel:Kernel.obj
 0003:0000dc3c       ??_C@_0M@LHFP@length_port?$AA@ 004ecc3c     Kernel:Kernel.obj
 0003:0000dc48       ??_C@_0O@LMLK@string_I_port?$AA@ 004ecc48     Kernel:Kernel.obj
 0003:0000dc58       ??_C@_0O@NJFJ@port_I_string?$AA@ 004ecc58     Kernel:Kernel.obj
 0003:0000dc68       ??_C@_0M@IDJA@port_I_void?$AA@ 004ecc68     Kernel:Kernel.obj
 0003:0000dc74       ??_C@_0N@DOII@fopen_string?$AA@ 004ecc74     Kernel:Kernel.obj
 0003:0000dc84       ??_C@_0O@IGHM@pushback_port?$AA@ 004ecc84     Kernel:Kernel.obj
 0003:0000dc94       ??_C@_09FALD@getc_port?$AA@ 004ecc94     Kernel:Kernel.obj
 0003:0000dca0       ??_C@_09JDLC@putc_char?$AA@ 004ecca0     Kernel:Kernel.obj
 0003:0000dcac       ??_C@_0M@HEJO@fclose_port?$AA@ 004eccac     Kernel:Kernel.obj
 0003:0000dcb8       ??_C@_0BD@OMFG@use_as_output_port?$AA@ 004eccb8     Kernel:Kernel.obj
 0003:0000dccc       ??_C@_0P@KKJF@date_I_integer?$AA@ 004ecccc     Kernel:Kernel.obj
 0003:0000dcdc       ??_C@_0O@CDMH@shrink_string?$AA@ 004eccdc     Kernel:Kernel.obj
 0003:0000dcec       ??_C@_0P@PPJF@nth_set_string?$AA@ 004eccec     Kernel:Kernel.obj
 0003:0000dcfc       ??_C@_0L@FCEK@nth_string?$AA@ 004eccfc     Kernel:Kernel.obj
 0003:0000dd08       ??_C@_0BA@MCEH@included_string?$AA@ 004ecd08     Kernel:Kernel.obj
 0003:0000dd18       ??_C@_0N@COIL@_less_string?$AA@ 004ecd18     Kernel:Kernel.obj
 0003:0000dd28       ??_C@_0L@KGHH@get_string?$AA@ 004ecd28     Kernel:Kernel.obj
 0003:0000dd34       ??_C@_0BB@DCCA@substring_string?$AA@ 004ecd34     Kernel:Kernel.obj
 0003:0000dd48       ??_C@_0BB@DCAE@integer_I_string?$AA@ 004ecd48     Kernel:Kernel.obj
 0003:0000dd5c       ??_C@_0O@LIH@append_string?$AA@ 004ecd5c     Kernel:Kernel.obj
 0003:0000dd6c       ??_C@_0BC@EKAE@self_print_string?$AA@ 004ecd6c     Kernel:Kernel.obj
 0003:0000dd80       ??_C@_0N@EAOA@princ_string?$AA@ 004ecd80     Kernel:Kernel.obj
 0003:0000dd90       ??_C@_0M@NDPH@copy_string?$AA@ 004ecd90     Kernel:Kernel.obj
 0003:0000dd9c       ??_C@_0O@EABG@nth_put_array?$AA@ 004ecd9c     Kernel:Kernel.obj
 0003:0000ddac       ??_C@_08JHIC@of_array?$AA@ 004ecdac     Kernel:Kernel.obj
 0003:0000ddb8       ??_C@_0N@HALK@length_array?$AA@ 004ecdb8     Kernel:Kernel.obj
 0003:0000ddc8       ??_C@_0L@OGOD@copy_array?$AA@ 004ecdc8     Kernel:Kernel.obj
 0003:0000ddd4       ??_C@_0N@GMBO@list_I_tuple?$AA@ 004ecdd4     Kernel:Kernel.obj
 0003:0000dde4       ??_C@_0L@JAOM@append_set?$AA@ 004ecde4     Kernel:Kernel.obj
 0003:0000ddf0       ??_C@_0BA@GMEB@contain_ask_set?$AA@ 004ecdf0     Kernel:Kernel.obj
 0003:0000de00       ??_C@_08PBBE@_exp_set?$AA@ 004ece00     Kernel:Kernel.obj
 0003:0000de0c       ??_C@_09CDGP@add_I_set?$AA@ 004ece0c     Kernel:Kernel.obj
 0003:0000de18       ??_C@_07FIPA@add_set?$AA@  004ece18     Kernel:Kernel.obj
 0003:0000de20       ??_C@_0BB@HMDL@make_string_list?$AA@ 004ece20     Kernel:Kernel.obj
 0003:0000de34       ??_C@_0L@KPJH@index_list?$AA@ 004ece34     Kernel:Kernel.obj
 0003:0000de40       ??_C@_0BB@LNNF@contain_ask_list?$AA@ 004ece40     Kernel:Kernel.obj
 0003:0000de54       ??_C@_0M@LAMD@shrink_list?$AA@ 004ece54     Kernel:Kernel.obj
 0003:0000de60       ??_C@_08ECHO@cdr_list?$AA@ 004ece60     Kernel:Kernel.obj
 0003:0000de6c       ??_C@_0P@MGIC@delete_at_list?$AA@ 004ece6c     Kernel:Kernel.obj
 0003:0000de7c       ??_C@_0M@LAPD@add_at_list?$AA@ 004ece7c     Kernel:Kernel.obj
 0003:0000de88       ??_C@_0M@OPCJ@append_list?$AA@ 004ece88     Kernel:Kernel.obj
 0003:0000de94       ??_C@_0O@MHOH@add_star_list?$AA@ 004ece94     Kernel:Kernel.obj
 0003:0000dea4       ??_C@_0BC@NBMH@make_list_integer?$AA@ 004ecea4     Kernel:Kernel.obj
 0003:0000deb8       ??_C@_08KGFF@cons_any?$AA@ 004eceb8     Kernel:Kernel.obj
 0003:0000dec4       ??_C@_0L@COJK@add_I_list?$AA@ 004ecec4     Kernel:Kernel.obj
 0003:0000ded0       ??_C@_08PFOB@add_list?$AA@ 004eced0     Kernel:Kernel.obj
 0003:0000dedc       ??_C@_0L@FHJH@cast_I_bag?$AA@ 004ecedc     Kernel:Kernel.obj
 0003:0000dee8       ??_C@_06CNAN@of_bag?$AA@   004ecee8     Kernel:Kernel.obj
 0003:0000def0       ??_C@_0L@CPJD@delete_bag?$AA@ 004ecef0     Kernel:Kernel.obj
 0003:0000defc       ??_C@_09KOBM@empty_bag?$AA@ 004ecefc     Kernel:Kernel.obj
 0003:0000df08       ??_C@_08ENHG@copy_bag?$AA@ 004ecf08     Kernel:Kernel.obj
 0003:0000df14       ??_C@_0N@EMNN@index_table2?$AA@ 004ecf14     Kernel:Kernel.obj
 0003:0000df24       ??_C@_0M@GDCK@index_table?$AA@ 004ecf24     Kernel:Kernel.obj
 0003:0000df30       ??_C@_0BE@LAGJ@add_method_property?$AA@ 004ecf30     Kernel:Kernel.obj
 0003:0000df44       ??_C@_0N@IPAP@sort_I_class?$AA@ 004ecf44     Kernel:Kernel.obj
 0003:0000df54       ??_C@_0P@MBNL@add_slot_class?$AA@ 004ecf54     Kernel:Kernel.obj
 0003:0000df64       ??_C@_09OHJN@hash_list?$AA@ 004ecf64     Kernel:Kernel.obj
 0003:0000df70       ??_C@_0O@DDPE@boolean_I_any?$AA@ 004ecf70     Kernel:Kernel.obj
 0003:0000df80       ??_C@_09OCNJ@belong_to?$AA@ 004ecf80     Kernel:Kernel.obj
 0003:0000df8c       ??_C@_0BA@OOHK@slot_get_object?$AA@ 004ecf8c     Kernel:Kernel.obj
 0003:0000df9c       ??_C@_05DPDK@equal?$AA@    004ecf9c     Kernel:Kernel.obj
 0003:0000dfa4       ??_C@_0M@LIDN@copy_object?$AA@ 004ecfa4     Kernel:Kernel.obj
 0003:0000dfb0       ??_C@_05DKNA@free?$CB?$AA@ 004ecfb0     Kernel:Kernel.obj
 0003:0000dfb8       ??_C@_05EAJN@empty?$AA@    004ecfb8     Kernel:Kernel.obj
 0003:0000dfc0       ??_C@_05DDDB@date?$CB?$AA@ 004ecfc0     Kernel:Kernel.obj
 0003:0000dfc8       ??_C@_08NPAB@boolean?$CB?$AA@ 004ecfc8     Kernel:Kernel.obj
 0003:0000dfd4       ??_C@_07EKEE@symbol?$CB?$AA@ 004ecfd4     Kernel:Kernel.obj
 0003:0000dfdc       ??_C@_05JBKJ@cast?$CB?$AA@ 004ecfdc     Kernel:Kernel.obj
 0003:0000dfe4       ??_C@_07PGN@member?$DP?$AA@ 004ecfe4     Kernel:Kernel.obj
 0003:0000dfec       ??_C@_08GLH@contain?$DP?$AA@ 004ecfec     Kernel:Kernel.obj
 0003:0000dff8       ??_C@_08PPCO@world_id?$AA@ 004ecff8     Kernel:Kernel.obj
 0003:0000e004       ??_C@_06CDAD@world?$DP?$AA@ 004ed004     Kernel:Kernel.obj
 0003:0000e00c       ??_C@_07GEJP@commit0?$AA@  004ed00c     Kernel:Kernel.obj
 0003:0000e014       ??_C@_06PAN@commit?$AA@    004ed014     Kernel:Kernel.obj
 0003:0000e01c       ??_C@_09DBHF@backtrack?$AA@ 004ed01c     Kernel:Kernel.obj
 0003:0000e028       ??_C@_06PGOP@choice?$AA@   004ed028     Kernel:Kernel.obj
 0003:0000e030       ??_C@_05PHCB@store?$AA@    004ed030     Kernel:Kernel.obj
 0003:0000e038       ??_C@_07IEBA@funcall?$AA@  004ed038     Kernel:Kernel.obj
 0003:0000e040       ??_C@_08MNJN@fastcall?$AA@ 004ed040     Kernel:Kernel.obj
 0003:0000e04c       ??_C@_0M@LGCL@stack_apply?$AA@ 004ed04c     Kernel:Kernel.obj
 0003:0000e058       ??_C@_04PHAO@stat?$AA@     004ed058     Kernel:Kernel.obj
 0003:0000e060       ??_C@_03NNCC@mem?$AA@      004ed060     Kernel:Kernel.obj
 0003:0000e064       ??_C@_07CNPI@c_princ?$AA@  004ed064     Kernel:Kernel.obj
 0003:0000e06c       ??_C@_0L@EGII@read_thing?$AA@ 004ed06c     Kernel:Kernel.obj
 0003:0000e078       ??_C@_0M@ONEG@read_number?$AA@ 004ed078     Kernel:Kernel.obj
 0003:0000e084       ??_C@_0L@FELJ@read_ident?$AA@ 004ed084     Kernel:Kernel.obj
 0003:0000e090       ??_C@_0L@LNIH@set_length?$AA@ 004ed090     Kernel:Kernel.obj
 0003:0000e09c       ??_C@_05NEPJ@port?$CB?$AA@ 004ed09c     Kernel:Kernel.obj
 0003:0000e0a4       ??_C@_05GKMA@fopen?$AA@    004ed0a4     Kernel:Kernel.obj
 0003:0000e0ac       ??_C@_05PNFO@flush?$AA@    004ed0ac     Kernel:Kernel.obj
 0003:0000e0b4       ??_C@_04JOCH@getc?$AA@     004ed0b4     Kernel:Kernel.obj
 0003:0000e0bc       ??_C@_03ELEH@put?$AA@      004ed0bc     Kernel:Kernel.obj
 0003:0000e0c0       ??_C@_04BANC@putc?$AA@     004ed0c0     Kernel:Kernel.obj
 0003:0000e0c8       ??_C@_06DNKC@fclose?$AA@   004ed0c8     Kernel:Kernel.obj
 0003:0000e0d0       ??_C@_0O@MLLH@use_as_output?$AA@ 004ed0d0     Kernel:Kernel.obj
 0003:0000e0e0       ??_C@_02NCLD@?$DO?$DN?$AA@ 004ed0e0     Kernel:Kernel.obj
 0003:0000e0e4       ??_C@_02PPOG@?$DM?$DN?$AA@ 004ed0e4     Kernel:Kernel.obj
 0003:0000e0e8       ??_C@_06CBIP@float?$CB?$AA@ 004ed0e8     Kernel:Kernel.obj
 0003:0000e0f0       ??_C@_01FDHG@?$CK?$AA@     004ed0f0     Kernel:Kernel.obj
 0003:0000e0f4       ??_C@_07LKPL@random?$CB?$AA@ 004ed0f4     Kernel:Kernel.obj
 0003:0000e0fc       ??_C@_06IMKP@random?$AA@   004ed0fc     Kernel:Kernel.obj
 0003:0000e104       ??_C@_0M@DFAK@make_string?$AA@ 004ed104     Kernel:Kernel.obj
 0003:0000e110       ??_C@_07NODL@string?$CB?$AA@ 004ed110     Kernel:Kernel.obj
 0003:0000e118       ??_C@_05GMND@char?$CB?$AA@ 004ed118     Kernel:Kernel.obj
 0003:0000e120       ??_C@_02KMBJ@?$FO2?$AA@    004ed120     Kernel:Kernel.obj
 0003:0000e124       ??_C@_03LLAM@mod?$AA@      004ed124     Kernel:Kernel.obj
 0003:0000e128       ??_C@_01GJD@?9?$AA@        004ed128     Kernel:Kernel.obj
 0003:0000e12c       ??_C@_06BHEF@gensym?$AA@   004ed12c     Kernel:Kernel.obj
 0003:0000e134       ??_C@_07DLLF@defined?$AA@  004ed134     Kernel:Kernel.obj
 0003:0000e13c       ??_C@_03DNBD@end?$AA@      004ed13c     Kernel:Kernel.obj
 0003:0000e140       ??_C@_05PKJE@begin?$AA@    004ed140     Kernel:Kernel.obj
 0003:0000e148       ??_C@_04MALE@nth?$DN?$AA@  004ed148     Kernel:Kernel.obj
 0003:0000e150       ??_C@_03FHNB@nth?$AA@      004ed150     Kernel:Kernel.obj
 0003:0000e154       ??_C@_03LOOF@get?$AA@      004ed154     Kernel:Kernel.obj
 0003:0000e158       ??_C@_09DLHP@substring?$AA@ 004ed158     Kernel:Kernel.obj
 0003:0000e164       ??_C@_08HNG@integer?$CB?$AA@ 004ed164     Kernel:Kernel.obj
 0003:0000e170       ??_C@_0L@FOMI@self_print?$AA@ 004ed170     Kernel:Kernel.obj
 0003:0000e17c       ??_C@_05FOPA@princ?$AA@    004ed17c     Kernel:Kernel.obj
 0003:0000e184       ??_C@_06DMLA@array?$CB?$AA@ 004ed184     Kernel:Kernel.obj
 0003:0000e18c       ??_C@_07KCJK@nth_put?$AA@  004ed18c     Kernel:Kernel.obj
 0003:0000e194       ??_C@_07FHDI@nth_get?$AA@  004ed194     Kernel:Kernel.obj
 0003:0000e19c       ??_C@_02KDKE@of?$AA@       004ed19c     Kernel:Kernel.obj
 0003:0000e1a0       ??_C@_06JEAL@length?$AA@   004ed1a0     Kernel:Kernel.obj
 0003:0000e1a8       ??_C@_02OOND@?4?4?$AA@     004ed1a8     Kernel:Kernel.obj
 0003:0000e1ac       ??_C@_05NKOJ@list?$CB?$AA@ 004ed1ac     Kernel:Kernel.obj
 0003:0000e1b4       ??_C@_04KOKA@set?$CB?$AA@  004ed1b4     Kernel:Kernel.obj
 0003:0000e1bc       ??_C@_01KHHK@?$FO?$AA@     004ed1bc     Kernel:Kernel.obj
 0003:0000e1c0       ??_C@_06DBNI@shrink?$AA@   004ed1c0     Kernel:Kernel.obj
 0003:0000e1c8       ??_C@_03BPGH@cdr?$AA@      004ed1c8     Kernel:Kernel.obj
 0003:0000e1cc       ??_C@_04GJME@nth?9?$AA@    004ed1cc     Kernel:Kernel.obj
 0003:0000e1d4       ??_C@_04JGLG@nth?$CL?$AA@  004ed1d4     Kernel:Kernel.obj
 0003:0000e1dc       ??_C@_02PILC@?1?$CL?$AA@   004ed1dc     Kernel:Kernel.obj
 0003:0000e1e0       ??_C@_04CCJL@add?$CK?$AA@  004ed1e0     Kernel:Kernel.obj
 0003:0000e1e8       ??_C@_09NPCD@make_list?$AA@ 004ed1e8     Kernel:Kernel.obj
 0003:0000e1f4       ??_C@_04GECP@cons?$AA@     004ed1f4     Kernel:Kernel.obj
 0003:0000e1fc       ??_C@_04IJJK@add?$CB?$AA@  004ed1fc     Kernel:Kernel.obj
 0003:0000e204       ??_C@_03ONEI@add?$AA@      004ed204     Kernel:Kernel.obj
 0003:0000e208       ??_C@_0L@IKAB@add_method?$AA@ 004ed208     Kernel:Kernel.obj
 0003:0000e214       ??_C@_05DEJG@sort?$CB?$AA@ 004ed214     Kernel:Kernel.obj
 0003:0000e21c       ??_C@_08OPPF@add_slot?$AA@ 004ed21c     Kernel:Kernel.obj
 0003:0000e228       ??_C@_04MMAH@hash?$AA@     004ed228     Kernel:Kernel.obj
 0003:0000e230       ??_C@_01FCCL@?$CF?$AA@     004ed230     Kernel:Kernel.obj
 0003:0000e234       ??_C@_08JEPH@slot_get?$AA@ 004ed234     Kernel:Kernel.obj
 0003:0000e240       ??_C@_04MNLL@copy?$AA@     004ed240     Kernel:Kernel.obj
 0003:0000e248       ??_C@_0DM@KMJI@addFast?3?5complex?5insertion?5of?5OI@ 004ed248     Kernel:Clbag.OBJ
 0003:0000e288       ?CLMAXFLOAT@@3NA           004ed288     Kernel:Clstring.obj
 0003:0000e290       ?CLMINFLOAT@@3NA           004ed290     Kernel:Clstring.obj
 0003:0000e298       ??_C@_0CD@JJPE@________________________________@ 004ed298     Kernel:Clstring.obj
 0003:0000e2bc       ??_C@_0BM@IFAC@problem?5with?5the?5table?5?$CB?$CB?$CB?6?$AA@ 004ed2bc     Kernel:Clstring.obj
 0003:0000e2d8       ??_C@_0BA@COHG@?5position?5is?5?$CFd?$AA@ 004ed2d8     Kernel:Clstring.obj
 0003:0000e2e8       ??_C@_0BK@NFLL@?5string?5is?5?$CFs?0?5module?3?$CFs?6?$AA@ 004ed2e8     Kernel:Clstring.obj
 0003:0000e304       ??_C@_0CP@KPOH@______?5symbol?5debug?5s?5?$DN?5?$CFx?5_____@ 004ed304     Kernel:Clstring.obj
 0003:0000e334       ??_C@_0BL@LLFG@?$DN?$DN?5bug?5because?5of?5cell?5?$CFd?6?$AA@ 004ed334     Kernel:Clalloc.OBJ
 0003:0000e350       ??_C@_05CAEI@Chunk?$AA@    004ed350     Kernel:Clalloc.OBJ
 0003:0000e358       ??_C@_06JDBI@Object?$AA@   004ed358     Kernel:Clalloc.OBJ
 0003:0000e360       ??_C@_0CI@OAHD@ClAlloc?3?3makeAny?$CI?$CFd?$CJ?5?9?$DO?5?$CFx?5?$CIADR?5@ 004ed360     Kernel:Clalloc.OBJ
 0003:0000e388       ??_C@_0BL@DBFK@?$DN?$DN?$DN?$DN?$DN?$DN?5free?5bad?5guy?5?9?$DO?5?$CFd?6?$AA@ 004ed388     Kernel:Clalloc.OBJ
 0003:0000e3a4       ??_C@_0BL@HAIG@Free?5chain?5OK?3?5?$CFd?5members?6?$AA@ 004ed3a4     Kernel:Clalloc.OBJ
 0003:0000e3c0       ??_C@_0BO@HDPE@?$FL?$CFd?$FN?5Chaine?5buggee?5?$CFd?5?9?$DO?5?$CFd?5?6?$AA@ 004ed3c0     Kernel:Clalloc.OBJ
 0003:0000e3e0       ??_C@_0M@CBGL@?5?4?4?4?5done?4?6?$AA@ 004ed3e0     Kernel:Clalloc.OBJ
 0003:0000e3ec       ??_C@_03EPOH@?$CFc?$CK?$AA@ 004ed3ec     Kernel:Clalloc.OBJ
 0003:0000e3f0       ??_C@_0BH@ODKK@?$CK?$FLO?$FN?5?$DN?5?$CFd?0?51?3?$CFd?0?52?3?$CFd?6?$AA@ 004ed3f0     Kernel:Clalloc.OBJ
 0003:0000e408       ??_C@_0CG@HEPH@?9?9?9?5the?5probe?5is?5?$CFd?5?9?$DO?5adr?5?$DN?5?$CFd?5@ 004ed408     Kernel:Clalloc.OBJ
 0003:0000e430       ??_C@_0BJ@DJBF@Stack?5overflow?5during?5gc?$AA@ 004ed430     Kernel:Clalloc.OBJ
 0003:0000e44c       ??_C@_0BL@HONM@probe?5found?5and?5marked?5?9?9?6?$AA@ 004ed44c     Kernel:Clalloc.OBJ
 0003:0000e468       ??_C@_0CF@LOAM@primitive?5probe?5found?5and?5marked@ 004ed468     Kernel:Clalloc.OBJ
 0003:0000e490       ??_C@_0P@PMHA@bag?$FL?$CFd?$FN?5?9?$DO?5?$CFd?6?$AA@ 004ed490     Kernel:Clalloc.OBJ
 0003:0000e4a0       ??_C@_0BP@IHBK@bag?5probe?5found?5and?5marked?5?9?9?6?$AA@ 004ed4a0     Kernel:Clalloc.OBJ
 0003:0000e4c0       ??_C@_0BI@HFJI@free?5the?5probe?5chunk?5?$CB?6?$AA@ 004ed4c0     Kernel:Clalloc.OBJ
 0003:0000e4d8       ??_C@_0BP@KDCD@free?5the?5probe?5short?5object?5?$CB?6?$AA@ 004ed4d8     Kernel:Clalloc.OBJ
 0003:0000e4f8       ??_C@_0CK@ODOD@OID?5?$CFd?5?$FLADR?5?$DN?5?$CFd?$FN?5has?5a?5corrupte@ 004ed4f8     Kernel:Clalloc.OBJ
 0003:0000e524       ??_C@_0CB@MBA@OID?5?$CFd?5?$FLADR?5?$DN?5?$CFd?$FN?5has?5been?5freed@ 004ed524     Kernel:Clalloc.OBJ
 0003:0000e548       ??_C@_0BO@JLKJ@OID?5?$CFd?5?$FLADR?5?$DN?5?$CFd?$FN?5has?5size?50?$CB?$AA@ 004ed548     Kernel:Clalloc.OBJ
 0003:0000e568       ??_C@_08OGLI@?5Array?3?5?$AA@ 004ed568     Kernel:Clalloc.OBJ
 0003:0000e574       ??_C@_09OMIM@?5Object?3?5?$AA@ 004ed574     Kernel:Clalloc.OBJ
 0003:0000e580       ??_C@_09OFDP@?6String?3?5?$AA@ 004ed580     Kernel:Clalloc.OBJ
 0003:0000e58c       ??_C@_0O@GDPG@?6List?5usage?3?5?$AA@ 004ed58c     Kernel:Clalloc.OBJ
 0003:0000e59c       ??_C@_0BF@FGJI@?5Max?5free?5bag?5size?3?5?$AA@ 004ed59c     Kernel:Clalloc.OBJ
 0003:0000e5b4       ??_C@_05JOIP@Bag?3?5?$AA@  004ed5b4     Kernel:Clalloc.OBJ
 0003:0000e5bc       ??_C@_04DJPA@bag?$CI?$AA@  004ed5bc     Kernel:Clalloc.OBJ
 0003:0000e5c4       ??_C@_07EHHP@object?$CI?$AA@ 004ed5c4     Kernel:Clalloc.OBJ
 0003:0000e5cc       ??_C@_06MCJP@array?$CI?$AA@ 004ed5cc     Kernel:Clalloc.OBJ
 0003:0000e5d4       ??_C@_07CABE@string?$CI?$AA@ 004ed5d4     Kernel:Clalloc.OBJ
 0003:0000e5dc       ??_C@_0P@NENO@?6World?5stack?3?5?$AA@ 004ed5dc     Kernel:Clalloc.OBJ
 0003:0000e5ec       ??_C@_0BF@LEDB@?6Symbol?5allocation?3?5?$AA@ 004ed5ec     Kernel:Clalloc.OBJ
 0003:0000e604       ??_C@_0BJ@JIOL@?6Short?5item?5allocation?3?5?$AA@ 004ed604     Kernel:Clalloc.OBJ
 0003:0000e620       ??_C@_0BE@KEKB@?5used?5cells?5out?5of?5?$AA@ 004ed620     Kernel:Clalloc.OBJ
 0003:0000e634       ??_C@_0BD@FBHJ@Chunk?5allocation?3?5?$AA@ 004ed634     Kernel:Clalloc.OBJ
 0003:0000e648       ??_C@_0O@CMLN@Loglist?5?$DN?5?$CFd?6?$AA@ 004ed648     Kernel:Clalloc.OBJ
 0003:0000e658       ??_C@_0BB@PDNN@Badguy?3?5?$CFd?0?5?$CFd?5?6?$AA@ 004ed658     Kernel:Clalloc.OBJ
 0003:0000e670       ?CKernelRelease@@3NA       004ed670     Kernel:Clenv.obj
 0003:0000e678       ??_C@_0P@GBCA@System?5Error?3?5?$AA@ 004ed678     Kernel:Clenv.obj
 0003:0000e688       ??_C@_07FELA@?5?$FLline?5?$AA@ 004ed688     Kernel:Clenv.obj
 0003:0000e690       ??_C@_0BN@BEGA@Assertion?5violation?5in?5file?5?$AA@ 004ed690     Kernel:Clenv.obj
 0003:0000e6b0       ??_C@_0CK@JDPK@Aha?5?$CB?5?$FOC?5was?5entered?5on?5a?5PC?5?4?4?4@ 004ed6b0     Kernel:Clenv.obj
 0003:0000e6dc       ??_C@_0DA@BAAD@?6An?5error?5has?5occured?5in?5the?5com@ 004ed6dc     Kernel:Clenv.obj
 0003:0000e70c       ??_C@_02MECO@?$CFd?$AA@    004ed70c     Kernel:Clenv.obj
 0003:0000e710       ??_C@_0BL@HENP@read?5slot?$FL?$CFd?$FN?5of?5?$CFd?5?9?$DO?5?$CFd?6?$AA@ 004ed710     Kernel:Clreflect.obj
 0003:0000e72c       ??_C@_0CJ@COOI@?$DN?$DN?$DN?5class?3?3make?5allocates?5a?5clas@ 004ed72c     Kernel:Clreflect.obj
 0003:0000e758       ??_C@_0BM@CKBI@create?5a?5new?5?$HM?$CFs?$HM?5?$EA?5adr?5?$CFd?6?$AA@ 004ed758     Kernel:Clreflect.obj
 0003:0000e774       ??_C@_0BN@KBFI@?9?9?9?5create?5property?5?$CFs?5?$EA?5?$CFd?6?$AA@ 004ed774     Kernel:Clreflect.obj
 0003:0000e794       ??_C@_0BJ@EJI@I?5AM?5A?5BLOODY?5CPFile?5?$CB?$CB?6?$AA@ 004ed794     Kernel:Clport.obj
 0003:0000e7b0       ??_C@_02DLJH@?$CFg?$AA@    004ed7b0     Kernel:Clport.obj
 0003:0000e7b4       ??_C@_06PEEJ@?$CF0?420g?$AA@ 004ed7b4     Kernel:Clport.obj
 0003:0000e7bc       ??_C@_04IFEM@?$CF?41f?$AA@ 004ed7bc     Kernel:Clport.obj
 0003:0000e7c4       ??_C@_0CD@EOE@?1?1?5?9?9?9?9?5We?5could?5free?5a?5port?5?3?9?$CJ@ 004ed7c4     Kernel:Clport.obj
 0003:0000e7e8       ??_C@_0BI@PMDM@I?5AM?5A?5CPString?5Out?5?$CB?$CB?6?$AA@ 004ed7e8     Kernel:Clport.obj
 0003:0000e800       ??_C@_0BG@JMP@I?5AM?5A?5CPStringIn?5?$CB?$CB?6?$AA@ 004ed800     Kernel:Clport.obj
 0003:0000e818       ??_C@_04PNLD@_two?$AA@     004ed818     Kernel:Clport.obj
 0003:0000e820       ??_C@_07CLHI@_dollar?$AA@  004ed820     Kernel:Clport.obj
 0003:0000e828       ??_C@_06ONBH@_prime?$AA@   004ed828     Kernel:Clport.obj
 0003:0000e830       ??_C@_02EILG@L_?$AA@       004ed830     Kernel:Clport.obj
 0003:0000e834       ??_C@_06FGNM@_brack?$AA@   004ed834     Kernel:Clport.obj
 0003:0000e83c       ??_C@_06GOCL@_tilda?$AA@   004ed83c     Kernel:Clport.obj
 0003:0000e844       ??_C@_03BHEF@_at?$AA@      004ed844     Kernel:Clport.obj
 0003:0000e848       ??_C@_04PCOD@_exp?$AA@     004ed848     Kernel:Clport.obj
 0003:0000e850       ??_C@_06CCIA@_comma?$AA@   004ed850     Kernel:Clport.obj
 0003:0000e858       ??_C@_06EIFA@_equal?$AA@   004ed858     Kernel:Clport.obj
 0003:0000e860       ??_C@_04MGKK@_sup?$AA@     004ed860     Kernel:Clport.obj
 0003:0000e868       ??_C@_04GBFI@_inf?$AA@     004ed868     Kernel:Clport.obj
 0003:0000e870       ??_C@_02EPOC@_I?$AA@       004ed870     Kernel:Clport.obj
 0003:0000e874       ??_C@_04DGGD@_ask?$AA@     004ed874     Kernel:Clport.obj
 0003:0000e87c       ??_C@_05GCKN@_star?$AA@    004ed87c     Kernel:Clport.obj
 0003:0000e884       ??_C@_02BJCL@_Z?$AA@       004ed884     Kernel:Clport.obj
 0003:0000e888       ??_C@_05CGBA@_plus?$AA@    004ed888     Kernel:Clport.obj
 0003:0000e890       ??_C@_05BJAO@_dash?$AA@    004ed890     Kernel:Clport.obj
 0003:0000e898       ??_C@_04KEMD@_and?$AA@     004ed898     Kernel:Clport.obj
 0003:0000e8a0       ??_C@_0L@LJCJ@_backslash?$AA@ 004ed8a0     Kernel:Clport.obj
 0003:0000e8ac       ??_C@_02LKHI@_7?$AA@       004ed8ac     Kernel:Clport.obj
 0003:0000e8b0       ??_C@_04BFF@_dot?$AA@      004ed8b0     Kernel:Clport.obj
 0003:0000e8b8       ??_C@_05CKH@ms?4?5?6?$AA@  004ed8b8     Kernel:Clport.obj
 0003:0000e8c0       ??_C@_0BB@NFFF@?$FN?5Elapsed?5time?3?5?$AA@ 004ed8c0     Kernel:Clport.obj
 0003:0000e8d4       ??_C@_08OMEM@Counter?$FL?$AA@ 004ed8d4     Kernel:Clport.obj
 0003:0000e8e0       ??_C@_0CK@JLGA@increasing?5memory?5size?5by?52?$FO?$CFd?5a@ 004ed8e0     console:clConsole.obj
 0003:0000e90c       ??_C@_0DK@KICL@There?5is?5not?5enough?5memory?5for?5C@ 004ed90c     console:clConsole.obj
 0003:0000e948       ??_C@_08JOEH@?0?5line?3?5?$AA@ 004ed948     console:clConsole.obj
 0003:0000e954       ??_C@_0M@PJAG@?9?9?9?9?5file?3?5?$AA@ 004ed954     console:clConsole.obj
 0003:0000e960       ??_C@_03BIJ@?$FN?$DO?5?$AA@ 004ed960     console:clConsole.obj
 0003:0000e964       ??_C@_05PLJF@eval?$FL?$AA@ 004ed964     console:clConsole.obj
 0003:0000e96c       ??_C@_02CPLA@?$DO?5?$AA@   004ed96c     console:clConsole.obj
 0003:0000e970       ??_C@_0CO@MOBO@?$DO?$DO?$DO?$DO?$DO?$DO?$DO?$DO?$DO?$DO?$DO?$DO?$DO?$DO?5please?5fix?5the?5in@ 004ed970     console:clConsole.obj
 0003:0000e9a0       ??_C@_0CA@IELM@d?3?2claire?2v2?49?2src?2make?2init?4cl?$AA@ 004ed9a0     console:clConsole.obj
 0003:0000e9c0       ??_C@_0CL@PFHB@?9?9?9?9?9?9?9?9?9?9?9?9?9?9?9?5Debug?5?9?9?9?9?9?9?9?9?9?9@ 004ed9c0     console:clConsole.obj
 0003:0000e9ec       ??_C@_0L@MAIF@?$CFs?$FL?$CFd?3?$CFd?$FN?$CI?$AA@ 004ed9ec     console:clConsole.obj
 0003:0000e9f8       ??_C@_07NPDM@?$DM?$CFs?3?$CFd?$DO?$AA@ 004ed9f8     console:clConsole.obj
 0003:0000ea00       ??_C@_07BKHE@method?$DM?$AA@ 004eda00     console:clConsole.obj
 0003:0000ea08       ??_C@_05NPA@slot?$DM?$AA@  004eda08     console:clConsole.obj
 0003:0000ea10       ??_C@_04ELGI@?8?$CFc?8?$AA@ 004eda10     console:clConsole.obj
 0003:0000ea18       ??_C@_03MEAP@?8?$CFs?$AA@  004eda18     console:clConsole.obj
 0003:0000ea1c       ??_C@_06HLEI@?$EA?$CFd?6?0?5?$AA@ 004eda1c     console:clConsole.obj
 0003:0000ea24       ??_C@_05CLBC@EMPTY?$AA@    004eda24     console:clConsole.obj
 0003:0000ea2c       ??_C@_0O@PCKO@Chunk?$FL?$CFd?3?$CFd?$FN?$CI?$AA@ 004eda2c     console:clConsole.obj
 0003:0000ea3c       ??_C@_07DBHD@NOTHING?$AA@  004eda3c     console:clConsole.obj
 0003:0000ea44       ??_C@_04HPGM@?$CFs?3?5?$AA@ 004eda44     console:clConsole.obj
 0003:0000ea4c       __aexit_rtn                004eda4c     LIBC:crt0.obj
 0003:0000ea50       ___app_type                004eda50     LIBC:crt0.obj
 0003:0000ea60       __fltused                  004eda60     LIBC:fpinit.obj
 0003:0000ea64       __ldused                   004eda64     LIBC:fpinit.obj
 0003:0000ea68       __FPinit                   004eda68     LIBC:fpinit.obj
 0003:0000ea6c       __FPmtinit                 004eda6c     LIBC:fpinit.obj
 0003:0000ea70       __FPmtterm                 004eda70     LIBC:fpinit.obj
 0003:0000ea80       __half                     004eda80     LIBC:pow.obj
 0003:0000ea98       __iob                      004eda98     LIBC:_file.obj
 0003:0000ed18       __NLG_Destination          004edd18     LIBC:exsup.obj
 0003:0000ed28       __XcptActTab               004edd28     LIBC:winxfltr.obj
 0003:0000eda0       __First_FPE_Indx           004edda0     LIBC:winxfltr.obj
 0003:0000eda4       __Num_FPE                  004edda4     LIBC:winxfltr.obj
 0003:0000eda8       __XcptActTabCount          004edda8     LIBC:winxfltr.obj
 0003:0000edac       __fpecode                  004eddac     LIBC:winxfltr.obj
 0003:0000edb0       ___badioinfo               004eddb0     LIBC:ioinit.obj
 0003:0000edb8       __amblksiz                 004eddb8     LIBC:heapinit.obj
 0003:0000ee50       __cfltcvt_tab              004ede50     LIBC:cmiscdat.obj
 0003:0000ee70       __infinity                 004ede70     LIBC:87tran.obj
 0003:0000ee7a       __minfinity                004ede7a     LIBC:87tran.obj
 0003:0000ee84       __logemax                  004ede84     LIBC:87tran.obj
 0003:0000eeb4       __OP_EXPjmptab             004edeb4     LIBC:87tran.obj
 0003:0000eee0       __indefinite               004edee0     LIBC:87disp.obj
 0003:0000eeea       __piby2                    004edeea     LIBC:87disp.obj
 0003:0000eefc       __cpower                   004edefc     LIBC:87disp.obj
 0003:0000ef10       ___nullstring              004edf10     LIBC:output.obj
 0003:0000ef14       ___wnullstring             004edf14     LIBC:output.obj
 0003:0000ef18       __pctype                   004edf18     LIBC:ctype.obj
 0003:0000ef1c       __pwctype                  004edf1c     LIBC:ctype.obj
 0003:0000ef20       __ctype                    004edf20     LIBC:ctype.obj
 0003:0000f124       ___mb_cur_max              004ee124     LIBC:nlsdata1.obj
 0003:0000f128       ___decimal_point           004ee128     LIBC:nlsdata1.obj
 0003:0000f12c       ___decimal_point_length    004ee12c     LIBC:nlsdata1.obj
 0003:0000f130       __timezone                 004ee130     LIBC:timeset.obj
 0003:0000f134       __daylight                 004ee134     LIBC:timeset.obj
 0003:0000f138       __dstbias                  004ee138     LIBC:timeset.obj
 0003:0000f1bc       __tzname                   004ee1bc     LIBC:timeset.obj
 0003:0000f2c0       __d_inf                    004ee2c0     LIBC:util.obj
 0003:0000f2c8       __d_ind                    004ee2c8     LIBC:util.obj
 0003:0000f2d0       __d_max                    004ee2d0     LIBC:util.obj
 0003:0000f2d8       __d_min                    004ee2d8     LIBC:util.obj
 0003:0000f2e0       __d_mzero                  004ee2e0     LIBC:util.obj
 0003:0000f320       ___sbh_threshold           004ee320     LIBC:sbheap.obj
 0003:0000f5c0       __lpdays                   004ee5c0     LIBC:days.obj
 0003:0000f5f4       __days                     004ee5f4     LIBC:days.obj
 0003:0000f628       __matherr_flag             004ee628     LIBC:matherr.obj
 0003:0000f798       __p_overlay                004ee798     LIBC:dospawn.obj
 0003:0000f7a0       __pow10pos                 004ee7a0     LIBC:constpow.obj
 0003:0000f900       __pow10neg                 004ee900     LIBC:constpow.obj
 0003:00012900       ??_C@_00A@?$AA@            004f1900     cclaire-s.obj
 0003:00012908       ?Core@@3VCoreClass@@A      004f1908     Core:Core.obj
 0003:00012c10       ?Language@@3VLanguageClass@@A 004f1c10     Language:Language.obj
 0003:00012e5c       ?iClaire@@3VNameSpace@@A   004f1e5c     Language:Language.obj
 0003:00012e60       ?Reader@@3VReaderClass@@A  004f1e60     Reader:Reader.obj
 0003:00013118       ?Compile@@3VNameSpace@@A   004f2118     Optimize:Optimize.obj
 0003:00013120       ?Optimize@@3VOptimizeClass@@A 004f2120     Optimize:Optimize.obj
 0003:00013400       ?Generate@@3VGenerateClass@@A 004f2400     Generate:Generate.obj
 0003:00013668       ?mClaire@@3VNameSpace@@A   004f2668     Kernel:Kernel.obj
 0003:0001366c       ?claire@@3VNameSpace@@A    004f266c     Kernel:Kernel.obj
 0003:00013670       ?Kernel@@3VKernelClass@@A  004f2670     Kernel:Kernel.obj
 0003:000139b0       ?ClEnv@@3PAVClaireEnvironment@@A 004f29b0     Kernel:Kernel.obj
 0003:000139b4       ?CNULL@@3HA                004f29b4     Kernel:Kernel.obj
 0003:000139b8       ?ClRes@@3PAVClaireResource@@A 004f29b8     Kernel:Kernel.obj
 0003:000139bc       ?CFALSE@@3PAVClaireBoolean@@A 004f29bc     Kernel:Kernel.obj
 0003:000139c0       ?ClAlloc@@3PAVClaireAllocation@@A 004f29c0     Kernel:Clalloc.OBJ
 0003:000139c4       ?CL_dummy@@3PAHA           004f29c4     Kernel:Clalloc.OBJ
 0003:000139c8       ?Cmemory@@3PAHA            004f29c8     Kernel:Clalloc.OBJ
 0003:000139cc       ?BadGuy@@3HA               004f29cc     Kernel:Clalloc.OBJ
 0003:000139d0       ?maxIndex@@3HA             004f29d0     Kernel:Clalloc.OBJ
 0003:000139d4       ?MyMark@@3PAVCPFile@@A     004f29d4     Kernel:Clport.obj
 0003:00013a3c       ?store_d@@3HA              004f2a3c     console:clConsole.obj
 0003:00013a40       ?store_i@@3HA              004f2a40     console:clConsole.obj
 0003:00013a44       ?store_b@@3HA              004f2a44     console:clConsole.obj
 0003:00013a48       ?STACK@@3PAVlist@@A        004f2a48     console:clConsole.obj
 0003:00013a4c       ?NBEVAL@@3HA               004f2a4c     console:clConsole.obj
 0003:00013a50       ?MODE@@3HA                 004f2a50     console:clConsole.obj
 0003:00013a54       __aenvptr                  004f2a54     LIBC:crt0.obj
 0003:00013a58       __wenvptr                  004f2a58     LIBC:crt0.obj
 0003:00013a5c       ___error_mode              004f2a5c     LIBC:crt0.obj
 0003:00013a60       ___fastflag                004f2a60     LIBC:fpinit.obj
 0003:00013a64       __adjust_fdiv              004f2a64     LIBC:fpinit.obj
 0003:00013ac0       _errno                     004f2ac0     LIBC:crt0dat.obj
 0003:00013ac4       __doserrno                 004f2ac4     LIBC:crt0dat.obj
 0003:00013ac8       __umaskval                 004f2ac8     LIBC:crt0dat.obj
 0003:00013acc       __osver                    004f2acc     LIBC:crt0dat.obj
 0003:00013ad0       __winver                   004f2ad0     LIBC:crt0dat.obj
 0003:00013ad4       __winmajor                 004f2ad4     LIBC:crt0dat.obj
 0003:00013ad8       __winminor                 004f2ad8     LIBC:crt0dat.obj
 0003:00013adc       ___argc                    004f2adc     LIBC:crt0dat.obj
 0003:00013ae0       ___argv                    004f2ae0     LIBC:crt0dat.obj
 0003:00013ae4       ___wargv                   004f2ae4     LIBC:crt0dat.obj
 0003:00013ae8       __environ                  004f2ae8     LIBC:crt0dat.obj
 0003:00013aec       ___initenv                 004f2aec     LIBC:crt0dat.obj
 0003:00013af0       __wenviron                 004f2af0     LIBC:crt0dat.obj
 0003:00013af4       ___winitenv                004f2af4     LIBC:crt0dat.obj
 0003:00013af8       __pgmptr                   004f2af8     LIBC:crt0dat.obj
 0003:00013afc       __wpgmptr                  004f2afc     LIBC:crt0dat.obj
 0003:00013b00       __exitflag                 004f2b00     LIBC:crt0dat.obj
 0003:00013b04       __C_Termination_Done       004f2b04     LIBC:crt0dat.obj
 0003:00013b08       __C_Exit_Done              004f2b08     LIBC:crt0dat.obj
 0003:00013b0c       __cflush                   004f2b0c     LIBC:_file.obj
 0003:00013b10       __pxcptinfoptrs            004f2b10     LIBC:winxfltr.obj
 0003:00013c1c       __adbgmsg                  004f2c1c     LIBC:crt0msg.obj
 0003:00013c30       __stdbuf                   004f2c30     LIBC:_sftbuf.obj
 0003:00013d1c       __newmode                  004f2d1c     LIBC:_newmode.obj
 0003:00013d20       ?_pnhHeap@@3P6AHI@ZA       004f2d20     LIBC:handler.obj
 0003:00013d6c       ___lc_handle               004f2d6c     LIBC:nlsdata2.obj
 0003:00013d84       ___lc_codepage             004f2d84     LIBC:nlsdata2.obj
 0003:00013d88       ___lc_collate_cp           004f2d88     LIBC:nlsdata2.obj
 0003:00013d94       __commode                  004f2d94     LIBC:ncommode.obj
 0003:00013d98       __fmode                    004f2d98     LIBC:txtmode.obj
 0003:00013d9c       ___mbcodepage              004f2d9c     <common>
 0003:00013e20       ___mbulinfo                004f2e20     <common>
 0003:00013e2c       ___ismbcodepage            004f2e2c     <common>
 0003:00013e40       __mbcasemap                004f2e40     <common>
 0003:00013f40       __mbctype                  004f2f40     <common>
 0003:00014044       ___mblcid                  004f3044     <common>
 0003:00014048       ___sbh_sizeHeaderList      004f3048     <common>
 0003:00014058       ___sbh_indGroupDefer       004f3058     <common>
 0003:0001405c       ___sbh_pHeaderScan         004f305c     <common>
 0003:00014060       ___sbh_pHeaderDefer        004f3060     <common>
 0003:00014064       ___sbh_cntHeaderList       004f3064     <common>
 0003:00014068       ___sbh_pHeaderList         004f3068     <common>
 0003:0001406c       __crtheap                  004f306c     <common>
 0003:00014080       ___pioinfo                 004f3080     <common>
 0003:000141bc       __nhandle                  004f31bc     <common>
 0003:000141c0       ___piob                    004f31c0     <common>
 0003:00014500       __bufin                    004f3500     <common>
 0003:00015500       __nstream                  004f4500     <common>
 0003:00015504       ___env_initialized         004f4504     <common>
 0003:00015514       ___mbctype_initialized     004f4514     <common>
 0003:00015518       ___onexitend               004f4518     <common>
 0003:0001551c       ___onexitbegin             004f451c     <common>
 0003:00015520       __acmdln                   004f4520     <common>
 0003:0001552c       __setjmpexused             004f452c     <common>
 0004:00000000       __IMPORT_DESCRIPTOR_KERNEL32 004f5000     kernel32:KERNEL32.dll
 0004:00000014       __NULL_IMPORT_DESCRIPTOR   004f5014     kernel32:KERNEL32.dll
 0004:00000168       __imp__GetProcAddress@8    004f5168     kernel32:KERNEL32.dll
 0004:0000016c       __imp__GetVersion@0        004f516c     kernel32:KERNEL32.dll
 0004:00000170       __imp__ExitProcess@4       004f5170     kernel32:KERNEL32.dll
 0004:00000174       __imp__GetTimeZoneInformation@4 004f5174     kernel32:KERNEL32.dll
 0004:00000178       __imp__GetSystemTime@4     004f5178     kernel32:KERNEL32.dll
 0004:0000017c       __imp__GetLocalTime@4      004f517c     kernel32:KERNEL32.dll
 0004:00000180       __imp__GetLastError@0      004f5180     kernel32:KERNEL32.dll
 0004:00000184       __imp__SetConsoleCtrlHandler@8 004f5184     kernel32:KERNEL32.dll
 0004:00000188       __imp__GetSystemTimeAsFileTime@4 004f5188     kernel32:KERNEL32.dll
 0004:0000018c       __imp__TerminateProcess@8  004f518c     kernel32:KERNEL32.dll
 0004:00000190       __imp__GetCurrentProcess@0 004f5190     kernel32:KERNEL32.dll
 0004:00000194       __imp__HeapAlloc@12        004f5194     kernel32:KERNEL32.dll
 0004:00000198       __imp__RtlUnwind@16        004f5198     kernel32:KERNEL32.dll
 0004:0000019c       __imp__UnhandledExceptionFilter@4 004f519c     kernel32:KERNEL32.dll
 0004:000001a0       __imp__GetModuleFileNameA@12 004f51a0     kernel32:KERNEL32.dll
 0004:000001a4       __imp__FreeEnvironmentStringsA@4 004f51a4     kernel32:KERNEL32.dll
 0004:000001a8       __imp__FreeEnvironmentStringsW@4 004f51a8     kernel32:KERNEL32.dll
 0004:000001ac       __imp__WideCharToMultiByte@32 004f51ac     kernel32:KERNEL32.dll
 0004:000001b0       __imp__GetEnvironmentStrings@0 004f51b0     kernel32:KERNEL32.dll
 0004:000001b4       __imp__GetEnvironmentStringsW@0 004f51b4     kernel32:KERNEL32.dll
 0004:000001b8       __imp__SetHandleCount@4    004f51b8     kernel32:KERNEL32.dll
 0004:000001bc       __imp__GetStdHandle@4      004f51bc     kernel32:KERNEL32.dll
 0004:000001c0       __imp__GetFileType@4       004f51c0     kernel32:KERNEL32.dll
 0004:000001c4       __imp__GetStartupInfoA@4   004f51c4     kernel32:KERNEL32.dll
 0004:000001c8       __imp__HeapDestroy@4       004f51c8     kernel32:KERNEL32.dll
 0004:000001cc       __imp__HeapCreate@12       004f51cc     kernel32:KERNEL32.dll
 0004:000001d0       __imp__VirtualFree@12      004f51d0     kernel32:KERNEL32.dll
 0004:000001d4       __imp__HeapFree@12         004f51d4     kernel32:KERNEL32.dll
 0004:000001d8       __imp__WriteFile@20        004f51d8     kernel32:KERNEL32.dll
 0004:000001dc       __imp__GetCommandLineA@0   004f51dc     kernel32:KERNEL32.dll
 0004:000001e0       __imp__GetModuleHandleA@4  004f51e0     kernel32:KERNEL32.dll
 0004:000001e4       __imp__RaiseException@16   004f51e4     kernel32:KERNEL32.dll
 0004:000001e8       __imp__ReadFile@20         004f51e8     kernel32:KERNEL32.dll
 0004:000001ec       __imp__SetFilePointer@16   004f51ec     kernel32:KERNEL32.dll
 0004:000001f0       __imp__FlushFileBuffers@4  004f51f0     kernel32:KERNEL32.dll
 0004:000001f4       __imp__CloseHandle@4       004f51f4     kernel32:KERNEL32.dll
 0004:000001f8       __imp__GetFileAttributesA@4 004f51f8     kernel32:KERNEL32.dll
 0004:000001fc       __imp__VirtualAlloc@16     004f51fc     kernel32:KERNEL32.dll
 0004:00000200       __imp__HeapReAlloc@16      004f5200     kernel32:KERNEL32.dll
 0004:00000204       __imp__IsBadWritePtr@8     004f5204     kernel32:KERNEL32.dll
 0004:00000208       __imp__GetCPInfo@8         004f5208     kernel32:KERNEL32.dll
 0004:0000020c       __imp__GetACP@0            004f520c     kernel32:KERNEL32.dll
 0004:00000210       __imp__GetOEMCP@0          004f5210     kernel32:KERNEL32.dll
 0004:00000214       __imp__LoadLibraryA@4      004f5214     kernel32:KERNEL32.dll
 0004:00000218       __imp__MultiByteToWideChar@24 004f5218     kernel32:KERNEL32.dll
 0004:0000021c       __imp__LCMapStringA@24     004f521c     kernel32:KERNEL32.dll
 0004:00000220       __imp__LCMapStringW@24     004f5220     kernel32:KERNEL32.dll
 0004:00000224       __imp__GetStringTypeA@20   004f5224     kernel32:KERNEL32.dll
 0004:00000228       __imp__GetStringTypeW@16   004f5228     kernel32:KERNEL32.dll
 0004:0000022c       __imp__CompareStringA@24   004f522c     kernel32:KERNEL32.dll
 0004:00000230       __imp__CompareStringW@24   004f5230     kernel32:KERNEL32.dll
 0004:00000234       __imp__SetEnvironmentVariableA@8 004f5234     kernel32:KERNEL32.dll
 0004:00000238       __imp__SetStdHandle@8      004f5238     kernel32:KERNEL32.dll
 0004:0000023c       __imp__CreateFileA@28      004f523c     kernel32:KERNEL32.dll
 0004:00000240       __imp__GetExitCodeProcess@8 004f5240     kernel32:KERNEL32.dll
 0004:00000244       __imp__WaitForSingleObject@8 004f5244     kernel32:KERNEL32.dll
 0004:00000248       __imp__CreateProcessA@40   004f5248     kernel32:KERNEL32.dll
 0004:0000024c       __imp__SetEndOfFile@4      004f524c     kernel32:KERNEL32.dll
 0004:00000250       \177KERNEL32_NULL_THUNK_DATA 004f5250     kernel32:KERNEL32.dll

 entry point at        0001:000a44c7

