 ptidej

 Timestamp is 4356a021 (Wed Oct 19 15:36:01 2005)

 Preferred load address is 00400000

 Start         Length     Name                   Class
 0001:00000000 0024c497H .text                   CODE
 0002:00000000 000008e8H .rdata                  DATA
 0002:000008e8 00000000H .edata                  DATA
 0003:00000000 00000104H .CRT$XCA                DATA
 0003:00000104 00000104H .CRT$XCZ                DATA
 0003:00000208 00000104H .CRT$XIA                DATA
 0003:0000030c 0000010eH .CRT$XIC                DATA
 0003:0000041c 00000104H .CRT$XIZ                DATA
 0003:00000520 00000104H .CRT$XPA                DATA
 0003:00000624 00000104H .CRT$XPX                DATA
 0003:00000728 00000104H .CRT$XPZ                DATA
 0003:0000082c 00000104H .CRT$XTA                DATA
 0003:00000930 00000104H .CRT$XTZ                DATA
 0003:00000a40 0003d1b3H .data                   DATA
 0003:0003dbf8 000045a0H .bss                    DATA
 0004:00000000 00000014H .idata$2                DATA
 0004:00000014 00000014H .idata$3                DATA
 0004:00000028 00000140H .idata$4                DATA
 0004:00000168 00000140H .idata$5                DATA
 0004:000002a8 00000585H .idata$6                DATA

  Address         Publics by Value              Rva+Base     Lib:Object

 0001:00000020       ?loadModules@@YAXXZ        00401020 f   ptidej-s.obj
 0001:00000abf       ?call_main@@YAXXZ          00401abf f   ptidej-s.obj
 0001:00000d80       ?metaLoad@CoreClass@@QAEXXZ 00401d80 f   Core:Core.obj
 0001:00008060       ?finite_ask_type@@YAPAVClaireBoolean@@PAVClaireType@@@Z 00409060 f   Core:types.obj
 0001:00008170       ?enumerate_any@@YAPAVbag@@H@Z 00409170 f   Core:types.obj
 0001:00008360       ?_equaltype_ask_any@@YAPAVClaireBoolean@@PAVClaireType@@0@Z 00409360 f   Core:types.obj
 0001:000083a0       ?sort_I_type@@YAPAVClaireClass@@PAVClaireType@@@Z 004093a0 f   Core:types.obj
 0001:00008400       ?_Z_any1@@YAPAVClaireBoolean@@HPAVClaireClass@@@Z 00409400 f   Core:types.obj
 0001:00008490       ?Ztype_any@@YAPAVClaireBoolean@@HH@Z 00409490 f   Core:types.obj
 0001:000085e0       ?self_print_Union_Core@@YAXPAVUnion@@@Z 004095e0 f   Core:types.obj
 0001:000086d0       ?finite_ask_Union@@YAPAVClaireBoolean@@PAVUnion@@@Z 004096d0 f   Core:types.obj
 0001:000087e0       ?self_print_Interval_Core@@YAXPAVInterval@@@Z 004097e0 f   Core:types.obj
 0001:00008820       ?finite_ask_Interval@@YAPAVClaireBoolean@@PAVInterval@@@Z 00409820 f   Core:types.obj
 0001:00008830       ?_dash_dash_integer@@YAPAVInterval@@HH@Z 00409830 f   Core:types.obj
 0001:000088a0       ?self_print_Param_Core@@YAXPAVParam@@@Z 004098a0 f   Core:types.obj
 0001:000089f0       ?finite_ask_Param@@YAPAVClaireBoolean@@PAVParam@@@Z 004099f0 f   Core:types.obj
 0001:00008a10       ?self_print_subtype_Core@@YAXPAVsubtype@@@Z 00409a10 f   Core:types.obj
 0001:00008b40       ?finite_ask_subtype@@YAPAVClaireBoolean@@PAVsubtype@@@Z 00409b40 f   Core:types.obj
 0001:00008c20       ?nth_class1@@YAPAVClaireType@@PAVClaireClass@@PAV1@@Z 00409c20 f   Core:types.obj
 0001:00008da0       ?nth_class2@@YAPAVClaireType@@PAVClaireClass@@PAVlist@@1@Z 00409da0 f   Core:types.obj
 0001:00008fa0       ?param_I_class@@YAPAVClaireType@@PAVClaireClass@@PAV1@@Z 00409fa0 f   Core:types.obj
 0001:000090a0       ?nth_type@@YAPAVClaireType@@PAV1@@Z 0040a0a0 f   Core:types.obj
 0001:000091a0       ?finite_ask_tuple@@YAPAVClaireBoolean@@PAVtuple@@@Z 0040a1a0 f   Core:types.obj
 0001:00009220       ?self_print_Reference_Core@@YAXPAVReference@@@Z 0040a220 f   Core:types.obj
 0001:00009300       ?get_Reference@@YAHPAVReference@@H@Z 0040a300 f   Core:types.obj
 0001:000093c0       ?_at_Reference@@YAHPAVReference@@PAVlist@@H@Z 0040a3c0 f   Core:types.obj
 0001:00009480       ?set_I_collection@@YAPAVset@@PAVClaireCollection@@@Z 0040a480 f   Core:types.obj
 0001:000095e0       ?size_collection@@YAHPAVClaireCollection@@@Z 0040a5e0 f   Core:types.obj
 0001:00009710       ?set_I_set@@YAPAVset@@PAV1@@Z 0040a710 f   Core:types.obj
 0001:00009720       ?size_set@@YAHPAVset@@@Z   0040a720 f   Core:types.obj
 0001:00009730       ?size_list2_Core@@YAHPAVlist@@@Z 0040a730 f   Core:types.obj
 0001:00009750       ?set_I_class@@YAPAVset@@PAVClaireClass@@@Z 0040a750 f   Core:types.obj
 0001:000098c0       ?size_class@@YAHPAVClaireClass@@@Z 0040a8c0 f   Core:types.obj
 0001:00009910       ?set_I_Union@@YAPAVset@@PAVUnion@@@Z 0040a910 f   Core:types.obj
 0001:00009a30       ?size_Union@@YAHPAVUnion@@@Z 0040aa30 f   Core:types.obj
 0001:00009bb0       ?set_I_Interval@@YAPAVset@@PAVInterval@@@Z 0040abb0 f   Core:types.obj
 0001:00009bd0       ?size_Interval@@YAHPAVInterval@@@Z 0040abd0 f   Core:types.obj
 0001:00009be0       ?set_I_Param@@YAPAVset@@PAVParam@@@Z 0040abe0 f   Core:types.obj
 0001:00009cf0       ?size_Param@@YAHPAVParam@@@Z 0040acf0 f   Core:types.obj
 0001:00009d10       ?set_I_subtype@@YAPAVset@@PAVsubtype@@@Z 0040ad10 f   Core:types.obj
 0001:00009e60       ?size_subtype@@YAHPAVsubtype@@@Z 0040ae60 f   Core:types.obj
 0001:00009fb0       ?set_I_tuple@@YAPAVset@@PAVtuple@@@Z 0040afb0 f   Core:types.obj
 0001:0000a2c0       ?size_tuple@@YAHPAVtuple@@@Z 0040b2c0 f   Core:types.obj
 0001:0000a340       ?member_ask_any@@YAPAVClaireBoolean@@HPAVClaireType@@@Z 0040b340 f   Core:types.obj
 0001:0000aa90       ?class_I_type@@YAPAVClaireClass@@PAVClaireType@@@Z 0040ba90 f   Core:types.obj
 0001:0000ad30       ?U_type@@YAPAVClaireType@@PAV1@0@Z 0040bd30 f   Core:types.obj
 0001:0000b300       ?_dot_dot_integer@@YAPAVClaireType@@HH@Z 0040c300 f   Core:types.obj
 0001:0000b320       ?_dot_dot_integer_type@@YAPAVClaireType@@PAV1@0@Z 0040c320 f   Core:types.obj
 0001:0000b470       ?but_any@@YAPAVbag@@HH@Z   0040c470 f   Core:types.obj
 0001:0000b540       ?but_any_type@@YAPAVClaireType@@PAV1@0@Z 0040c540 f   Core:types.obj
 0001:0000b5f0       ?_backslash_type@@YAPAVset@@PAVClaireType@@0@Z 0040c5f0 f   Core:types.obj
 0001:0000b730       ?glb_set@@YAPAVset@@PAV1@PAVClaireType@@@Z 0040c730 f   Core:types.obj
 0001:0000b830       ?glb_Union@@YAPAVClaireType@@PAVUnion@@PAV1@@Z 0040c830 f   Core:types.obj
 0001:0000b970       ?glb_Interval@@YAPAVClaireType@@PAVInterval@@PAV1@@Z 0040c970 f   Core:types.obj
 0001:0000bb50       ?glb_class@@YAPAVClaireType@@PAVClaireClass@@PAV1@@Z 0040cb50 f   Core:types.obj
 0001:0000bde0       ?glb_Param@@YAPAVClaireType@@PAVParam@@PAV1@@Z 0040cde0 f   Core:types.obj
 0001:0000c0f0       ?glb_subtype@@YAPAVClaireType@@PAVsubtype@@PAV1@@Z 0040d0f0 f   Core:types.obj
 0001:0000c410       ?glb_tuple@@YAPAVClaireType@@PAVtuple@@PAV1@@Z 0040d410 f   Core:types.obj
 0001:0000c650       ?glb_Reference@@YAPAVClaireType@@PAVReference@@PAV1@@Z 0040d650 f   Core:types.obj
 0001:0000c660       ?_exp_type@@YAPAVClaireType@@PAV1@0@Z 0040d660 f   Core:types.obj
 0001:0000c6a0       ?join_class@@YAPAVClaireType@@PAVClaireClass@@0@Z 0040d6a0 f   Core:types.obj
 0001:0000c700       ?_exp_list@@YAPAVlist@@PAV1@0@Z 0040d700 f   Core:types.obj
 0001:0000c820       ?Uall_list@@YAPAVClaireType@@PAVlist@@@Z 0040d820 f   Core:types.obj
 0001:0000c8d0       ?_inf_equalt_bag2@@YAPAVClaireBoolean@@PAVbag@@PAVClaireType@@@Z 0040d8d0 f   Core:types.obj
 0001:0000c9e0       ?_inf_equalt_class@@YAPAVClaireBoolean@@PAVClaireClass@@PAVClaireType@@@Z 0040d9e0 f   Core:types.obj
 0001:0000cd20       ?_inf_equalt_Union@@YAPAVClaireBoolean@@PAVUnion@@PAVClaireType@@@Z 0040dd20 f   Core:types.obj
 0001:0000ce90       ?_inf_equalt_Interval@@YAPAVClaireBoolean@@PAVInterval@@PAVClaireType@@@Z 0040de90 f   Core:types.obj
 0001:0000d0b0       ?_inf_equalt_subtype@@YAPAVClaireBoolean@@PAVsubtype@@PAVClaireType@@@Z 0040e0b0 f   Core:types.obj
 0001:0000d240       ?_inf_equalt_Param@@YAPAVClaireBoolean@@PAVParam@@PAVClaireType@@@Z 0040e240 f   Core:types.obj
 0001:0000d3d0       ?_inf_equalt_Reference@@YAPAVClaireBoolean@@PAVReference@@PAVClaireType@@@Z 0040e3d0 f   Core:types.obj
 0001:0000d3e0       ?_inf_equalt_tuple@@YAPAVClaireBoolean@@PAVtuple@@PAVClaireType@@@Z 0040e3e0 f   Core:types.obj
 0001:0000d720       ?_inf_equalt_type@@YAPAVClaireBoolean@@PAVClaireType@@0@Z 0040e720 f   Core:types.obj
 0001:0000dab0       ?_inf_equal_type@@YAPAVClaireBoolean@@PAVClaireType@@0@Z 0040eab0 f   Core:types.obj
 0001:0000db00       ?member_type@@YAPAVClaireType@@PAV1@@Z 0040eb00 f   Core:types.obj
 0001:0000dea0       ?of_extract_type@@YAPAVClaireType@@PAV1@@Z 0040eea0 f   Core:types.obj
 0001:0000df50       ?_at_type@@YAPAVClaireType@@PAV1@PAVproperty@@@Z 0040ef50 f   Core:types.obj
 0001:0000e1f0       ?unique_ask_type@@YAPAVClaireBoolean@@PAVClaireType@@@Z 0040f1f0 f   Core:types.obj
 0001:0000e270       ?the_type@@YAHPAVClaireType@@@Z 0040f270 f   Core:types.obj
 0001:0000e2b0       ?integer_I_set@@YAHPAVset@@@Z 0040f2b0 f   Core:types.obj
 0001:0000e300       ?make_set_integer@@YAPAVset@@H@Z 0040f300 f   Core:types.obj
 0001:0000e3d0       ?abstract_type_set@@YAPAVClaireType@@PAVset@@@Z 0040f3d0 f   Core:types.obj
 0001:0000e4e0       ?abstract_type_operation@@YAPAVClaireType@@PAVoperation@@PAV1@1@Z 0040f4e0 f   Core:types.obj
 0001:0000e790       ?first_arg_type_type@@YAPAVClaireType@@PAV1@0@Z 0040f790 f   Core:types.obj
 0001:0000e7a0       ?first_arg_type_type2@@YAPAVClaireType@@PAV1@00@Z 0040f7a0 f   Core:types.obj
 0001:0000e7b0       ?second_arg_type_type@@YAPAVClaireType@@PAV1@0@Z 0040f7b0 f   Core:types.obj
 0001:0000e7c0       ?meet_arg_types_type@@YAPAVClaireType@@PAV1@0@Z 0040f7c0 f   Core:types.obj
 0001:0000e7e0       ?nth_get_array_type@@YAPAVClaireType@@PAV1@0@Z 0040f7e0 f   Core:types.obj
 0001:0000e7f0       ?nth_array@@YAHPAHH@Z      0040f7f0 f   Core:types.obj
 0001:0000e870       ?nth_array_type@@YAPAVClaireType@@PAV1@0@Z 0040f870 f   Core:types.obj
 0001:0000e880       ?make_array_integer_type@@YAPAVClaireType@@PAV1@00@Z 0040f880 f   Core:types.obj
 0001:0000e950       ?make_list_integer2@@YAPAVlist@@HPAVClaireType@@H@Z 0040f950 f   Core:types.obj
 0001:0000e980       ?make_list_integer2_type@@YAPAVClaireType@@PAV1@00@Z 0040f980 f   Core:types.obj
 0001:0000ea50       ?make_set_array@@YAPAVset@@PAH@Z 0040fa50 f   Core:types.obj
 0001:0000eb00       ?make_set_array_type@@YAPAVClaireType@@PAV1@@Z 0040fb00 f   Core:types.obj
 0001:0000ec50       ?list_I_array_type@@YAPAVClaireType@@PAV1@@Z 0040fc50 f   Core:types.obj
 0001:0000eda0       ?array_I_list_type@@YAPAVClaireType@@PAV1@@Z 0040fda0 f   Core:types.obj
 0001:0000eef0       ?set_I_bag_type@@YAPAVClaireType@@PAV1@@Z 0040fef0 f   Core:types.obj
 0001:0000f040       ?list_I_set_type@@YAPAVClaireType@@PAV1@@Z 00410040 f   Core:types.obj
 0001:0000f190       ?print_in_string_void@@YAXXZ 00410190 f   Core:function.obj
 0001:0000f240       ?end_of_print_void@@YAPADXZ 00410240 f   Core:function.obj
 0001:0000f280       ?buffer_length_void@@YAHXZ 00410280 f   Core:function.obj
 0001:0000f2a0       ?buffer_set_length_integer@@YAXH@Z 004102a0 f   Core:function.obj
 0001:0000f2c0       ?apply_self_print_any@@YAXH@Z 004102c0 f   Core:function.obj
 0001:0000f610       ?self_print_any_Core@@YAXH@Z 00410610 f   Core:function.obj
 0001:0000f680       ?self_print_boolean_Core@@YAXPAVClaireBoolean@@@Z 00410680 f   Core:function.obj
 0001:0000f6b0       ?self_print_function_Core@@YAXPAVClaireFunction@@@Z 004106b0 f   Core:function.obj
 0001:0000f6e0       ?self_print_restriction_Core@@YAXPAVrestriction@@@Z 004106e0 f   Core:function.obj
 0001:0000f810       ?print_any@@YAXH@Z         00410810 f   Core:function.obj
 0001:0000f9e0       ?short_enough_integer@@YAPAVClaireBoolean@@H@Z 004109e0 f   Core:function.obj
 0001:0000fa00       ?complete_I_object@@YAPAVClaireObject@@PAV1@@Z 00410a00 f   Core:function.obj
 0001:0000fd40       ?not_any@@YAPAVClaireBoolean@@H@Z 00410d40 f   Core:function.obj
 0001:0000fd80       ?_I_equal_any@@YAPAVClaireBoolean@@HH@Z 00410d80 f   Core:function.obj
 0001:0000fdb0       ?owner_any@@YAPAVClaireClass@@H@Z 00410db0 f   Core:function.obj
 0001:0000fde0       ?known_ask_any@@YAPAVClaireBoolean@@H@Z 00410de0 f   Core:function.obj
 0001:0000fe00       ?unknown_ask_any@@YAPAVClaireBoolean@@H@Z 00410e00 f   Core:function.obj
 0001:0000fe20       ?check_in_any@@YAHHPAVClaireType@@@Z 00410e20 f   Core:function.obj
 0001:0000fec0       ?check_in_bag@@YAPAVbag@@PAV1@PAVClaireClass@@PAVClaireType@@@Z 00410ec0 f   Core:function.obj
 0001:0000ffd0       ?_inf_any@@YAPAVClaireBoolean@@HH@Z 00410fd0 f   Core:function.obj
 0001:00010020       ?_sup_any@@YAPAVClaireBoolean@@HH@Z 00411020 f   Core:function.obj
 0001:00010070       ?ephemeral_class@@YAHPAVClaireClass@@@Z 00411070 f   Core:function.obj
 0001:00010160       ?abstract_class@@YAHPAVClaireClass@@@Z 00411160 f   Core:function.obj
 0001:00010210       ?final_class@@YAHPAVClaireClass@@@Z 00411210 f   Core:function.obj
 0001:000102c0       ?new_class1@@YAPAVClaireObject@@PAVClaireClass@@@Z 004112c0 f   Core:function.obj
 0001:00010400       ?new_class1_type@@YAPAVClaireType@@PAV1@@Z 00411400 f   Core:function.obj
 0001:000104b0       ?new_class2@@YAPAVthing@@PAVClaireClass@@PAVsymbol@@@Z 004114b0 f   Core:function.obj
 0001:00010530       ?new_class2_type@@YAPAVClaireType@@PAV1@0@Z 00411530 f   Core:function.obj
 0001:000105e0       ?new_object_class_type@@YAPAVClaireType@@PAV1@@Z 004115e0 f   Core:function.obj
 0001:00010690       ?new_thing_class_type@@YAPAVClaireType@@PAV1@0@Z 00411690 f   Core:function.obj
 0001:00010740       ?meet_class@@YAPAVClaireClass@@PAV1@0@Z 00411740 f   Core:function.obj
 0001:000107c0       ?inherit_ask_class@@YAPAVClaireBoolean@@PAVClaireClass@@0@Z 004117c0 f   Core:function.obj
 0001:00010800       ?abstract_property@@YAHPAVproperty@@@Z 00411800 f   Core:function.obj
 0001:000108a0       ?final_relation@@YAXPAVClaireRelation@@@Z 004118a0 f   Core:function.obj
 0001:00010a30       ?close_module@@YAPAVmodule@@PAV1@@Z 00411a30 f   Core:function.obj
 0001:00010c10       ?get_symbol_string@@YAHPAD@Z 00411c10 f   Core:function.obj
 0001:00010c30       ?gensym_void@@YAPAVsymbol@@XZ 00411c30 f   Core:function.obj
 0001:00010c40       ?store_list4@@YAHPAVlist@@HH@Z 00411c40 f   Core:function.obj
 0001:00010cf0       ?store_array1@@YAHPAHHH@Z  00411cf0 f   Core:function.obj
 0001:00010d10       ?commit_integer@@YAXH@Z    00411d10 f   Core:function.obj
 0001:00010d30       ?backtrack_integer@@YAXH@Z 00411d30 f   Core:function.obj
 0001:00010d50       ?store_listargs@@YAHPAVlistargs@@@Z 00411d50 f   Core:function.obj
 0001:00010ef0       ?symbol_I_string2@@YAPAVsymbol@@PAD@Z 00411ef0 f   Core:function.obj
 0001:00010f10       ?externC_string@@YAXPAD@Z  00411f10 f   Core:function.obj
 0001:00010f70       ?externC_string2@@YAHPADPAVClaireClass@@@Z 00411f70 f   Core:function.obj
 0001:00010fe0       ?externC_string2_type@@YAPAVClaireType@@PAV1@0@Z 00411fe0 f   Core:function.obj
 0001:00010ff0       ?nth_get_string@@YAPAVClaireChar@@PADHH@Z 00411ff0 f   Core:function.obj
 0001:00011060       ?nth_put_string@@YAXPADHPAVClaireChar@@H@Z 00412060 f   Core:function.obj
 0001:000110c0       ?make_string_symbol@@YAPADPAVsymbol@@@Z 004120c0 f   Core:function.obj
 0001:000110e0       ?self_print_symbol_Core@@YAHPAVsymbol@@@Z 004120e0 f   Core:function.obj
 0001:00011140       ?_plus_integer@@YAHHH@Z    00412140 f   Core:function.obj
 0001:00011170       ?_plus_integer_type@@YAPAVClaireType@@PAV1@0@Z 00412170 f   Core:function.obj
 0001:00011190       ?_dash_integer1@@YAHHH@Z   00412190 f   Core:function.obj
 0001:000111a0       ?_dash_integer1_type@@YAPAVClaireType@@PAV1@0@Z 004121a0 f   Core:function.obj
 0001:000111c0       ?_inf_inf_integer@@YAHHH@Z 004121c0 f   Core:function.obj
 0001:000111d0       ?_sup_sup_integer@@YAHHH@Z 004121d0 f   Core:function.obj
 0001:000111e0       ?and_integer@@YAHHH@Z      004121e0 f   Core:function.obj
 0001:000111f0       ?or_integer@@YAHHH@Z       004121f0 f   Core:function.obj
 0001:00011200       ?_inf_integer@@YAPAVClaireBoolean@@HH@Z 00412200 f   Core:function.obj
 0001:00011220       ?_inf_equal_integer@@YAPAVClaireBoolean@@HH@Z 00412220 f   Core:function.obj
 0001:00011240       ?_sup_integer@@YAPAVClaireBoolean@@HH@Z 00412240 f   Core:function.obj
 0001:00011260       ?nth_integer@@YAPAVClaireBoolean@@HH@Z 00412260 f   Core:function.obj
 0001:00011280       ?factor_ask_integer@@YAPAVClaireBoolean@@HH@Z 00412280 f   Core:function.obj
 0001:000112a0       ?divide_ask_integer@@YAPAVClaireBoolean@@HH@Z 004122a0 f   Core:function.obj
 0001:000112c0       ?Id_any@@YAHH@Z            004122c0 f   Core:function.obj
 0001:000112d0       ?Id_any_type@@YAPAVClaireType@@PAV1@@Z 004122d0 f   Core:function.obj
 0001:000112e0       ?pair_any@@YAPAVlist@@HH@Z 004122e0 f   Core:function.obj
 0001:00011300       ?pair_1_list@@YAHPAVlist@@@Z 00412300 f   Core:function.obj
 0001:00011310       ?pair_1_list_type@@YAPAVClaireType@@PAV1@@Z 00412310 f   Core:function.obj
 0001:00011320       ?pair_2_list@@YAHPAVlist@@@Z 00412320 f   Core:function.obj
 0001:00011330       ?pair_2_list_type@@YAPAVClaireType@@PAV1@@Z 00412330 f   Core:function.obj
 0001:00011340       ?_plus_float_@@YAHHH@Z     00412340 f   Core:function.obj
 0001:000113f0       ?_plus_float@@YANNN@Z      004123f0 f   Core:function.obj
 0001:00011400       ?_dash_float_@@YAHHH@Z     00412400 f   Core:function.obj
 0001:000114b0       ?_dash_float@@YANNN@Z      004124b0 f   Core:function.obj
 0001:000114c0       ?_star_float_@@YAHHH@Z     004124c0 f   Core:function.obj
 0001:00011570       ?_star_float@@YANNN@Z      00412570 f   Core:function.obj
 0001:00011580       ?_7_float_@@YAHHH@Z        00412580 f   Core:function.obj
 0001:00011630       ?_7_float@@YANNN@Z         00412630 f   Core:function.obj
 0001:00011640       ?_dash_float2_@@YAHH@Z     00412640 f   Core:function.obj
 0001:000116e0       ?_dash_float2@@YANN@Z      004126e0 f   Core:function.obj
 0001:000116f0       ?sqrt_float_@@YAHH@Z       004126f0 f   Core:function.obj
 0001:00011790       ?sqrt_float@@YANN@Z        00412790 f   Core:function.obj
 0001:000117a0       ?_exp_float_@@YAHHH@Z      004127a0 f   Core:function.obj
 0001:00011850       ?_exp_float@@YANNN@Z       00412850 f   Core:function.obj
 0001:00011860       ?log_float_@@YAHH@Z        00412860 f   Core:function.obj
 0001:00011900       ?log_float@@YANN@Z         00412900 f   Core:function.obj
 0001:00011910       ?atan_float_@@YAHH@Z       00412910 f   Core:function.obj
 0001:000119b0       ?atan_float@@YANN@Z        004129b0 f   Core:function.obj
 0001:000119c0       ?string_I_float_@@YAPADH@Z 004129c0 f   Core:function.obj
 0001:000119f0       ?string_I_float@@YAPADN@Z  004129f0 f   Core:function.obj
 0001:00011a10       ?length_bag@@YAHPAVbag@@@Z 00412a10 f   Core:function.obj
 0001:00011a20       ?nth_bag@@YAHPAVbag@@H@Z   00412a20 f   Core:function.obj
 0001:00011aa0       ?nth_bag_type@@YAPAVClaireType@@PAV1@0@Z 00412aa0 f   Core:function.obj
 0001:00011ab0       ?nth_get_bag@@YAHPAVbag@@H@Z 00412ab0 f   Core:function.obj
 0001:00011ac0       ?min_method@@YAHPAVmethod@@PAVbag@@@Z 00412ac0 f   Core:function.obj
 0001:00011b60       ?min_method_type@@YAPAVClaireType@@PAV1@0@Z 00412b60 f   Core:function.obj
 0001:00011b70       ?max_method@@YAHPAVmethod@@PAVbag@@@Z 00412b70 f   Core:function.obj
 0001:00011c10       ?max_method_type@@YAPAVClaireType@@PAV1@0@Z 00412c10 f   Core:function.obj
 0001:00011c20       ?_7_plus_bag@@YAPAVlist@@PAVbag@@0@Z 00412c20 f   Core:function.obj
 0001:00011da0       ?last_list@@YAHPAVlist@@@Z 00412da0 f   Core:function.obj
 0001:00011e00       ?last_list_type@@YAPAVClaireType@@PAV1@@Z 00412e00 f   Core:function.obj
 0001:00011e10       ?rmlast_list@@YAPAVlist@@PAV1@@Z 00412e10 f   Core:function.obj
 0001:00011e30       ?nth_set_list@@YAHPAVlist@@HH@Z 00412e30 f   Core:function.obj
 0001:00011f20       ?car_list@@YAHPAVlist@@@Z  00412f20 f   Core:function.obj
 0001:00011f80       ?hashlist_integer@@YAPAVlist@@H@Z 00412f80 f   Core:function.obj
 0001:00012050       ?hashsize_list@@YAHPAVlist@@@Z 00413050 f   Core:function.obj
 0001:00012090       ?sort_method@@YAPAVlist@@PAVmethod@@PAV1@@Z 00413090 f   Core:function.obj
 0001:000120b0       ?quicksort_list@@YAXPAVlist@@PAVmethod@@HH@Z 004130b0 f   Core:function.obj
 0001:000121c0       ?build_powerset_list@@YAPAVset@@PAVlist@@@Z 004131c0 f   Core:function.obj
 0001:00012340       ?make_copy_list_integer@@YAPAVlist@@HH@Z 00413340 f   Core:function.obj
 0001:000124b0       ?difference_set@@YAPAVset@@PAV1@0@Z 004134b0 f   Core:function.obj
 0001:000125a0       ?nth_equal_array@@YAXPAHHH@Z 004135a0 f   Core:function.obj
 0001:00012690       ?self_print_array_Core@@YAHPAH@Z 00413690 f   Core:function.obj
 0001:000126e0       ?self_print_char_Core@@YAHPAVClaireChar@@@Z 004136e0 f   Core:function.obj
 0001:00012710       ?_inf_equal_char@@YAPAVClaireBoolean@@PAVClaireChar@@0@Z 00413710 f   Core:function.obj
 0001:00012730       ?release_void@@YAHXZ       00413730 f   Core:object.obj
 0001:00012770       ?about_void@@YAHXZ         00413770 f   Core:object.obj
 0001:000128e0       ?get_args_integer@@YAPAVlist@@H@Z 004138e0 f   Core:object.obj
 0001:00012990       ?funcall_method1@@YAHPAVmethod@@H@Z 00413990 f   Core:object.obj
 0001:000129d0       ?funcall_method2@@YAHPAVmethod@@HH@Z 004139d0 f   Core:object.obj
 0001:00012a30       ?funcall_method3@@YAHPAVmethod@@HHH@Z 00413a30 f   Core:object.obj
 0001:00012ac0       ?apply_function@@YAHPAVClaireFunction@@PAVlist@@1@Z 00413ac0 f   Core:object.obj
 0001:00012b30       ?call_property@@YAHPAVproperty@@PAVlistargs@@@Z 00413b30 f   Core:object.obj
 0001:00012b50       ?apply_property@@YAHPAVproperty@@PAVlist@@@Z 00413b50 f   Core:object.obj
 0001:00012c00       ?apply_method@@YAHPAVmethod@@PAVlist@@@Z 00413c00 f   Core:object.obj
 0001:00012c70       ?push_debug_property@@YAXPAVproperty@@HH@Z 00413c70 f   Core:object.obj
 0001:000132b0       ?pop_debug_property@@YAXPAVproperty@@HH@Z 004142b0 f   Core:object.obj
 0001:000134c0       ?tr_indent_boolean@@YAXPAVClaireBoolean@@H@Z 004144c0 f   Core:object.obj
 0001:00013550       ?identified_ask_class@@YAPAVClaireBoolean@@PAVClaireClass@@@Z 00414550 f   Core:object.obj
 0001:000135e0       ?identical_ask_any@@YAPAVClaireBoolean@@HH@Z 004145e0 f   Core:object.obj
 0001:00013600       ?put_property2@@YAHPAVproperty@@PAVClaireObject@@H@Z 00414600 f   Core:object.obj
 0001:00013750       ?add_value_property3@@YAXPAVproperty@@PAVClaireObject@@H@Z 00414750 f   Core:object.obj
 0001:00013950       ?nth_table1@@YAHPAVtable@@H@Z 00414950 f   Core:object.obj
 0001:00013ba0       ?nth_table1_type@@YAPAVClaireType@@PAV1@0@Z 00414ba0 f   Core:object.obj
 0001:00013c70       ?get_table@@YAHPAVtable@@H@Z 00414c70 f   Core:object.obj
 0001:00013cc0       ?get_table_type@@YAPAVClaireType@@PAV1@0@Z 00414cc0 f   Core:object.obj
 0001:00013dc0       ?nth_equal_table1@@YAXPAVtable@@HH@Z 00414dc0 f   Core:object.obj
 0001:00013ec0       ?nth_put_table@@YAXPAVtable@@HH@Z 00414ec0 f   Core:object.obj
 0001:000141e0       ?put_table@@YAXPAVtable@@HH@Z 004151e0 f   Core:object.obj
 0001:00014360       ?add_table@@YAXPAVtable@@HH@Z 00415360 f   Core:object.obj
 0001:00014470       ?add_I_table@@YAXPAVtable@@HH@Z 00415470 f   Core:object.obj
 0001:000144f0       ?add_value_array@@YAPAVClaireBoolean@@PAVtable@@HPAVbag@@H@Z 004154f0 f   Core:object.obj
 0001:00014680       ?add_value_table3@@YAXPAVtable@@HH@Z 00415680 f   Core:object.obj
 0001:000146c0       ?delete_table@@YAHPAVtable@@HH@Z 004156c0 f   Core:object.obj
 0001:00014770       ?nth_table2@@YAHPAVtable@@HH@Z 00415770 f   Core:object.obj
 0001:00014960       ?nth_table2_type@@YAPAVClaireType@@PAV1@00@Z 00415960 f   Core:object.obj
 0001:00014a30       ?nth_equal_table2@@YAXPAVtable@@HHH@Z 00415a30 f   Core:object.obj
 0001:00014c70       ?get_index_table1@@YAHPAVtable@@H@Z 00415c70 f   Core:object.obj
 0001:00014d90       ?get_index_table2@@YAHPAVtable@@HH@Z 00415d90 f   Core:object.obj
 0001:00014dc0       ?erase_table@@YAHPAVtable@@@Z 00415dc0 f   Core:object.obj
 0001:00015090       ?make_table_type@@YAPAVtable@@PAVClaireType@@0H@Z 00416090 f   Core:object.obj
 0001:000150f0       ?funcall_lambda1@@YAHPAVlambda@@H@Z 004160f0 f   Core:object.obj
 0001:00015210       ?funcall_lambda2@@YAHPAVlambda@@HH@Z 00416210 f   Core:object.obj
 0001:00015350       ?funcall_lambda3@@YAHPAVlambda@@HHH@Z 00416350 f   Core:object.obj
 0001:000154b0       ?check_inverse_any@@YAXHH@Z 004164b0 f   Core:object.obj
 0001:00015680       ?invert_relation@@YAPAVbag@@PAVClaireRelation@@H@Z 00416680 f   Core:object.obj
 0001:00015c50       ?domain_I_restriction@@YAPAVClaireClass@@PAVrestriction@@@Z 00416c50 f   Core:object.obj
 0001:00015c80       ?methods_class@@YAPAVset@@PAVClaireClass@@0@Z 00416c80 f   Core:object.obj
 0001:00015dd0       ?reify_listargs@@YAHPAVlistargs@@@Z 00416dd0 f   Core:object.obj
 0001:00015eb0       ?self_print_general_error_Core@@YAXPAVgeneral_error@@@Z 00416eb0 f   Core:object.obj
 0001:00015f90       ?self_print_read_slot_error_Core@@YAXPAVread_slot_error@@@Z 00416f90 f   Core:object.obj
 0001:00016060       ?self_print_range_error_Core@@YAXPAVrange_error@@@Z 00417060 f   Core:object.obj
 0001:00016150       ?self_print_selector_error_Core@@YAXPAVselector_error@@@Z 00417150 f   Core:object.obj
 0001:00016280       ?self_print_return_error_Core@@YAXPAVreturn_error@@@Z 00417280 f   Core:object.obj
 0001:00016290       ?self_print_system_error_Core@@YAXPAVsystem_error@@@Z 00417290 f   Core:object.obj
 0001:00016590       ?self_print_contradiction_Core@@YAXPAVcontradiction@@@Z 00417590 f   Core:object.obj
 0001:000165a0       ?format_string@@YAXPADPAVlist@@@Z 004175a0 f   Core:object.obj
 0001:00016750       ?tformat_string@@YAHPADHPAVlist@@@Z 00417750 f   Core:object.obj
 0001:000167a0       ?princ_bag@@YAXPAVbag@@@Z  004177a0 f   Core:object.obj
 0001:00016800       ?close_global_variable@@YAPAVglobal_variable@@PAV1@@Z 00417800 f   Core:object.obj
 0001:00016880       ?contradiction_I_void@@YAXXZ 00417880 f   Core:object.obj
 0001:000168a0       ?eval_message_property@@YAHPAVproperty@@PAVClaireObject@@HPAVClaireBoolean@@@Z 004178a0 f   Core:method.obj
 0001:00016ad0       ?noeval_message_property2@@YAHPAVproperty@@H@Z 00417ad0 f   Core:method.obj
 0001:00016bd0       ?execute_method@@YAHPAVmethod@@HPAVClaireBoolean@@@Z 00417bd0 f   Core:method.obj
 0001:00016e60       ?eval_any@@YAHH@Z          00417e60 f   Core:method.obj
 0001:00016ea0       ?self_eval_ClaireObject@@YAHPAVClaireObject@@@Z 00417ea0 f   Core:method.obj
 0001:00016ec0       ?inlineok_ask_method@@YAPAVmethod@@PAV1@PAD@Z 00417ec0 f   Core:method.obj
 0001:00017090       ?get_slot@@YAHPAVslot@@PAVClaireObject@@@Z 00418090 f   Core:method.obj
 0001:000170b0       ?put_slot@@YAHPAVslot@@PAVClaireObject@@H@Z 004180b0 f   Core:method.obj
 0001:000170e0       ?get_property@@YAHPAVproperty@@PAVClaireObject@@@Z 004180e0 f   Core:method.obj
 0001:000171e0       ?funcall_property@@YAHPAVproperty@@H@Z 004181e0 f   Core:method.obj
 0001:000172f0       ?read_property@@YAHPAVproperty@@PAVClaireObject@@@Z 004182f0 f   Core:method.obj
 0001:00017460       ?hold_ask_property@@YAPAVClaireBoolean@@PAVproperty@@PAVClaireObject@@H@Z 00418460 f   Core:method.obj
 0001:000175b0       ?write_property@@YAXPAVproperty@@PAVClaireObject@@H@Z 004185b0 f   Core:method.obj
 0001:00017800       ?range_is_wrong_slot@@YAHPAVslot@@H@Z 00418800 f   Core:method.obj
 0001:00017850       ?put_property1@@YAXPAVproperty@@PAVClaireObject@@HPAVClaireClass@@H@Z 00418850 f   Core:method.obj
 0001:00017890       ?update_property@@YAXPAVproperty@@PAVClaireObject@@HPAVClaireClass@@H@Z 00418890 f   Core:method.obj
 0001:00017ac0       ?update_plus_relation@@YAXPAVClaireRelation@@HH@Z 00418ac0 f   Core:method.obj
 0001:00017d80       ?update_dash_relation@@YAXPAVClaireRelation@@HH@Z 00418d80 f   Core:method.obj
 0001:000180b0       ?add_I_property@@YAXPAVproperty@@PAVClaireObject@@HH@Z 004190b0 f   Core:method.obj
 0001:00018150       ?add_value_property@@YAPAVClaireBoolean@@PAVproperty@@PAVClaireObject@@HPAVbag@@H@Z 00419150 f   Core:method.obj
 0001:000182d0       ?add_property@@YAXPAVproperty@@PAVClaireObject@@H@Z 004192d0 f   Core:method.obj
 0001:00018510       ?known_ask_property@@YAPAVClaireBoolean@@PAVproperty@@PAVClaireObject@@@Z 00419510 f   Core:method.obj
 0001:00018620       ?unknown_ask_property@@YAPAVClaireBoolean@@PAVproperty@@PAVClaireObject@@@Z 00419620 f   Core:method.obj
 0001:00018730       ?delete_property@@YAHPAVproperty@@PAVClaireObject@@H@Z 00419730 f   Core:method.obj
 0001:00018930       ?erase_property@@YAHPAVproperty@@PAVClaireObject@@@Z 00419930 f   Core:method.obj
 0001:00018c80       ?set_range_property@@YAXPAVproperty@@PAVClaireClass@@PAVClaireType@@@Z 00419c80 f   Core:method.obj
 0001:00018cb0       ?put_store_property2@@YAXPAVproperty@@PAVClaireObject@@HPAVClaireBoolean@@@Z 00419cb0 f   Core:method.obj
 0001:00018e20       ?multi_ask_any@@YAPAVClaireBoolean@@H@Z 00419e20 f   Core:method.obj
 0001:00018ed0       ?fastcall_relation2@@YAXPAVClaireRelation@@HH@Z 00419ed0 f   Core:method.obj
 0001:00019100       ?insert_definition_property@@YAXPAVproperty@@PAVrestriction@@@Z 0041a100 f   Core:method.obj
 0001:00019190       ?initialize_restriction1@@YAPAVlist@@PAVrestriction@@PAVClaireClass@@PAV1@@Z 0041a190 f   Core:method.obj
 0001:000195b0       ?uniform_restriction@@YAPAVClaireBoolean@@PAVrestriction@@@Z 0041a5b0 f   Core:method.obj
 0001:00019740       ?uniform_property@@YAPAVClaireBoolean@@PAVproperty@@@Z 0041a740 f   Core:method.obj
 0001:000197f0       ?initialize_restriction2@@YAPAVlist@@PAVrestriction@@PAV1@@Z 0041a7f0 f   Core:method.obj
 0001:00019950       ?hashinsert_restriction@@YAHPAVrestriction@@@Z 0041a950 f   Core:method.obj
 0001:00019a00       ?hashinsert_class@@YAHPAVClaireClass@@PAVmethod@@@Z 0041aa00 f   Core:method.obj
 0001:00019a50       ?hashinsert_list@@YAHPAVlist@@PAVmethod@@@Z 0041aa50 f   Core:method.obj
 0001:00019c90       ?hashget_class@@YAPAVClaireObject@@PAVClaireClass@@PAVproperty@@@Z 0041ac90 f   Core:method.obj
 0001:00019d20       ?join_list@@YAPAVClaireBoolean@@PAVlist@@0@Z 0041ad20 f   Core:method.obj
 0001:00019e90       ?_at_property1@@YAPAVClaireObject@@PAVproperty@@PAVClaireClass@@@Z 0041ae90 f   Core:method.obj
 0001:0001a080       ?_at_property2@@YAPAVClaireObject@@PAVproperty@@PAVlist@@@Z 0041b080 f   Core:method.obj
 0001:0001a190       ?matching_ask_list@@YAPAVClaireBoolean@@PAVlist@@HH@Z 0041b190 f   Core:method.obj
 0001:0001a470       ?vmatch_ask_any@@YAPAVClaireBoolean@@HHH@Z 0041b470 f   Core:method.obj
 0001:0001aa80       ?tmatch_ask_list@@YAPAVClaireBoolean@@PAVlist@@0@Z 0041ba80 f   Core:method.obj
 0001:0001ab70       ?tmatch_ask_any@@YAPAVClaireBoolean@@HHPAVlist@@@Z 0041bb70 f   Core:method.obj
 0001:0001b240       ?find_which_property@@YAPAVClaireObject@@PAVproperty@@HPAVClaireClass@@@Z 0041c240 f   Core:method.obj
 0001:0001b300       ?find_which_list@@YAPAVClaireObject@@PAVlist@@PAVClaireClass@@HH@Z 0041c300 f   Core:method.obj
 0001:0001b390       ?find_which_class@@YAPAVClaireObject@@PAVClaireClass@@PAVlist@@HH@Z 0041c390 f   Core:method.obj
 0001:0001b470       ?metaLoad@LanguageClass@@QAEXXZ 0041c470 f   Language:Language.obj
 0001:0001f960       ?self_print_Definition_Language@@YAHPAVDefinition@@@Z 00420960 f   Language:define.obj
 0001:0001fa30       ?self_print_Defobj_Language@@YAXPAVDefobj@@@Z 00420a30 f   Language:define.obj
 0001:0001fc60       ?self_print_Defclass_Language@@YAXPAVDefclass@@@Z 00420c60 f   Language:define.obj
 0001:0001fec0       ?self_print_Defmethod_Language@@YAXPAVDefmethod@@@Z 00420ec0 f   Language:define.obj
 0001:00020030       ?self_print_Defarray_Language@@YAXPAVDefarray@@@Z 00421030 f   Language:define.obj
 0001:00020160       ?self_print_Defrule_Language@@YAXPAVDefrule@@@Z 00421160 f   Language:define.obj
 0001:00020280       ?self_print_Defvar_Language@@YAXPAVDefvar@@@Z 00421280 f   Language:define.obj
 0001:00020350       ?self_eval_Definition@@YAHPAVDefinition@@@Z 00421350 f   Language:define.obj
 0001:000204a0       ?complete_object@@YAHPAVClaireObject@@PAVlist@@@Z 004214a0 f   Language:define.obj
 0001:00020690       ?self_eval_Defobj@@YAHPAVDefobj@@@Z 00421690 f   Language:define.obj
 0001:00020830       ?self_eval_Defclass@@YAHPAVDefclass@@@Z 00421830 f   Language:define.obj
 0001:00020e20       ?self_eval_Defmethod@@YAHPAVDefmethod@@@Z 00421e20 f   Language:define.obj
 0001:00021350       ?attach_comment_any@@YAXH@Z 00422350 f   Language:define.obj
 0001:00021440       ?extract_signature_list@@YAPAVlist@@PAV1@@Z 00422440 f   Language:define.obj
 0001:000216b0       ?extract_pattern_any@@YAHHPAVlist@@@Z 004226b0 f   Language:define.obj
 0001:00021fe0       ?extract_type_any@@YAPAVClaireType@@H@Z 00422fe0 f   Language:define.obj
 0001:00022110       ?extract_item_any@@YAHHH@Z 00423110 f   Language:define.obj
 0001:000223a0       ?extract_pattern_nth_list@@YAHPAVlist@@0@Z 004233a0 f   Language:define.obj
 0001:00022a50       ?extract_class_call_class@@YAPAVClaireObject@@PAVClaireClass@@PAVlist@@@Z 00423a50 f   Language:define.obj
 0001:000234d0       ?extract_range_any@@YAPAVlist@@HPAV1@0@Z 004244d0 f   Language:define.obj
 0001:00023be0       ?bit_vector_listargs2@@YAHPAVlistargs@@@Z 00424be0 f   Language:define.obj
 0001:00023c20       ?extract_status_any@@YAPAVlist@@H@Z 00424c20 f   Language:define.obj
 0001:000241b0       ?type_I_any@@YAPAVClaireType@@H@Z 004251b0 f   Language:define.obj
 0001:00024470       ?self_eval_Defarray@@YAHPAVDefarray@@@Z 00425470 f   Language:define.obj
 0001:00024df0       ?self_print_demon@@YAXPAVdemon@@@Z 00425df0 f   Language:define.obj
 0001:00024e00       ?funcall_demon1@@YAHPAVdemon@@HH@Z 00425e00 f   Language:define.obj
 0001:00024ec0       ?funcall_demon2@@YAHPAVdemon@@HHH@Z 00425ec0 f   Language:define.obj
 0001:00024f90       ?self_eval_Defrule@@YAHPAVDefrule@@@Z 00425f90 f   Language:define.obj
 0001:000252c0       ?eventMethod_ask_relation2@@YAPAVClaireBoolean@@PAVClaireRelation@@@Z 004262c0 f   Language:define.obj
 0001:00025370       ?make_filter_any_@@YAPAVtuple@@H@Z 00426370 f   Language:define.obj
 0001:00025390       ?make_filter_any@@YAPAVtuple@@H@Z 00426390 f   Language:define.obj
 0001:00025ee0       ?make_demon_relation@@YAPAVdemon@@PAVClaireRelation@@PAVsymbol@@PAVlist@@HH@Z 00426ee0 f   Language:define.obj
 0001:000265d0       ?readCall_relation@@YAPAVCall@@PAVClaireRelation@@H@Z 004275d0 f   Language:define.obj
 0001:00026750       ?putCall_relation2@@YAPAVCall@@PAVClaireRelation@@HH@Z 00427750 f   Language:define.obj
 0001:000268f0       ?eval_if_write_relation@@YAXPAVClaireRelation@@@Z 004278f0 f   Language:define.obj
 0001:000271f0       ?eventMethod_property@@YAXPAVproperty@@@Z 004281f0 f   Language:define.obj
 0001:00027280       ?interface_property@@YAXPAVproperty@@@Z 00428280 f   Language:define.obj
 0001:00027620       ?interface_class@@YAXPAVClaireClass@@PAVlistargs@@@Z 00428620 f   Language:define.obj
 0001:00027830       ?self_print_If_Language@@YAXPAVIf@@@Z 00428830 f   Language:control.obj
 0001:00027870       ?printstat_If@@YAXPAVIf@@@Z 00428870 f   Language:control.obj
 0001:00027960       ?printif_any@@YAXH@Z       00428960 f   Language:control.obj
 0001:00027ac0       ?printelse_If@@YAXPAVIf@@@Z 00428ac0 f   Language:control.obj
 0001:00027cc0       ?self_eval_If@@YAHPAVIf@@@Z 00428cc0 f   Language:control.obj
 0001:00027d80       ?self_print_Do_Language@@YAXPAVDo@@@Z 00428d80 f   Language:control.obj
 0001:00027e50       ?printdo_list@@YAXPAVlist@@PAVClaireBoolean@@@Z 00428e50 f   Language:control.obj
 0001:00027f60       ?printblock_any@@YAXH@Z    00428f60 f   Language:control.obj
 0001:00028100       ?self_eval_Do@@YAHPAVDo@@@Z 00429100 f   Language:control.obj
 0001:00028170       ?self_print_Let_Language@@YAXPAVLet@@@Z 00429170 f   Language:control.obj
 0001:00028270       ?printbody_Let@@YAXPAVLet@@@Z 00429270 f   Language:control.obj
 0001:00028420       ?self_eval_Let@@YAHPAVLet@@@Z 00429420 f   Language:control.obj
 0001:00028550       ?self_print_When_Language@@YAXPAVWhen@@@Z 00429550 f   Language:control.obj
 0001:000286b0       ?self_eval_When@@YAHPAVWhen@@@Z 004296b0 f   Language:control.obj
 0001:00028800       ?self_print_Let_plus_Language@@YAXPAVLet_plus@@@Z 00429800 f   Language:control.obj
 0001:00028970       ?self_print_Let_star_Language@@YAXPAVLet_star@@@Z 00429970 f   Language:control.obj
 0001:00028d50       ?self_print_For_Language@@YAXPAVFor@@@Z 00429d50 f   Language:control.obj
 0001:00028e70       ?self_eval_For@@YAHPAVFor@@@Z 00429e70 f   Language:control.obj
 0001:000294c0       ?self_print_Collect_Language@@YAXPAVCollect@@@Z 0042a4c0 f   Language:control.obj
 0001:000295f0       ?self_eval_Collect@@YAHPAVCollect@@@Z 0042a5f0 f   Language:control.obj
 0001:000299e0       ?self_print_Image_Language@@YAXPAVImage@@@Z 0042a9e0 f   Language:control.obj
 0001:00029b10       ?self_eval_Image@@YAHPAVImage@@@Z 0042ab10 f   Language:control.obj
 0001:00029d60       ?self_print_Select_Language@@YAXPAVSelect@@@Z 0042ad60 f   Language:control.obj
 0001:00029e80       ?self_eval_Select@@YAHPAVSelect@@@Z 0042ae80 f   Language:control.obj
 0001:0002a2c0       ?self_print_Lselect_Language@@YAXPAVLselect@@@Z 0042b2c0 f   Language:control.obj
 0001:0002a3e0       ?self_eval_Lselect@@YAHPAVLselect@@@Z 0042b3e0 f   Language:control.obj
 0001:0002a870       ?self_print_Exists_Language@@YAXPAVExists@@@Z 0042b870 f   Language:control.obj
 0001:0002aa20       ?self_eval_Exists@@YAHPAVExists@@@Z 0042ba20 f   Language:control.obj
 0001:0002adc0       ?self_print_Case_Language@@YAXPAVCase@@@Z 0042bdc0 f   Language:control.obj
 0001:0002af70       ?self_eval_Case@@YAHPAVCase@@@Z 0042bf70 f   Language:control.obj
 0001:0002b150       ?self_print_While_Language@@YAXPAVWhile@@@Z 0042c150 f   Language:control.obj
 0001:0002b260       ?self_eval_While@@YAHPAVWhile@@@Z 0042c260 f   Language:control.obj
 0001:0002b520       ?self_print_Handle_Language@@YAXPAVClaireHandle@@@Z 0042c520 f   Language:control.obj
 0001:0002b630       ?self_eval_Handle@@YAHPAVClaireHandle@@@Z 0042c630 f   Language:control.obj
 0001:0002b860       ?self_print_Construct_Language@@YAXPAVConstruct@@@Z 0042c860 f   Language:control.obj
 0001:0002bad0       ?self_eval_List@@YAHPAVList@@@Z 0042cad0 f   Language:control.obj
 0001:0002bcc0       ?self_eval_Set@@YAHPAVSet@@@Z 0042ccc0 f   Language:control.obj
 0001:0002beb0       ?self_eval_Tuple@@YAHPAVTuple@@@Z 0042ceb0 f   Language:control.obj
 0001:0002bfc0       ?self_eval_Array2@@YAHPAVArray@@@Z 0042cfc0 f   Language:control.obj
 0001:0002c1b0       ?self_eval_Macro2@@YAHPAVMacro@@@Z 0042d1b0 f   Language:control.obj
 0001:0002c270       ?self_eval_Error@@YAXPAVError@@@Z 0042d270 f   Language:control.obj
 0001:0002c460       ?self_eval_Printf@@YAHPAVPrintf@@@Z 0042d460 f   Language:control.obj
 0001:0002c840       ?self_eval_Trace@@YAHPAVTrace@@@Z 0042d840 f   Language:control.obj
 0001:0002cad0       ?self_eval_Assert@@YAHPAVAssert@@@Z 0042dad0 f   Language:control.obj
 0001:0002ccd0       ?self_eval_Branch@@YAHPAVBranch@@@Z 0042dcd0 f   Language:control.obj
 0001:0002ce70       ?self_print_Call_Language@@YAXPAVCall@@@Z 0042de70 f   Language:call.obj
 0001:0002d790       ?self_print_Call_plus_Language@@YAHPAVCall_plus@@@Z 0042e790 f   Language:call.obj
 0001:0002d7f0       ?self_eval_Call@@YAHPAVCall@@@Z 0042e7f0 f   Language:call.obj
 0001:0002d920       ?self_eval_Call_plus@@YAHPAVCall_plus@@@Z 0042e920 f   Language:call.obj
 0001:0002dbc0       ?printe_any@@YAXHPAVproperty@@@Z 0042ebc0 f   Language:call.obj
 0001:0002dcb0       ?sugar_ask_any@@YAHHHHH@Z  0042ecb0 f   Language:call.obj
 0001:0002e050       ?self_print_Assign_Language@@YAXPAVAssign@@@Z 0042f050 f   Language:call.obj
 0001:0002e2e0       ?self_eval_Assign@@YAHPAVAssign@@@Z 0042f2e0 f   Language:call.obj
 0001:0002e490       ?self_print_Gassign_Language@@YAXPAVGassign@@@Z 0042f490 f   Language:call.obj
 0001:0002e730       ?self_eval_Gassign@@YAHPAVGassign@@@Z 0042f730 f   Language:call.obj
 0001:0002e7e0       ?self_print_And_Language@@YAXPAVAnd@@@Z 0042f7e0 f   Language:call.obj
 0001:0002e8a0       ?self_eval_And@@YAHPAVAnd@@@Z 0042f8a0 f   Language:call.obj
 0001:0002e9f0       ?self_print_Or_Language@@YAXPAVOr@@@Z 0042f9f0 f   Language:call.obj
 0001:0002eab0       ?self_eval_Or@@YAHPAVOr@@@Z 0042fab0 f   Language:call.obj
 0001:0002ec00       ?self_print_Quote_Language@@YAXPAVQuote@@@Z 0042fc00 f   Language:call.obj
 0001:0002ecb0       ?self_eval_Quote@@YAHPAVQuote@@@Z 0042fcb0 f   Language:call.obj
 0001:0002ecc0       ?self_print_Call_method_Language@@YAXPAVCall_method@@@Z 0042fcc0 f   Language:call.obj
 0001:0002ed90       ?self_eval_Call_method@@YAHPAVCall_method@@@Z 0042fd90 f   Language:call.obj
 0001:0002eee0       ?self_eval_Call_method1@@YAHPAVCall_method1@@@Z 0042fee0 f   Language:call.obj
 0001:0002efc0       ?self_eval_Call_method2@@YAHPAVCall_method2@@@Z 0042ffc0 f   Language:call.obj
 0001:0002f0f0       ?self_print_Call_slot_Language@@YAXPAVCall_slot@@@Z 004300f0 f   Language:call.obj
 0001:0002f1c0       ?self_eval_Call_slot@@YAHPAVCall_slot@@@Z 004301c0 f   Language:call.obj
 0001:0002f2a0       ?self_print_Call_array_Language@@YAXPAVCall_array@@@Z 004302a0 f   Language:call.obj
 0001:0002f360       ?self_eval_Call_array@@YAHPAVCall_array@@@Z 00430360 f   Language:call.obj
 0001:0002f470       ?self_print_Call_table_Language@@YAXPAVCall_table@@@Z 00430470 f   Language:call.obj
 0001:0002f540       ?self_eval_Call_table@@YAHPAVCall_table@@@Z 00430540 f   Language:call.obj
 0001:0002f660       ?self_print_Update_Language@@YAXPAVUpdate@@@Z 00430660 f   Language:call.obj
 0001:0002f750       ?self_eval_Update@@YAHPAVUpdate@@@Z 00430750 f   Language:call.obj
 0001:0002f990       ?self_print_Super_Language@@YAXPAVSuper@@@Z 00430990 f   Language:call.obj
 0001:0002faa0       ?self_eval_Super@@YAHPAVSuper@@@Z 00430aa0 f   Language:call.obj
 0001:0002fc20       ?self_print_Cast_Language@@YAXPAVCast@@@Z 00430c20 f   Language:call.obj
 0001:0002fd10       ?self_eval_Cast@@YAHPAVCast@@@Z 00430d10 f   Language:call.obj
 0001:0002feb0       ?self_print_Return_Language@@YAXPAVReturn@@@Z 00430eb0 f   Language:call.obj
 0001:0002ff80       ?self_eval_Return@@YAHPAVReturn@@@Z 00430f80 f   Language:call.obj
 0001:00030060       ?substitution_any@@YAHHPAVVariable@@H@Z 00431060 f   Language:call.obj
 0001:00030580       ?occurrence_any@@YAHHPAVVariable@@@Z 00431580 f   Language:call.obj
 0001:00030820       ?instruction_copy_any@@YAHH@Z 00431820 f   Language:call.obj
 0001:00030b20       ?no_eval_Instruction@@YAHPAVInstruction@@@Z 00431b20 f   Language:pretty.obj
 0001:00030bb0       ?self_print_unbound_symbol_Language@@YAXPAVunbound_symbol@@@Z 00431bb0 f   Language:pretty.obj
 0001:00030bd0       ?self_eval_unbound_symbol@@YAHPAVunbound_symbol@@@Z 00431bd0 f   Language:pretty.obj
 0001:00030cc0       ?self_print_Variable_Language@@YAXPAVVariable@@@Z 00431cc0 f   Language:pretty.obj
 0001:00030cf0       ?ppvariable_Variable@@YAXPAVVariable@@@Z 00431cf0 f   Language:pretty.obj
 0001:00030de0       ?ppvariable_list@@YAXPAVlist@@@Z 00431de0 f   Language:pretty.obj
 0001:00030ee0       ?self_eval_Variable@@YAHPAVVariable@@@Z 00431ee0 f   Language:pretty.obj
 0001:00030f00       ?write_value_Variable@@YAHPAVVariable@@H@Z 00431f00 f   Language:pretty.obj
 0001:00030f90       ?self_eval_Vardef@@YAHPAVVardef@@@Z 00431f90 f   Language:pretty.obj
 0001:00031020       ?self_eval_global_variable@@YAHPAVglobal_variable@@@Z 00432020 f   Language:pretty.obj
 0001:00031030       ?write_value_global_variable@@YAHPAVglobal_variable@@H@Z 00432030 f   Language:pretty.obj
 0001:000310c0       ?apply_lambda@@YAHPAVlambda@@PAVlist@@@Z 004320c0 f   Language:pretty.obj
 0001:00031200       ?call_lambda2@@YAHPAVlambda@@PAVlistargs@@@Z 00432200 f   Language:pretty.obj
 0001:00031220       ?self_print_lambda_Language@@YAHPAVlambda@@@Z 00432220 f   Language:pretty.obj
 0001:00031300       ?lambda_I_list@@YAPAVlambda@@PAVlist@@H@Z 00432300 f   Language:pretty.obj
 0001:00031440       ?lexical_build_any@@YAHHPAVlist@@H@Z 00432440 f   Language:pretty.obj
 0001:00031ba0       ?lexical_change_any@@YAHHPAVlist@@@Z 00432ba0 f   Language:pretty.obj
 0001:00031c80       ?close_class@@YAPAVClaireClass@@PAV1@@Z 00432c80 f   Language:pretty.obj
 0001:00031c90       ?extract_symbol_any@@YAPAVsymbol@@H@Z 00432c90 f   Language:pretty.obj
 0001:00031f60       ?make_a_property_any@@YAPAVproperty@@H@Z 00432f60 f   Language:pretty.obj
 0001:00032340       ?lbreak_void@@YAHXZ        00433340 f   Language:pretty.obj
 0001:000323b0       ?put_buffer_void@@YAHXZ    004333b0 f   Language:pretty.obj
 0001:000323e0       ?checkfar_void@@YAHXZ      004333e0 f   Language:pretty.obj
 0001:00032430       ?lbreak_integer@@YAHH@Z    00433430 f   Language:pretty.obj
 0001:00032450       ?indent_integer@@YAHH@Z    00433450 f   Language:pretty.obj
 0001:000324a0       ?set_level_void@@YAXXZ     004334a0 f   Language:pretty.obj
 0001:000324b0       ?set_level_integer@@YAXH@Z 004334b0 f   Language:pretty.obj
 0001:000324d0       ?printbox_bag1@@YAHPAVbag@@HHPAD@Z 004334d0 f   Language:pretty.obj
 0001:00032750       ?printbox_bag2@@YAHPAVbag@@@Z 00433750 f   Language:pretty.obj
 0001:00032780       ?printbox_bag3@@YAHPAVbag@@PAD@Z 00433780 f   Language:pretty.obj
 0001:000327b0       ?printl_bag@@YAXPAVbag@@PAD@Z 004337b0 f   Language:pretty.obj
 0001:00032a00       ?printexp_any@@YAXHPAVClaireBoolean@@@Z 00433a00 f   Language:pretty.obj
 0001:00033000       ?pretty_print_any@@YAXH@Z  00434000 f   Language:pretty.obj
 0001:00033060       ?self_print_list_Language@@YAXPAVlist@@@Z 00434060 f   Language:pretty.obj
 0001:00033100       ?self_print_set_Language@@YAXPAVset@@@Z 00434100 f   Language:pretty.obj
 0001:000331c0       ?self_print_tuple_Language@@YAXPAVtuple@@@Z 004341c0 f   Language:pretty.obj
 0001:000331f0       ?metaLoad@ReaderClass@@QAEXXZ 004341f0 f   Reader:Reader.obj
 0001:00036a30       ?inspect_any@@YAHH@Z       00437a30 f   Reader:inspect.obj
 0001:00036e10       ?inspect_loop_any@@YAHHPAVlist@@@Z 00437e10 f   Reader:inspect.obj
 0001:000371f0       ?get_from_integer_any@@YAHHH@Z 004381f0 f   Reader:inspect.obj
 0001:00037350       ?trace_on_any@@YAHH@Z      00438350 f   Reader:inspect.obj
 0001:00037780       ?untrace_any@@YAHH@Z       00438780 f   Reader:inspect.obj
 0001:00037ab0       ?spy_listargs2_Reader@@YAHPAVlistargs@@@Z 00438ab0 f   Reader:inspect.obj
 0001:00037c90       ?self_trace_Trace@@YAHPAVTrace@@@Z 00438c90 f   Reader:inspect.obj
 0001:00037da0       ?trace_rule_relation@@YAXPAVClaireRelation@@PADHHHH@Z 00438da0 f   Reader:inspect.obj
 0001:00037fa0       ?stop_property@@YAHPAVproperty@@PAVlistargs@@@Z 00438fa0 f   Reader:inspect.obj
 0001:000380b0       ?debug_void@@YAXXZ         004390b0 f   Reader:inspect.obj
 0001:00038110       ?call_debug_void@@YAHXZ    00439110 f   Reader:inspect.obj
 0001:00038380       ?breakpoint_void@@YAXXZ    00439380 f   Reader:inspect.obj
 0001:000385e0       ?dn_integer@@YAXH@Z        004395e0 f   Reader:inspect.obj
 0001:00038740       ?up_integer@@YAXH@Z        00439740 f   Reader:inspect.obj
 0001:00038880       ?where_integer@@YAXH@Z     00439880 f   Reader:inspect.obj
 0001:000388e0       ?print_debug_info_integer@@YAXHHH@Z 004398e0 f   Reader:inspect.obj
 0001:00038a70       ?Show_integer@@YAHH@Z      00439a70 f   Reader:inspect.obj
 0001:00038c70       ?block_integer@@YAXH@Z     00439c70 f   Reader:inspect.obj
 0001:00038fa0       ?closure_build_lambda@@YAPAVlist@@PAVlambda@@@Z 00439fa0 f   Reader:inspect.obj
 0001:000390d0       ?closure_build_any@@YAXHPAVlist@@@Z 0043a0d0 f   Reader:inspect.obj
 0001:000392c0       ?call_step_property_Reader@@YAXPAVproperty@@@Z 0043a2c0 f   Reader:inspect.obj
 0001:00039370       ?step_any@@YAXH@Z          0043a370 f   Reader:inspect.obj
 0001:00039510       ?mem_class@@YAHPAVClaireClass@@@Z 0043a510 f   Reader:inspect.obj
 0001:000396a0       ?PRget_property@@YAPAVPRcount@@PAVproperty@@@Z 0043a6a0 f   Reader:inspect.obj
 0001:00039820       ?PRlook_property2@@YAHPAVproperty@@@Z 0043a820 f   Reader:inspect.obj
 0001:00039850       ?PRshow_property@@YAXPAVproperty@@@Z 0043a850 f   Reader:inspect.obj
 0001:00039970       ?PRtime_property@@YAHPAVproperty@@@Z 0043a970 f   Reader:inspect.obj
 0001:000399c0       ?PRshow_void@@YAHXZ        0043a9c0 f   Reader:inspect.obj
 0001:00039d60       ?dependents_method@@YAPAVset@@PAVmethod@@@Z 0043ad60 f   Reader:inspect.obj
 0001:00039f10       ?dependents_any@@YAHH@Z    0043af10 f   Reader:inspect.obj
 0001:0003a2b0       ?PRdepends_property@@YAHPAVproperty@@0@Z 0043b2b0 f   Reader:inspect.obj
 0001:0003a2f0       ?self_eval_delimiter@@YAHPAVdelimiter@@@Z 0043b2f0 f   Reader:file.obj
 0001:0003a370       ?useless_c_integer@@YAPAVClaireBoolean@@H@Z 0043b370 f   Reader:file.obj
 0001:0003a3d0       ?skipc_meta_reader@@YAHPAVmeta_reader@@@Z 0043b3d0 f   Reader:file.obj
 0001:0003a460       ?skipc_I_meta_reader@@YAHPAVmeta_reader@@@Z 0043b460 f   Reader:file.obj
 0001:0003a530       ?cnext_meta_reader@@YAPAVmeta_reader@@PAV1@@Z 0043b530 f   Reader:file.obj
 0001:0003a550       ?findeol_meta_reader@@YAPAVClaireBoolean@@PAVmeta_reader@@@Z 0043b550 f   Reader:file.obj
 0001:0003a600       ?checkno_meta_reader@@YAHPAVmeta_reader@@HH@Z 0043b600 f   Reader:file.obj
 0001:0003a670       ?verify_any@@YAHHHH@Z      0043b670 f   Reader:file.obj
 0001:0003a6c0       ?Serror_string@@YAXPADPAVlist@@@Z 0043b6c0 f   Reader:file.obj
 0001:0003a740       ?extract_variable_any@@YAPAVVariable@@H@Z 0043b740 f   Reader:file.obj
 0001:0003a910       ?bind_I_meta_reader@@YAPAVlist@@PAVmeta_reader@@PAVVariable@@@Z 0043b910 f   Reader:file.obj
 0001:0003a980       ?unbind_I_meta_reader@@YAHPAVmeta_reader@@PAVlist@@@Z 0043b980 f   Reader:file.obj
 0001:0003a9c0       ?_7_string@@YAPADPAD0@Z    0043b9c0 f   Reader:file.obj
 0001:0003aa90       ?restore_state_meta_reader@@YAXPAVmeta_reader@@@Z 0043ba90 f   Reader:file.obj
 0001:0003ab00       ?load_file_string@@YAHPADPAVClaireBoolean@@@Z 0043bb00 f   Reader:file.obj
 0001:0003b0c0       ?load_string@@YAHPAD@Z     0043c0c0 f   Reader:file.obj
 0001:0003b0e0       ?sload_string@@YAHPAD@Z    0043c0e0 f   Reader:file.obj
 0001:0003b100       ?load_file_module@@YAXPAVmodule@@PAVClaireBoolean@@@Z 0043c100 f   Reader:file.obj
 0001:0003b2c0       ?load_module@@YAHPAVmodule@@@Z 0043c2c0 f   Reader:file.obj
 0001:0003b3e0       ?sload_module@@YAHPAVmodule@@@Z 0043c3e0 f   Reader:file.obj
 0001:0003b500       ?add_modules_module@@YAPAVlist@@PAVmodule@@PAVset@@PAV1@@Z 0043c500 f   Reader:file.obj
 0001:0003b790       ?add_modules_list@@YAPAVlist@@PAV1@@Z 0043c790 f   Reader:file.obj
 0001:0003b860       ?eload_string@@YAHPAD@Z    0043c860 f   Reader:file.obj
 0001:0003bc30       ?readblock_port@@YAHPAVClairePort@@@Z 0043cc30 f   Reader:file.obj
 0001:0003bdd0       ?read_port@@YAHPAVClairePort@@@Z 0043cdd0 f   Reader:file.obj
 0001:0003bfc0       ?read_string@@YAHPAD@Z     0043cfc0 f   Reader:file.obj
 0001:0003c180       ?debug_if_possible_void@@YAHXZ 0043d180 f   Reader:file.obj
 0001:0003c1d0       ?print_exception_void@@YAHXZ 0043d1d0 f   Reader:file.obj
 0001:0003c410       ?show_any@@YAHH@Z          0043d410 f   Reader:file.obj
 0001:0003c550       ?kill_object@@YAHPAVClaireObject@@@Z 0043d550 f   Reader:file.obj
 0001:0003c5e0       ?kill_class@@YAHPAVClaireClass@@@Z 0043d5e0 f   Reader:file.obj
 0001:0003c660       ?min_integer@@YAHHH@Z      0043d660 f   Reader:file.obj
 0001:0003c670       ?max_integer@@YAHHH@Z      0043d670 f   Reader:file.obj
 0001:0003c680       ?min_any@@YAHHH@Z          0043d680 f   Reader:file.obj
 0001:0003c6c0       ?max_any@@YAHHH@Z          0043d6c0 f   Reader:file.obj
 0001:0003c700       ?hashgrow_list@@YAPAVlist@@PAV1@PAVproperty@@@Z 0043d700 f   Reader:file.obj
 0001:0003c810       ?known_ask_table@@YAPAVClaireBoolean@@PAVtable@@H@Z 0043d810 f   Reader:file.obj
 0001:0003c840       ?unknown_ask_table@@YAPAVClaireBoolean@@PAVtable@@H@Z 0043d840 f   Reader:file.obj
 0001:0003c870       ?float_I_string_@@YAHPAD@Z 0043d870 f   Reader:file.obj
 0001:0003c900       ?float_I_string@@YANPAD@Z  0043d900 f   Reader:file.obj
 0001:0003ca50       ?_sup_equal_any@@YAPAVClaireBoolean@@HH@Z 0043da50 f   Reader:file.obj
 0001:0003ca80       ?DBregister_Call@@YAPAVCall@@PAV1@@Z 0043da80 f   Reader:syntax.obj
 0001:0003cc40       ?Call_I_property@@YAPAVCall@@PAVproperty@@PAVlist@@@Z 0043dc40 f   Reader:syntax.obj
 0001:0003cd20       ?operation_ask_any@@YAPAVClaireBoolean@@H@Z 0043dd20 f   Reader:syntax.obj
 0001:0003ce40       ?combine_any@@YAHHHH@Z     0043de40 f   Reader:syntax.obj
 0001:0003cf60       ?combine_I_any@@YAHHHH@Z   0043df60 f   Reader:syntax.obj
 0001:0003db00       ?operation_I_any@@YAHH@Z   0043eb00 f   Reader:syntax.obj
 0001:0003dde0       ?operand_I_any@@YAHHH@Z    0043ede0 f   Reader:syntax.obj
 0001:0003e260       ?precedence_I_any@@YAHH@Z  0043f260 f   Reader:syntax.obj
 0001:0003e300       ?nextstruct_meta_reader@@YAHPAVmeta_reader@@PAVkeyword@@1@Z 0043f300 f   Reader:syntax.obj
 0001:0003e620       ?readlet_meta_reader@@YAHPAVmeta_reader@@PAVkeyword@@@Z 0043f620 f   Reader:syntax.obj
 0001:0003ed20       ?readlet_star_meta_reader@@YAHPAVmeta_reader@@PAVlist@@HPAVkeyword@@@Z 0043fd20 f   Reader:syntax.obj
 0001:0003eea0       ?readwhen_meta_reader@@YAHPAVmeta_reader@@PAVkeyword@@@Z 0043fea0 f   Reader:syntax.obj
 0001:0003f0e0       ?readif_meta_reader@@YAHPAVmeta_reader@@H@Z 004400e0 f   Reader:syntax.obj
 0001:0003f2b0       ?readcase_meta_reader@@YAHPAVmeta_reader@@PAVkeyword@@@Z 004402b0 f   Reader:syntax.obj
 0001:0003f520       ?readset_meta_reader@@YAHPAVmeta_reader@@H@Z 00440520 f   Reader:syntax.obj
 0001:0003f9c0       ?dereference_any@@YAHH@Z   004409c0 f   Reader:syntax.obj
 0001:0003fb70       ?nextseq_meta_reader@@YAHPAVmeta_reader@@H@Z 00440b70 f   Reader:syntax.obj
 0001:0003fd10       ?readblock_meta_reader@@YAHPAVmeta_reader@@HH@Z 00440d10 f   Reader:syntax.obj
 0001:00040060       ?Do_I_any@@YAHHH@Z         00441060 f   Reader:syntax.obj
 0001:00040200       ?extract_of_type_Call@@YAPAVClaireType@@PAVCall@@@Z 00441200 f   Reader:syntax.obj
 0001:000403c0       ?readcall_meta_reader@@YAHPAVmeta_reader@@HH@Z 004413c0 f   Reader:syntax.obj
 0001:000412f0       ?nextdefinition_meta_reader@@YAHPAVmeta_reader@@HHPAVClaireBoolean@@@Z 004422f0 f   Reader:syntax.obj
 0001:00041ac0       ?nextmethod_meta_reader@@YAHPAVmeta_reader@@HHPAVClaireBoolean@@11@Z 00442ac0 f   Reader:syntax.obj
 0001:00041cb0       ?nextinst_meta_reader@@YAHPAVmeta_reader@@H@Z 00442cb0 f   Reader:syntax.obj
 0001:00042440       ?nextDefclass_meta_reader@@YAPAVDefclass@@PAVmeta_reader@@HPAVClaireBoolean@@@Z 00443440 f   Reader:syntax.obj
 0001:00042ab0       ?next_meta_reader@@YAHPAVmeta_reader@@@Z 00443ab0 f   Reader:read.obj
 0001:00042ac0       ?firstc_meta_reader@@YAHPAVmeta_reader@@@Z 00443ac0 f   Reader:read.obj
 0001:00042ad0       ?keyword_ask_any@@YAHH@Z   00443ad0 f   Reader:read.obj
 0001:00042b20       ?stop_ask_integer@@YAHH@Z  00443b20 f   Reader:read.obj
 0001:00042ba0       ?nextunit_meta_reader@@YAHPAVmeta_reader@@@Z 00443ba0 f   Reader:read.obj
 0001:00043500       ?nexts_meta_reader@@YAHPAVmeta_reader@@PAVkeyword@@@Z 00444500 f   Reader:read.obj
 0001:00043740       ?loopexp_meta_reader@@YAHPAVmeta_reader@@HPAVkeyword@@PAVClaireBoolean@@@Z 00444740 f   Reader:read.obj
 0001:00043df0       ?nexte_meta_reader@@YAHPAVmeta_reader@@@Z 00444df0 f   Reader:read.obj
 0001:00043f10       ?nextexp_meta_reader@@YAHPAVmeta_reader@@PAVClaireBoolean@@@Z 00444f10 f   Reader:read.obj
 0001:000446c0       ?nexti_meta_reader@@YAHPAVmeta_reader@@H@Z 004456c0 f   Reader:read.obj
 0001:00045090       ?read_escape_meta_reader@@YAHPAVmeta_reader@@@Z 00446090 f   Reader:read.obj
 0001:00045170       ?nextvariable_meta_reader@@YAHPAVmeta_reader@@H@Z 00446170 f   Reader:read.obj
 0001:000452c0       ?nexts_I_meta_reader1@@YAHPAVmeta_reader@@PAVkeyword@@@Z 004462c0 f   Reader:read.obj
 0001:000453c0       ?nexte_I_meta_reader@@YAHPAVmeta_reader@@PAVkeyword@@@Z 004463c0 f   Reader:read.obj
 0001:000454a0       ?nexts_I_meta_reader2@@YAHPAVmeta_reader@@H@Z 004464a0 f   Reader:read.obj
 0001:000455a0       ?nexts_I_meta_reader3@@YAHPAVmeta_reader@@PAVkeyword@@H@Z 004465a0 f   Reader:read.obj
 0001:000456b0       ?extended_comment_ask_meta_reader@@YAPAVClaireBoolean@@PAVmeta_reader@@PAD@Z 004466b0 f   Reader:read.obj
 0001:00045760       ?extended_comment_I_meta_reader@@YAHPAVmeta_reader@@PAD@Z 00446760 f   Reader:read.obj
 0001:00045a20       ?choco_getNbVars@AbstractConstraint@@QAEHXZ 00446a20 f   choco:choco.obj
 0001:00045a3a       ?choco_assignIndices@AbstractConstraint@@QAEHPAV1@H@Z 00446a3a f   choco:choco.obj
 0001:00045a5b       ?choco_getConstraintIdx@AbstractConstraint@@QAEHH@Z 00446a5b f   choco:choco.obj
 0001:00045a7b       ?choco_setConstraintIndex@AbstractConstraint@@QAEXHH@Z 00446a7b f   choco:choco.obj
 0001:00045a9c       ?choco_askIfEntailed@AbstractConstraint@@QAEHXZ 00446a9c f   choco:choco.obj
 0001:00045ab6       ?choco_testIfSatisfied@AbstractConstraint@@QAEPAVClaireBoolean@@XZ 00446ab6 f   choco:choco.obj
 0001:00045ad0       ?choco_testIfCompletelyInstantiated@AbstractConstraint@@QAEPAVClaireBoolean@@XZ 00446ad0 f   choco:choco.obj
 0001:00045aea       ?choco_propagate@AbstractConstraint@@QAEXXZ 00446aea f   choco:choco.obj
 0001:00045b04       ?choco_awakeOnInf@AbstractConstraint@@QAEXH@Z 00446b04 f   choco:choco.obj
 0001:00045b24       ?choco_awakeOnSup@AbstractConstraint@@QAEXH@Z 00446b24 f   choco:choco.obj
 0001:00045b44       ?choco_awakeOnInst@AbstractConstraint@@QAEXH@Z 00446b44 f   choco:choco.obj
 0001:00045b64       ?choco_awakeOnRem@AbstractConstraint@@QAEXHH@Z 00446b64 f   choco:choco.obj
 0001:00045b88       ?choco_domainIncludedIn@IntVar@@QAEPAVClaireBoolean@@PAVlist@@@Z 00446b88 f   choco:choco.obj
 0001:00045ba8       ?choco_hasExactDomain@IntVar@@QAEPAVClaireBoolean@@XZ 00446ba8 f   choco:choco.obj
 0001:00045bc2       ?choco_getInf@IntVar@@QAEHXZ 00446bc2 f   choco:choco.obj
 0001:00045bdc       ?choco_getSup@IntVar@@QAEHXZ 00446bdc f   choco:choco.obj
 0001:00045bf6       ?choco_getNextActiveEventQueue@PropagationEngine@@QAEHXZ 00446bf6 f   choco:choco.obj
 0001:00045c10       ?choco_selectBranchingObject@AbstractBranching@@QAEHXZ 00446c10 f   choco:choco.obj
 0001:00045c2a       ?choco_goDownBranch@AbstractBranching@@QAEXHH@Z 00446c2a f   choco:choco.obj
 0001:00045c4e       ?choco_traceDownBranch@AbstractBranching@@QAEXHH@Z 00446c4e f   choco:choco.obj
 0001:00045c72       ?choco_goUpBranch@AbstractBranching@@QAEXHH@Z 00446c72 f   choco:choco.obj
 0001:00045c96       ?choco_traceUpBranch@AbstractBranching@@QAEXHH@Z 00446c96 f   choco:choco.obj
 0001:00045cba       ?choco_getFirstBranch@AbstractBranching@@QAEHH@Z 00446cba f   choco:choco.obj
 0001:00045cda       ?choco_getNextBranch@AbstractBranching@@QAEHHH@Z 00446cda f   choco:choco.obj
 0001:00045cfe       ?choco_finishedBranching@AbstractBranching@@QAEPAVClaireBoolean@@HH@Z 00446cfe f   choco:choco.obj
 0001:00045d22       ?choco_branchOn@AbstractBranching@@QAEPAVClaireBoolean@@HH@Z 00446d22 f   choco:choco.obj
 0001:00045d46       ?choco_mayExpandNewNode@GlobalSearchLimit@@QAEPAVClaireBoolean@@PAVGlobalSearchSolver@@@Z 00446d46 f   choco:choco.obj
 0001:00045d63       ?choco_domainSequence@AbstractIntDomain@@QAEPAVlist@@XZ 00446d63 f   choco:choco.obj
 0001:00045d7d       ?choco_domainSet@AbstractIntDomain@@QAEPAVset@@XZ 00446d7d f   choco:choco.obj
 0001:00045d97       ?choco_updateDomainInf@AbstractIntDomain@@QAEHH@Z 00446d97 f   choco:choco.obj
 0001:00045db7       ?choco_updateDomainSup@AbstractIntDomain@@QAEHH@Z 00446db7 f   choco:choco.obj
 0001:00045dd7       ?choco_getDomainInf@AbstractIntDomain@@QAEHXZ 00446dd7 f   choco:choco.obj
 0001:00045df1       ?choco_getDomainSup@AbstractIntDomain@@QAEHXZ 00446df1 f   choco:choco.obj
 0001:00045e0b       ?choco_containsValInDomain@AbstractIntDomain@@QAEPAVClaireBoolean@@H@Z 00446e0b f   choco:choco.obj
 0001:00045e2b       ?choco_getNextValue@AbstractIntDomain@@QAEHH@Z 00446e2b f   choco:choco.obj
 0001:00045e4b       ?choco_getPrevValue@AbstractIntDomain@@QAEHH@Z 00446e4b f   choco:choco.obj
 0001:00045e6b       ?choco_removeDomainVal@AbstractIntDomain@@QAEPAVClaireBoolean@@H@Z 00446e6b f   choco:choco.obj
 0001:00045e8b       ?choco_restrict@AbstractIntDomain@@QAEXH@Z 00446e8b f   choco:choco.obj
 0001:00045eab       ?choco_getDomainCard@AbstractIntDomain@@QAEHXZ 00446eab f   choco:choco.obj
 0001:00045ec5       ?choco_getKernel@AbstractSetDomain@@QAEPAVlist@@XZ 00446ec5 f   choco:choco.obj
 0001:00045edf       ?choco_getEnveloppe@AbstractSetDomain@@QAEPAVlist@@XZ 00446edf f   choco:choco.obj
 0001:00045ef9       ?choco_getKernelSize@AbstractSetDomain@@QAEHXZ 00446ef9 f   choco:choco.obj
 0001:00045f13       ?choco_getEnveloppeSize@AbstractSetDomain@@QAEHXZ 00446f13 f   choco:choco.obj
 0001:00045f2d       ?choco_getEnveloppeInf@AbstractSetDomain@@QAEHXZ 00446f2d f   choco:choco.obj
 0001:00045f47       ?choco_getEnveloppeSup@AbstractSetDomain@@QAEHXZ 00446f47 f   choco:choco.obj
 0001:00045f61       ?choco_isInKernel@AbstractSetDomain@@QAEPAVClaireBoolean@@H@Z 00446f61 f   choco:choco.obj
 0001:00045f81       ?choco_isInEnveloppe@AbstractSetDomain@@QAEPAVClaireBoolean@@H@Z 00446f81 f   choco:choco.obj
 0001:00045fa1       ?choco_updateKernel@AbstractSetDomain@@QAEPAVClaireBoolean@@H@Z 00446fa1 f   choco:choco.obj
 0001:00045fc1       ?choco_updateEnveloppe@AbstractSetDomain@@QAEPAVClaireBoolean@@H@Z 00446fc1 f   choco:choco.obj
 0001:00045fe1       ?choco_popSomeEvents@EventCollection@@QAEXXZ 00446fe1 f   choco:choco.obj
 0001:00045ffb       ?choco_getTruthValue@BinRelation@@QAEPAVClaireBoolean@@HH@Z 00446ffb f   choco:choco.obj
 0001:0004601f       ?choco_filter@LinComb@@QAEXPAVClaireBoolean@@H@Z 0044701f f   choco:choco.obj
 0001:00046043       ?choco_filterOnImprovedLowerBound@LinComb@@QAEPAVClaireBoolean@@XZ 00447043 f   choco:choco.obj
 0001:0004605d       ?choco_filterOnImprovedUpperBound@LinComb@@QAEPAVClaireBoolean@@XZ 0044705d f   choco:choco.obj
 0001:00046077       ?choco_selectVar@VarSelector@@QAEHXZ 00447077 f   choco:choco.obj
 0001:00046091       ?choco_isOver@ValIterator@@QAEPAVClaireBoolean@@PAVIntVar@@H@Z 00447091 f   choco:choco.obj
 0001:000460b5       ?choco_getFirstVal@ValIterator@@QAEHPAVIntVar@@@Z 004470b5 f   choco:choco.obj
 0001:000460d5       ?choco_getNextVal@ValIterator@@QAEHPAVIntVar@@H@Z 004470d5 f   choco:choco.obj
 0001:000460f9       ?choco_getBestVal@ValSelector@@QAEHPAVIntVar@@@Z 004470f9 f   choco:choco.obj
 0001:00046119       ?metaLoad@chocoClass@@QAEXXZ 00447119 f   choco:choco.obj
 0001:0006a460       ?fcall@property@@QAEHH@Z   0046b460 f i choco:choco.obj
 0001:0006a4a0       ?fcall@property@@QAEHHH@Z  0046b4a0 f i choco:choco.obj
 0001:0006a4f0       ?fcall@property@@QAEHHHH@Z 0046b4f0 f i choco:choco.obj
 0001:0006a540       ?_float_@@YAHN@Z           0046b540 f i choco:choco.obj
 0001:0006a600       ?choco_closeLargeIntConstraint_LargeIntConstraint@@YAXPAVLargeIntConstraint@@@Z 0046b600 f   choco:const.obj
 0001:0006a632       ?choco_delay_IntConstraint@@YAPAVDelayer@@PAVIntConstraint@@H@Z 0046b632 f   choco:const.obj
 0001:0006a742       ?claire_self_print_Delayer_choco@@YAXPAVDelayer@@@Z 0046b742 f   choco:const.obj
 0001:0006a875       ?choco_closeCompositeConstraint_BinCompositeConstraint@@YAXPAVBinCompositeConstraint@@@Z 0046b875 f   choco:const.obj
 0001:0006a98b       ?choco_closeCompositeConstraint_LargeCompositeConstraint@@YAXPAVLargeCompositeConstraint@@@Z 0046b98b f   choco:const.obj
 0001:0006ab30       ?choco_getNbVarsFromSubConst_LargeCompositeConstraint@@YAHPAVLargeCompositeConstraint@@@Z 0046bb30 f   choco:const.obj
 0001:0006ab44       ?choco_connectHook_any_choco@@YAHHPAVAbstractConstraint@@@Z 0046bb44 f   choco:const.obj
 0001:0006ab51       ?choco_reconnectHook_any_choco@@YAHHPAVAbstractConstraint@@@Z 0046bb51 f   choco:const.obj
 0001:0006ab5e       ?choco_disconnectHook_any_choco@@YAHHPAVAbstractConstraint@@@Z 0046bb5e f   choco:const.obj
 0001:0006ab6b       ?choco_assignIndices_AbstractConstraint@@YAHPAVAbstractConstraint@@0H@Z 0046bb6b f   choco:const.obj
 0001:0006abe3       ?choco_assignIndices_UnIntConstraint@@YAHPAVUnIntConstraint@@PAVAbstractConstraint@@H@Z 0046bbe3 f   choco:const.obj
 0001:0006ad17       ?choco_assignIndices_BinIntConstraint@@YAHPAVBinIntConstraint@@PAVAbstractConstraint@@H@Z 0046bd17 f   choco:const.obj
 0001:0006ae8e       ?choco_assignIndices_TernIntConstraint@@YAHPAVTernIntConstraint@@PAVAbstractConstraint@@H@Z 0046be8e f   choco:const.obj
 0001:0006b049       ?choco_assignIndices_LargeIntConstraint@@YAHPAVLargeIntConstraint@@PAVAbstractConstraint@@H@Z 0046c049 f   choco:const.obj
 0001:0006b0fd       ?choco_assignIndices_BinCompositeConstraint@@YAHPAVBinCompositeConstraint@@PAVAbstractConstraint@@H@Z 0046c0fd f   choco:const.obj
 0001:0006b273       ?choco_assignIndices_LargeCompositeConstraint@@YAHPAVLargeCompositeConstraint@@PAVAbstractConstraint@@H@Z 0046c273 f   choco:const.obj
 0001:0006b3aa       ?choco_setConstraintIndex_AbstractConstraint@@YAXPAVAbstractConstraint@@HH@Z 0046c3aa f   choco:const.obj
 0001:0006b40e       ?choco_setConstraintIndex_UnIntConstraint@@YAXPAVUnIntConstraint@@HH@Z 0046c40e f   choco:const.obj
 0001:0006b483       ?choco_setConstraintIndex_BinIntConstraint@@YAXPAVBinIntConstraint@@HH@Z 0046c483 f   choco:const.obj
 0001:0006b50a       ?choco_setConstraintIndex_TernIntConstraint@@YAXPAVTernIntConstraint@@HH@Z 0046c50a f   choco:const.obj
 0001:0006b5a4       ?choco_setConstraintIndex_LargeIntConstraint@@YAXPAVLargeIntConstraint@@HH@Z 0046c5a4 f   choco:const.obj
 0001:0006b62c       ?choco_setConstraintIndex_BinCompositeConstraint@@YAXPAVBinCompositeConstraint@@HH@Z 0046c62c f   choco:const.obj
 0001:0006b77c       ?choco_setConstraintIndex_LargeCompositeConstraint@@YAXPAVLargeCompositeConstraint@@HH@Z 0046c77c f   choco:const.obj
 0001:0006b9b2       ?choco_setConstraintIndex_Delayer@@YAXPAVDelayer@@HH@Z 0046c9b2 f   choco:const.obj
 0001:0006babb       ?choco_getConstraintIdx_AbstractConstraint@@YAHPAVAbstractConstraint@@H@Z 0046cabb f   choco:const.obj
 0001:0006bb1e       ?choco_getConstraintIdx_UnIntConstraint@@YAHPAVUnIntConstraint@@H@Z 0046cb1e f   choco:const.obj
 0001:0006bba4       ?choco_getConstraintIdx_BinIntConstraint@@YAHPAVBinIntConstraint@@H@Z 0046cba4 f   choco:const.obj
 0001:0006bc3a       ?choco_getConstraintIdx_TernIntConstraint@@YAHPAVTernIntConstraint@@H@Z 0046cc3a f   choco:const.obj
 0001:0006bce4       ?choco_getConstraintIdx_LargeIntConstraint@@YAHPAVLargeIntConstraint@@H@Z 0046cce4 f   choco:const.obj
 0001:0006bd7c       ?choco_getConstraintIdx_BinCompositeConstraint@@YAHPAVBinCompositeConstraint@@H@Z 0046cd7c f   choco:const.obj
 0001:0006bf01       ?choco_getConstraintIdx_LargeCompositeConstraint@@YAHPAVLargeCompositeConstraint@@H@Z 0046cf01 f   choco:const.obj
 0001:0006c154       ?choco_getConstraintIdx_Delayer@@YAHPAVDelayer@@H@Z 0046d154 f   choco:const.obj
 0001:0006c277       ?choco_getPriority_AbstractConstraint_choco@@YAHPAVAbstractConstraint@@@Z 0046d277 f   choco:const.obj
 0001:0006c281       ?choco_getPriority_Delayer_choco@@YAHPAVDelayer@@@Z 0046d281 f   choco:const.obj
 0001:0006c28c       ?choco_testIfCompletelyInstantiated_IntConstraint@@YAPAVClaireBoolean@@PAVIntConstraint@@@Z 0046d28c f   choco:const.obj
 0001:0006c454       ?choco_testIfCompletelyInstantiated_UnIntConstraint@@YAPAVClaireBoolean@@PAVUnIntConstraint@@@Z 0046d454 f   choco:const.obj
 0001:0006c588       ?choco_testIfCompletelyInstantiated_BinIntConstraint@@YAPAVClaireBoolean@@PAVBinIntConstraint@@@Z 0046d588 f   choco:const.obj
 0001:0006c749       ?choco_testIfCompletelyInstantiated_TernIntConstraint@@YAPAVClaireBoolean@@PAVTernIntConstraint@@@Z 0046d749 f   choco:const.obj
 0001:0006c97c       ?choco_testIfCompletelyInstantiated_LargeIntConstraint@@YAPAVClaireBoolean@@PAVLargeIntConstraint@@@Z 0046d97c f   choco:const.obj
 0001:0006cb2f       ?choco_testIfCompletelyInstantiated_BinCompositeConstraint@@YAPAVClaireBoolean@@PAVBinCompositeConstraint@@@Z 0046db2f f   choco:const.obj
 0001:0006ccf0       ?choco_testIfCompletelyInstantiated_LargeCompositeConstraint@@YAPAVClaireBoolean@@PAVLargeCompositeConstraint@@@Z 0046dcf0 f   choco:const.obj
 0001:0006cfac       ?choco_getNbVars_AbstractConstraint@@YAHPAVAbstractConstraint@@@Z 0046dfac f   choco:const.obj
 0001:0006d00a       ?choco_getNbVars_UnIntConstraint@@YAHPAVUnIntConstraint@@@Z 0046e00a f   choco:const.obj
 0001:0006d014       ?choco_getNbVars_BinIntConstraint@@YAHPAVBinIntConstraint@@@Z 0046e014 f   choco:const.obj
 0001:0006d01e       ?choco_getNbVars_TernIntConstraint@@YAHPAVTernIntConstraint@@@Z 0046e01e f   choco:const.obj
 0001:0006d028       ?choco_getNbVars_LargeIntConstraint@@YAHPAVLargeIntConstraint@@@Z 0046e028 f   choco:const.obj
 0001:0006d033       ?choco_getNbVars_LargeCompositeConstraint@@YAHPAVLargeCompositeConstraint@@@Z 0046e033 f   choco:const.obj
 0001:0006d077       ?choco_getNbVars_BinCompositeConstraint@@YAHPAVBinCompositeConstraint@@@Z 0046e077 f   choco:const.obj
 0001:0006d19d       ?choco_getVar_AbstractConstraint_choco@@YAPAVAbstractVar@@PAVAbstractConstraint@@H@Z 0046e19d f   choco:const.obj
 0001:0006d31e       ?choco_getVar_UnIntConstraint_choco@@YAPAVAbstractVar@@PAVUnIntConstraint@@H@Z 0046e31e f   choco:const.obj
 0001:0006d38c       ?choco_getVar_BinIntConstraint_choco@@YAPAVAbstractVar@@PAVBinIntConstraint@@H@Z 0046e38c f   choco:const.obj
 0001:0006d41d       ?choco_getVar_TernIntConstraint_choco@@YAPAVAbstractVar@@PAVTernIntConstraint@@H@Z 0046e41d f   choco:const.obj
 0001:0006d4c2       ?choco_getVar_LargeIntConstraint_choco@@YAPAVAbstractVar@@PAVLargeIntConstraint@@H@Z 0046e4c2 f   choco:const.obj
 0001:0006d580       ?choco_getVar_LargeCompositeConstraint_choco@@YAPAVAbstractVar@@PAVLargeCompositeConstraint@@H@Z 0046e580 f   choco:const.obj
 0001:0006d807       ?choco_getVar_BinCompositeConstraint_choco@@YAPAVAbstractVar@@PAVBinCompositeConstraint@@H@Z 0046e807 f   choco:const.obj
 0001:0006d97e       ?choco_disconnect_AbstractConstraint_choco@@YAXPAVAbstractConstraint@@@Z 0046e97e f   choco:const.obj
 0001:0006d9da       ?choco_connect_AbstractConstraint_choco@@YAXPAVAbstractConstraint@@@Z 0046e9da f   choco:const.obj
 0001:0006da36       ?choco_opposite_AbstractConstraint@@YAPAVAbstractConstraint@@PAV1@@Z 0046ea36 f   choco:const.obj
 0001:0006da95       ?choco_askIfEntailed_AbstractConstraint@@YAHPAVAbstractConstraint@@@Z 0046ea95 f   choco:const.obj
 0001:0006db06       ?choco_propagate_Ephemeral@@YAXPAVEphemeral@@@Z 0046eb06 f   choco:const.obj
 0001:0006db62       ?choco_awakeOnInf_AbstractConstraint@@YAXPAVAbstractConstraint@@H@Z 0046eb62 f   choco:const.obj
 0001:0006db76       ?choco_awakeOnSup_AbstractConstraint@@YAXPAVAbstractConstraint@@H@Z 0046eb76 f   choco:const.obj
 0001:0006db8a       ?choco_awakeOnInst_AbstractConstraint@@YAXPAVAbstractConstraint@@H@Z 0046eb8a f   choco:const.obj
 0001:0006db9e       ?choco_awakeOnRem_AbstractConstraint@@YAXPAVAbstractConstraint@@HH@Z 0046eb9e f   choco:const.obj
 0001:0006dbb2       ?choco_awakeOnVar_AbstractConstraint@@YAXPAVAbstractConstraint@@H@Z 0046ebb2 f   choco:const.obj
 0001:0006dbc6       ?choco_awake_AbstractConstraint_choco@@YAXPAVAbstractConstraint@@@Z 0046ebc6 f   choco:const.obj
 0001:0006dbda       ?choco_awakeOnKer_AbstractConstraint@@YAXPAVAbstractConstraint@@H@Z 0046ebda f   choco:const.obj
 0001:0006dbee       ?choco_awakeOnEnv_AbstractConstraint@@YAXPAVAbstractConstraint@@H@Z 0046ebee f   choco:const.obj
 0001:0006dc02       ?choco_awakeOnInstSet_AbstractConstraint@@YAXPAVAbstractConstraint@@H@Z 0046ec02 f   choco:const.obj
 0001:0006dc16       ?choco_testIfSatisfied_AbstractConstraint@@YAPAVClaireBoolean@@PAVAbstractConstraint@@@Z 0046ec16 f   choco:const.obj
 0001:0006dc77       ?choco_testIfCompletelyInstantiated_AbstractConstraint@@YAPAVClaireBoolean@@PAVAbstractConstraint@@@Z 0046ec77 f   choco:const.obj
 0001:0006dcd8       ?choco_propagate_UnIntConstraint@@YAXPAVUnIntConstraint@@@Z 0046ecd8 f   choco:const.obj
 0001:0006dcff       ?choco_propagate_BinIntConstraint@@YAXPAVBinIntConstraint@@@Z 0046ecff f   choco:const.obj
 0001:0006dd48       ?choco_propagate_LargeIntConstraint@@YAXPAVLargeIntConstraint@@@Z 0046ed48 f   choco:const.obj
 0001:0006dd9b       ?choco_doAwake_AbstractConstraint@@YAXPAVAbstractConstraint@@@Z 0046ed9b f   choco:const.obj
 0001:0006ddbd       ?choco_doPropagate_AbstractConstraint@@YAXPAVAbstractConstraint@@@Z 0046edbd f   choco:const.obj
 0001:0006ddd1       ?choco_doAwakeOnInf_AbstractConstraint@@YAXPAVAbstractConstraint@@H@Z 0046edd1 f   choco:const.obj
 0001:0006dde9       ?choco_doAwakeOnSup_AbstractConstraint@@YAXPAVAbstractConstraint@@H@Z 0046ede9 f   choco:const.obj
 0001:0006de01       ?choco_doAwakeOnInst_AbstractConstraint@@YAXPAVAbstractConstraint@@H@Z 0046ee01 f   choco:const.obj
 0001:0006de19       ?choco_doAwakeOnKer_AbstractConstraint@@YAXPAVAbstractConstraint@@H@Z 0046ee19 f   choco:const.obj
 0001:0006de40       ?choco_doAwakeOnEnv_AbstractConstraint@@YAXPAVAbstractConstraint@@H@Z 0046ee40 f   choco:const.obj
 0001:0006de67       ?choco_doAwakeOnInstSet_AbstractConstraint@@YAXPAVAbstractConstraint@@H@Z 0046ee67 f   choco:const.obj
 0001:0006de8e       ?choco_doAwakeOnRem_AbstractConstraint@@YAXPAVAbstractConstraint@@HH@Z 0046ee8e f   choco:const.obj
 0001:0006deaa       ?choco_doAwakeOnVar_AbstractConstraint@@YAXPAVAbstractConstraint@@H@Z 0046eeaa f   choco:const.obj
 0001:0006dec2       ?choco_askIfTrue_AbstractConstraint@@YAHPAVAbstractConstraint@@@Z 0046eec2 f   choco:const.obj
 0001:0006ded6       ?choco_testIfTrue_AbstractConstraint@@YAPAVClaireBoolean@@PAVAbstractConstraint@@@Z 0046eed6 f   choco:const.obj
 0001:0006df07       ?choco_testIfInstantiated_AbstractConstraint@@YAPAVClaireBoolean@@PAVAbstractConstraint@@@Z 0046ef07 f   choco:const.obj
 0001:0006df38       ?choco_abstractIncInf_AbstractConstraint@@YAPAVClaireBoolean@@PAVAbstractConstraint@@H@Z 0046ef38 f   choco:const.obj
 0001:0006df42       ?choco_abstractDecSup_AbstractConstraint@@YAPAVClaireBoolean@@PAVAbstractConstraint@@H@Z 0046ef42 f   choco:const.obj
 0001:0006df4c       ?choco_abstractInstantiate_AbstractConstraint@@YAPAVClaireBoolean@@PAVAbstractConstraint@@H@Z 0046ef4c f   choco:const.obj
 0001:0006df56       ?choco_abstractRemoveVal_AbstractConstraint@@YAPAVClaireBoolean@@PAVAbstractConstraint@@HH@Z 0046ef56 f   choco:const.obj
 0001:0006df60       ?choco_awakeOnInf_Delayer@@YAXPAVDelayer@@H@Z 0046ef60 f   choco:const.obj
 0001:0006e094       ?choco_awakeOnSup_Delayer@@YAXPAVDelayer@@H@Z 0046f094 f   choco:const.obj
 0001:0006e1c8       ?choco_awakeOnInst_Delayer@@YAXPAVDelayer@@H@Z 0046f1c8 f   choco:const.obj
 0001:0006e2fc       ?choco_awakeOnRem_Delayer@@YAXPAVDelayer@@HH@Z 0046f2fc f   choco:const.obj
 0001:0006e433       ?choco_testIfSatisfied_Delayer@@YAPAVClaireBoolean@@PAVDelayer@@@Z 0046f433 f   choco:const.obj
 0001:0006e567       ?choco_testIfCompletelyInstantiated_Delayer@@YAPAVClaireBoolean@@PAVDelayer@@@Z 0046f567 f   choco:const.obj
 0001:0006e69b       ?choco_getNbVars_Delayer@@YAHPAVDelayer@@@Z 0046f69b f   choco:const.obj
 0001:0006e7b9       ?choco_askIfEntailed_Delayer@@YAHPAVDelayer@@@Z 0046f7b9 f   choco:const.obj
 0001:0006e8d7       ?choco_propagate_Delayer@@YAXPAVDelayer@@@Z 0046f8d7 f   choco:const.obj
 0001:0006e9e6       ?choco_awake_Delayer_choco@@YAXPAVDelayer@@@Z 0046f9e6 f   choco:const.obj
 0001:0006eae6       ?choco_getVar_Delayer_choco@@YAPAVAbstractVar@@PAVDelayer@@H@Z 0046fae6 f   choco:const.obj
 0001:0006ec02       ?choco_addIntVar_Problem@@YAXPAVProblem@@PAVIntVar@@@Z 0046fc02 f   choco:const.obj
 0001:0006ed2f       ?choco_connect_IntConstraint_choco@@YAXPAVIntConstraint@@@Z 0046fd2f f   choco:const.obj
 0001:0006eedd       ?choco_connect_UnIntConstraint_choco@@YAXPAVUnIntConstraint@@@Z 0046fedd f   choco:const.obj
 0001:0006f00e       ?choco_connect_BinIntConstraint_choco@@YAXPAVBinIntConstraint@@@Z 0047000e f   choco:const.obj
 0001:0006f15d       ?choco_connect_TernIntConstraint_choco@@YAXPAVTernIntConstraint@@@Z 0047015d f   choco:const.obj
 0001:0006f2ca       ?choco_connect_LargeIntConstraint_choco@@YAXPAVLargeIntConstraint@@@Z 004702ca f   choco:const.obj
 0001:0006f432       ?choco_connect_CompositeConstraint_choco@@YAXPAVCompositeConstraint@@@Z 00470432 f   choco:const.obj
 0001:0006f56d       ?choco_connect_Delayer_choco@@YAXPAVDelayer@@@Z 0047056d f   choco:const.obj
 0001:0006f6c7       ?choco_connectIntVar_AbstractConstraint1@@YAXPAVAbstractConstraint@@PAVIntVar@@H@Z 004706c7 f   choco:const.obj
 0001:0006f6fa       ?choco_connectIntVar_AbstractConstraint2@@YAXPAVAbstractConstraint@@PAVIntVar@@HPAVClaireBoolean@@222@Z 004706fa f   choco:const.obj
 0001:0006f8c2       ?choco_connectIntVarEvents_IntVar_choco@@YAXPAVIntVar@@PAVClaireBoolean@@111@Z 004708c2 f   choco:const.obj
 0001:0006fa25       ?choco_connectEvent_VarEvent@@YAXPAVVarEvent@@HPAVClaireBoolean@@@Z 00470a25 f   choco:const.obj
 0001:0006fc12       ?choco_disconnectIntVar_IntVar@@YAXPAVIntVar@@H@Z 00470c12 f   choco:const.obj
 0001:0006fc53       ?choco_disconnectIntVarEvents_IntVar_choco@@YAXPAVIntVar@@HPAVClaireBoolean@@111@Z 00470c53 f   choco:const.obj
 0001:0006fdc6       ?choco_disconnectEvent_VarEvent@@YAXPAVVarEvent@@H@Z 00470dc6 f   choco:const.obj
 0001:0007009b       ?choco_connectSetVar_AbstractConstraint1@@YAXPAVAbstractConstraint@@PAVSetVar@@H@Z 0047109b f   choco:const.obj
 0001:000700c8       ?choco_connectSetVar_AbstractConstraint2@@YAXPAVAbstractConstraint@@PAVSetVar@@HPAVClaireBoolean@@22@Z 004710c8 f   choco:const.obj
 0001:0007027e       ?choco_connectSetVarEvents_SetVar_choco@@YAXPAVSetVar@@PAVClaireBoolean@@11@Z 0047127e f   choco:const.obj
 0001:000703bf       ?choco_disconnectSetVar_SetVar@@YAXPAVSetVar@@H@Z 004713bf f   choco:const.obj
 0001:000703fa       ?choco_disconnectSetVarEvents_SetVar_choco@@YAXPAVSetVar@@HPAVClaireBoolean@@11@Z 004713fa f   choco:const.obj
 0001:00070547       ?choco_reconnectSetVar_SetVar@@YAXPAVSetVar@@H@Z 00471547 f   choco:const.obj
 0001:00070582       ?choco_reconnectSetVarEvents_SetVar_choco@@YAXPAVSetVar@@HPAVClaireBoolean@@11@Z 00471582 f   choco:const.obj
 0001:000706cf       ?choco_disconnect_UnIntConstraint_choco@@YAXPAVUnIntConstraint@@@Z 004716cf f   choco:const.obj
 0001:00070802       ?choco_disconnect_BinIntConstraint_choco@@YAXPAVBinIntConstraint@@@Z 00471802 f   choco:const.obj
 0001:00070952       ?choco_disconnect_TernIntConstraint_choco@@YAXPAVTernIntConstraint@@@Z 00471952 f   choco:const.obj
 0001:00070ac2       ?choco_disconnect_LargeIntConstraint_choco@@YAXPAVLargeIntConstraint@@@Z 00471ac2 f   choco:const.obj
 0001:00070c36       ?choco_disconnect_Delayer_choco@@YAXPAVDelayer@@@Z 00471c36 f   choco:const.obj
 0001:00070d68       ?choco_reconnect_UnIntConstraint_choco@@YAXPAVUnIntConstraint@@@Z 00471d68 f   choco:const.obj
 0001:00070e9b       ?choco_reconnect_BinIntConstraint_choco@@YAXPAVBinIntConstraint@@@Z 00471e9b f   choco:const.obj
 0001:00070feb       ?choco_reconnect_TernIntConstraint_choco@@YAXPAVTernIntConstraint@@@Z 00471feb f   choco:const.obj
 0001:0007115b       ?choco_reconnect_LargeIntConstraint_choco@@YAXPAVLargeIntConstraint@@@Z 0047215b f   choco:const.obj
 0001:000712cf       ?choco_reconnect_AbstractConstraint_choco@@YAXPAVAbstractConstraint@@@Z 004722cf f   choco:const.obj
 0001:0007132b       ?choco_reconnectIntVar_IntVar@@YAXPAVIntVar@@H@Z 0047232b f   choco:const.obj
 0001:0007136c       ?choco_reconnectIntVarEvents_IntVar_choco@@YAXPAVIntVar@@HPAVClaireBoolean@@111@Z 0047236c f   choco:const.obj
 0001:000714df       ?choco_reconnectEvent_VarEvent@@YAXPAVVarEvent@@H@Z 004724df f   choco:const.obj
 0001:000715d9       ?choco_isActive_AbstractConstraint_choco@@YAPAVClaireBoolean@@PAVAbstractConstraint@@@Z 004725d9 f   choco:const.obj
 0001:00071623       ?choco_isActive_UnIntConstraint_choco@@YAPAVClaireBoolean@@PAVUnIntConstraint@@@Z 00472623 f   choco:const.obj
 0001:00071721       ?choco_isActive_BinIntConstraint_choco@@YAPAVClaireBoolean@@PAVBinIntConstraint@@@Z 00472721 f   choco:const.obj
 0001:00071874       ?choco_isActive_TernIntConstraint_choco@@YAPAVClaireBoolean@@PAVTernIntConstraint@@@Z 00472874 f   choco:const.obj
 0001:00071a00       ?choco_isActive_LargeIntConstraint_choco@@YAPAVClaireBoolean@@PAVLargeIntConstraint@@@Z 00472a00 f   choco:const.obj
 0001:00071aa4       ?choco_isActive_Delayer_choco@@YAPAVClaireBoolean@@PAVDelayer@@@Z 00472aa4 f   choco:const.obj
 0001:00071bbb       ?choco_isActive_BinCompositeConstraint_choco@@YAPAVClaireBoolean@@PAVBinCompositeConstraint@@@Z 00472bbb f   choco:const.obj
 0001:00071d41       ?choco_isActive_LargeCompositeConstraint_choco@@YAPAVClaireBoolean@@PAVLargeCompositeConstraint@@@Z 00472d41 f   choco:const.obj
 0001:00071ea8       ?choco_isActiveIntVar_IntVar@@YAPAVClaireBoolean@@PAVIntVar@@H@Z 00472ea8 f   choco:const.obj
 0001:00072063       ?choco_isActiveSetVar_SetVar@@YAPAVClaireBoolean@@PAVSetVar@@H@Z 00473063 f   choco:const.obj
 0001:000721e6       ?choco_isActiveEvent_VarEvent@@YAPAVClaireBoolean@@PAVVarEvent@@H@Z 004731e6 f   choco:const.obj
 0001:00072270       ??Abag@@QAEAAHH@Z          00473270 f i choco:const.obj
 0001:00072290       ?choco_selectBranchingObject_AbstractBranching_choco@@YAHPAVAbstractBranching@@@Z 00473290 f   choco:search.obj
 0001:000722da       ?choco_goDownBranch_AbstractBranching_choco@@YAXPAVAbstractBranching@@HH@Z 004732da f   choco:search.obj
 0001:0007232c       ?choco_traceDownBranch_AbstractBranching_choco@@YAXPAVAbstractBranching@@HH@Z 0047332c f   choco:search.obj
 0001:0007237e       ?choco_getFirstBranch_AbstractBranching_choco@@YAHPAVAbstractBranching@@H@Z 0047337e f   choco:search.obj
 0001:000723ce       ?choco_getNextBranch_AbstractBranching_choco@@YAHPAVAbstractBranching@@HH@Z 004733ce f   choco:search.obj
 0001:0007241e       ?choco_goUpBranch_AbstractBranching_choco@@YAXPAVAbstractBranching@@HH@Z 0047341e f   choco:search.obj
 0001:00072470       ?choco_traceUpBranch_AbstractBranching_choco@@YAXPAVAbstractBranching@@HH@Z 00473470 f   choco:search.obj
 0001:000724c2       ?choco_finishedBranching_AbstractBranching_choco@@YAPAVClaireBoolean@@PAVAbstractBranching@@HH@Z 004734c2 f   choco:search.obj
 0001:00072515       ?choco_branchOn_AbstractBranching@@YAPAVClaireBoolean@@PAVAbstractBranching@@HH@Z 00473515 f   choco:search.obj
 0001:0007256c       ?choco_goUpBranch_LargeBranching_choco@@YAXPAVLargeBranching@@HH@Z 0047356c f   choco:search.obj
 0001:00072571       ?choco_traceUpBranch_LargeBranching_choco@@YAXPAVLargeBranching@@HH@Z 00473571 f   choco:search.obj
 0001:00072576       ?choco_getFirstBranch_LargeBranching_choco@@YAHPAVLargeBranching@@H@Z 00473576 f   choco:search.obj
 0001:00072580       ?choco_getNextBranch_LargeBranching_choco@@YAHPAVLargeBranching@@HH@Z 00473580 f   choco:search.obj
 0001:0007258a       ?choco_finishedBranching_LargeBranching_choco@@YAPAVClaireBoolean@@PAVLargeBranching@@HH@Z 0047358a f   choco:search.obj
 0001:0007259d       ?choco_selectBranching_CompositeBranching@@YAPAVAbstractBranching@@PAVCompositeBranching@@@Z 0047359d f   choco:search.obj
 0001:000725e5       ?choco_selectBranchingObject_CompositeBranching_choco@@YAHPAVCompositeBranching@@@Z 004735e5 f   choco:search.obj
 0001:00072724       ?choco_getFirstBranch_CompositeBranching_choco@@YAHPAVCompositeBranching@@H@Z 00473724 f   choco:search.obj
 0001:00072790       ?choco_getNextBranch_CompositeBranching_choco@@YAHPAVCompositeBranching@@HH@Z 00473790 f   choco:search.obj
 0001:00072800       ?choco_goUpBranch_CompositeBranching_choco@@YAXPAVCompositeBranching@@HH@Z 00473800 f   choco:search.obj
 0001:00072863       ?choco_traceUpBranch_CompositeBranching_choco@@YAXPAVCompositeBranching@@HH@Z 00473863 f   choco:search.obj
 0001:000728c6       ?choco_goDownBranch_CompositeBranching_choco@@YAXPAVCompositeBranching@@HH@Z 004738c6 f   choco:search.obj
 0001:00072929       ?choco_traceDownBranch_CompositeBranching_choco@@YAXPAVCompositeBranching@@HH@Z 00473929 f   choco:search.obj
 0001:0007298c       ?choco_finishedBranching_CompositeBranching_choco@@YAPAVClaireBoolean@@PAVCompositeBranching@@HH@Z 0047398c f   choco:search.obj
 0001:00072a12       ?choco_selectVar_VarSelector@@YAHPAVVarSelector@@@Z 00473a12 f   choco:search.obj
 0001:00072a73       ?choco_selectVar_MinDomain@@YAHPAVMinDomain@@@Z 00473a73 f   choco:search.obj
 0001:00072ca9       ?choco_selectVar_MaxDeg@@YAHPAVMaxDeg@@@Z 00473ca9 f   choco:search.obj
 0001:00072edf       ?choco_selectVar_DomDeg@@YAHPAVDomDeg@@@Z 00473edf f   choco:search.obj
 0001:0007314c       ?choco_selectVar_StaticVarOrder@@YAHPAVStaticVarOrder@@@Z 0047414c f   choco:search.obj
 0001:000732eb       ?choco_isOver_ValIterator@@YAPAVClaireBoolean@@PAVValIterator@@PAVIntVar@@H@Z 004742eb f   choco:search.obj
 0001:0007334c       ?choco_getFirstVal_ValIterator@@YAHPAVValIterator@@PAVIntVar@@@Z 0047434c f   choco:search.obj
 0001:000733aa       ?choco_getNextVal_ValIterator@@YAHPAVValIterator@@PAVIntVar@@H@Z 004743aa f   choco:search.obj
 0001:00073408       ?choco_isOver_IncreasingDomain@@YAPAVClaireBoolean@@PAVIncreasingDomain@@PAVIntVar@@H@Z 00474408 f   choco:search.obj
 0001:00073423       ?choco_getFirstVal_IncreasingDomain@@YAHPAVIncreasingDomain@@PAVIntVar@@@Z 00474423 f   choco:search.obj
 0001:00073431       ?choco_getNextVal_IncreasingDomain@@YAHPAVIncreasingDomain@@PAVIntVar@@H@Z 00474431 f   choco:search.obj
 0001:00073446       ?choco_isOver_DecreasingDomain@@YAPAVClaireBoolean@@PAVDecreasingDomain@@PAVIntVar@@H@Z 00474446 f   choco:search.obj
 0001:00073461       ?choco_getFirstVal_DecreasingDomain@@YAHPAVDecreasingDomain@@PAVIntVar@@@Z 00474461 f   choco:search.obj
 0001:0007346f       ?choco_getNextVal_DecreasingDomain@@YAHPAVDecreasingDomain@@PAVIntVar@@H@Z 0047446f f   choco:search.obj
 0001:00073484       ?choco_getBestVal_ValSelector@@YAHPAVValSelector@@PAVIntVar@@@Z 00474484 f   choco:search.obj
 0001:000734e2       ?choco_getBestVal_MidValHeuristic@@YAHPAVMidValHeuristic@@PAVIntVar@@@Z 004744e2 f   choco:search.obj
 0001:00073509       ?choco_getBestVal_MinValHeuristic@@YAHPAVMinValHeuristic@@PAVIntVar@@@Z 00474509 f   choco:search.obj
 0001:00073517       ?choco_getBestVal_MaxValHeuristic@@YAHPAVMaxValHeuristic@@PAVIntVar@@@Z 00474517 f   choco:search.obj
 0001:00073525       ?choco_getObjectiveValue_AbstractOptimize_choco@@YAHPAVAbstractOptimize@@@Z 00474525 f   choco:search.obj
 0001:0007356d       ?choco_getBestObjectiveValue_AbstractOptimize@@YAHPAVAbstractOptimize@@@Z 0047456d f   choco:search.obj
 0001:000735a9       ?choco_getObjectiveTarget_AbstractOptimize@@YAHPAVAbstractOptimize@@@Z 004745a9 f   choco:search.obj
 0001:000735e5       ?choco_initBounds_AbstractOptimize@@YAXPAVAbstractOptimize@@@Z 004745e5 f   choco:search.obj
 0001:00073725       ?choco_getFeasibility_GlobalSearchSolver@@YAPAVClaireBoolean@@PAVGlobalSearchSolver@@@Z 00474725 f   choco:search.obj
 0001:00073733       ?choco_mayExpandNewNode_GlobalSearchLimit@@YAPAVClaireBoolean@@PAVGlobalSearchLimit@@PAVGlobalSearchSolver@@@Z 00474733 f   choco:search.obj
 0001:0007373d       ?choco_mayExpandNewNode_NodeLimit@@YAPAVClaireBoolean@@PAVNodeLimit@@PAVGlobalSearchSolver@@@Z 0047473d f   choco:search.obj
 0001:00073758       ?choco_mayExpandNewNode_BacktrackLimit@@YAPAVClaireBoolean@@PAVBacktrackLimit@@PAVGlobalSearchSolver@@@Z 00474758 f   choco:search.obj
 0001:00073773       ?choco_mayExpandNewNode_TimeLimit@@YAPAVClaireBoolean@@PAVTimeLimit@@PAVGlobalSearchSolver@@@Z 00474773 f   choco:search.obj
 0001:0007378d       ?choco_copyParameters_GlobalSearchSolver@@YAXPAVGlobalSearchSolver@@0@Z 0047478d f   choco:search.obj
 0001:000737ef       ?choco_attach_GlobalSearchSolver@@YAXPAVGlobalSearchSolver@@PAVProblem@@@Z 004747ef f   choco:search.obj
 0001:00073806       ?choco_composeGlobalSearch_GlobalSearchSolver@@YAPAVGlobalSearchSolver@@PAV1@PAVlist@@@Z 00474806 f   choco:search.obj
 0001:000738e7       ?choco_composeGlobalSearch_GlobalSearchSolver_type@@YAPAVClaireType@@PAV1@0@Z 004748e7 f   choco:search.obj
 0001:000738ef       ?choco_getSmallestDomainUnassignedVar_Problem@@YAHPAVProblem@@@Z 004748ef f   choco:search.obj
 0001:00073ae2       ?choco_getSmallestDomainUnassignedVar_list@@YAHPAVlist@@@Z 00474ae2 f   choco:search.obj
 0001:00073bf0       ?choco_getDomOverDegBestUnassignedVar_Problem@@YAHPAVProblem@@@Z 00474bf0 f   choco:search.obj
 0001:00073e18       ?choco_getDomOverDegBestUnassignedVar_list@@YAHPAVlist@@@Z 00474e18 f   choco:search.obj
 0001:00073f5a       ?choco_getMostConstrainedUnassignedVar_Problem@@YAHPAVProblem@@@Z 00474f5a f   choco:search.obj
 0001:00074141       ?choco_getMostConstrainedUnassignedVar_list@@YAHPAVlist@@@Z 00475141 f   choco:search.obj
 0001:0007424f       ?choco_storeCurrentSolution_Solver@@YAXPAVSolver@@@Z 0047524f f   choco:search.obj
 0001:00074351       ?choco_makeSolutionFromCurrentState_Solver@@YAPAVSolution@@PAVSolver@@@Z 00475351 f   choco:search.obj
 0001:0007459e       ?choco_storeSolution_Solver@@YAXPAVSolver@@PAVSolution@@@Z 0047559e f   choco:search.obj
 0001:0007470c       ?choco_existsSolution_Solver@@YAPAVClaireBoolean@@PAVSolver@@@Z 0047570c f   choco:search.obj
 0001:00074725       ?choco_restoreBestSolution_Solver@@YAXPAVSolver@@@Z 00475725 f   choco:search.obj
 0001:0007482c       ?choco_restoreSolution_Solution@@YAXPAVSolution@@@Z 0047582c f   choco:search.obj
 0001:000749ea       ?choco_showSolution_Solver@@YAHPAVSolver@@@Z 004759ea f   choco:search.obj
 0001:00074b9e       ?choco_explore_AbstractBranching@@YAPAVClaireBoolean@@PAVAbstractBranching@@H@Z 00475b9e f   choco:search.obj
 0001:00074deb       ?choco_branchOn_LargeBranching@@YAPAVClaireBoolean@@PAVLargeBranching@@HH@Z 00475deb f   choco:search.obj
 0001:000752ee       ?choco_branchOn_BinBranching@@YAPAVClaireBoolean@@PAVBinBranching@@HH@Z 004762ee f   choco:search.obj
 0001:00075769       ?choco_selectBranchingObject_SplitDomain_choco@@YAHPAVSplitDomain@@@Z 00476769 f   choco:search.obj
 0001:0007594a       ?choco_goDownBranch_SplitDomain_choco@@YAXPAVSplitDomain@@HH@Z 0047694a f   choco:search.obj
 0001:00075ad2       ?choco_traceDownBranch_SplitDomain_choco@@YAXPAVSplitDomain@@HH@Z 00476ad2 f   choco:search.obj
 0001:00075bc9       ?choco_selectBranchingObject_AssignOrForbid_choco@@YAHPAVAssignOrForbid@@@Z 00476bc9 f   choco:search.obj
 0001:00075d8b       ?choco_goDownBranch_AssignOrForbid_choco@@YAXPAVAssignOrForbid@@HH@Z 00476d8b f   choco:search.obj
 0001:00075efe       ?choco_traceDownBranch_AssignOrForbid_choco@@YAXPAVAssignOrForbid@@HH@Z 00476efe f   choco:search.obj
 0001:00075ff5       ?choco_selectBranchingObject_AssignVar_choco@@YAHPAVAssignVar@@@Z 00476ff5 f   choco:search.obj
 0001:00076113       ?choco_finishedBranching_AssignVar_choco@@YAPAVClaireBoolean@@PAVAssignVar@@HH@Z 00477113 f   choco:search.obj
 0001:00076265       ?choco_getFirstBranch_AssignVar_choco@@YAHPAVAssignVar@@H@Z 00477265 f   choco:search.obj
 0001:0007639d       ?choco_getNextBranch_AssignVar_choco@@YAHPAVAssignVar@@HH@Z 0047739d f   choco:search.obj
 0001:000764d9       ?choco_goDownBranch_AssignVar_choco@@YAXPAVAssignVar@@HH@Z 004774d9 f   choco:search.obj
 0001:000765f4       ?choco_goUpBranch_AssignVar_choco@@YAXPAVAssignVar@@HH@Z 004775f4 f   choco:search.obj
 0001:00076720       ?choco_traceDownBranch_AssignVar_choco@@YAXPAVAssignVar@@HH@Z 00477720 f   choco:search.obj
 0001:0007678f       ?choco_traceUpBranch_AssignVar_choco@@YAXPAVAssignVar@@HH@Z 0047778f f   choco:search.obj
 0001:000767fe       ?choco_selectBranchingObject_SettleBinDisjunction_choco@@YAHPAVSettleBinDisjunction@@@Z 004777fe f   choco:search.obj
 0001:000768e5       ?choco_goDownBranch_SettleBinDisjunction_choco@@YAXPAVSettleBinDisjunction@@HH@Z 004778e5 f   choco:search.obj
 0001:00076aea       ?choco_traceDownBranch_SettleBinDisjunction_choco@@YAXPAVSettleBinDisjunction@@HH@Z 00477aea f   choco:search.obj
 0001:00076d86       ?choco_newTreeSearch_GlobalSearchSolver@@YAXPAVGlobalSearchSolver@@@Z 00477d86 f   choco:search.obj
 0001:00076db9       ?choco_endTreeSearch_GlobalSearchSolver@@YAXPAVGlobalSearchSolver@@@Z 00477db9 f   choco:search.obj
 0001:00076fa7       ?choco_newNode_GlobalSearchSolver@@YAXPAVGlobalSearchSolver@@@Z 00477fa7 f   choco:search.obj
 0001:00077169       ?choco_endNode_GlobalSearchSolver@@YAXPAVGlobalSearchSolver@@@Z 00478169 f   choco:search.obj
 0001:0007717d       ?choco_recordSolution_GlobalSearchSolver@@YAXPAVGlobalSearchSolver@@@Z 0047817d f   choco:search.obj
 0001:000771fe       ?choco_postDynamicCut_GlobalSearchSolver@@YAXPAVGlobalSearchSolver@@@Z 004781fe f   choco:search.obj
 0001:00077203       ?choco_recordSolution_AbstractOptimize@@YAXPAVAbstractOptimize@@@Z 00478203 f   choco:search.obj
 0001:000773c9       ?choco_setBound_AbstractOptimize@@YAXPAVAbstractOptimize@@@Z 004783c9 f   choco:search.obj
 0001:0007744d       ?choco_setTargetBound_AbstractOptimize@@YAXPAVAbstractOptimize@@@Z 0047844d f   choco:search.obj
 0001:0007747a       ?choco_setTargetLowerBound_AbstractOptimize@@YAXPAVAbstractOptimize@@@Z 0047847a f   choco:search.obj
 0001:0007760a       ?choco_setTargetUpperBound_AbstractOptimize@@YAXPAVAbstractOptimize@@@Z 0047860a f   choco:search.obj
 0001:0007779a       ?choco_postTargetBound_AbstractOptimize@@YAXPAVAbstractOptimize@@@Z 0047879a f   choco:search.obj
 0001:000777c7       ?choco_postTargetLowerBound_AbstractOptimize@@YAXPAVAbstractOptimize@@@Z 004787c7 f   choco:search.obj
 0001:000778d1       ?choco_postTargetUpperBound_AbstractOptimize@@YAXPAVAbstractOptimize@@@Z 004788d1 f   choco:search.obj
 0001:000779db       ?choco_newTreeSearch_OptimizeWithRestarts@@YAXPAVOptimizeWithRestarts@@@Z 004789db f   choco:search.obj
 0001:00077b16       ?choco_endTreeSearch_OptimizeWithRestarts@@YAXPAVOptimizeWithRestarts@@@Z 00478b16 f   choco:search.obj
 0001:00077b67       ?choco_postDynamicCut_OptimizeWithRestarts@@YAXPAVOptimizeWithRestarts@@@Z 00478b67 f   choco:search.obj
 0001:00077b6c       ?choco_run_GlobalSearchSolver@@YAXPAVGlobalSearchSolver@@@Z 00478b6c f   choco:search.obj
 0001:00077bc8       ?choco_run_Solve@@YAXPAVSolve@@@Z 00478bc8 f   choco:search.obj
 0001:000780e7       ?choco_run_BranchAndBound@@YAXPAVBranchAndBound@@@Z 004790e7 f   choco:search.obj
 0001:000785ff       ?choco_postDynamicCut_BranchAndBound@@YAXPAVBranchAndBound@@@Z 004795ff f   choco:search.obj
 0001:000786fb       ?choco_newTreeSearch_BranchAndBound@@YAXPAVBranchAndBound@@@Z 004796fb f   choco:search.obj
 0001:00078711       ?choco_endTreeSearch_BranchAndBound@@YAXPAVBranchAndBound@@@Z 00479711 f   choco:search.obj
 0001:000787f1       ?choco_newLoop_OptimizeWithRestarts@@YAXPAVOptimizeWithRestarts@@@Z 004797f1 f   choco:search.obj
 0001:0007882f       ?choco_endLoop_OptimizeWithRestarts@@YAXPAVOptimizeWithRestarts@@@Z 0047982f f   choco:search.obj
 0001:00078a56       ?choco_recordNoSolution_OptimizeWithRestarts@@YAXPAVOptimizeWithRestarts@@@Z 00479a56 f   choco:search.obj
 0001:00078c1f       ?choco_oneMoreLoop_OptimizeWithRestarts@@YAPAVClaireBoolean@@PAVOptimizeWithRestarts@@@Z 00479c1f f   choco:search.obj
 0001:00078c3a       ?choco_run_OptimizeWithRestarts@@YAXPAVOptimizeWithRestarts@@@Z 00479c3a f   choco:search.obj
 0001:000790a0       ?choco_makeConflictCount_void@@YAPAVConflictCount@@XZ 0047a0a0 f   choco:search.obj
 0001:00079282       ?choco_attachInvariantEngine_Problem@@YAXPAVProblem@@PAVInvariantEngine@@@Z 0047a282 f   choco:search.obj
 0001:00079299       ?choco_unitaryDeltaConflict_IntVar@@YAHPAVIntVar@@HHPAVAbstractConstraint@@@Z 0047a299 f   choco:search.obj
 0001:000794dd       ?choco_deltaNbConflicts_IntVar@@YAHPAVIntVar@@HH@Z 0047a4dd f   choco:search.obj
 0001:0007966c       ?choco_getMinConflictValue_IntVar@@YAHPAVIntVar@@@Z 0047a66c f   choco:search.obj
 0001:0007998c       ?choco_computeConflictAccount_ConflictCount@@YAXPAVConflictCount@@@Z 0047a98c f   choco:search.obj
 0001:00079ff7       ?choco_resetInvariants_InvariantEngine@@YAXPAVInvariantEngine@@@Z 0047aff7 f   choco:search.obj
 0001:0007a053       ?choco_resetInvariants_ConflictCount@@YAXPAVConflictCount@@@Z 0047b053 f   choco:search.obj
 0001:0007a12e       ?choco_getLocalSearchObjectiveValue_InvariantEngine@@YAHPAVInvariantEngine@@@Z 0047b12e f   choco:search.obj
 0001:0007a18c       ?choco_getLocalSearchObjectiveValue_ConflictCount@@YAHPAVConflictCount@@@Z 0047b18c f   choco:search.obj
 0001:0007a197       ?choco_restoreBestAssignment_LocalSearchSolver@@YAXPAVLocalSearchSolver@@@Z 0047b197 f   choco:search.obj
 0001:0007a4a0       ?choco_saveAssignment_LocalSearchSolver@@YAXPAVLocalSearchSolver@@@Z 0047b4a0 f   choco:search.obj
 0001:0007a51c       ?choco_setFeasibleMode_Problem@@YAXPAVProblem@@PAVClaireBoolean@@@Z 0047b51c f   choco:search.obj
 0001:0007a97d       ?choco_selectMoveVar_AssignmentHeuristic@@YAHPAVAssignmentHeuristic@@@Z 0047b97d f   choco:search.obj
 0001:0007a9f2       ?choco_selectValue_AssignmentHeuristic@@YAHPAVAssignmentHeuristic@@PAVIntVar@@@Z 0047b9f2 f   choco:search.obj
 0001:0007ab29       ?choco_assignOneVar_AssignmentHeuristic@@YAPAVClaireBoolean@@PAVAssignmentHeuristic@@@Z 0047bb29 f   choco:search.obj
 0001:0007ac74       ?choco_build_AssignmentHeuristic@@YAXPAVAssignmentHeuristic@@@Z 0047bc74 f   choco:search.obj
 0001:0007ad7f       ?choco_eraseAssignment_ConflictCount@@YAXPAVConflictCount@@@Z 0047bd7f f   choco:search.obj
 0001:0007b4b2       ?choco_checkCleanState_ConflictCount@@YAHPAVConflictCount@@@Z 0047c4b2 f   choco:search.obj
 0001:0007b4bf       ?choco_selectMoveVar_FlipNeighborhood@@YAHPAVFlipNeighborhood@@@Z 0047c4bf f   choco:search.obj
 0001:0007b5df       ?choco_newValue_FlipNeighborhood@@YAHPAVFlipNeighborhood@@PAVIntVar@@@Z 0047c5df f   choco:search.obj
 0001:0007b5f0       ?choco_move_FlipNeighborhood@@YAPAVClaireBoolean@@PAVFlipNeighborhood@@@Z 0047c5f0 f   choco:search.obj
 0001:0007b73b       ?choco_finishedLoop_LocalSearchSolver@@YAPAVClaireBoolean@@PAVLocalSearchSolver@@@Z 0047c73b f   choco:search.obj
 0001:0007b78f       ?choco_initLoop_LocalSearchSolver@@YAXPAVLocalSearchSolver@@@Z 0047c78f f   choco:search.obj
 0001:0007b7ad       ?choco_endLoop_LocalSearchSolver@@YAXPAVLocalSearchSolver@@@Z 0047c7ad f   choco:search.obj
 0001:0007b8fd       ?choco_copyParameters_LocalSearchSolver@@YAXPAVLocalSearchSolver@@0@Z 0047c8fd f   choco:search.obj
 0001:0007b945       ?choco_attachLocalSearchSolver_Problem@@YAXPAVProblem@@PAVLocalSearchSolver@@@Z 0047c945 f   choco:search.obj
 0001:0007ba5a       ?choco_runLocalSearch_LocalSearchSolver@@YAXPAVLocalSearchSolver@@@Z 0047ca5a f   choco:search.obj
 0001:0007bc2b       ?choco_initIterations_MultipleDescent@@YAXPAVMultipleDescent@@@Z 0047cc2b f   choco:search.obj
 0001:0007bdf1       ?choco_finishedIterations_LocalSearchSolver@@YAPAVClaireBoolean@@PAVLocalSearchSolver@@@Z 0047cdf1 f   choco:search.obj
 0001:0007be3f       ?choco_oneMoreMove_LocalSearchSolver@@YAXPAVLocalSearchSolver@@@Z 0047ce3f f   choco:search.obj
 0001:0007be53       ?choco_becomesAConflict_AbstractConstraint@@YAXPAVAbstractConstraint@@PAVConflictCount@@@Z 0047ce53 f   choco:search.obj
 0001:0007bfdd       ?choco_becomesAConflict_UnIntConstraint@@YAXPAVUnIntConstraint@@PAVConflictCount@@@Z 0047cfdd f   choco:search.obj
 0001:0007c0ea       ?choco_becomesAConflict_BinIntConstraint@@YAXPAVBinIntConstraint@@PAVConflictCount@@@Z 0047d0ea f   choco:search.obj
 0001:0007c213       ?choco_becomesAConflict_TernIntConstraint@@YAXPAVTernIntConstraint@@PAVConflictCount@@@Z 0047d213 f   choco:search.obj
 0001:0007c358       ?choco_becomesAConflict_LargeIntConstraint@@YAXPAVLargeIntConstraint@@PAVConflictCount@@@Z 0047d358 f   choco:search.obj
 0001:0007c4d8       ?choco_becomesSatisfied_AbstractConstraint@@YAXPAVAbstractConstraint@@PAVConflictCount@@@Z 0047d4d8 f   choco:search.obj
 0001:0007c662       ?choco_becomesSatisfied_UnIntConstraint@@YAXPAVUnIntConstraint@@PAVConflictCount@@@Z 0047d662 f   choco:search.obj
 0001:0007c76f       ?choco_becomesSatisfied_BinIntConstraint@@YAXPAVBinIntConstraint@@PAVConflictCount@@@Z 0047d76f f   choco:search.obj
 0001:0007c898       ?choco_becomesSatisfied_TernIntConstraint@@YAXPAVTernIntConstraint@@PAVConflictCount@@@Z 0047d898 f   choco:search.obj
 0001:0007c9dd       ?choco_becomesSatisfied_LargeIntConstraint@@YAXPAVLargeIntConstraint@@PAVConflictCount@@@Z 0047d9dd f   choco:search.obj
 0001:0007cb5d       ?choco_addOneConflict_ConflictCount@@YAXPAVConflictCount@@PAVIntVar@@@Z 0047db5d f   choco:search.obj
 0001:0007cc74       ?choco_removeOneConflict_ConflictCount@@YAXPAVConflictCount@@PAVIntVar@@@Z 0047dc74 f   choco:search.obj
 0001:0007ccb3       ?choco_postAssignVal_ConflictCount@@YAXPAVConflictCount@@PAVIntVar@@H@Z 0047dcb3 f   choco:search.obj
 0001:0007d2d9       ?choco_postUnAssignVal_ConflictCount@@YAXPAVConflictCount@@PAVIntVar@@@Z 0047e2d9 f   choco:search.obj
 0001:0007d8c1       ?choco_postChangeVal_ConflictCount@@YAXPAVConflictCount@@PAVIntVar@@HH@Z 0047e8c1 f   choco:search.obj
 0001:0007de60       ?claire__sup_equal_IntVar1@@YAPAVGreaterOrEqualxc@@PAVIntVar@@H@Z 0047ee60 f   choco:opapi.obj
 0001:0007df70       ?claire__sup_IntVar1@@YAPAVGreaterOrEqualxc@@PAVIntVar@@H@Z 0047ef70 f   choco:opapi.obj
 0001:0007e083       ?claire__inf_equal_IntVar1@@YAPAVLessOrEqualxc@@PAVIntVar@@H@Z 0047f083 f   choco:opapi.obj
 0001:0007e193       ?claire__inf_IntVar1@@YAPAVLessOrEqualxc@@PAVIntVar@@H@Z 0047f193 f   choco:opapi.obj
 0001:0007e2a6       ?claire__equal_equal_IntVar1@@YAPAVEqualxc@@PAVIntVar@@H@Z 0047f2a6 f   choco:opapi.obj
 0001:0007e3b6       ?claire__I_equal_equal_IntVar1@@YAPAVNotEqualxc@@PAVIntVar@@H@Z 0047f3b6 f   choco:opapi.obj
 0001:0007e4c6       ?claire__sup_equal_integer1@@YAPAVLessOrEqualxc@@HPAVIntVar@@@Z 0047f4c6 f   choco:opapi.obj
 0001:0007e4db       ?claire__sup_integer2@@YAPAVLessOrEqualxc@@HPAVIntVar@@@Z 0047f4db f   choco:opapi.obj
 0001:0007e4f0       ?claire__inf_equal_integer2@@YAPAVGreaterOrEqualxc@@HPAVIntVar@@@Z 0047f4f0 f   choco:opapi.obj
 0001:0007e505       ?claire__inf_integer2@@YAPAVGreaterOrEqualxc@@HPAVIntVar@@@Z 0047f505 f   choco:opapi.obj
 0001:0007e51a       ?claire__equal_equal_integer1@@YAPAVEqualxc@@HPAVIntVar@@@Z 0047f51a f   choco:opapi.obj
 0001:0007e52f       ?claire__I_equal_equal_integer1@@YAPAVNotEqualxc@@HPAVIntVar@@@Z 0047f52f f   choco:opapi.obj
 0001:0007e544       ?claire__equal_equal_IntVar2@@YAPAVEqualxyc@@PAVIntVar@@0@Z 0047f544 f   choco:opapi.obj
 0001:0007e65d       ?claire__I_equal_equal_IntVar2@@YAPAVNotEqualxyc@@PAVIntVar@@0@Z 0047f65d f   choco:opapi.obj
 0001:0007e776       ?claire__inf_equal_IntVar2@@YAPAVGreaterOrEqualxyc@@PAVIntVar@@0@Z 0047f776 f   choco:opapi.obj
 0001:0007e88f       ?claire__sup_equal_IntVar2@@YAPAVGreaterOrEqualxyc@@PAVIntVar@@0@Z 0047f88f f   choco:opapi.obj
 0001:0007e9a8       ?claire__sup_IntVar2@@YAPAVGreaterOrEqualxyc@@PAVIntVar@@0@Z 0047f9a8 f   choco:opapi.obj
 0001:0007eac1       ?claire__inf_IntVar2@@YAPAVGreaterOrEqualxyc@@PAVIntVar@@0@Z 0047fac1 f   choco:opapi.obj
 0001:0007ebda       ?claire_self_print_UnTerm_choco@@YAHPAVUnTerm@@@Z 0047fbda f   choco:opapi.obj
 0001:0007ed6f       ?claire_self_print_BinTerm_choco@@YAHPAVBinTerm@@@Z 0047fd6f f   choco:opapi.obj
 0001:0007ef72       ?choco_sumTerms_list@@YAPAVTerm@@PAVlist@@@Z 0047ff72 f   choco:opapi.obj
 0001:0007f08f       ?claire__star_integer2@@YAPAVLinTerm@@HPAVIntVar@@@Z 0048008f f   choco:opapi.obj
 0001:0007f1d0       ?claire__star_IntVar@@YAPAVLinTerm@@PAVIntVar@@H@Z 004801d0 f   choco:opapi.obj
 0001:0007f311       ?claire__star_integer3@@YAPAVLinTerm@@HPAV1@@Z 00480311 f   choco:opapi.obj
 0001:0007f37c       ?claire__star_LinTerm@@YAPAVLinTerm@@PAV1@H@Z 0048037c f   choco:opapi.obj
 0001:0007f3d7       ?claire__plus_IntVar1@@YAPAVUnTerm@@PAVIntVar@@H@Z 004803d7 f   choco:opapi.obj
 0001:0007f4e7       ?claire__plus_integer2@@YAPAVUnTerm@@HPAVIntVar@@@Z 004804e7 f   choco:opapi.obj
 0001:0007f4fc       ?claire__plus_IntVar2@@YAPAVBinTerm@@PAVIntVar@@0@Z 004804fc f   choco:opapi.obj
 0001:0007f60c       ?claire__plus_UnTerm1@@YAPAVUnTerm@@PAV1@H@Z 0048060c f   choco:opapi.obj
 0001:0007f623       ?claire__plus_integer3@@YAPAVUnTerm@@HPAV1@@Z 00480623 f   choco:opapi.obj
 0001:0007f638       ?claire__plus_UnTerm2@@YAPAVBinTerm@@PAVUnTerm@@PAVIntVar@@@Z 00480638 f   choco:opapi.obj
 0001:0007f762       ?claire__plus_IntVar3@@YAPAVBinTerm@@PAVIntVar@@PAVUnTerm@@@Z 00480762 f   choco:opapi.obj
 0001:0007f777       ?claire__plus_UnTerm3@@YAPAVBinTerm@@PAVUnTerm@@0@Z 00480777 f   choco:opapi.obj
 0001:0007f8b7       ?claire__plus_BinTerm1@@YAPAVBinTerm@@PAV1@H@Z 004808b7 f   choco:opapi.obj
 0001:0007f8ce       ?claire__plus_integer4@@YAPAVBinTerm@@HPAV1@@Z 004808ce f   choco:opapi.obj
 0001:0007f8e3       ?claire__plus_BinTerm2@@YAPAVLinTerm@@PAVBinTerm@@PAVIntVar@@@Z 004808e3 f   choco:opapi.obj
 0001:0007fb0a       ?claire__plus_IntVar4@@YAPAVLinTerm@@PAVIntVar@@PAVBinTerm@@@Z 00480b0a f   choco:opapi.obj
 0001:0007fb1f       ?claire__plus_BinTerm3@@YAPAVLinTerm@@PAVBinTerm@@PAVUnTerm@@@Z 00480b1f f   choco:opapi.obj
 0001:0007fd7a       ?claire__plus_UnTerm4@@YAPAVLinTerm@@PAVUnTerm@@PAVBinTerm@@@Z 00480d7a f   choco:opapi.obj
 0001:0007fd8f       ?claire__plus_BinTerm4@@YAPAVLinTerm@@PAVBinTerm@@0@Z 00480d8f f   choco:opapi.obj
 0001:00080031       ?claire__plus_LinTerm1@@YAPAVLinTerm@@PAV1@H@Z 00481031 f   choco:opapi.obj
 0001:00080048       ?claire__plus_integer5@@YAPAVLinTerm@@HPAV1@@Z 00481048 f   choco:opapi.obj
 0001:0008005d       ?claire__plus_LinTerm2@@YAPAVLinTerm@@PAV1@PAVIntVar@@@Z 0048105d f   choco:opapi.obj
 0001:00080181       ?claire__plus_IntVar5@@YAPAVLinTerm@@PAVIntVar@@PAV1@@Z 00481181 f   choco:opapi.obj
 0001:00080196       ?claire__plus_LinTerm3@@YAPAVLinTerm@@PAV1@PAVUnTerm@@@Z 00481196 f   choco:opapi.obj
 0001:000802f7       ?claire__plus_UnTerm5@@YAPAVLinTerm@@PAVUnTerm@@PAV1@@Z 004812f7 f   choco:opapi.obj
 0001:0008030c       ?claire__plus_LinTerm4@@YAPAVLinTerm@@PAV1@PAVBinTerm@@@Z 0048130c f   choco:opapi.obj
 0001:00080537       ?claire__plus_BinTerm5@@YAPAVLinTerm@@PAVBinTerm@@PAV1@@Z 00481537 f   choco:opapi.obj
 0001:0008054c       ?claire__plus_LinTerm5@@YAPAVLinTerm@@PAV1@0@Z 0048154c f   choco:opapi.obj
 0001:000806b7       ?claire__dash_IntVar1@@YAPAVUnTerm@@PAVIntVar@@@Z 004816b7 f   choco:opapi.obj
 0001:000807c9       ?claire__dash_UnTerm1@@YAPAVUnTerm@@PAV1@@Z 004817c9 f   choco:opapi.obj
 0001:00080803       ?claire__dash_BinTerm1@@YAPAVBinTerm@@PAV1@@Z 00481803 f   choco:opapi.obj
 0001:00080861       ?claire__dash_LinTerm1@@YAPAVLinTerm@@PAV1@@Z 00481861 f   choco:opapi.obj
 0001:000809ce       ?claire__dash_IntVar2@@YAPAVUnTerm@@PAVIntVar@@H@Z 004819ce f   choco:opapi.obj
 0001:000809e5       ?claire__dash_UnTerm2@@YAPAVUnTerm@@PAV1@H@Z 004819e5 f   choco:opapi.obj
 0001:000809fc       ?claire__dash_BinTerm2@@YAPAVBinTerm@@PAV1@H@Z 004819fc f   choco:opapi.obj
 0001:00080a13       ?claire__dash_LinTerm2@@YAPAVLinTerm@@PAV1@H@Z 00481a13 f   choco:opapi.obj
 0001:00080a2a       ?claire__dash_integer4@@YAPAVUnTerm@@HPAVIntVar@@@Z 00481a2a f   choco:opapi.obj
 0001:00080b2b       ?claire__dash_IntVar3@@YAPAVBinTerm@@PAVIntVar@@0@Z 00481b2b f   choco:opapi.obj
 0001:00080c2c       ?claire__dash_UnTerm3@@YAPAVBinTerm@@PAVUnTerm@@PAVIntVar@@@Z 00481c2c f   choco:opapi.obj
 0001:00080d2d       ?claire__dash_BinTerm3@@YAPAVLinTerm@@PAVBinTerm@@PAVIntVar@@@Z 00481d2d f   choco:opapi.obj
 0001:00080e2e       ?claire__dash_LinTerm3@@YAPAVLinTerm@@PAV1@PAVIntVar@@@Z 00481e2e f   choco:opapi.obj
 0001:00080f2f       ?claire__dash_integer5@@YAPAVUnTerm@@HPAV1@@Z 00481f2f f   choco:opapi.obj
 0001:00081030       ?claire__dash_IntVar4@@YAPAVBinTerm@@PAVIntVar@@PAVUnTerm@@@Z 00482030 f   choco:opapi.obj
 0001:00081131       ?claire__dash_UnTerm4@@YAPAVBinTerm@@PAVUnTerm@@0@Z 00482131 f   choco:opapi.obj
 0001:00081232       ?claire__dash_BinTerm4@@YAPAVLinTerm@@PAVBinTerm@@PAVUnTerm@@@Z 00482232 f   choco:opapi.obj
 0001:00081333       ?claire__dash_LinTerm4@@YAPAVLinTerm@@PAV1@PAVUnTerm@@@Z 00482333 f   choco:opapi.obj
 0001:00081434       ?claire__dash_integer6@@YAPAVBinTerm@@HPAV1@@Z 00482434 f   choco:opapi.obj
 0001:00081535       ?claire__dash_IntVar5@@YAPAVLinTerm@@PAVIntVar@@PAVBinTerm@@@Z 00482535 f   choco:opapi.obj
 0001:00081636       ?claire__dash_UnTerm5@@YAPAVLinTerm@@PAVUnTerm@@PAVBinTerm@@@Z 00482636 f   choco:opapi.obj
 0001:00081737       ?claire__dash_BinTerm5@@YAPAVLinTerm@@PAVBinTerm@@0@Z 00482737 f   choco:opapi.obj
 0001:00081838       ?claire__dash_LinTerm5@@YAPAVLinTerm@@PAV1@PAVBinTerm@@@Z 00482838 f   choco:opapi.obj
 0001:00081939       ?claire__dash_integer7@@YAPAVLinTerm@@HPAV1@@Z 00482939 f   choco:opapi.obj
 0001:00081a3a       ?claire__dash_IntVar6@@YAPAVLinTerm@@PAVIntVar@@PAV1@@Z 00482a3a f   choco:opapi.obj
 0001:00081b3b       ?claire__dash_UnTerm6@@YAPAVLinTerm@@PAVUnTerm@@PAV1@@Z 00482b3b f   choco:opapi.obj
 0001:00081c3c       ?claire__dash_BinTerm6@@YAPAVLinTerm@@PAVBinTerm@@PAV1@@Z 00482c3c f   choco:opapi.obj
 0001:00081d3d       ?claire__dash_LinTerm6@@YAPAVLinTerm@@PAV1@0@Z 00482d3d f   choco:opapi.obj
 0001:00081e3e       ?claire__sup_equal_integer2@@YAPAVIntConstraint@@HPAVUnTerm@@@Z 00482e3e f   choco:opapi.obj
 0001:00081f41       ?claire__sup_equal_integer3@@YAPAVIntConstraint@@HPAVBinTerm@@@Z 00482f41 f   choco:opapi.obj
 0001:00082044       ?claire__sup_equal_integer4@@YAPAVIntConstraint@@HPAVLinTerm@@@Z 00483044 f   choco:opapi.obj
 0001:00082147       ?claire__sup_equal_IntVar3@@YAPAVIntConstraint@@PAVIntVar@@PAVUnTerm@@@Z 00483147 f   choco:opapi.obj
 0001:0008225a       ?claire__sup_equal_IntVar4@@YAPAVIntConstraint@@PAVIntVar@@PAVBinTerm@@@Z 0048325a f   choco:opapi.obj
 0001:0008236d       ?claire__sup_equal_IntVar5@@YAPAVIntConstraint@@PAVIntVar@@PAVLinTerm@@@Z 0048336d f   choco:opapi.obj
 0001:00082480       ?claire__sup_equal_UnTerm1@@YAPAVIntConstraint@@PAVUnTerm@@PAVBinTerm@@@Z 00483480 f   choco:opapi.obj
 0001:00082593       ?claire__sup_equal_UnTerm2@@YAPAVIntConstraint@@PAVUnTerm@@PAVLinTerm@@@Z 00483593 f   choco:opapi.obj
 0001:000826a6       ?claire__sup_equal_BinTerm1@@YAPAVIntConstraint@@PAVBinTerm@@PAVLinTerm@@@Z 004836a6 f   choco:opapi.obj
 0001:000827b9       ?claire__sup_equal_UnTerm3@@YAPAVUnIntConstraint@@PAVUnTerm@@H@Z 004837b9 f   choco:opapi.obj
 0001:00082925       ?claire__sup_equal_UnTerm4@@YAPAVIntConstraint@@PAVUnTerm@@PAVIntVar@@@Z 00483925 f   choco:opapi.obj
 0001:00082a38       ?claire__sup_equal_UnTerm5@@YAPAVIntConstraint@@PAVUnTerm@@0@Z 00483a38 f   choco:opapi.obj
 0001:00082cd8       ?claire__sup_equal_BinTerm2@@YAPAVIntConstraint@@PAVBinTerm@@H@Z 00483cd8 f   choco:opapi.obj
 0001:00082f75       ?claire__sup_equal_BinTerm3@@YAPAVLinComb@@PAVBinTerm@@PAVIntVar@@@Z 00483f75 f   choco:opapi.obj
 0001:00083172       ?claire__sup_equal_BinTerm4@@YAPAVLinComb@@PAVBinTerm@@PAVUnTerm@@@Z 00484172 f   choco:opapi.obj
 0001:00083398       ?claire__sup_equal_BinTerm5@@YAPAVLinComb@@PAVBinTerm@@0@Z 00484398 f   choco:opapi.obj
 0001:000835fd       ?claire__sup_equal_LinTerm1@@YAPAVLinComb@@PAVLinTerm@@H@Z 004845fd f   choco:opapi.obj
 0001:00083711       ?claire__sup_equal_LinTerm2@@YAPAVLinComb@@PAVLinTerm@@PAVIntVar@@@Z 00484711 f   choco:opapi.obj
 0001:00083856       ?claire__sup_equal_LinTerm3@@YAPAVLinComb@@PAVLinTerm@@PAVUnTerm@@@Z 00484856 f   choco:opapi.obj
 0001:000839c3       ?claire__sup_equal_LinTerm4@@YAPAVLinComb@@PAVLinTerm@@PAVBinTerm@@@Z 004849c3 f   choco:opapi.obj
 0001:00083b8e       ?claire__sup_equal_LinTerm5@@YAPAVLinComb@@PAVLinTerm@@0@Z 00484b8e f   choco:opapi.obj
 0001:00083d5e       ?claire__sup_integer3@@YAPAVIntConstraint@@HPAVUnTerm@@@Z 00484d5e f   choco:opapi.obj
 0001:00083e61       ?claire__sup_integer4@@YAPAVIntConstraint@@HPAVBinTerm@@@Z 00484e61 f   choco:opapi.obj
 0001:00083f64       ?claire__sup_integer5@@YAPAVIntConstraint@@HPAVLinTerm@@@Z 00484f64 f   choco:opapi.obj
 0001:00084067       ?claire__sup_IntVar3@@YAPAVIntConstraint@@PAVIntVar@@PAVUnTerm@@@Z 00485067 f   choco:opapi.obj
 0001:0008416a       ?claire__sup_IntVar4@@YAPAVIntConstraint@@PAVIntVar@@PAVBinTerm@@@Z 0048516a f   choco:opapi.obj
 0001:0008426d       ?claire__sup_IntVar5@@YAPAVIntConstraint@@PAVIntVar@@PAVLinTerm@@@Z 0048526d f   choco:opapi.obj
 0001:00084370       ?claire__sup_UnTerm1@@YAPAVIntConstraint@@PAVUnTerm@@H@Z 00485370 f   choco:opapi.obj
 0001:00084388       ?claire__sup_BinTerm1@@YAPAVIntConstraint@@PAVBinTerm@@H@Z 00485388 f   choco:opapi.obj
 0001:000843a0       ?claire__sup_LinTerm1@@YAPAVIntConstraint@@PAVLinTerm@@H@Z 004853a0 f   choco:opapi.obj
 0001:000843b8       ?claire__sup_UnTerm2@@YAPAVIntConstraint@@PAVUnTerm@@PAVIntVar@@@Z 004853b8 f   choco:opapi.obj
 0001:000844bb       ?claire__sup_BinTerm2@@YAPAVIntConstraint@@PAVBinTerm@@PAVIntVar@@@Z 004854bb f   choco:opapi.obj
 0001:000845be       ?claire__sup_LinTerm2@@YAPAVIntConstraint@@PAVLinTerm@@PAVIntVar@@@Z 004855be f   choco:opapi.obj
 0001:000846c1       ?claire__sup_UnTerm3@@YAPAVIntConstraint@@PAVUnTerm@@0@Z 004856c1 f   choco:opapi.obj
 0001:000847c4       ?claire__sup_BinTerm3@@YAPAVIntConstraint@@PAVBinTerm@@PAVUnTerm@@@Z 004857c4 f   choco:opapi.obj
 0001:000848c7       ?claire__sup_LinTerm3@@YAPAVIntConstraint@@PAVLinTerm@@PAVUnTerm@@@Z 004858c7 f   choco:opapi.obj
 0001:000849ca       ?claire__sup_UnTerm4@@YAPAVIntConstraint@@PAVUnTerm@@PAVBinTerm@@@Z 004859ca f   choco:opapi.obj
 0001:00084acd       ?claire__sup_BinTerm4@@YAPAVIntConstraint@@PAVBinTerm@@0@Z 00485acd f   choco:opapi.obj
 0001:00084bd0       ?claire__sup_LinTerm4@@YAPAVIntConstraint@@PAVLinTerm@@PAVBinTerm@@@Z 00485bd0 f   choco:opapi.obj
 0001:00084cd3       ?claire__sup_UnTerm5@@YAPAVIntConstraint@@PAVUnTerm@@PAVLinTerm@@@Z 00485cd3 f   choco:opapi.obj
 0001:00084dd6       ?claire__sup_BinTerm5@@YAPAVIntConstraint@@PAVBinTerm@@PAVLinTerm@@@Z 00485dd6 f   choco:opapi.obj
 0001:00084ed9       ?claire__sup_LinTerm5@@YAPAVIntConstraint@@PAVLinTerm@@0@Z 00485ed9 f   choco:opapi.obj
 0001:00084fdc       ?claire__inf_equal_integer3@@YAPAVIntConstraint@@HPAVUnTerm@@@Z 00485fdc f   choco:opapi.obj
 0001:00084ff1       ?claire__inf_equal_integer4@@YAPAVIntConstraint@@HPAVBinTerm@@@Z 00485ff1 f   choco:opapi.obj
 0001:00085006       ?claire__inf_equal_integer5@@YAPAVIntConstraint@@HPAVLinTerm@@@Z 00486006 f   choco:opapi.obj
 0001:0008501b       ?claire__inf_equal_IntVar3@@YAPAVIntConstraint@@PAVIntVar@@PAVUnTerm@@@Z 0048601b f   choco:opapi.obj
 0001:0008512e       ?claire__inf_equal_IntVar4@@YAPAVIntConstraint@@PAVIntVar@@PAVBinTerm@@@Z 0048612e f   choco:opapi.obj
 0001:00085143       ?claire__inf_equal_IntVar5@@YAPAVIntConstraint@@PAVIntVar@@PAVLinTerm@@@Z 00486143 f   choco:opapi.obj
 0001:00085158       ?claire__inf_equal_UnTerm1@@YAPAVIntConstraint@@PAVUnTerm@@H@Z 00486158 f   choco:opapi.obj
 0001:0008516d       ?claire__inf_equal_BinTerm1@@YAPAVIntConstraint@@PAVBinTerm@@H@Z 0048616d f   choco:opapi.obj
 0001:00085182       ?claire__inf_equal_LinTerm1@@YAPAVIntConstraint@@PAVLinTerm@@H@Z 00486182 f   choco:opapi.obj
 0001:00085197       ?claire__inf_equal_UnTerm2@@YAPAVIntConstraint@@PAVUnTerm@@PAVIntVar@@@Z 00486197 f   choco:opapi.obj
 0001:000851ac       ?claire__inf_equal_BinTerm2@@YAPAVIntConstraint@@PAVBinTerm@@PAVIntVar@@@Z 004861ac f   choco:opapi.obj
 0001:000851c1       ?claire__inf_equal_LinTerm2@@YAPAVIntConstraint@@PAVLinTerm@@PAVIntVar@@@Z 004861c1 f   choco:opapi.obj
 0001:000851d6       ?claire__inf_equal_UnTerm3@@YAPAVIntConstraint@@PAVUnTerm@@0@Z 004861d6 f   choco:opapi.obj
 0001:000851eb       ?claire__inf_equal_BinTerm3@@YAPAVIntConstraint@@PAVBinTerm@@PAVUnTerm@@@Z 004861eb f   choco:opapi.obj
 0001:00085200       ?claire__inf_equal_LinTerm3@@YAPAVIntConstraint@@PAVLinTerm@@PAVUnTerm@@@Z 00486200 f   choco:opapi.obj
 0001:00085215       ?claire__inf_equal_UnTerm4@@YAPAVIntConstraint@@PAVUnTerm@@PAVBinTerm@@@Z 00486215 f   choco:opapi.obj
 0001:0008522a       ?claire__inf_equal_BinTerm4@@YAPAVIntConstraint@@PAVBinTerm@@0@Z 0048622a f   choco:opapi.obj
 0001:0008523f       ?claire__inf_equal_LinTerm4@@YAPAVIntConstraint@@PAVLinTerm@@PAVBinTerm@@@Z 0048623f f   choco:opapi.obj
 0001:00085254       ?claire__inf_equal_UnTerm5@@YAPAVIntConstraint@@PAVUnTerm@@PAVLinTerm@@@Z 00486254 f   choco:opapi.obj
 0001:00085269       ?claire__inf_equal_BinTerm5@@YAPAVIntConstraint@@PAVBinTerm@@PAVLinTerm@@@Z 00486269 f   choco:opapi.obj
 0001:0008527e       ?claire__inf_equal_LinTerm5@@YAPAVIntConstraint@@PAVLinTerm@@0@Z 0048627e f   choco:opapi.obj
 0001:00085293       ?claire__inf_integer3@@YAPAVIntConstraint@@HPAVUnTerm@@@Z 00486293 f   choco:opapi.obj
 0001:00085396       ?claire__inf_integer4@@YAPAVIntConstraint@@HPAVBinTerm@@@Z 00486396 f   choco:opapi.obj
 0001:00085499       ?claire__inf_integer5@@YAPAVIntConstraint@@HPAVLinTerm@@@Z 00486499 f   choco:opapi.obj
 0001:0008559c       ?claire__inf_IntVar3@@YAPAVIntConstraint@@PAVIntVar@@PAVUnTerm@@@Z 0048659c f   choco:opapi.obj
 0001:0008569f       ?claire__inf_IntVar4@@YAPAVIntConstraint@@PAVIntVar@@PAVBinTerm@@@Z 0048669f f   choco:opapi.obj
 0001:000857a2       ?claire__inf_IntVar5@@YAPAVIntConstraint@@PAVIntVar@@PAVLinTerm@@@Z 004867a2 f   choco:opapi.obj
 0001:000858a5       ?claire__inf_UnTerm1@@YAPAVIntConstraint@@PAVUnTerm@@H@Z 004868a5 f   choco:opapi.obj
 0001:000858bd       ?claire__inf_BinTerm1@@YAPAVIntConstraint@@PAVBinTerm@@H@Z 004868bd f   choco:opapi.obj
 0001:000858d5       ?claire__inf_LinTerm1@@YAPAVIntConstraint@@PAVLinTerm@@H@Z 004868d5 f   choco:opapi.obj
 0001:000858ed       ?claire__inf_UnTerm2@@YAPAVIntConstraint@@PAVUnTerm@@PAVIntVar@@@Z 004868ed f   choco:opapi.obj
 0001:000859f0       ?claire__inf_BinTerm2@@YAPAVIntConstraint@@PAVBinTerm@@PAVIntVar@@@Z 004869f0 f   choco:opapi.obj
 0001:00085af3       ?claire__inf_LinTerm2@@YAPAVIntConstraint@@PAVLinTerm@@PAVIntVar@@@Z 00486af3 f   choco:opapi.obj
 0001:00085bf6       ?claire__inf_UnTerm3@@YAPAVIntConstraint@@PAVUnTerm@@0@Z 00486bf6 f   choco:opapi.obj
 0001:00085cf9       ?claire__inf_BinTerm3@@YAPAVIntConstraint@@PAVBinTerm@@PAVUnTerm@@@Z 00486cf9 f   choco:opapi.obj
 0001:00085dfc       ?claire__inf_LinTerm3@@YAPAVIntConstraint@@PAVLinTerm@@PAVUnTerm@@@Z 00486dfc f   choco:opapi.obj
 0001:00085eff       ?claire__inf_UnTerm4@@YAPAVIntConstraint@@PAVUnTerm@@PAVBinTerm@@@Z 00486eff f   choco:opapi.obj
 0001:00086002       ?claire__inf_BinTerm4@@YAPAVIntConstraint@@PAVBinTerm@@0@Z 00487002 f   choco:opapi.obj
 0001:00086105       ?claire__inf_LinTerm4@@YAPAVIntConstraint@@PAVLinTerm@@PAVBinTerm@@@Z 00487105 f   choco:opapi.obj
 0001:00086208       ?claire__inf_UnTerm5@@YAPAVIntConstraint@@PAVUnTerm@@PAVLinTerm@@@Z 00487208 f   choco:opapi.obj
 0001:0008630b       ?claire__inf_BinTerm5@@YAPAVIntConstraint@@PAVBinTerm@@PAVLinTerm@@@Z 0048730b f   choco:opapi.obj
 0001:0008640e       ?claire__inf_LinTerm5@@YAPAVIntConstraint@@PAVLinTerm@@0@Z 0048740e f   choco:opapi.obj
 0001:00086511       ?claire__equal_equal_integer2@@YAPAVIntConstraint@@HPAVUnTerm@@@Z 00487511 f   choco:opapi.obj
 0001:00086526       ?claire__equal_equal_integer3@@YAPAVIntConstraint@@HPAVBinTerm@@@Z 00487526 f   choco:opapi.obj
 0001:0008653b       ?claire__equal_equal_integer4@@YAPAVIntConstraint@@HPAVLinTerm@@@Z 0048753b f   choco:opapi.obj
 0001:00086550       ?claire__equal_equal_IntVar3@@YAPAVIntConstraint@@PAVIntVar@@PAVUnTerm@@@Z 00487550 f   choco:opapi.obj
 0001:00086565       ?claire__equal_equal_IntVar4@@YAPAVIntConstraint@@PAVIntVar@@PAVBinTerm@@@Z 00487565 f   choco:opapi.obj
 0001:0008657a       ?claire__equal_equal_IntVar5@@YAPAVIntConstraint@@PAVIntVar@@PAVLinTerm@@@Z 0048757a f   choco:opapi.obj
 0001:0008658f       ?claire__equal_equal_UnTerm1@@YAPAVIntConstraint@@PAVUnTerm@@PAVBinTerm@@@Z 0048758f f   choco:opapi.obj
 0001:000865a4       ?claire__equal_equal_UnTerm2@@YAPAVIntConstraint@@PAVUnTerm@@PAVLinTerm@@@Z 004875a4 f   choco:opapi.obj
 0001:000865b9       ?claire__equal_equal_BinTerm1@@YAPAVIntConstraint@@PAVBinTerm@@PAVLinTerm@@@Z 004875b9 f   choco:opapi.obj
 0001:000865ce       ?claire__equal_equal_UnTerm3@@YAPAVUnIntConstraint@@PAVUnTerm@@H@Z 004875ce f   choco:opapi.obj
 0001:00086708       ?claire__equal_equal_UnTerm4@@YAPAVIntConstraint@@PAVUnTerm@@PAVIntVar@@@Z 00487708 f   choco:opapi.obj
 0001:000868ab       ?claire__equal_equal_UnTerm5@@YAPAVBinIntConstraint@@PAVUnTerm@@0@Z 004878ab f   choco:opapi.obj
 0001:000869d3       ?claire__equal_equal_BinTerm2@@YAPAVIntConstraint@@PAVBinTerm@@H@Z 004879d3 f   choco:opapi.obj
 0001:00086c3a       ?claire__equal_equal_BinTerm3@@YAPAVLinComb@@PAVBinTerm@@PAVIntVar@@@Z 00487c3a f   choco:opapi.obj
 0001:00086e37       ?claire__equal_equal_BinTerm4@@YAPAVLinComb@@PAVBinTerm@@PAVUnTerm@@@Z 00487e37 f   choco:opapi.obj
 0001:0008705d       ?claire__equal_equal_BinTerm5@@YAPAVLinComb@@PAVBinTerm@@0@Z 0048805d f   choco:opapi.obj
 0001:000872c2       ?claire__equal_equal_LinTerm1@@YAPAVLinComb@@PAVLinTerm@@H@Z 004882c2 f   choco:opapi.obj
 0001:000873d6       ?claire__equal_equal_LinTerm2@@YAPAVLinComb@@PAVLinTerm@@PAVIntVar@@@Z 004883d6 f   choco:opapi.obj
 0001:0008751b       ?claire__equal_equal_LinTerm3@@YAPAVLinComb@@PAVLinTerm@@PAVUnTerm@@@Z 0048851b f   choco:opapi.obj
 0001:00087688       ?claire__equal_equal_LinTerm4@@YAPAVLinComb@@PAVLinTerm@@PAVBinTerm@@@Z 00488688 f   choco:opapi.obj
 0001:00087853       ?claire__equal_equal_LinTerm5@@YAPAVLinComb@@PAVLinTerm@@0@Z 00488853 f   choco:opapi.obj
 0001:00087a23       ?claire__I_equal_equal_integer2@@YAPAVIntConstraint@@HPAVUnTerm@@@Z 00488a23 f   choco:opapi.obj
 0001:00087a38       ?claire__I_equal_equal_integer3@@YAPAVIntConstraint@@HPAVBinTerm@@@Z 00488a38 f   choco:opapi.obj
 0001:00087a4d       ?claire__I_equal_equal_integer4@@YAHHPAVLinTerm@@@Z 00488a4d f   choco:opapi.obj
 0001:00087a70       ?claire__I_equal_equal_IntVar3@@YAPAVIntConstraint@@PAVIntVar@@PAVUnTerm@@@Z 00488a70 f   choco:opapi.obj
 0001:00087a85       ?claire__I_equal_equal_IntVar4@@YAHPAVIntVar@@PAVBinTerm@@@Z 00488a85 f   choco:opapi.obj
 0001:00087aa8       ?claire__I_equal_equal_IntVar5@@YAHPAVIntVar@@PAVLinTerm@@@Z 00488aa8 f   choco:opapi.obj
 0001:00087acb       ?claire__I_equal_equal_UnTerm1@@YAHPAVUnTerm@@PAVBinTerm@@@Z 00488acb f   choco:opapi.obj
 0001:00087aee       ?claire__I_equal_equal_UnTerm2@@YAHPAVUnTerm@@PAVLinTerm@@@Z 00488aee f   choco:opapi.obj
 0001:00087b11       ?claire__I_equal_equal_BinTerm1@@YAHPAVBinTerm@@PAVLinTerm@@@Z 00488b11 f   choco:opapi.obj
 0001:00087b34       ?claire__I_equal_equal_UnTerm3@@YAPAVUnIntConstraint@@PAVUnTerm@@H@Z 00488b34 f   choco:opapi.obj
 0001:00087c6e       ?claire__I_equal_equal_UnTerm4@@YAPAVIntConstraint@@PAVUnTerm@@PAVIntVar@@@Z 00488c6e f   choco:opapi.obj
 0001:00087e11       ?claire__I_equal_equal_UnTerm5@@YAPAVIntConstraint@@PAVUnTerm@@0@Z 00488e11 f   choco:opapi.obj
 0001:00087fea       ?claire__I_equal_equal_BinTerm2@@YAPAVIntConstraint@@PAVBinTerm@@H@Z 00488fea f   choco:opapi.obj
 0001:000881bd       ?claire__I_equal_equal_BinTerm3@@YAPAVLinComb@@PAVBinTerm@@PAVIntVar@@@Z 004891bd f   choco:opapi.obj
 0001:000883ba       ?claire__I_equal_equal_BinTerm4@@YAPAVLinComb@@PAVBinTerm@@PAVUnTerm@@@Z 004893ba f   choco:opapi.obj
 0001:000885e0       ?claire__I_equal_equal_BinTerm5@@YAPAVLinComb@@PAVBinTerm@@0@Z 004895e0 f   choco:opapi.obj
 0001:00088845       ?claire__I_equal_equal_LinTerm1@@YAPAVLinComb@@PAVLinTerm@@H@Z 00489845 f   choco:opapi.obj
 0001:00088959       ?claire__I_equal_equal_LinTerm2@@YAPAVLinComb@@PAVLinTerm@@PAVIntVar@@@Z 00489959 f   choco:opapi.obj
 0001:00088a9e       ?claire__I_equal_equal_LinTerm3@@YAPAVLinComb@@PAVLinTerm@@PAVUnTerm@@@Z 00489a9e f   choco:opapi.obj
 0001:00088c0b       ?claire__I_equal_equal_LinTerm4@@YAPAVLinComb@@PAVLinTerm@@PAVBinTerm@@@Z 00489c0b f   choco:opapi.obj
 0001:00088dd6       ?claire__I_equal_equal_LinTerm5@@YAPAVLinComb@@PAVLinTerm@@0@Z 00489dd6 f   choco:opapi.obj
 0001:00088fa6       ?claire_or_LargeDisjunction1@@YAPAVLargeDisjunction@@PAV1@0@Z 00489fa6 f   choco:opapi.obj
 0001:000890ef       ?claire_or_Disjunction1@@YAPAVLargeDisjunction@@PAVDisjunction@@0@Z 0048a0ef f   choco:opapi.obj
 0001:0008929c       ?claire_or_LargeDisjunction2@@YAPAVLargeDisjunction@@PAV1@PAVDisjunction@@@Z 0048a29c f   choco:opapi.obj
 0001:000893f3       ?claire_or_Disjunction2@@YAPAVLargeDisjunction@@PAVDisjunction@@PAV1@@Z 0048a3f3 f   choco:opapi.obj
 0001:0008954a       ?claire_or_Disjunction3@@YAPAVLargeDisjunction@@PAVDisjunction@@PAVAbstractConstraint@@@Z 0048a54a f   choco:opapi.obj
 0001:000896cc       ?claire_or_LargeDisjunction3@@YAPAVLargeDisjunction@@PAV1@PAVAbstractConstraint@@@Z 0048a6cc f   choco:opapi.obj
 0001:000897e3       ?claire_or_AbstractConstraint1@@YAPAVLargeDisjunction@@PAVAbstractConstraint@@PAVDisjunction@@@Z 0048a7e3 f   choco:opapi.obj
 0001:000897f8       ?claire_or_AbstractConstraint2@@YAPAVLargeDisjunction@@PAVAbstractConstraint@@PAV1@@Z 0048a7f8 f   choco:opapi.obj
 0001:0008980d       ?claire_or_AbstractConstraint3@@YAPAVDisjunction@@PAVAbstractConstraint@@0@Z 0048a80d f   choco:opapi.obj
 0001:0008993b       ?claire_or_list@@YAPAVLargeDisjunction@@PAVlist@@@Z 0048a93b f   choco:opapi.obj
 0001:00089b18       ?claire_and_Conjunction1@@YAPAVLargeConjunction@@PAVConjunction@@0@Z 0048ab18 f   choco:opapi.obj
 0001:00089cc5       ?claire_and_LargeConjunction1@@YAPAVLargeConjunction@@PAV1@0@Z 0048acc5 f   choco:opapi.obj
 0001:00089e0e       ?claire_and_LargeConjunction2@@YAPAVLargeConjunction@@PAV1@PAVConjunction@@@Z 0048ae0e f   choco:opapi.obj
 0001:00089f65       ?claire_and_Conjunction2@@YAPAVLargeConjunction@@PAVConjunction@@PAV1@@Z 0048af65 f   choco:opapi.obj
 0001:0008a0bc       ?claire_and_Conjunction3@@YAPAVLargeConjunction@@PAVConjunction@@PAVAbstractConstraint@@@Z 0048b0bc f   choco:opapi.obj
 0001:0008a23e       ?claire_and_LargeConjunction3@@YAPAVLargeConjunction@@PAV1@PAVAbstractConstraint@@@Z 0048b23e f   choco:opapi.obj
 0001:0008a355       ?claire_and_AbstractConstraint1@@YAPAVLargeConjunction@@PAVAbstractConstraint@@PAVConjunction@@@Z 0048b355 f   choco:opapi.obj
 0001:0008a36a       ?claire_and_AbstractConstraint2@@YAPAVLargeConjunction@@PAVAbstractConstraint@@PAV1@@Z 0048b36a f   choco:opapi.obj
 0001:0008a37f       ?claire_and_AbstractConstraint3@@YAPAVConjunction@@PAVAbstractConstraint@@0@Z 0048b37f f   choco:opapi.obj
 0001:0008a4ad       ?claire_and_list@@YAPAVLargeConjunction@@PAVlist@@@Z 0048b4ad f   choco:opapi.obj
 0001:0008a68a       ?claire_implies_AbstractConstraint@@YAPAVCompositeConstraint@@PAVAbstractConstraint@@0@Z 0048b68a f   choco:opapi.obj
 0001:0008a7c2       ?claire_ifThen_AbstractConstraint@@YAPAVGuard@@PAVAbstractConstraint@@0@Z 0048b7c2 f   choco:opapi.obj
 0001:0008a8f0       ?claire_ifOnlyIf_AbstractConstraint@@YAPAVEquiv@@PAVAbstractConstraint@@0@Z 0048b8f0 f   choco:opapi.obj
 0001:0008aa1e       ?choco_makeCardinalityConstraint_list@@YAPAVCardinality@@PAVlist@@PAVIntVar@@PAVClaireBoolean@@2@Z 0048ba1e f   choco:opapi.obj
 0001:0008abf5       ?choco_card_list1@@YAPAVCardinality@@PAVlist@@PAVIntVar@@@Z 0048bbf5 f   choco:opapi.obj
 0001:0008ac17       ?choco_atleast_list1@@YAPAVCardinality@@PAVlist@@PAVIntVar@@@Z 0048bc17 f   choco:opapi.obj
 0001:0008ac39       ?choco_atmost_list1@@YAPAVCardinality@@PAVlist@@PAVIntVar@@@Z 0048bc39 f   choco:opapi.obj
 0001:0008ac5b       ?choco_card_list2@@YAPAVCardinality@@PAVlist@@H@Z 0048bc5b f   choco:opapi.obj
 0001:0008ad5c       ?choco_atleast_list2@@YAPAVCardinality@@PAVlist@@H@Z 0048bd5c f   choco:opapi.obj
 0001:0008ae5d       ?choco_atmost_list2@@YAPAVCardinality@@PAVlist@@H@Z 0048be5d f   choco:opapi.obj
 0001:0008af5e       ?choco_makeOccurConstraint_OccurTerm@@YAPAVOccurrence@@PAVOccurTerm@@PAVIntVar@@PAVClaireBoolean@@2@Z 0048bf5e f   choco:opapi.obj
 0001:0008b474       ?choco_occur_integer@@YAPAVOccurTerm@@HPAVlist@@@Z 0048c474 f   choco:opapi.obj
 0001:0008b58c       ?claire__equal_equal_OccurTerm1@@YAPAVOccurrence@@PAVOccurTerm@@PAVIntVar@@@Z 0048c58c f   choco:opapi.obj
 0001:0008b5ae       ?claire__equal_equal_IntVar6@@YAPAVOccurrence@@PAVIntVar@@PAVOccurTerm@@@Z 0048c5ae f   choco:opapi.obj
 0001:0008b5c3       ?claire__equal_equal_OccurTerm2@@YAPAVOccurrence@@PAVOccurTerm@@H@Z 0048c5c3 f   choco:opapi.obj
 0001:0008b6d1       ?claire__equal_equal_integer5@@YAPAVOccurrence@@HPAVOccurTerm@@@Z 0048c6d1 f   choco:opapi.obj
 0001:0008b6e6       ?claire__sup_equal_OccurTerm1@@YAPAVOccurrence@@PAVOccurTerm@@PAVIntVar@@@Z 0048c6e6 f   choco:opapi.obj
 0001:0008b708       ?claire__sup_equal_OccurTerm2@@YAPAVOccurrence@@PAVOccurTerm@@H@Z 0048c708 f   choco:opapi.obj
 0001:0008b816       ?claire__inf_equal_OccurTerm1@@YAPAVOccurrence@@PAVOccurTerm@@PAVIntVar@@@Z 0048c816 f   choco:opapi.obj
 0001:0008b838       ?claire__inf_equal_OccurTerm2@@YAPAVOccurrence@@PAVOccurTerm@@H@Z 0048c838 f   choco:opapi.obj
 0001:0008b946       ?claire__sup_equal_IntVar6@@YAPAVOccurrence@@PAVIntVar@@PAVOccurTerm@@@Z 0048c946 f   choco:opapi.obj
 0001:0008b95b       ?claire__sup_equal_integer5@@YAPAVOccurrence@@HPAVOccurTerm@@@Z 0048c95b f   choco:opapi.obj
 0001:0008b970       ?claire__inf_equal_IntVar6@@YAPAVOccurrence@@PAVIntVar@@PAVOccurTerm@@@Z 0048c970 f   choco:opapi.obj
 0001:0008b985       ?claire__inf_equal_integer6@@YAPAVOccurrence@@HPAVOccurTerm@@@Z 0048c985 f   choco:opapi.obj
 0001:0008b99a       ?choco_getNth_list1@@YAPAVEltTerm@@PAVlist@@PAVUnTerm@@@Z 0048c99a f   choco:opapi.obj
 0001:0008bb07       ?choco_getNth_list2@@YAPAVEltTerm@@PAVlist@@PAVIntVar@@@Z 0048cb07 f   choco:opapi.obj
 0001:0008bc20       ?claire__equal_equal_EltTerm1@@YAPAVElt@@PAVEltTerm@@PAVIntVar@@@Z 0048cc20 f   choco:opapi.obj
 0001:0008bd20       ?claire__equal_equal_IntVar7@@YAPAVElt@@PAVIntVar@@PAVEltTerm@@@Z 0048cd20 f   choco:opapi.obj
 0001:0008be20       ?claire__equal_equal_EltTerm2@@YAPAVElt@@PAVEltTerm@@H@Z 0048ce20 f   choco:opapi.obj
 0001:0008bf44       ?claire__equal_equal_integer6@@YAPAVElt@@HPAVEltTerm@@@Z 0048cf44 f   choco:opapi.obj
 0001:0008c068       ?choco_makeElt2Term_table@@YAPAVElt2Term@@PAVtable@@HHPAVIntVar@@1@Z 0048d068 f   choco:opapi.obj
 0001:0008c19c       ?choco_getNth_table@@YAPAVElt2Term@@PAVtable@@PAVIntVar@@1@Z 0048d19c f   choco:opapi.obj
 0001:0008c240       ?claire__equal_equal_Elt2Term1@@YAPAVElt2@@PAVElt2Term@@PAVIntVar@@@Z 0048d240 f   choco:opapi.obj
 0001:0008c34e       ?claire__equal_equal_IntVar8@@YAPAVElt2@@PAVIntVar@@PAVElt2Term@@@Z 0048d34e f   choco:opapi.obj
 0001:0008c45c       ?claire__equal_equal_Elt2Term2@@YAPAVElt2@@PAVElt2Term@@H@Z 0048d45c f   choco:opapi.obj
 0001:0008c58e       ?claire__equal_equal_integer7@@YAPAVElt2@@HPAVElt2Term@@@Z 0048d58e f   choco:opapi.obj
 0001:0008c6c0       ?choco_makeProblem_string@@YAPAVProblem@@PADH@Z 0048d6c0 f   choco:chocapi.obj
 0001:0008c895       ?choco_getProblem_IntVar@@YAPAVProblem@@PAVIntVar@@@Z 0048d895 f   choco:chocapi.obj
 0001:0008c8a0       ?choco_getProblem_AbstractConstraint@@YAPAVProblem@@PAVAbstractConstraint@@@Z 0048d8a0 f   choco:chocapi.obj
 0001:0008ca8a       ?choco_getActiveProblem_void@@YAPAVProblem@@XZ 0048da8a f   choco:chocapi.obj
 0001:0008caa7       ?choco_setActiveProblem_Problem@@YAXPAVProblem@@@Z 0048daa7 f   choco:chocapi.obj
 0001:0008cac6       ?choco_discardProblem_Problem@@YAXPAVProblem@@@Z 0048dac6 f   choco:chocapi.obj
 0001:0008cafd       ?choco_getPropagationEngine_Problem@@YAPAVPropagationEngine@@PAVProblem@@@Z 0048dafd f   choco:chocapi.obj
 0001:0008cb08       ?choco_setDelayedLinearConstraintPropagation_ChocEngine@@YAXPAVChocEngine@@PAVClaireBoolean@@@Z 0048db08 f   choco:chocapi.obj
 0001:0008cb2e       ?choco_makeBoundIntVar_Problem1@@YAPAVIntVar@@PAVProblem@@PADHH@Z 0048db2e f   choco:chocapi.obj
 0001:0008cee7       ?choco_makeBoundIntVar_Problem2@@YAPAVIntVar@@PAVProblem@@HH@Z 0048dee7 f   choco:chocapi.obj
 0001:0008cf05       ?choco_makeBoundIntVar_Problem3@@YAPAVIntVar@@PAVProblem@@PAD@Z 0048df05 f   choco:chocapi.obj
 0001:0008cf1e       ?choco_makeConstantIntVar_integer@@YAPAVIntVar@@H@Z 0048df1e f   choco:chocapi.obj
 0001:0008d2f4       ?choco_makeIntVar_Problem1@@YAPAVIntVar@@PAVProblem@@PADHH@Z 0048e2f4 f   choco:chocapi.obj
 0001:0008d6e4       ?choco_makeIntVar_Problem2@@YAPAVIntVar@@PAVProblem@@HH@Z 0048e6e4 f   choco:chocapi.obj
 0001:0008d702       ?choco_makeIntVar_Problem3@@YAPAVIntVar@@PAVProblem@@PAD@Z 0048e702 f   choco:chocapi.obj
 0001:0008d71b       ?choco_makeIntVar_Problem4@@YAPAVIntVar@@PAVProblem@@PADPAVlist@@@Z 0048e71b f   choco:chocapi.obj
 0001:0008d9bd       ?choco_makeIntVar_Problem5@@YAPAVIntVar@@PAVProblem@@PAVlist@@@Z 0048e9bd f   choco:chocapi.obj
 0001:0008d9d7       ?choco_makeSetVar_Problem1@@YAPAVSetVar@@PAVProblem@@PADHH@Z 0048e9d7 f   choco:chocapi.obj
 0001:0008dbee       ?choco_makeSetVar_Problem2@@YAPAVSetVar@@PAVProblem@@HH@Z 0048ebee f   choco:chocapi.obj
 0001:0008dc0c       ?choco_makeSetVar_Problem3@@YAPAVSetVar@@PAVProblem@@PADHHPAVIntVar@@@Z 0048ec0c f   choco:chocapi.obj
 0001:0008dd38       ?choco_makeSetVar_Problem4@@YAPAVSetVar@@PAVProblem@@HHPAVIntVar@@@Z 0048ed38 f   choco:chocapi.obj
 0001:0008dd5a       ?choco_makeBinTruthTest_method@@YAPAVTruthTest@@PAVmethod@@@Z 0048ed5a f   choco:chocapi.obj
 0001:0008de60       ?choco_makeBinRelation_integer1@@YAPAVTruthTable2D@@HHHH@Z 0048ee60 f   choco:chocapi.obj
 0001:0008dfd4       ?choco_makeBinRelation_integer2@@YAPAVTruthTable2D@@HHHHPAVlist@@@Z 0048efd4 f   choco:chocapi.obj
 0001:0008e2e6       ?choco_binConstraint_IntVar1@@YAPAVCSPBinConstraint@@PAVIntVar@@0PAVBinRelation@@PAVClaireBoolean@@H@Z 0048f2e6 f   choco:chocapi.obj
 0001:0008e3b1       ?choco_binConstraint_IntVar2@@YAPAVCSPBinConstraint@@PAVIntVar@@0PAVBinRelation@@PAVClaireBoolean@@@Z 0048f3b1 f   choco:chocapi.obj
 0001:0008e3d3       ?choco_binConstraint_IntVar3@@YAPAVCSPBinConstraint@@PAVIntVar@@0PAVBinRelation@@H@Z 0048f3d3 f   choco:chocapi.obj
 0001:0008e3f7       ?choco_binConstraint_IntVar4@@YAPAVCSPBinConstraint@@PAVIntVar@@0PAVBinRelation@@@Z 0048f3f7 f   choco:chocapi.obj
 0001:0008e41b       ?choco_feasPairConstraint_IntVar1@@YAPAVCSPBinConstraint@@PAVIntVar@@0PAVlist@@H@Z 0048f41b f   choco:chocapi.obj
 0001:0008e55a       ?choco_infeasPairConstraint_IntVar1@@YAPAVCSPBinConstraint@@PAVIntVar@@0PAVlist@@H@Z 0048f55a f   choco:chocapi.obj
 0001:0008e699       ?choco_feasBinTestConstraint_IntVar1@@YAPAVCSPBinConstraint@@PAVIntVar@@0PAVmethod@@H@Z 0048f699 f   choco:chocapi.obj
 0001:0008e7b0       ?choco_infeasBinTestConstraint_IntVar1@@YAPAVCSPBinConstraint@@PAVIntVar@@0PAVmethod@@H@Z 0048f7b0 f   choco:chocapi.obj
 0001:0008e8c7       ?choco_feasPairConstraint_IntVar2@@YAPAVCSPBinConstraint@@PAVIntVar@@0PAVlist@@@Z 0048f8c7 f   choco:chocapi.obj
 0001:0008e8e5       ?choco_infeasPairConstraint_IntVar2@@YAPAVCSPBinConstraint@@PAVIntVar@@0PAVlist@@@Z 0048f8e5 f   choco:chocapi.obj
 0001:0008e903       ?choco_feasBinTestConstraint_IntVar2@@YAPAVCSPBinConstraint@@PAVIntVar@@0PAVmethod@@@Z 0048f903 f   choco:chocapi.obj
 0001:0008e921       ?choco_infeasBinTestConstraint_IntVar2@@YAPAVCSPBinConstraint@@PAVIntVar@@0PAVmethod@@@Z 0048f921 f   choco:chocapi.obj
 0001:0008e93f       ?choco_feasTupleConstraint_list@@YAPAVCSPLargeConstraint@@PAVlist@@0@Z 0048f93f f   choco:chocapi.obj
 0001:0008e95b       ?choco_infeasTupleConstraint_list@@YAPAVCSPLargeConstraint@@PAVlist@@0@Z 0048f95b f   choco:chocapi.obj
 0001:0008e977       ?choco_feasTestConstraint_list@@YAPAVCSPLargeConstraint@@PAVlist@@PAVmethod@@@Z 0048f977 f   choco:chocapi.obj
 0001:0008eb41       ?claire_self_print_LinTerm_choco@@YAXPAVLinTerm@@@Z 0048fb41 f   choco:chocapi.obj
 0001:0008ec88       ?claire_scalar_list@@YAPAVLinTerm@@PAVlist@@0@Z 0048fc88 f   choco:chocapi.obj
 0001:0008ee60       ?choco_sumVars_list@@YAPAVLinTerm@@PAVlist@@@Z 0048fe60 f   choco:chocapi.obj
 0001:0008efe9       ?choco_allDifferent_list@@YAPAVAllDiff@@PAVlist@@@Z 0048ffe9 f   choco:chocapi.obj
 0001:0008f19d       ?choco_post_Problem@@YAXPAVProblem@@PAVAbstractConstraint@@@Z 0049019d f   choco:chocapi.obj
 0001:0008f471       ?choco_setMin_IntVar@@YAXPAVIntVar@@H@Z 00490471 f   choco:chocapi.obj
 0001:0008f49a       ?choco_setMax_IntVar@@YAXPAVIntVar@@H@Z 0049049a f   choco:chocapi.obj
 0001:0008f4c3       ?choco_setVal_IntVar@@YAXPAVIntVar@@H@Z 004904c3 f   choco:chocapi.obj
 0001:0008f4da       ?choco_remVal_IntVar@@YAXPAVIntVar@@H@Z 004904da f   choco:chocapi.obj
 0001:0008f503       ?choco_setBranch_Disjunction@@YAXPAVDisjunction@@HPAVClaireBoolean@@@Z 00490503 f   choco:chocapi.obj
 0001:0008f7c1       ?choco_setBranch_LargeDisjunction@@YAXPAVLargeDisjunction@@HPAVClaireBoolean@@@Z 004907c1 f   choco:chocapi.obj
 0001:0008fbb0       ?choco_setBranch_Cardinality@@YAXPAVCardinality@@HPAVClaireBoolean@@@Z 00490bb0 f   choco:chocapi.obj
 0001:000902df       ?choco_propagate_Problem@@YAXPAVProblem@@@Z 004912df f   choco:chocapi.obj
 0001:000903c1       ?choco_setActive_AbstractConstraint@@YAXPAVAbstractConstraint@@@Z 004913c1 f   choco:chocapi.obj
 0001:000904ec       ?choco_setPassive_AbstractConstraint@@YAXPAVAbstractConstraint@@@Z 004914ec f   choco:chocapi.obj
 0001:0009073d       ?choco_getProblem_Solver@@YAPAVProblem@@PAVSolver@@@Z 0049173d f   choco:chocapi.obj
 0001:00090748       ?choco_getSearchManager_AbstractBranching@@YAPAVGlobalSearchSolver@@PAVAbstractBranching@@@Z 00491748 f   choco:chocapi.obj
 0001:00090753       ?choco_makeMinDomVarHeuristic_void@@YAHXZ 00491753 f   choco:chocapi.obj
 0001:00090865       ?choco_makeDomDegVarHeuristic_void@@YAHXZ 00491865 f   choco:chocapi.obj
 0001:00090977       ?choco_makeMaxDegVarHeuristic_void@@YAHXZ 00491977 f   choco:chocapi.obj
 0001:00090a89       ?choco_makeStaticVarHeuristic_list@@YAHPAVlist@@@Z 00491a89 f   choco:chocapi.obj
 0001:00090c0b       ?choco_makeMinDomVarHeuristic_list@@YAPAVMinDomain@@PAVlist@@@Z 00491c0b f   choco:chocapi.obj
 0001:00090d77       ?choco_makeDomDegVarHeuristic_list@@YAPAVDomDeg@@PAVlist@@@Z 00491d77 f   choco:chocapi.obj
 0001:00090ee3       ?choco_makeMaxDegVarHeuristic_list@@YAPAVMaxDeg@@PAVlist@@@Z 00491ee3 f   choco:chocapi.obj
 0001:0009104f       ?choco_makeIncValIterator_void@@YAHXZ 0049204f f   choco:chocapi.obj
 0001:00091161       ?choco_makeDecValIterator_void@@YAHXZ 00492161 f   choco:chocapi.obj
 0001:00091273       ?choco_makeMinValSelector_void@@YAHXZ 00492273 f   choco:chocapi.obj
 0001:00091385       ?choco_makeMaxValSelector_void@@YAHXZ 00492385 f   choco:chocapi.obj
 0001:00091497       ?choco_makeMidValSelector_void@@YAHXZ 00492497 f   choco:chocapi.obj
 0001:000915a9       ?choco_makeAssignVarBranching_VarSelector1@@YAPAVAssignVar@@PAVVarSelector@@PAVValIterator@@@Z 004925a9 f   choco:chocapi.obj
 0001:000916dd       ?choco_makeAssignVarBranching_VarSelector2@@YAPAVAssignVar@@PAVVarSelector@@@Z 004926dd f   choco:chocapi.obj
 0001:000917e7       ?choco_makeAssignVarBranching_void@@YAPAVAssignVar@@XZ 004927e7 f   choco:chocapi.obj
 0001:0009190a       ?choco_makeSplitDomBranching_VarSelector1@@YAPAVSplitDomain@@PAVVarSelector@@PAVValSelector@@H@Z 0049290a f   choco:chocapi.obj
 0001:00091a46       ?choco_makeSplitDomBranching_VarSelector2@@YAPAVSplitDomain@@PAVVarSelector@@H@Z 00492a46 f   choco:chocapi.obj
 0001:00091b53       ?choco_makeSplitDomBranching_VarSelector3@@YAPAVSplitDomain@@PAVVarSelector@@@Z 00492b53 f   choco:chocapi.obj
 0001:00091c5f       ?choco_makeSplitDomBranching_void@@YAPAVSplitDomain@@XZ 00492c5f f   choco:chocapi.obj
 0001:00091d84       ?choco_makeAssignOrForbidBranching_VarSelector@@YAPAVAssignOrForbid@@PAVVarSelector@@PAVValSelector@@@Z 00492d84 f   choco:chocapi.obj
 0001:00091eb8       ?choco_makeDisjunctionBranching_Problem@@YAPAVSettleBinDisjunction@@PAVProblem@@@Z 00492eb8 f   choco:chocapi.obj
 0001:00092052       ?choco_makeDefaultBranchingList_Problem@@YAPAVlist@@PAVProblem@@@Z 00493052 f   choco:chocapi.obj
 0001:00092221       ?choco_makeGlobalSearchSolver_boolean1@@YAPAVSolve@@PAVClaireBoolean@@PAVlist@@@Z 00493221 f   choco:chocapi.obj
 0001:00092357       ?choco_makeGlobalSearchMaximizer_IntVar1@@YAPAVAbstractOptimize@@PAVIntVar@@PAVClaireBoolean@@PAVlist@@@Z 00493357 f   choco:chocapi.obj
 0001:000924ee       ?choco_makeGlobalSearchMinimizer_IntVar1@@YAPAVAbstractOptimize@@PAVIntVar@@PAVClaireBoolean@@PAVlist@@@Z 004934ee f   choco:chocapi.obj
 0001:00092685       ?choco_makeGlobalSearchSolver_boolean2@@YAPAVSolve@@PAVClaireBoolean@@@Z 00493685 f   choco:chocapi.obj
 0001:00092862       ?choco_makeGlobalSearchMaximizer_IntVar2@@YAPAVAbstractOptimize@@PAVIntVar@@PAVClaireBoolean@@@Z 00493862 f   choco:chocapi.obj
 0001:00092a42       ?choco_makeGlobalSearchMinimizer_IntVar2@@YAPAVAbstractOptimize@@PAVIntVar@@PAVClaireBoolean@@@Z 00493a42 f   choco:chocapi.obj
 0001:00092c22       ?choco_makeBacktrackLimit_integer@@YAPAVNodeLimit@@H@Z 00493c22 f   choco:chocapi.obj
 0001:00092c36       ?choco_makeNodeLimit_integer@@YAPAVBacktrackLimit@@H@Z 00493c36 f   choco:chocapi.obj
 0001:00092c4a       ?choco_setSearchLimit_GlobalSearchSolver@@YAXPAVGlobalSearchSolver@@PAVGlobalSearchLimit@@@Z 00493c4a f   choco:chocapi.obj
 0001:00092d4b       ?choco_solve_Problem1@@YAPAVClaireBoolean@@PAVProblem@@PAV1@@Z 00493d4b f   choco:chocapi.obj
 0001:00092f2a       ?choco_minimize_Problem1@@YAHPAVProblem@@PAVIntVar@@PAVClaireBoolean@@@Z 00493f2a f   choco:chocapi.obj
 0001:00093114       ?choco_maximize_Problem1@@YAHPAVProblem@@PAVIntVar@@PAVClaireBoolean@@@Z 00494114 f   choco:chocapi.obj
 0001:000932fe       ?choco_solve_Problem2@@YAPAVClaireBoolean@@PAVProblem@@PAVlist@@PAV1@@Z 004942fe f   choco:chocapi.obj
 0001:00093422       ?choco_minimize_Problem2@@YAHPAVProblem@@PAVIntVar@@PAVlist@@PAVClaireBoolean@@@Z 00494422 f   choco:chocapi.obj
 0001:00093562       ?choco_maximize_Problem2@@YAHPAVProblem@@PAVIntVar@@PAVlist@@PAVClaireBoolean@@@Z 00494562 f   choco:chocapi.obj
 0001:000936a2       ?choco_setMaxPrintDepth_GlobalSearchSolver@@YAXPAVGlobalSearchSolver@@H@Z 004946a2 f   choco:chocapi.obj
 0001:000936b0       ?choco_setMaxSolutionStorage_GlobalSearchSolver@@YAXPAVGlobalSearchSolver@@H@Z 004946b0 f   choco:chocapi.obj
 0001:000936be       ?choco_setVarsToShow_GlobalSearchSolver@@YAXPAVGlobalSearchSolver@@PAVlist@@@Z 004946be f   choco:chocapi.obj
 0001:000936d5       ?choco_getNbSol_GlobalSearchSolver@@YAHPAVGlobalSearchSolver@@@Z 004946d5 f   choco:chocapi.obj
 0001:000936e0       ?choco_getProblem_AbstractBranching@@YAPAVProblem@@PAVAbstractBranching@@@Z 004946e0 f   choco:chocapi.obj
 0001:000936ee       ?choco_getGlobalSearchSolver_Problem@@YAPAVGlobalSearchSolver@@PAVProblem@@@Z 004946ee f   choco:chocapi.obj
 0001:000936f9       ?choco_setNodeLimit_GlobalSearchSolver@@YAXPAVGlobalSearchSolver@@H@Z 004946f9 f   choco:chocapi.obj
 0001:0009380e       ?choco_setTimeLimit_GlobalSearchSolver@@YAXPAVGlobalSearchSolver@@H@Z 0049480e f   choco:chocapi.obj
 0001:00093923       ?choco_setBacktrackLimit_GlobalSearchSolver@@YAXPAVGlobalSearchSolver@@H@Z 00494923 f   choco:chocapi.obj
 0001:00093a38       ?choco_setMaxNbBk_GlobalSearchSolver@@YAXPAVGlobalSearchSolver@@H@Z 00494a38 f   choco:chocapi.obj
 0001:00093a4d       ?choco_assignVal_IntVar@@YAXPAVIntVar@@H@Z 00494a4d f   choco:chocapi.obj
 0001:00093cc5       ?choco_unassignVal_IntVar@@YAXPAVIntVar@@@Z 00494cc5 f   choco:chocapi.obj
 0001:00093ed2       ?choco_changeVal_IntVar@@YAXPAVIntVar@@H@Z 00494ed2 f   choco:chocapi.obj
 0001:00094155       ?choco_setMaxNbLocalSearch_Problem@@YAXPAVProblem@@H@Z 00495155 f   choco:chocapi.obj
 0001:00094166       ?choco_setMaxNbLocalMoves_Problem@@YAXPAVProblem@@H@Z 00495166 f   choco:chocapi.obj
 0001:00094177       ?choco_move_Problem1@@YAHPAVProblem@@@Z 00495177 f   choco:chocapi.obj
 0001:000942b3       ?choco_move_Problem2@@YAHPAVProblem@@PAVConstructiveHeuristic@@PAVMoveNeighborhood@@@Z 004952b3 f   choco:chocapi.obj
 0001:00094430       ?choco_computeVarIdxInOpposite_SetConstraint@@YAHPAVSetConstraint@@H@Z 00495430 f   choco:setconst.obj
 0001:00094438       ?choco_testIfCompletelyInstantiated_UnSetConstraint@@YAPAVClaireBoolean@@PAVUnSetConstraint@@@Z 00495438 f   choco:setconst.obj
 0001:0009456c       ?choco_getNbVars_UnSetConstraint@@YAHPAVUnSetConstraint@@@Z 0049556c f   choco:setconst.obj
 0001:00094576       ?choco_getVar_UnSetConstraint_choco@@YAPAVAbstractVar@@PAVUnSetConstraint@@H@Z 00495576 f   choco:setconst.obj
 0001:000945e4       ?choco_connect_UnSetConstraint_choco@@YAXPAVUnSetConstraint@@@Z 004955e4 f   choco:setconst.obj
 0001:00094715       ?choco_disconnect_UnSetConstraint_choco@@YAXPAVUnSetConstraint@@@Z 00495715 f   choco:setconst.obj
 0001:00094848       ?choco_reconnect_UnSetConstraint_choco@@YAXPAVUnSetConstraint@@@Z 00495848 f   choco:setconst.obj
 0001:0009497b       ?choco_assignIndices_UnSetConstraint@@YAHPAVUnSetConstraint@@PAVAbstractConstraint@@H@Z 0049597b f   choco:setconst.obj
 0001:00094aaf       ?choco_getConstraintIdx_UnSetConstraint@@YAHPAVUnSetConstraint@@H@Z 00495aaf f   choco:setconst.obj
 0001:00094b2e       ?choco_setConstraintIndex_UnSetConstraint@@YAXPAVUnSetConstraint@@HH@Z 00495b2e f   choco:setconst.obj
 0001:00094ba3       ?choco_isActive_UnSetConstraint_choco@@YAPAVClaireBoolean@@PAVUnSetConstraint@@@Z 00495ba3 f   choco:setconst.obj
 0001:00094ca1       ?choco_testIfCompletelyInstantiated_BinSetIntConstraint@@YAPAVClaireBoolean@@PAVBinSetIntConstraint@@@Z 00495ca1 f   choco:setconst.obj
 0001:00094e62       ?choco_getNbVars_BinSetIntConstraint@@YAHPAVBinSetIntConstraint@@@Z 00495e62 f   choco:setconst.obj
 0001:00094e6c       ?choco_getVar_BinSetIntConstraint_choco@@YAPAVAbstractVar@@PAVBinSetIntConstraint@@H@Z 00495e6c f   choco:setconst.obj
 0001:00094efd       ?choco_connect_BinSetIntConstraint_choco@@YAXPAVBinSetIntConstraint@@@Z 00495efd f   choco:setconst.obj
 0001:0009504c       ?choco_disconnect_BinSetIntConstraint_choco@@YAXPAVBinSetIntConstraint@@@Z 0049604c f   choco:setconst.obj
 0001:0009519c       ?choco_reconnect_BinSetIntConstraint_choco@@YAXPAVBinSetIntConstraint@@@Z 0049619c f   choco:setconst.obj
 0001:000952ec       ?choco_assignIndices_BinSetIntConstraint@@YAHPAVBinSetIntConstraint@@PAVAbstractConstraint@@H@Z 004962ec f   choco:setconst.obj
 0001:00095463       ?choco_getConstraintIdx_BinSetIntConstraint@@YAHPAVBinSetIntConstraint@@H@Z 00496463 f   choco:setconst.obj
 0001:000954f2       ?choco_setConstraintIndex_BinSetIntConstraint@@YAXPAVBinSetIntConstraint@@HH@Z 004964f2 f   choco:setconst.obj
 0001:00095579       ?choco_isActive_BinSetIntConstraint_choco@@YAPAVClaireBoolean@@PAVBinSetIntConstraint@@@Z 00496579 f   choco:setconst.obj
 0001:000956cc       ?choco_testIfCompletelyInstantiated_BinSetConstraint@@YAPAVClaireBoolean@@PAVBinSetConstraint@@@Z 004966cc f   choco:setconst.obj
 0001:0009588d       ?choco_getNbVars_BinSetConstraint@@YAHPAVBinSetConstraint@@@Z 0049688d f   choco:setconst.obj
 0001:00095897       ?choco_getVar_BinSetConstraint_choco@@YAPAVAbstractVar@@PAVBinSetConstraint@@H@Z 00496897 f   choco:setconst.obj
 0001:00095928       ?choco_connect_BinSetConstraint_choco@@YAXPAVBinSetConstraint@@@Z 00496928 f   choco:setconst.obj
 0001:00095a77       ?choco_disconnect_BinSetConstraint_choco@@YAXPAVBinSetConstraint@@@Z 00496a77 f   choco:setconst.obj
 0001:00095bc7       ?choco_reconnect_BinSetConstraint_choco@@YAXPAVBinSetConstraint@@@Z 00496bc7 f   choco:setconst.obj
 0001:00095d17       ?choco_assignIndices_BinSetConstraint@@YAHPAVBinSetConstraint@@PAVAbstractConstraint@@H@Z 00496d17 f   choco:setconst.obj
 0001:00095e8e       ?choco_getConstraintIdx_BinSetConstraint@@YAHPAVBinSetConstraint@@H@Z 00496e8e f   choco:setconst.obj
 0001:00095f1d       ?choco_setConstraintIndex_BinSetConstraint@@YAXPAVBinSetConstraint@@HH@Z 00496f1d f   choco:setconst.obj
 0001:00095fa4       ?choco_isActive_BinSetConstraint_choco@@YAPAVClaireBoolean@@PAVBinSetConstraint@@@Z 00496fa4 f   choco:setconst.obj
 0001:000960f7       ?choco_testIfCompletelyInstantiated_TernSetConstraint@@YAPAVClaireBoolean@@PAVTernSetConstraint@@@Z 004970f7 f   choco:setconst.obj
 0001:0009632a       ?choco_getNbVars_TernSetConstraint@@YAHPAVTernSetConstraint@@@Z 0049732a f   choco:setconst.obj
 0001:00096334       ?choco_getVar_TernSetConstraint_choco@@YAPAVAbstractVar@@PAVTernSetConstraint@@H@Z 00497334 f   choco:setconst.obj
 0001:000963d9       ?choco_connect_TernSetConstraint_choco@@YAXPAVTernSetConstraint@@@Z 004973d9 f   choco:setconst.obj
 0001:00096546       ?choco_disconnect_TernSetConstraint_choco@@YAXPAVTernSetConstraint@@@Z 00497546 f   choco:setconst.obj
 0001:000966b6       ?choco_reconnect_TernSetConstraint_choco@@YAXPAVTernSetConstraint@@@Z 004976b6 f   choco:setconst.obj
 0001:00096826       ?choco_assignIndices_TernSetConstraint@@YAHPAVTernSetConstraint@@PAVAbstractConstraint@@H@Z 00497826 f   choco:setconst.obj
 0001:000969e1       ?choco_getConstraintIdx_TernSetConstraint@@YAHPAVTernSetConstraint@@H@Z 004979e1 f   choco:setconst.obj
 0001:00096a81       ?choco_setConstraintIndex_TernSetConstraint@@YAXPAVTernSetConstraint@@HH@Z 00497a81 f   choco:setconst.obj
 0001:00096b1b       ?choco_isActive_TernSetConstraint_choco@@YAPAVClaireBoolean@@PAVTernSetConstraint@@@Z 00497b1b f   choco:setconst.obj
 0001:00096ca7       ?choco_awakeOnKer_SetCard@@YAXPAVSetCard@@H@Z 00497ca7 f   choco:setconst.obj
 0001:00096f0c       ?choco_awakeOnEnv_SetCard@@YAXPAVSetCard@@H@Z 00497f0c f   choco:setconst.obj
 0001:00097171       ?choco_awakeOnInstSet_SetCard@@YAXPAVSetCard@@H@Z 00498171 f   choco:setconst.obj
 0001:000972c2       ?choco_awakeOnInf_SetCard@@YAXPAVSetCard@@H@Z 004982c2 f   choco:setconst.obj
 0001:000974f5       ?choco_awakeOnSup_SetCard@@YAXPAVSetCard@@H@Z 004984f5 f   choco:setconst.obj
 0001:00097728       ?choco_awakeOnInst_SetCard@@YAXPAVSetCard@@H@Z 00498728 f   choco:setconst.obj
 0001:0009773d       ?choco_awakeOnRem_SetCard@@YAXPAVSetCard@@HH@Z 0049873d f   choco:setconst.obj
 0001:00097742       ?choco_awakeOnVar_SetCard@@YAXPAVSetCard@@H@Z 00498742 f   choco:setconst.obj
 0001:00097a98       ?choco_askIfEntailed_SetCard@@YAHPAVSetCard@@@Z 00498a98 f   choco:setconst.obj
 0001:00097cbd       ?choco_testIfSatisfied_SetCard@@YAPAVClaireBoolean@@PAVSetCard@@@Z 00498cbd f   choco:setconst.obj
 0001:00097e12       ?choco_propagate_SetCard@@YAXPAVSetCard@@@Z 00498e12 f   choco:setconst.obj
 0001:00098134       ?choco_awake_SetCard_choco@@YAXPAVSetCard@@@Z 00499134 f   choco:setconst.obj
 0001:000982cb       ?choco_setCard_SetVar@@YAPAVSetCard@@PAVSetVar@@PAVIntVar@@@Z 004992cb f   choco:setconst.obj
 0001:000983db       ?choco_awakeOnKer_MemberC@@YAXPAVMemberC@@H@Z 004993db f   choco:setconst.obj
 0001:000983e0       ?choco_awakeOnEnv_MemberC@@YAXPAVMemberC@@H@Z 004993e0 f   choco:setconst.obj
 0001:00098524       ?choco_awakeOnInstSet_MemberC@@YAXPAVMemberC@@H@Z 00499524 f   choco:setconst.obj
 0001:0009866f       ?choco_askIfEntailed_MemberC@@YAHPAVMemberC@@@Z 0049966f f   choco:setconst.obj
 0001:00098839       ?choco_testIfSatisfied_MemberC@@YAPAVClaireBoolean@@PAVMemberC@@@Z 00499839 f   choco:setconst.obj
 0001:00098977       ?choco_propagate_MemberC@@YAXPAVMemberC@@@Z 00499977 f   choco:setconst.obj
 0001:00098a75       ?choco_awake_MemberC_choco@@YAXPAVMemberC@@@Z 00499a75 f   choco:setconst.obj
 0001:00098b73       ?choco_memberOf_SetVar1@@YAPAVMemberC@@PAVSetVar@@H@Z 00499b73 f   choco:setconst.obj
 0001:00098c83       ?choco_awakeOnKer_NotMemberC@@YAXPAVNotMemberC@@H@Z 00499c83 f   choco:setconst.obj
 0001:00098dcd       ?choco_awakeOnEnv_NotMemberC@@YAXPAVNotMemberC@@H@Z 00499dcd f   choco:setconst.obj
 0001:00098dd2       ?choco_awakeOnInstSet_NotMemberC@@YAXPAVNotMemberC@@H@Z 00499dd2 f   choco:setconst.obj
 0001:00098f24       ?choco_askIfEntailed_NotMemberC@@YAHPAVNotMemberC@@@Z 00499f24 f   choco:setconst.obj
 0001:000990ee       ?choco_testIfSatisfied_NotMemberC@@YAPAVClaireBoolean@@PAVNotMemberC@@@Z 0049a0ee f   choco:setconst.obj
 0001:00099226       ?choco_propagate_NotMemberC@@YAXPAVNotMemberC@@@Z 0049a226 f   choco:setconst.obj
 0001:00099324       ?choco_awake_NotMemberC_choco@@YAXPAVNotMemberC@@@Z 0049a324 f   choco:setconst.obj
 0001:00099422       ?choco_notMemberOf_SetVar1@@YAPAVNotMemberC@@PAVSetVar@@H@Z 0049a422 f   choco:setconst.obj
 0001:00099532       ?choco_opposite_MemberC@@YAPAVNotMemberC@@PAVMemberC@@@Z 0049a532 f   choco:setconst.obj
 0001:00099647       ?choco_opposite_NotMemberC@@YAPAVMemberC@@PAVNotMemberC@@@Z 0049a647 f   choco:setconst.obj
 0001:0009975c       ?choco_awakeOnKer_MemberX@@YAXPAVMemberX@@H@Z 0049a75c f   choco:setconst.obj
 0001:00099761       ?choco_awakeOnEnv_MemberX@@YAXPAVMemberX@@H@Z 0049a761 f   choco:setconst.obj
 0001:00099bcb       ?choco_awakeOnInstSet_MemberX@@YAXPAVMemberX@@H@Z 0049abcb f   choco:setconst.obj
 0001:00099be0       ?choco_awakeOnInst_MemberX@@YAXPAVMemberX@@H@Z 0049abe0 f   choco:setconst.obj
 0001:00099ce0       ?choco_awakeOnVar_MemberX@@YAXPAVMemberX@@H@Z 0049ace0 f   choco:setconst.obj
 0001:0009a0cf       ?choco_awakeOnSup_MemberX@@YAXPAVMemberX@@H@Z 0049b0cf f   choco:setconst.obj
 0001:0009a0e4       ?choco_awakeOnInf_MemberX@@YAXPAVMemberX@@H@Z 0049b0e4 f   choco:setconst.obj
 0001:0009a0f9       ?choco_awakeOnRem_MemberX@@YAXPAVMemberX@@HH@Z 0049b0f9 f   choco:setconst.obj
 0001:0009a10e       ?choco_askIfEntailed_MemberX@@YAHPAVMemberX@@@Z 0049b10e f   choco:setconst.obj
 0001:0009a56f       ?choco_testIfSatisfied_MemberX@@YAPAVClaireBoolean@@PAVMemberX@@@Z 0049b56f f   choco:setconst.obj
 0001:0009a6b1       ?choco_propagate_MemberX@@YAXPAVMemberX@@@Z 0049b6b1 f   choco:setconst.obj
 0001:0009a6c4       ?choco_awake_MemberX_choco@@YAXPAVMemberX@@@Z 0049b6c4 f   choco:setconst.obj
 0001:0009a6d7       ?choco_memberOf_SetVar2@@YAPAVMemberX@@PAVSetVar@@PAVIntVar@@@Z 0049b6d7 f   choco:setconst.obj
 0001:0009a7e7       ?choco_awakeOnKer_NotMemberX@@YAXPAVNotMemberX@@H@Z 0049b7e7 f   choco:setconst.obj
 0001:0009a7f8       ?choco_awakeOnEnv_NotMemberX@@YAXPAVNotMemberX@@H@Z 0049b7f8 f   choco:setconst.obj
 0001:0009a7fd       ?choco_awakeOnInstSet_NotMemberX@@YAXPAVNotMemberX@@H@Z 0049b7fd f   choco:setconst.obj
 0001:0009ac15       ?choco_awakeOnSup_NotMemberX@@YAXPAVNotMemberX@@H@Z 0049bc15 f   choco:setconst.obj
 0001:0009ac2a       ?choco_awakeOnInst_NotMemberX@@YAXPAVNotMemberX@@H@Z 0049bc2a f   choco:setconst.obj
 0001:0009ac3f       ?choco_awakeOnRem_NotMemberX@@YAXPAVNotMemberX@@HH@Z 0049bc3f f   choco:setconst.obj
 0001:0009ac54       ?choco_awakeOnVar_NotMemberX@@YAXPAVNotMemberX@@H@Z 0049bc54 f   choco:setconst.obj
 0001:0009ac65       ?choco_askIfEntailed_NotMemberX@@YAHPAVNotMemberX@@@Z 0049bc65 f   choco:setconst.obj
 0001:0009b0c6       ?choco_testIfSatisfied_NotMemberX@@YAPAVClaireBoolean@@PAVNotMemberX@@@Z 0049c0c6 f   choco:setconst.obj
 0001:0009b202       ?choco_propagate_NotMemberX@@YAXPAVNotMemberX@@@Z 0049c202 f   choco:setconst.obj
 0001:0009b679       ?choco_awake_NotMemberX_choco@@YAXPAVNotMemberX@@@Z 0049c679 f   choco:setconst.obj
 0001:0009b68a       ?choco_opposite_MemberX@@YAPAVNotMemberX@@PAVMemberX@@@Z 0049c68a f   choco:setconst.obj
 0001:0009b79f       ?choco_opposite_NotMemberX@@YAPAVMemberX@@PAVNotMemberX@@@Z 0049c79f f   choco:setconst.obj
 0001:0009b8b4       ?choco_notMemberOf_SetVar2@@YAPAVNotMemberX@@PAVSetVar@@PAVIntVar@@@Z 0049c8b4 f   choco:setconst.obj
 0001:0009b9c4       ?choco_awakeOnKer_SetIntersection@@YAXPAVSetIntersection@@H@Z 0049c9c4 f   choco:setconst.obj
 0001:0009bf2b       ?choco_awakeOnEnv_SetIntersection@@YAXPAVSetIntersection@@H@Z 0049cf2b f   choco:setconst.obj
 0001:0009c422       ?choco_awakeOnInstSet_SetIntersection@@YAXPAVSetIntersection@@H@Z 0049d422 f   choco:setconst.obj
 0001:0009c447       ?choco_testIfSatisfied_SetIntersection@@YAPAVClaireBoolean@@PAVSetIntersection@@@Z 0049d447 f   choco:setconst.obj
 0001:0009c810       ?choco_propagate_SetIntersection@@YAXPAVSetIntersection@@@Z 0049d810 f   choco:setconst.obj
 0001:0009cebe       ?choco_awake_SetIntersection_choco@@YAXPAVSetIntersection@@@Z 0049debe f   choco:setconst.obj
 0001:0009cecf       ?choco_setintersection_SetVar@@YAPAVSetIntersection@@PAVSetVar@@00@Z 0049decf f   choco:setconst.obj
 0001:0009cfe7       ?choco_awakeOnKer_SetUnion@@YAXPAVSetUnion@@H@Z 0049dfe7 f   choco:setconst.obj
 0001:0009d38d       ?choco_awakeOnEnv_SetUnion@@YAXPAVSetUnion@@H@Z 0049e38d f   choco:setconst.obj
 0001:0009db3d       ?choco_awakeOnInstSet_SetUnion@@YAXPAVSetUnion@@H@Z 0049eb3d f   choco:setconst.obj
 0001:0009db62       ?choco_testIfSatisfied_SetUnion@@YAPAVClaireBoolean@@PAVSetUnion@@@Z 0049eb62 f   choco:setconst.obj
 0001:0009dfc1       ?choco_propagate_SetUnion@@YAXPAVSetUnion@@@Z 0049efc1 f   choco:setconst.obj
 0001:0009e698       ?choco_awake_SetUnion_choco@@YAXPAVSetUnion@@@Z 0049f698 f   choco:setconst.obj
 0001:0009e6a9       ?choco_setunion_SetVar@@YAPAVSetUnion@@PAVSetVar@@00@Z 0049f6a9 f   choco:setconst.obj
 0001:0009e7c1       ?choco_awakeOnKer_SubSet@@YAXPAVSubSet@@H@Z 0049f7c1 f   choco:setconst.obj
 0001:0009e954       ?choco_awakeOnEnv_SubSet@@YAXPAVSubSet@@H@Z 0049f954 f   choco:setconst.obj
 0001:0009eb4e       ?choco_awakeOnInstSet_SubSet@@YAXPAVSubSet@@H@Z 0049fb4e f   choco:setconst.obj
 0001:0009eb73       ?choco_askIfEntailed_SubSet@@YAHPAVSubSet@@@Z 0049fb73 f   choco:setconst.obj
 0001:0009ee6d       ?choco_testIfSatisfied_SubSet@@YAPAVClaireBoolean@@PAVSubSet@@@Z 0049fe6d f   choco:setconst.obj
 0001:0009f060       ?choco_propagate_SubSet@@YAXPAVSubSet@@@Z 004a0060 f   choco:setconst.obj
 0001:0009f2dc       ?choco_awake_SubSet_choco@@YAXPAVSubSet@@@Z 004a02dc f   choco:setconst.obj
 0001:0009f2ed       ?choco_subset_SetVar@@YAPAVSubSet@@PAVSetVar@@0@Z 004a02ed f   choco:setconst.obj
 0001:0009f3fd       ?choco_awakeOnKer_DisjointSets@@YAXPAVDisjointSets@@H@Z 004a03fd f   choco:setconst.obj
 0001:0009f621       ?choco_awakeOnEnv_DisjointSets@@YAXPAVDisjointSets@@H@Z 004a0621 f   choco:setconst.obj
 0001:0009f626       ?choco_awakeOnInstSet_DisjointSets@@YAXPAVDisjointSets@@H@Z 004a0626 f   choco:setconst.obj
 0001:0009f63b       ?choco_askIfEntailed_DisjointSets@@YAHPAVDisjointSets@@@Z 004a063b f   choco:setconst.obj
 0001:0009f944       ?choco_testIfSatisfied_DisjointSets@@YAPAVClaireBoolean@@PAVDisjointSets@@@Z 004a0944 f   choco:setconst.obj
 0001:0009fb54       ?choco_propagate_DisjointSets@@YAXPAVDisjointSets@@@Z 004a0b54 f   choco:setconst.obj
 0001:0009fd69       ?choco_awake_DisjointSets_choco@@YAXPAVDisjointSets@@@Z 004a0d69 f   choco:setconst.obj
 0001:0009fd7a       ?choco_disjoint_SetVar@@YAPAVDisjointSets@@PAVSetVar@@0@Z 004a0d7a f   choco:setconst.obj
 0001:0009fe8a       ?choco_awakeOnKer_OverlappingSets@@YAXPAVOverlappingSets@@H@Z 004a0e8a f   choco:setconst.obj
 0001:000a0197       ?choco_awakeOnEnv_OverlappingSets@@YAXPAVOverlappingSets@@H@Z 004a1197 f   choco:setconst.obj
 0001:000a04ea       ?choco_awakeOnInstSet_OverlappingSets@@YAXPAVOverlappingSets@@H@Z 004a14ea f   choco:setconst.obj
 0001:000a04ff       ?choco_askIfEntailed_OverlappingSets@@YAHPAVOverlappingSets@@@Z 004a14ff f   choco:setconst.obj
 0001:000a0808       ?choco_testIfSatisfied_OverlappingSets@@YAPAVClaireBoolean@@PAVOverlappingSets@@@Z 004a1808 f   choco:setconst.obj
 0001:000a0a01       ?choco_propagate_OverlappingSets@@YAXPAVOverlappingSets@@@Z 004a1a01 f   choco:setconst.obj
 0001:000a0a14       ?choco_awake_OverlappingSets_choco@@YAXPAVOverlappingSets@@@Z 004a1a14 f   choco:setconst.obj
 0001:000a0d19       ?choco_overlap_SetVar@@YAPAVOverlappingSets@@PAVSetVar@@0@Z 004a1d19 f   choco:setconst.obj
 0001:000a0e29       ?choco_opposite_DisjointSets@@YAPAVOverlappingSets@@PAVDisjointSets@@@Z 004a1e29 f   choco:setconst.obj
 0001:000a0f3e       ?choco_opposite_OverlappingSets@@YAPAVDisjointSets@@PAVOverlappingSets@@@Z 004a1f3e f   choco:setconst.obj
 0001:000a1060       ?choco_closeBoolConstraint_BinCompositeConstraint@@YAXPAVBinCompositeConstraint@@@Z 004a2060 f   choco:boolconst.obj
 0001:000a1150       ?choco_knownStatus_BinBoolConstraint@@YAPAVClaireBoolean@@PAVBinBoolConstraint@@H@Z 004a2150 f   choco:boolconst.obj
 0001:000a116f       ?choco_getStatus_BinBoolConstraint@@YAPAVClaireBoolean@@PAVBinBoolConstraint@@H@Z 004a216f f   choco:boolconst.obj
 0001:000a118e       ?choco_knownTargetStatus_BinBoolConstraint@@YAPAVClaireBoolean@@PAVBinBoolConstraint@@H@Z 004a218e f   choco:boolconst.obj
 0001:000a11ad       ?choco_getTargetStatus_BinBoolConstraint@@YAPAVClaireBoolean@@PAVBinBoolConstraint@@H@Z 004a21ad f   choco:boolconst.obj
 0001:000a11cc       ?choco_setStatus_BinBoolConstraint@@YAXPAVBinBoolConstraint@@HPAVClaireBoolean@@@Z 004a21cc f   choco:boolconst.obj
 0001:000a1352       ?choco_setTargetStatus_BinBoolConstraint@@YAXPAVBinBoolConstraint@@HPAVClaireBoolean@@@Z 004a2352 f   choco:boolconst.obj
 0001:000a14db       ?choco_closeBoolConstraint_LargeCompositeConstraint@@YAXPAVLargeCompositeConstraint@@@Z 004a24db f   choco:boolconst.obj
 0001:000a1515       ?choco_knownStatus_LargeBoolConstraint@@YAPAVClaireBoolean@@PAVLargeBoolConstraint@@H@Z 004a2515 f   choco:boolconst.obj
 0001:000a156b       ?choco_getStatus_LargeBoolConstraint@@YAPAVClaireBoolean@@PAVLargeBoolConstraint@@H@Z 004a256b f   choco:boolconst.obj
 0001:000a15c4       ?choco_knownTargetStatus_LargeBoolConstraint@@YAPAVClaireBoolean@@PAVLargeBoolConstraint@@H@Z 004a25c4 f   choco:boolconst.obj
 0001:000a161d       ?choco_getTargetStatus_LargeBoolConstraint@@YAPAVClaireBoolean@@PAVLargeBoolConstraint@@H@Z 004a261d f   choco:boolconst.obj
 0001:000a1676       ?choco_setStatus_LargeBoolConstraint@@YAXPAVLargeBoolConstraint@@HPAVClaireBoolean@@@Z 004a2676 f   choco:boolconst.obj
 0001:000a196a       ?choco_setTargetStatus_LargeBoolConstraint@@YAXPAVLargeBoolConstraint@@HPAVClaireBoolean@@@Z 004a296a f   choco:boolconst.obj
 0001:000a1c61       ?choco_assignIndices_BinBoolConstraintWCounterOpp@@YAHPAVBinBoolConstraintWCounterOpp@@PAVAbstractConstraint@@H@Z 004a2c61 f   choco:boolconst.obj
 0001:000a1f7c       ?choco_closeBoolConstraintWCounterOpp_BinBoolConstraintWCounterOpp@@YAXPAVBinBoolConstraintWCounterOpp@@@Z 004a2f7c f   choco:boolconst.obj
 0001:000a22b4       ?choco_assignIndices_LargeBoolConstraintWCounterOpp@@YAHPAVLargeBoolConstraintWCounterOpp@@PAVAbstractConstraint@@H@Z 004a32b4 f   choco:boolconst.obj
 0001:000a2592       ?choco_closeBoolConstraintWCounterOpp_LargeBoolConstraintWCounterOpp@@YAXPAVLargeBoolConstraintWCounterOpp@@@Z 004a3592 f   choco:boolconst.obj
 0001:000a2841       ?claire_self_print_Disjunction_choco@@YAXPAVDisjunction@@@Z 004a3841 f   choco:boolconst.obj
 0001:000a298c       ?choco_checkStatus_Disjunction@@YAXPAVDisjunction@@H@Z 004a398c f   choco:boolconst.obj
 0001:000a2ea8       ?choco_awakeOnInf_Disjunction@@YAXPAVDisjunction@@H@Z 004a3ea8 f   choco:boolconst.obj
 0001:000a3077       ?choco_awakeOnSup_Disjunction@@YAXPAVDisjunction@@H@Z 004a4077 f   choco:boolconst.obj
 0001:000a3246       ?choco_awakeOnInst_Disjunction@@YAXPAVDisjunction@@H@Z 004a4246 f   choco:boolconst.obj
 0001:000a3415       ?choco_awakeOnRem_Disjunction@@YAXPAVDisjunction@@HH@Z 004a4415 f   choco:boolconst.obj
 0001:000a35ea       ?choco_awakeOnEnv_Disjunction@@YAXPAVDisjunction@@H@Z 004a45ea f   choco:boolconst.obj
 0001:000a379b       ?choco_awakeOnKer_Disjunction@@YAXPAVDisjunction@@H@Z 004a479b f   choco:boolconst.obj
 0001:000a394c       ?choco_awakeOnInstSet_Disjunction@@YAXPAVDisjunction@@H@Z 004a494c f   choco:boolconst.obj
 0001:000a3afd       ?choco_askIfEntailed_Disjunction@@YAHPAVDisjunction@@@Z 004a4afd f   choco:boolconst.obj
 0001:000a407f       ?choco_testIfSatisfied_Disjunction@@YAPAVClaireBoolean@@PAVDisjunction@@@Z 004a507f f   choco:boolconst.obj
 0001:000a423f       ?choco_propagate_Disjunction@@YAXPAVDisjunction@@@Z 004a523f f   choco:boolconst.obj
 0001:000a427f       ?claire_self_print_Guard_choco@@YAXPAVGuard@@@Z 004a527f f   choco:boolconst.obj
 0001:000a43ca       ?choco_checkStatus_Guard@@YAXPAVGuard@@H@Z 004a53ca f   choco:boolconst.obj
 0001:000a4849       ?choco_awakeOnInf_Guard@@YAXPAVGuard@@H@Z 004a5849 f   choco:boolconst.obj
 0001:000a4998       ?choco_awakeOnSup_Guard@@YAXPAVGuard@@H@Z 004a5998 f   choco:boolconst.obj
 0001:000a4ae7       ?choco_awakeOnInst_Guard@@YAXPAVGuard@@H@Z 004a5ae7 f   choco:boolconst.obj
 0001:000a4c36       ?choco_awakeOnRem_Guard@@YAXPAVGuard@@HH@Z 004a5c36 f   choco:boolconst.obj
 0001:000a4d88       ?choco_awakeOnKer_Guard@@YAXPAVGuard@@H@Z 004a5d88 f   choco:boolconst.obj
 0001:000a4ec8       ?choco_awakeOnEnv_Guard@@YAXPAVGuard@@H@Z 004a5ec8 f   choco:boolconst.obj
 0001:000a5008       ?choco_awakeOnInstSet_Guard@@YAXPAVGuard@@H@Z 004a6008 f   choco:boolconst.obj
 0001:000a5148       ?choco_propagate_Guard@@YAXPAVGuard@@@Z 004a6148 f   choco:boolconst.obj
 0001:000a527b       ?choco_awake_Guard_choco@@YAXPAVGuard@@@Z 004a627b f   choco:boolconst.obj
 0001:000a53a2       ?choco_askIfEntailed_Guard@@YAHPAVGuard@@@Z 004a63a2 f   choco:boolconst.obj
 0001:000a5930       ?choco_testIfSatisfied_Guard@@YAPAVClaireBoolean@@PAVGuard@@@Z 004a6930 f   choco:boolconst.obj
 0001:000a5aea       ?claire_self_print_Equiv_choco@@YAXPAVEquiv@@@Z 004a6aea f   choco:boolconst.obj
 0001:000a5c35       ?choco_checkStatus_Equiv@@YAXPAVEquiv@@H@Z 004a6c35 f   choco:boolconst.obj
 0001:000a618b       ?choco_awakeOnInf_Equiv@@YAXPAVEquiv@@H@Z 004a718b f   choco:boolconst.obj
 0001:000a642f       ?choco_awakeOnSup_Equiv@@YAXPAVEquiv@@H@Z 004a742f f   choco:boolconst.obj
 0001:000a66d3       ?choco_awakeOnInst_Equiv@@YAXPAVEquiv@@H@Z 004a76d3 f   choco:boolconst.obj
 0001:000a6977       ?choco_awakeOnRem_Equiv@@YAXPAVEquiv@@HH@Z 004a7977 f   choco:boolconst.obj
 0001:000a6c2b       ?choco_awakeOnKer_Equiv@@YAXPAVEquiv@@H@Z 004a7c2b f   choco:boolconst.obj
 0001:000a6e8f       ?choco_awakeOnEnv_Equiv@@YAXPAVEquiv@@H@Z 004a7e8f f   choco:boolconst.obj
 0001:000a70f3       ?choco_awakeOnInstSet_Equiv@@YAXPAVEquiv@@H@Z 004a80f3 f   choco:boolconst.obj
 0001:000a7357       ?choco_propagate_Equiv@@YAXPAVEquiv@@@Z 004a8357 f   choco:boolconst.obj
 0001:000a75bf       ?choco_askIfEntailed_Equiv@@YAHPAVEquiv@@@Z 004a85bf f   choco:boolconst.obj
 0001:000a7b3c       ?choco_testIfSatisfied_Equiv@@YAPAVClaireBoolean@@PAVEquiv@@@Z 004a8b3c f   choco:boolconst.obj
 0001:000a7cd1       ?claire_self_print_Conjunction_choco@@YAXPAVConjunction@@@Z 004a8cd1 f   choco:boolconst.obj
 0001:000a7e1c       ?choco_awakeOnInf_Conjunction@@YAXPAVConjunction@@H@Z 004a8e1c f   choco:boolconst.obj
 0001:000a7f85       ?choco_awakeOnSup_Conjunction@@YAXPAVConjunction@@H@Z 004a8f85 f   choco:boolconst.obj
 0001:000a80ee       ?choco_awakeOnInst_Conjunction@@YAXPAVConjunction@@H@Z 004a90ee f   choco:boolconst.obj
 0001:000a8257       ?choco_awakeOnRem_Conjunction@@YAXPAVConjunction@@HH@Z 004a9257 f   choco:boolconst.obj
 0001:000a83c5       ?choco_awakeOnKer_Conjunction@@YAXPAVConjunction@@H@Z 004a93c5 f   choco:boolconst.obj
 0001:000a8510       ?choco_awakeOnEnv_Conjunction@@YAXPAVConjunction@@H@Z 004a9510 f   choco:boolconst.obj
 0001:000a865b       ?choco_awakeOnInstSet_Conjunction@@YAXPAVConjunction@@H@Z 004a965b f   choco:boolconst.obj
 0001:000a87a6       ?choco_propagate_Conjunction@@YAXPAVConjunction@@@Z 004a97a6 f   choco:boolconst.obj
 0001:000a88ee       ?choco_awake_Conjunction_choco@@YAXPAVConjunction@@@Z 004a98ee f   choco:boolconst.obj
 0001:000a8a18       ?choco_askIfEntailed_Conjunction@@YAHPAVConjunction@@@Z 004a9a18 f   choco:boolconst.obj
 0001:000a8f8f       ?choco_testIfSatisfied_Conjunction@@YAPAVClaireBoolean@@PAVConjunction@@@Z 004a9f8f f   choco:boolconst.obj
 0001:000a9150       ?claire_self_print_LargeConjunction_choco@@YAXPAVLargeConjunction@@@Z 004aa150 f   choco:boolconst.obj
 0001:000a91e3       ?choco_awakeOnInf_LargeConjunction@@YAXPAVLargeConjunction@@H@Z 004aa1e3 f   choco:boolconst.obj
 0001:000a9387       ?choco_awakeOnSup_LargeConjunction@@YAXPAVLargeConjunction@@H@Z 004aa387 f   choco:boolconst.obj
 0001:000a952b       ?choco_awakeOnInst_LargeConjunction@@YAXPAVLargeConjunction@@H@Z 004aa52b f   choco:boolconst.obj
 0001:000a96cf       ?choco_awakeOnRem_LargeConjunction@@YAXPAVLargeConjunction@@HH@Z 004aa6cf f   choco:boolconst.obj
 0001:000a9878       ?choco_awakeOnKer_LargeConjunction@@YAXPAVLargeConjunction@@H@Z 004aa878 f   choco:boolconst.obj
 0001:000a9a0d       ?choco_awakeOnEnv_LargeConjunction@@YAXPAVLargeConjunction@@H@Z 004aaa0d f   choco:boolconst.obj
 0001:000a9ba2       ?choco_awakeOnInstSet_LargeConjunction@@YAXPAVLargeConjunction@@H@Z 004aaba2 f   choco:boolconst.obj
 0001:000a9d37       ?choco_propagate_LargeConjunction@@YAXPAVLargeConjunction@@@Z 004aad37 f   choco:boolconst.obj
 0001:000a9ec5       ?choco_awake_LargeConjunction_choco@@YAXPAVLargeConjunction@@@Z 004aaec5 f   choco:boolconst.obj
 0001:000aa043       ?choco_askIfEntailed_LargeConjunction@@YAHPAVLargeConjunction@@@Z 004ab043 f   choco:boolconst.obj
 0001:000aa7a6       ?choco_testIfSatisfied_LargeConjunction@@YAPAVClaireBoolean@@PAVLargeConjunction@@@Z 004ab7a6 f   choco:boolconst.obj
 0001:000aa959       ?claire_self_print_LargeDisjunction_choco@@YAXPAVLargeDisjunction@@@Z 004ab959 f   choco:boolconst.obj
 0001:000aa9ec       ?choco_checkNbFalseStatus_LargeDisjunction@@YAXPAVLargeDisjunction@@@Z 004ab9ec f   choco:boolconst.obj
 0001:000aaf07       ?choco_checkStatus_LargeDisjunction@@YAXPAVLargeDisjunction@@H@Z 004abf07 f   choco:boolconst.obj
 0001:000ab5e9       ?choco_awakeOnInf_LargeDisjunction@@YAXPAVLargeDisjunction@@H@Z 004ac5e9 f   choco:boolconst.obj
 0001:000ab8ca       ?choco_awakeOnSup_LargeDisjunction@@YAXPAVLargeDisjunction@@H@Z 004ac8ca f   choco:boolconst.obj
 0001:000abbab       ?choco_awakeOnInst_LargeDisjunction@@YAXPAVLargeDisjunction@@H@Z 004acbab f   choco:boolconst.obj
 0001:000abe8c       ?choco_awakeOnRem_LargeDisjunction@@YAXPAVLargeDisjunction@@HH@Z 004ace8c f   choco:boolconst.obj
 0001:000ac172       ?choco_awakeOnKer_LargeDisjunction@@YAXPAVLargeDisjunction@@H@Z 004ad172 f   choco:boolconst.obj
 0001:000ac445       ?choco_awakeOnEnv_LargeDisjunction@@YAXPAVLargeDisjunction@@H@Z 004ad445 f   choco:boolconst.obj
 0001:000ac718       ?choco_awakeOnInstSet_LargeDisjunction@@YAXPAVLargeDisjunction@@H@Z 004ad718 f   choco:boolconst.obj
 0001:000ac9eb       ?choco_askIfEntailed_LargeDisjunction@@YAHPAVLargeDisjunction@@@Z 004ad9eb f   choco:boolconst.obj
 0001:000acbfe       ?choco_testIfSatisfied_LargeDisjunction@@YAPAVClaireBoolean@@PAVLargeDisjunction@@@Z 004adbfe f   choco:boolconst.obj
 0001:000acdb9       ?choco_propagate_LargeDisjunction@@YAXPAVLargeDisjunction@@@Z 004addb9 f   choco:boolconst.obj
 0001:000ace6e       ?choco_awake_LargeDisjunction_choco@@YAXPAVLargeDisjunction@@@Z 004ade6e f   choco:boolconst.obj
 0001:000ace8b       ?choco_getCardVar_Cardinality@@YAPAVIntVar@@PAVCardinality@@@Z 004ade8b f   choco:boolconst.obj
 0001:000aceaf       ?choco_getCardVarIdx_Cardinality@@YAHPAVCardinality@@@Z 004adeaf f   choco:boolconst.obj
 0001:000acec3       ?claire_self_print_Cardinality_choco@@YAXPAVCardinality@@@Z 004adec3 f   choco:boolconst.obj
 0001:000ad064       ?choco_awakeOnNbTrue_Cardinality@@YAXPAVCardinality@@@Z 004ae064 f   choco:boolconst.obj
 0001:000ad1b7       ?choco_awakeOnNbFalse_Cardinality@@YAXPAVCardinality@@@Z 004ae1b7 f   choco:boolconst.obj
 0001:000ad30f       ?choco_checkStatus_Cardinality@@YAXPAVCardinality@@H@Z 004ae30f f   choco:boolconst.obj
 0001:000ad943       ?choco_awakeOnInf_Cardinality@@YAXPAVCardinality@@H@Z 004ae943 f   choco:boolconst.obj
 0001:000adc46       ?choco_awakeOnSup_Cardinality@@YAXPAVCardinality@@H@Z 004aec46 f   choco:boolconst.obj
 0001:000adf49       ?choco_awakeOnInst_Cardinality@@YAXPAVCardinality@@H@Z 004aef49 f   choco:boolconst.obj
 0001:000ae257       ?choco_awakeOnRem_Cardinality@@YAXPAVCardinality@@HH@Z 004af257 f   choco:boolconst.obj
 0001:000ae554       ?choco_awakeOnKer_Cardinality@@YAXPAVCardinality@@H@Z 004af554 f   choco:boolconst.obj
 0001:000ae815       ?choco_awakeOnEnv_Cardinality@@YAXPAVCardinality@@H@Z 004af815 f   choco:boolconst.obj
 0001:000aead6       ?choco_awakeOnInstSet_Cardinality@@YAXPAVCardinality@@H@Z 004afad6 f   choco:boolconst.obj
 0001:000aed97       ?choco_awake_Cardinality_choco@@YAXPAVCardinality@@@Z 004afd97 f   choco:boolconst.obj
 0001:000aee49       ?choco_propagate_Cardinality@@YAXPAVCardinality@@@Z 004afe49 f   choco:boolconst.obj
 0001:000aef16       ?choco_testIfSatisfied_Cardinality@@YAPAVClaireBoolean@@PAVCardinality@@@Z 004aff16 f   choco:boolconst.obj
 0001:000af246       ?choco_askIfEntailed_Cardinality@@YAHPAVCardinality@@@Z 004b0246 f   choco:boolconst.obj
 0001:000afd32       ?choco_opposite_Guard@@YAPAVConjunction@@PAVGuard@@@Z 004b0d32 f   choco:boolconst.obj
 0001:000afec3       ?choco_opposite_Conjunction@@YAPAVDisjunction@@PAVConjunction@@@Z 004b0ec3 f   choco:boolconst.obj
 0001:000b00b4       ?choco_opposite_Disjunction@@YAPAVConjunction@@PAVDisjunction@@@Z 004b10b4 f   choco:boolconst.obj
 0001:000b02a5       ?choco_opposite_LargeDisjunction@@YAPAVLargeConjunction@@PAVLargeDisjunction@@@Z 004b12a5 f   choco:boolconst.obj
 0001:000b0463       ?choco_opposite_LargeConjunction@@YAPAVLargeDisjunction@@PAVLargeConjunction@@@Z 004b1463 f   choco:boolconst.obj
 0001:000b0621       ?choco_opposite_GreaterOrEqualxc@@YAPAVLessOrEqualxc@@PAVGreaterOrEqualxc@@@Z 004b1621 f   choco:boolconst.obj
 0001:000b0739       ?choco_opposite_LessOrEqualxc@@YAPAVGreaterOrEqualxc@@PAVLessOrEqualxc@@@Z 004b1739 f   choco:boolconst.obj
 0001:000b0851       ?choco_opposite_Equalxc@@YAPAVNotEqualxc@@PAVEqualxc@@@Z 004b1851 f   choco:boolconst.obj
 0001:000b0966       ?choco_opposite_NotEqualxc@@YAPAVEqualxc@@PAVNotEqualxc@@@Z 004b1966 f   choco:boolconst.obj
 0001:000b0a7b       ?choco_opposite_Equalxyc@@YAPAVNotEqualxyc@@PAVEqualxyc@@@Z 004b1a7b f   choco:boolconst.obj
 0001:000b0b9c       ?choco_opposite_NotEqualxyc@@YAPAVEqualxyc@@PAVNotEqualxyc@@@Z 004b1b9c f   choco:boolconst.obj
 0001:000b0cbd       ?choco_opposite_GreaterOrEqualxyc@@YAPAVGreaterOrEqualxyc@@PAV1@@Z 004b1cbd f   choco:boolconst.obj
 0001:000b0de3       ?choco_computeVarIdxInOpposite_GreaterOrEqualxyc@@YAHPAVGreaterOrEqualxyc@@H@Z 004b1de3 f   choco:boolconst.obj
 0001:000b0e05       ?choco_computeVarIdxInOpposite_AbstractConstraint@@YAHPAVAbstractConstraint@@H@Z 004b1e05 f   choco:boolconst.obj
 0001:000b0e63       ?choco_computeVarIdxInOpposite_IntConstraint@@YAHPAVIntConstraint@@H@Z 004b1e63 f   choco:boolconst.obj
 0001:000b0e6b       ?choco_computeVarIdxInOpposite_BinCompositeConstraint@@YAHPAVBinCompositeConstraint@@H@Z 004b1e6b f   choco:boolconst.obj
 0001:000b0fd7       ?choco_computeVarIdxInOpposite_LargeCompositeConstraint@@YAHPAVLargeCompositeConstraint@@H@Z 004b1fd7 f   choco:boolconst.obj
 0001:000b1210       ?claire_self_print_Elt_choco@@YAXPAVElt@@@Z 004b2210 f   choco:intconst2.obj
 0001:000b1390       ?choco_makeEltConstraint_list@@YAPAVElt@@PAVlist@@PAVIntVar@@1H@Z 004b2390 f   choco:intconst2.obj
 0001:000b14ba       ?choco_updateValueFromIndex_Elt@@YAXPAVElt@@@Z 004b24ba f   choco:intconst2.obj
 0001:000b23e9       ?choco_updateIndexFromValue_Elt@@YAXPAVElt@@@Z 004b33e9 f   choco:intconst2.obj
 0001:000b27ae       ?choco_awake_Elt_choco@@YAXPAVElt@@@Z 004b37ae f   choco:intconst2.obj
 0001:000b2938       ?choco_propagate_Elt@@YAXPAVElt@@@Z 004b3938 f   choco:intconst2.obj
 0001:000b2955       ?choco_awakeOnInf_Elt@@YAXPAVElt@@H@Z 004b3955 f   choco:intconst2.obj
 0001:000b297a       ?choco_awakeOnSup_Elt@@YAXPAVElt@@H@Z 004b397a f   choco:intconst2.obj
 0001:000b299f       ?choco_awakeOnInst_Elt@@YAXPAVElt@@H@Z 004b399f f   choco:intconst2.obj
 0001:000b2acd       ?choco_awakeOnRem_Elt@@YAXPAVElt@@HH@Z 004b3acd f   choco:intconst2.obj
 0001:000b2af2       ?choco_askIfEntailed_Elt@@YAHPAVElt@@@Z 004b3af2 f   choco:intconst2.obj
 0001:000b329e       ?choco_testIfSatisfied_Elt@@YAPAVClaireBoolean@@PAVElt@@@Z 004b429e f   choco:intconst2.obj
 0001:000b32d3       ?claire_self_print_Elt2_choco@@YAXPAVElt2@@@Z 004b42d3 f   choco:intconst2.obj
 0001:000b347c       ?choco_makeElt2Constraint_table@@YAPAVElt2@@PAVtable@@HHPAVIntVar@@11@Z 004b447c f   choco:intconst2.obj
 0001:000b35ba       ?choco_updateValueFromIndex_Elt2@@YAXPAVElt2@@@Z 004b45ba f   choco:intconst2.obj
 0001:000b41eb       ?choco_updateIndexFromValue_Elt2@@YAXPAVElt2@@@Z 004b51eb f   choco:intconst2.obj
 0001:000b6c26       ?choco_awake_Elt2_choco@@YAXPAVElt2@@@Z 004b7c26 f   choco:intconst2.obj
 0001:000b94d0       ?choco_propagate_Elt2@@YAXPAVElt2@@@Z 004ba4d0 f   choco:intconst2.obj
 0001:000b94ed       ?choco_awakeOnInf_Elt2@@YAXPAVElt2@@H@Z 004ba4ed f   choco:intconst2.obj
 0001:000b9512       ?choco_awakeOnSup_Elt2@@YAXPAVElt2@@H@Z 004ba512 f   choco:intconst2.obj
 0001:000b9537       ?choco_awakeOnInst_Elt2@@YAXPAVElt2@@H@Z 004ba537 f   choco:intconst2.obj
 0001:000b955c       ?choco_awakeOnRem_Elt2@@YAXPAVElt2@@HH@Z 004ba55c f   choco:intconst2.obj
 0001:000b97e2       ?choco_askIfEntailed_Elt2@@YAHPAVElt2@@@Z 004ba7e2 f   choco:intconst2.obj
 0001:000bb209       ?choco_testIfSatisfied_Elt2@@YAPAVClaireBoolean@@PAVElt2@@@Z 004bc209 f   choco:intconst2.obj
 0001:000bb244       ?claire_self_print_AllDiff_choco@@YAXPAVAllDiff@@@Z 004bc244 f   choco:intconst2.obj
 0001:000bb35b       ?choco_awakeOnInf_AllDiff@@YAXPAVAllDiff@@H@Z 004bc35b f   choco:intconst2.obj
 0001:000bb360       ?choco_awakeOnSup_AllDiff@@YAXPAVAllDiff@@H@Z 004bc360 f   choco:intconst2.obj
 0001:000bb365       ?choco_awakeOnRem_AllDiff@@YAXPAVAllDiff@@HH@Z 004bc365 f   choco:intconst2.obj
 0001:000bb36a       ?choco_awakeOnInst_AllDiff@@YAXPAVAllDiff@@H@Z 004bc36a f   choco:intconst2.obj
 0001:000bb51c       ?choco_propagate_AllDiff@@YAXPAVAllDiff@@@Z 004bc51c f   choco:intconst2.obj
 0001:000bb734       ?choco_testIfSatisfied_AllDiff@@YAPAVClaireBoolean@@PAVAllDiff@@@Z 004bc734 f   choco:intconst2.obj
 0001:000bb7f1       ?choco_askIfEntailed_AllDiff@@YAHPAVAllDiff@@@Z 004bc7f1 f   choco:intconst2.obj
 0001:000bb98b       ?claire_self_print_Occurrence_choco@@YAXPAVOccurrence@@@Z 004bc98b f   choco:intconst2.obj
 0001:000bbba8       ?choco_checkNbPossible_Occurrence_choco@@YAXPAVOccurrence@@@Z 004bcba8 f   choco:intconst2.obj
 0001:000bbd94       ?choco_checkNbSure_Occurrence_choco@@YAXPAVOccurrence@@@Z 004bcd94 f   choco:intconst2.obj
 0001:000bbfba       ?choco_update_Occurrence@@YAXPAVOccurrence@@@Z 004bcfba f   choco:intconst2.obj
 0001:000bbffa       ?choco_propagate_Occurrence@@YAXPAVOccurrence@@@Z 004bcffa f   choco:intconst2.obj
 0001:000bc5ec       ?choco_awake_Occurrence_choco@@YAXPAVOccurrence@@@Z 004bd5ec f   choco:intconst2.obj
 0001:000bc6b1       ?choco_awakeOnInf_Occurrence@@YAXPAVOccurrence@@H@Z 004bd6b1 f   choco:intconst2.obj
 0001:000bca11       ?choco_awakeOnSup_Occurrence@@YAXPAVOccurrence@@H@Z 004bda11 f   choco:intconst2.obj
 0001:000bcd71       ?choco_awakeOnInst_Occurrence@@YAXPAVOccurrence@@H@Z 004bdd71 f   choco:intconst2.obj
 0001:000bd257       ?choco_awakeOnRem_Occurrence@@YAXPAVOccurrence@@HH@Z 004be257 f   choco:intconst2.obj
 0001:000bd4e1       ?choco_testIfSatisfied_Occurrence@@YAPAVClaireBoolean@@PAVOccurrence@@@Z 004be4e1 f   choco:intconst2.obj
 0001:000bd594       ?choco_askIfEntailed_Occurrence@@YAHPAVOccurrence@@@Z 004be594 f   choco:intconst2.obj
 0001:000bd840       ?choco_getTruthValue_BinRelation@@YAPAVClaireBoolean@@PAVBinRelation@@HH@Z 004be840 f   choco:intconst1.obj
 0001:000bd8a4       ?choco_getTruthValue_TruthTest@@YAPAVClaireBoolean@@PAVTruthTest@@HH@Z 004be8a4 f   choco:intconst1.obj
 0001:000bd8cf       ?claire_self_print_TruthTest_choco@@YAXPAVTruthTest@@@Z 004be8cf f   choco:intconst1.obj
 0001:000bd90f       ?choco_getTruthValue_TruthTable2D@@YAPAVClaireBoolean@@PAVTruthTable2D@@HH@Z 004be90f f   choco:intconst1.obj
 0001:000bda0e       ?choco_setTruePair_TruthTable2D@@YAXPAVTruthTable2D@@HH@Z 004bea0e f   choco:intconst1.obj
 0001:000bdb0c       ?claire_self_print_TruthTable2D_choco@@YAXPAVTruthTable2D@@@Z 004beb0c f   choco:intconst1.obj
 0001:000bdb56       ?claire_self_print_CSPBinConstraint_choco@@YAXPAVCSPBinConstraint@@@Z 004beb56 f   choco:intconst1.obj
 0001:000bdd1d       ?choco_testIfSatisfied_CSPBinConstraint@@YAPAVClaireBoolean@@PAVCSPBinConstraint@@@Z 004bed1d f   choco:intconst1.obj
 0001:000bde85       ?choco_opposite_CSPBinConstraint@@YAPAVCSPBinConstraint@@PAV1@@Z 004bee85 f   choco:intconst1.obj
 0001:000bdfa3       ?choco_awakeOnInst_CSPBinConstraint@@YAXPAVCSPBinConstraint@@H@Z 004befa3 f   choco:intconst1.obj
 0001:000be693       ?choco_see_CSPBinConstraint@@YAXPAVCSPBinConstraint@@@Z 004bf693 f   choco:intconst1.obj
 0001:000bf5b4       ?choco_makeAC3BinConstraint_IntVar@@YAPAVAC3BinConstraint@@PAVIntVar@@0PAVClaireBoolean@@PAVBinRelation@@@Z 004c05b4 f   choco:intconst1.obj
 0001:000bf6df       ?choco_reviseV2_AC3BinConstraint@@YAXPAVAC3BinConstraint@@@Z 004c06df f   choco:intconst1.obj
 0001:000c02ff       ?choco_reviseV1_AC3BinConstraint@@YAXPAVAC3BinConstraint@@@Z 004c12ff f   choco:intconst1.obj
 0001:000c0f1f       ?choco_awakeOnInf_AC3BinConstraint@@YAXPAVAC3BinConstraint@@H@Z 004c1f1f f   choco:intconst1.obj
 0001:000c28e6       ?choco_awakeOnSup_AC3BinConstraint@@YAXPAVAC3BinConstraint@@H@Z 004c38e6 f   choco:intconst1.obj
 0001:000c42ad       ?choco_awakeOnRem_AC3BinConstraint@@YAXPAVAC3BinConstraint@@HH@Z 004c52ad f   choco:intconst1.obj
 0001:000c5c71       ?choco_awakeOnVar_AC3BinConstraint@@YAXPAVAC3BinConstraint@@H@Z 004c6c71 f   choco:intconst1.obj
 0001:000c7638       ?choco_propagate_AC3BinConstraint@@YAXPAVAC3BinConstraint@@@Z 004c8638 f   choco:intconst1.obj
 0001:000c8ff0       ?choco_makeAC4BinConstraint_IntVar@@YAPAVAC4BinConstraint@@PAVIntVar@@0PAVClaireBoolean@@PAVBinRelation@@@Z 004c9ff0 f   choco:intconst1.obj
 0001:000c9a02       ?choco_decrementNbSupportV1_AC4BinConstraint@@YAXPAVAC4BinConstraint@@H@Z 004caa02 f   choco:intconst1.obj
 0001:000c9c58       ?choco_decrementNbSupportV2_AC4BinConstraint@@YAXPAVAC4BinConstraint@@H@Z 004cac58 f   choco:intconst1.obj
 0001:000c9eae       ?choco_resetNbSupportV1_AC4BinConstraint@@YAXPAVAC4BinConstraint@@H@Z 004caeae f   choco:intconst1.obj
 0001:000ca35a       ?choco_resetNbSupportV2_AC4BinConstraint@@YAXPAVAC4BinConstraint@@H@Z 004cb35a f   choco:intconst1.obj
 0001:000ca806       ?choco_propagate_AC4BinConstraint@@YAXPAVAC4BinConstraint@@@Z 004cb806 f   choco:intconst1.obj
 0001:000cac5b       ?choco_awakeOnRem_AC4BinConstraint@@YAXPAVAC4BinConstraint@@HH@Z 004cbc5b f   choco:intconst1.obj
 0001:000cb211       ?choco_awakeOnInst_AC4BinConstraint@@YAXPAVAC4BinConstraint@@H@Z 004cc211 f   choco:intconst1.obj
 0001:000cb7fc       ?choco_awakeOnInf_AC4BinConstraint@@YAXPAVAC4BinConstraint@@H@Z 004cc7fc f   choco:intconst1.obj
 0001:000cbe60       ?choco_awakeOnSup_AC4BinConstraint@@YAXPAVAC4BinConstraint@@H@Z 004cce60 f   choco:intconst1.obj
 0001:000cc4c4       ?choco_awakeOnVar_AC4BinConstraint@@YAXPAVAC4BinConstraint@@H@Z 004cd4c4 f   choco:intconst1.obj
 0001:000cca86       ?choco_makeAC2001BinConstraint_IntVar@@YAPAVAC2001BinConstraint@@PAVIntVar@@0PAVClaireBoolean@@PAVBinRelation@@@Z 004cda86 f   choco:intconst1.obj
 0001:000ccc1d       ?choco_reviseV2_AC2001BinConstraint@@YAXPAVAC2001BinConstraint@@@Z 004cdc1d f   choco:intconst1.obj
 0001:000cd020       ?choco_reviseV1_AC2001BinConstraint@@YAXPAVAC2001BinConstraint@@@Z 004ce020 f   choco:intconst1.obj
 0001:000cd423       ?choco_updateSupportVal1_AC2001BinConstraint@@YAXPAVAC2001BinConstraint@@H@Z 004ce423 f   choco:intconst1.obj
 0001:000cd735       ?choco_updateSupportVal2_AC2001BinConstraint@@YAXPAVAC2001BinConstraint@@H@Z 004ce735 f   choco:intconst1.obj
 0001:000cda47       ?choco_awakeOnInf_AC2001BinConstraint@@YAXPAVAC2001BinConstraint@@H@Z 004cea47 f   choco:intconst1.obj
 0001:000ce183       ?choco_awakeOnSup_AC2001BinConstraint@@YAXPAVAC2001BinConstraint@@H@Z 004cf183 f   choco:intconst1.obj
 0001:000ce8bf       ?choco_awakeOnInst_AC2001BinConstraint@@YAXPAVAC2001BinConstraint@@H@Z 004cf8bf f   choco:intconst1.obj
 0001:000cefac       ?choco_awakeOnRem_AC2001BinConstraint@@YAXPAVAC2001BinConstraint@@HH@Z 004cffac f   choco:intconst1.obj
 0001:000cf6e8       ?choco_awakeOnVar_AC2001BinConstraint@@YAXPAVAC2001BinConstraint@@H@Z 004d06e8 f   choco:intconst1.obj
 0001:000cfe24       ?choco_propagate_AC2001BinConstraint@@YAXPAVAC2001BinConstraint@@@Z 004d0e24 f   choco:intconst1.obj
 0001:000d0550       ?choco_awake_AC2001BinConstraint_choco@@YAXPAVAC2001BinConstraint@@@Z 004d1550 f   choco:intconst1.obj
 0001:000d2566       ?choco_tupleConstraint_list@@YAPAVCSPLargeConstraint@@PAVlist@@PAVClaireBoolean@@0@Z 004d3566 f   choco:intconst1.obj
 0001:000d2800       ?choco_awakeOnInf_CSPLargeConstraint@@YAXPAVCSPLargeConstraint@@H@Z 004d3800 f   choco:intconst1.obj
 0001:000d2817       ?choco_awakeOnSup_CSPLargeConstraint@@YAXPAVCSPLargeConstraint@@H@Z 004d3817 f   choco:intconst1.obj
 0001:000d282e       ?choco_awakeOnRem_CSPLargeConstraint@@YAXPAVCSPLargeConstraint@@HH@Z 004d382e f   choco:intconst1.obj
 0001:000d2845       ?choco_awakeOnInst_CSPLargeConstraint@@YAXPAVCSPLargeConstraint@@H@Z 004d3845 f   choco:intconst1.obj
 0001:000d285c       ?choco_propagate_CSPLargeConstraint@@YAXPAVCSPLargeConstraint@@@Z 004d385c f   choco:intconst1.obj
 0001:000d34c5       ?claire_self_print_GreaterOrEqualxc_choco@@YAXPAVGreaterOrEqualxc@@@Z 004d44c5 f   choco:intconst1.obj
 0001:000d3505       ?claire_self_print_LessOrEqualxc_choco@@YAXPAVLessOrEqualxc@@@Z 004d4505 f   choco:intconst1.obj
 0001:000d3545       ?claire_self_print_Equalxc_choco@@YAXPAVEqualxc@@@Z 004d4545 f   choco:intconst1.obj
 0001:000d3585       ?claire_self_print_NotEqualxc_choco@@YAXPAVNotEqualxc@@@Z 004d4585 f   choco:intconst1.obj
 0001:000d35c5       ?choco_awakeOnInf_Equalxc@@YAXPAVEqualxc@@H@Z 004d45c5 f   choco:intconst1.obj
 0001:000d36c3       ?choco_awakeOnSup_Equalxc@@YAXPAVEqualxc@@H@Z 004d46c3 f   choco:intconst1.obj
 0001:000d37c1       ?choco_awakeOnInst_Equalxc@@YAXPAVEqualxc@@H@Z 004d47c1 f   choco:intconst1.obj
 0001:000d38bf       ?choco_propagate_Equalxc@@YAXPAVEqualxc@@@Z 004d48bf f   choco:intconst1.obj
 0001:000d39bd       ?choco_askIfEntailed_Equalxc@@YAHPAVEqualxc@@@Z 004d49bd f   choco:intconst1.obj
 0001:000d3b3c       ?choco_testIfSatisfied_Equalxc@@YAPAVClaireBoolean@@PAVEqualxc@@@Z 004d4b3c f   choco:intconst1.obj
 0001:000d3b5a       ?choco_awakeOnInf_GreaterOrEqualxc@@YAXPAVGreaterOrEqualxc@@H@Z 004d4b5a f   choco:intconst1.obj
 0001:000d3c75       ?choco_awakeOnSup_GreaterOrEqualxc@@YAXPAVGreaterOrEqualxc@@H@Z 004d4c75 f   choco:intconst1.obj
 0001:000d3d90       ?choco_awakeOnInst_GreaterOrEqualxc@@YAXPAVGreaterOrEqualxc@@H@Z 004d4d90 f   choco:intconst1.obj
 0001:000d3ea0       ?choco_propagate_GreaterOrEqualxc@@YAXPAVGreaterOrEqualxc@@@Z 004d4ea0 f   choco:intconst1.obj
 0001:000d3fbb       ?choco_askIfEntailed_GreaterOrEqualxc@@YAHPAVGreaterOrEqualxc@@@Z 004d4fbb f   choco:intconst1.obj
 0001:000d40f7       ?choco_testIfSatisfied_GreaterOrEqualxc@@YAPAVClaireBoolean@@PAVGreaterOrEqualxc@@@Z 004d50f7 f   choco:intconst1.obj
 0001:000d4115       ?choco_awakeOnInf_LessOrEqualxc@@YAXPAVLessOrEqualxc@@H@Z 004d5115 f   choco:intconst1.obj
 0001:000d4230       ?choco_awakeOnSup_LessOrEqualxc@@YAXPAVLessOrEqualxc@@H@Z 004d5230 f   choco:intconst1.obj
 0001:000d434b       ?choco_awakeOnInst_LessOrEqualxc@@YAXPAVLessOrEqualxc@@H@Z 004d534b f   choco:intconst1.obj
 0001:000d445b       ?choco_propagate_LessOrEqualxc@@YAXPAVLessOrEqualxc@@@Z 004d545b f   choco:intconst1.obj
 0001:000d4576       ?choco_askIfEntailed_LessOrEqualxc@@YAHPAVLessOrEqualxc@@@Z 004d5576 f   choco:intconst1.obj
 0001:000d46b2       ?choco_testIfSatisfied_LessOrEqualxc@@YAPAVClaireBoolean@@PAVLessOrEqualxc@@@Z 004d56b2 f   choco:intconst1.obj
 0001:000d46d0       ?choco_awakeOnInf_NotEqualxc@@YAXPAVNotEqualxc@@H@Z 004d56d0 f   choco:intconst1.obj
 0001:000d47e0       ?choco_awakeOnSup_NotEqualxc@@YAXPAVNotEqualxc@@H@Z 004d57e0 f   choco:intconst1.obj
 0001:000d48f0       ?choco_awakeOnInst_NotEqualxc@@YAXPAVNotEqualxc@@H@Z 004d58f0 f   choco:intconst1.obj
 0001:000d4915       ?choco_propagate_NotEqualxc@@YAXPAVNotEqualxc@@@Z 004d5915 f   choco:intconst1.obj
 0001:000d4a25       ?choco_askIfEntailed_NotEqualxc@@YAHPAVNotEqualxc@@@Z 004d5a25 f   choco:intconst1.obj
 0001:000d4ba4       ?choco_testIfSatisfied_NotEqualxc@@YAPAVClaireBoolean@@PAVNotEqualxc@@@Z 004d5ba4 f   choco:intconst1.obj
 0001:000d4bc2       ?claire_self_print_Equalxyc_choco@@YAXPAVEqualxyc@@@Z 004d5bc2 f   choco:intconst1.obj
 0001:000d4c21       ?claire_self_print_NotEqualxyc_choco@@YAXPAVNotEqualxyc@@@Z 004d5c21 f   choco:intconst1.obj
 0001:000d4c80       ?claire_self_print_GreaterOrEqualxyc_choco@@YAXPAVGreaterOrEqualxyc@@@Z 004d5c80 f   choco:intconst1.obj
 0001:000d4cdf       ?choco_propagate_Equalxyc@@YAXPAVEqualxyc@@@Z 004d5cdf f   choco:intconst1.obj
 0001:000d5577       ?choco_askIfEntailed_Equalxyc@@YAHPAVEqualxyc@@@Z 004d6577 f   choco:intconst1.obj
 0001:000d563b       ?choco_testIfSatisfied_Equalxyc@@YAPAVClaireBoolean@@PAVEqualxyc@@@Z 004d663b f   choco:intconst1.obj
 0001:000d5662       ?choco_awakeOnInf_Equalxyc@@YAXPAVEqualxyc@@H@Z 004d6662 f   choco:intconst1.obj
 0001:000d57cd       ?choco_awakeOnSup_Equalxyc@@YAXPAVEqualxyc@@H@Z 004d67cd f   choco:intconst1.obj
 0001:000d5938       ?choco_awakeOnInst_Equalxyc@@YAXPAVEqualxyc@@H@Z 004d6938 f   choco:intconst1.obj
 0001:000d5a79       ?choco_awakeOnRem_Equalxyc@@YAXPAVEqualxyc@@HH@Z 004d6a79 f   choco:intconst1.obj
 0001:000d5bd2       ?choco_propagate_NotEqualxyc@@YAXPAVNotEqualxyc@@@Z 004d6bd2 f   choco:intconst1.obj
 0001:000d5bf3       ?choco_awakeOnInf_NotEqualxyc@@YAXPAVNotEqualxyc@@H@Z 004d6bf3 f   choco:intconst1.obj
 0001:000d5e12       ?choco_awakeOnSup_NotEqualxyc@@YAXPAVNotEqualxyc@@H@Z 004d6e12 f   choco:intconst1.obj
 0001:000d6031       ?choco_awakeOnInst_NotEqualxyc@@YAXPAVNotEqualxyc@@H@Z 004d7031 f   choco:intconst1.obj
 0001:000d6250       ?choco_askIfEntailed_NotEqualxyc@@YAHPAVNotEqualxyc@@@Z 004d7250 f   choco:intconst1.obj
 0001:000d6314       ?choco_testIfSatisfied_NotEqualxyc@@YAPAVClaireBoolean@@PAVNotEqualxyc@@@Z 004d7314 f   choco:intconst1.obj
 0001:000d633b       ?choco_propagate_GreaterOrEqualxyc@@YAXPAVGreaterOrEqualxyc@@@Z 004d733b f   choco:intconst1.obj
 0001:000d635c       ?choco_awakeOnInf_GreaterOrEqualxyc@@YAXPAVGreaterOrEqualxyc@@H@Z 004d735c f   choco:intconst1.obj
 0001:000d64b5       ?choco_awakeOnSup_GreaterOrEqualxyc@@YAXPAVGreaterOrEqualxyc@@H@Z 004d74b5 f   choco:intconst1.obj
 0001:000d660e       ?choco_awakeOnInst_GreaterOrEqualxyc@@YAXPAVGreaterOrEqualxyc@@H@Z 004d760e f   choco:intconst1.obj
 0001:000d679a       ?choco_askIfEntailed_GreaterOrEqualxyc@@YAHPAVGreaterOrEqualxyc@@@Z 004d779a f   choco:intconst1.obj
 0001:000d680a       ?choco_testIfSatisfied_GreaterOrEqualxyc@@YAPAVClaireBoolean@@PAVGreaterOrEqualxyc@@@Z 004d780a f   choco:intconst1.obj
 0001:000d6831       ?claire_self_print_LinComb_choco@@YAXPAVLinComb@@@Z 004d7831 f   choco:intconst1.obj
 0001:000d6993       ?choco_makeLinComb_list@@YAPAVLinComb@@PAVlist@@0HH@Z 004d7993 f   choco:intconst1.obj
 0001:000d6c1f       ?choco_getNbVars_LinComb@@YAHPAVLinComb@@@Z 004d7c1f f   choco:intconst1.obj
 0001:000d6c2a       ?choco_assignIndices_LinComb@@YAHPAVLinComb@@PAVAbstractConstraint@@H@Z 004d7c2a f   choco:intconst1.obj
 0001:000d6dcf       ?choco_opposite_LinComb@@YAPAVLinComb@@PAV1@@Z 004d7dcf f   choco:intconst1.obj
 0001:000d709b       ?choco_computeVarIdxInOpposite_LinComb@@YAHPAVLinComb@@H@Z 004d809b f   choco:intconst1.obj
 0001:000d70f7       ?choco_computeUpperBound_LinComb_choco@@YAHPAVLinComb@@@Z 004d80f7 f   choco:intconst1.obj
 0001:000d71d9       ?choco_computeLowerBound_LinComb_choco@@YAHPAVLinComb@@@Z 004d81d9 f   choco:intconst1.obj
 0001:000d72bb       ?choco_propagateNewLowerBound_LinComb_choco@@YAPAVClaireBoolean@@PAVLinComb@@H@Z 004d82bb f   choco:intconst1.obj
 0001:000d7462       ?choco_propagateNewUpperBound_LinComb_choco@@YAPAVClaireBoolean@@PAVLinComb@@H@Z 004d8462 f   choco:intconst1.obj
 0001:000d7609       ?choco_filterOnImprovedLowerBound_LinComb@@YAPAVClaireBoolean@@PAVLinComb@@@Z 004d8609 f   choco:intconst1.obj
 0001:000d77f6       ?choco_filterOnImprovedUpperBound_LinComb@@YAPAVClaireBoolean@@PAVLinComb@@@Z 004d87f6 f   choco:intconst1.obj
 0001:000d790b       ?choco_filter_LinComb@@YAXPAVLinComb@@PAVClaireBoolean@@H@Z 004d890b f   choco:intconst1.obj
 0001:000d7c03       ?choco_propagate_LinComb@@YAXPAVLinComb@@@Z 004d8c03 f   choco:intconst1.obj
 0001:000d7c82       ?choco_awake_LinComb_choco@@YAXPAVLinComb@@@Z 004d8c82 f   choco:intconst1.obj
 0001:000d7c9b       ?choco_askIfEntailed_LinComb@@YAHPAVLinComb@@@Z 004d8c9b f   choco:intconst1.obj
 0001:000d7e27       ?choco_testIfSatisfied_LinComb@@YAPAVClaireBoolean@@PAVLinComb@@@Z 004d8e27 f   choco:intconst1.obj
 0001:000d7f14       ?choco_abstractIncInf_LinComb@@YAPAVClaireBoolean@@PAVLinComb@@H@Z 004d8f14 f   choco:intconst1.obj
 0001:000d8111       ?choco_abstractDecSup_LinComb@@YAPAVClaireBoolean@@PAVLinComb@@H@Z 004d9111 f   choco:intconst1.obj
 0001:000d830e       ?choco_abstractInstantiate_LinComb@@YAPAVClaireBoolean@@PAVLinComb@@H@Z 004d930e f   choco:intconst1.obj
 0001:000d84fa       ?choco_abstractRemoveVal_LinComb@@YAPAVClaireBoolean@@PAVLinComb@@HH@Z 004d94fa f   choco:intconst1.obj
 0001:000d86f7       ?choco_awakeOnInf_LinComb@@YAXPAVLinComb@@H@Z 004d96f7 f   choco:intconst1.obj
 0001:000d8733       ?choco_awakeOnSup_LinComb@@YAXPAVLinComb@@H@Z 004d9733 f   choco:intconst1.obj
 0001:000d876f       ?choco_awakeOnInst_LinComb@@YAXPAVLinComb@@H@Z 004d976f f   choco:intconst1.obj
 0001:000d87a0       ?choco_isInstantiated_AbstractVar_choco@@YAPAVClaireBoolean@@PAVAbstractVar@@@Z 004d97a0 f   choco:var.obj
 0001:000d87aa       ?choco_getConstraint_AbstractVar@@YAPAVAbstractConstraint@@PAVAbstractVar@@H@Z 004d97aa f   choco:var.obj
 0001:000d87cf       ?choco_getDegree_AbstractVar@@YAHPAVAbstractVar@@@Z 004d97cf f   choco:var.obj
 0001:000d87dd       ?claire_self_print_IntVar_choco@@YAXPAVIntVar@@@Z 004d97dd f   choco:var.obj
 0001:000d89aa       ?choco_closeIntVar_IntVar@@YAXPAVIntVar@@HHH@Z 004d99aa f   choco:var.obj
 0001:000d8d08       ?choco_updateInf_IntVar1_choco@@YAPAVClaireBoolean@@PAVIntVar@@H@Z 004d9d08 f   choco:var.obj
 0001:000d8f17       ?choco_updateSup_IntVar1_choco@@YAPAVClaireBoolean@@PAVIntVar@@H@Z 004d9f17 f   choco:var.obj
 0001:000d9126       ?choco_instantiate_IntVar1@@YAPAVClaireBoolean@@PAVIntVar@@H@Z 004da126 f   choco:var.obj
 0001:000d93fd       ?choco_removeVal_IntVar1_choco@@YAPAVClaireBoolean@@PAVIntVar@@H@Z 004da3fd f   choco:var.obj
 0001:000d9658       ?claire_domain_IntVar@@YAPAVClaireType@@PAVIntVar@@@Z 004da658 f   choco:var.obj
 0001:000d97be       ?choco_isInstantiatedTo_IntVar_choco@@YAPAVClaireBoolean@@PAVIntVar@@H@Z 004da7be f   choco:var.obj
 0001:000d97d6       ?choco_canBeInstantiatedTo_IntVar_choco@@YAPAVClaireBoolean@@PAVIntVar@@H@Z 004da7d6 f   choco:var.obj
 0001:000d9975       ?choco_canBeEqualTo_IntVar_choco@@YAPAVClaireBoolean@@PAVIntVar@@0@Z 004da975 f   choco:var.obj
 0001:000d9ecb       ?choco_domainIncludedIn_IntVar_choco@@YAPAVClaireBoolean@@PAVIntVar@@PAVlist@@@Z 004daecb f   choco:var.obj
 0001:000da03e       ?choco_canBeInstantiatedIn_IntVar_choco@@YAPAVClaireBoolean@@PAVIntVar@@PAVlist@@@Z 004db03e f   choco:var.obj
 0001:000da300       ?choco_hasExactDomain_IntVar_choco@@YAPAVClaireBoolean@@PAVIntVar@@@Z 004db300 f   choco:var.obj
 0001:000da33f       ?claire_random_IntVar@@YAHPAVIntVar@@@Z 004db33f f   choco:var.obj
 0001:000da470       ?choco_getNextDomainValue_IntVar@@YAHPAVIntVar@@H@Z 004db470 f   choco:var.obj
 0001:000da5b3       ?choco_getPrevDomainValue_IntVar@@YAHPAVIntVar@@H@Z 004db5b3 f   choco:var.obj
 0001:000da6f6       ?choco_getInf_IntVar_choco@@YAHPAVIntVar@@@Z 004db6f6 f   choco:var.obj
 0001:000da704       ?choco_getSup_IntVar_choco@@YAHPAVIntVar@@@Z 004db704 f   choco:var.obj
 0001:000da712       ?choco_isInstantiated_IntVar_choco@@YAPAVClaireBoolean@@PAVIntVar@@@Z 004db712 f   choco:var.obj
 0001:000da726       ?choco_getValue_IntVar@@YAHPAVIntVar@@@Z 004db726 f   choco:var.obj
 0001:000da731       ?choco_getDomainSize_IntVar@@YAHPAVIntVar@@@Z 004db731 f   choco:var.obj
 0001:000da786       ?choco_updateInf_IntVar2_choco@@YAPAVClaireBoolean@@PAVIntVar@@HH@Z 004db786 f   choco:var.obj
 0001:000da93e       ?choco_updateSup_IntVar2_choco@@YAPAVClaireBoolean@@PAVIntVar@@HH@Z 004db93e f   choco:var.obj
 0001:000daaf6       ?choco_removeVal_IntVar2_choco@@YAPAVClaireBoolean@@PAVIntVar@@HH@Z 004dbaf6 f   choco:var.obj
 0001:000dad73       ?choco_instantiate_IntVar2@@YAPAVClaireBoolean@@PAVIntVar@@HH@Z 004dbd73 f   choco:var.obj
 0001:000daec5       ?choco_removeInterval_IntVar@@YAPAVClaireBoolean@@PAVIntVar@@HHH@Z 004dbec5 f   choco:var.obj
 0001:000daff6       ?choco_restrictTo_IntVar@@YAXPAVIntVar@@PAVlist@@H@Z 004dbff6 f   choco:var.obj
 0001:000db13b       ?claire_self_print_SetVar_choco@@YAXPAVSetVar@@@Z 004dc13b f   choco:var.obj
 0001:000db2b8       ?choco_getDomainKernel_SetVar@@YAPAVlist@@PAVSetVar@@@Z 004dc2b8 f   choco:var.obj
 0001:000db3ec       ?choco_getDomainEnveloppe_SetVar@@YAPAVlist@@PAVSetVar@@@Z 004dc3ec f   choco:var.obj
 0001:000db520       ?choco_getDomainKernelSize_SetVar@@YAHPAVSetVar@@@Z 004dc520 f   choco:var.obj
 0001:000db63e       ?choco_getDomainEnveloppeSize_SetVar@@YAHPAVSetVar@@@Z 004dc63e f   choco:var.obj
 0001:000db75c       ?choco_getDomainEnveloppeInf_SetVar@@YAHPAVSetVar@@@Z 004dc75c f   choco:var.obj
 0001:000db87a       ?choco_getDomainEnveloppeSup_SetVar@@YAHPAVSetVar@@@Z 004dc87a f   choco:var.obj
 0001:000db998       ?choco_getDomainKernelInf_SetVar@@YAHPAVSetVar@@@Z 004dc998 f   choco:var.obj
 0001:000dbab6       ?choco_getDomainKernelSup_SetVar@@YAHPAVSetVar@@@Z 004dcab6 f   choco:var.obj
 0001:000dbbd4       ?choco_isInstantiated_SetVar_choco@@YAPAVClaireBoolean@@PAVSetVar@@@Z 004dcbd4 f   choco:var.obj
 0001:000dbd55       ?choco_isInstantiatedTo_SetVar_choco@@YAPAVClaireBoolean@@PAVSetVar@@PAVlist@@@Z 004dcd55 f   choco:var.obj
 0001:000dbf24       ?choco_getValue_SetVar@@YAPAVlist@@PAVSetVar@@@Z 004dcf24 f   choco:var.obj
 0001:000dbf35       ?choco_isInDomainEnveloppe_SetVar@@YAPAVClaireBoolean@@PAVSetVar@@H@Z 004dcf35 f   choco:var.obj
 0001:000dc06e       ?choco_isInDomainKernel_SetVar@@YAPAVClaireBoolean@@PAVSetVar@@H@Z 004dd06e f   choco:var.obj
 0001:000dc1a7       ?choco_canBeInstantiatedTo_SetVar_choco@@YAPAVClaireBoolean@@PAVSetVar@@PAVbag@@@Z 004dd1a7 f   choco:var.obj
 0001:000dc46e       ?choco_canBeEqualTo_SetVar_choco@@YAPAVClaireBoolean@@PAVSetVar@@0@Z 004dd46e f   choco:var.obj
 0001:000dc782       ?choco_addSetVar_Problem@@YAXPAVProblem@@PAVSetVar@@@Z 004dd782 f   choco:var.obj
 0001:000dc8ba       ?choco_closeSetVar_SetVar@@YAXPAVSetVar@@HH@Z 004dd8ba f   choco:var.obj
 0001:000dca3e       ?choco_addToKernel_SetVar@@YAPAVClaireBoolean@@PAVSetVar@@HH@Z 004dda3e f   choco:var.obj
 0001:000dcc87       ?choco_remFromEnveloppe_SetVar@@YAPAVClaireBoolean@@PAVSetVar@@HH@Z 004ddc87 f   choco:var.obj
 0001:000dced6       ?choco_setIn_SetVar@@YAXPAVSetVar@@H@Z 004dded6 f   choco:var.obj
 0001:000dceed       ?choco_setOut_SetVar@@YAXPAVSetVar@@H@Z 004ddeed f   choco:var.obj
 0001:000dcf10       ?claire_self_print_Instantiation_choco@@YAXPAVInstantiation@@@Z 004ddf10 f   choco:prop.obj
 0001:000dcf22       ?claire_self_print_InstInt_choco@@YAXPAVInstInt@@@Z 004ddf22 f   choco:prop.obj
 0001:000dd07a       ?claire_self_print_InstSet_choco@@YAXPAVInstSet@@@Z 004de07a f   choco:prop.obj
 0001:000dd1f0       ?claire_self_print_BoundUpdate_choco@@YAXPAVBoundUpdate@@@Z 004de1f0 f   choco:prop.obj
 0001:000dd202       ?claire_self_print_IncInf_choco@@YAXPAVIncInf@@@Z 004de202 f   choco:prop.obj
 0001:000dd379       ?claire_self_print_DecSup_choco@@YAXPAVDecSup@@@Z 004de379 f   choco:prop.obj
 0001:000dd4f0       ?claire_self_print_IncKer_choco@@YAXPAVIncKer@@@Z 004de4f0 f   choco:prop.obj
 0001:000dd681       ?claire_self_print_DecEnv_choco@@YAXPAVDecEnv@@@Z 004de681 f   choco:prop.obj
 0001:000dd812       ?claire_self_print_ValueRemovals_choco@@YAXPAVValueRemovals@@@Z 004de812 f   choco:prop.obj
 0001:000dda7f       ?claire_self_print_ConstAwakeEvent_choco@@YAXPAVConstAwakeEvent@@@Z 004dea7f f   choco:prop.obj
 0001:000ddbf9       ?choco_raiseContradiction_PropagationEngine1@@YAXPAVPropagationEngine@@@Z 004debf9 f   choco:prop.obj
 0001:000ddd84       ?choco_raiseContradiction_PropagationEngine2@@YAXPAVPropagationEngine@@PAVEphemeral@@@Z 004ded84 f   choco:prop.obj
 0001:000ddf0d       ?choco_getContradictionCause_PropagationEngine@@YAPAVEphemeral@@PAVPropagationEngine@@@Z 004def0d f   choco:prop.obj
 0001:000ddf18       ?choco_raiseContradiction_AbstractVar@@YAXPAVAbstractVar@@@Z 004def18 f   choco:prop.obj
 0001:000de00d       ?choco_raiseContradiction_AbstractConstraint@@YAXPAVAbstractConstraint@@@Z 004df00d f   choco:prop.obj
 0001:000de10a       ?choco_raiseContradiction_Problem@@YAXPAVProblem@@@Z 004df10a f   choco:prop.obj
 0001:000de1f9       ?choco_makeChocEngine_integer@@YAPAVChocEngine@@H@Z 004df1f9 f   choco:prop.obj
 0001:000deb16       ?choco_attachPropagationEngine_Problem@@YAXPAVProblem@@PAVPropagationEngine@@@Z 004dfb16 f   choco:prop.obj
 0001:000deb2d       ?choco_isEmpty_EventQueue@@YAPAVClaireBoolean@@PAVEventQueue@@@Z 004dfb2d f   choco:prop.obj
 0001:000deb48       ?choco_isEmpty_InstantiationStack@@YAPAVClaireBoolean@@PAVInstantiationStack@@@Z 004dfb48 f   choco:prop.obj
 0001:000deb63       ?choco_popNextEvent_BoundEventQueue@@YAPAVBoundUpdate@@PAVBoundEventQueue@@@Z 004dfb63 f   choco:prop.obj
 0001:000debda       ?choco_popNextEvent_RemovalEventQueue@@YAPAVValueRemovals@@PAVRemovalEventQueue@@@Z 004dfbda f   choco:prop.obj
 0001:000dec51       ?choco_popNextEvent_InstantiationStack@@YAPAVInstantiation@@PAVInstantiationStack@@@Z 004dfc51 f   choco:prop.obj
 0001:000ded7d       ?choco_nextEventPostIndex_BoundEventQueue@@YAHPAVBoundEventQueue@@@Z 004dfd7d f   choco:prop.obj
 0001:000dee1e       ?choco_nextEventPostIndex_RemovalEventQueue@@YAHPAVRemovalEventQueue@@@Z 004dfe1e f   choco:prop.obj
 0001:000def65       ?choco_raiseOverflowWarning_PropagationEngine@@YAXPAVPropagationEngine@@@Z 004dff65 f   choco:prop.obj
 0001:000defc5       ?choco_nextEventPostIndex_InstantiationStack@@YAHPAVInstantiationStack@@@Z 004dffc5 f   choco:prop.obj
 0001:000df13f       ?choco_flushEventQueue_BoundEventQueue@@YAXPAVBoundEventQueue@@@Z 004e013f f   choco:prop.obj
 0001:000df2d3       ?choco_flushEventQueue_RemovalEventQueue@@YAXPAVRemovalEventQueue@@@Z 004e02d3 f   choco:prop.obj
 0001:000df45c       ?choco_flushEventQueue_ConstAwakeEventQueue@@YAXPAVConstAwakeEventQueue@@@Z 004e045c f   choco:prop.obj
 0001:000df54b       ?choco_checkCleanState_ChocEngine@@YAHPAVChocEngine@@@Z 004e054b f   choco:prop.obj
 0001:000df558       ?choco_pushWorld_Problem@@YAXPAVProblem@@@Z 004e0558 f   choco:prop.obj
 0001:000df6fb       ?choco_popWorld_Problem@@YAXPAVProblem@@@Z 004e06fb f   choco:prop.obj
 0001:000df705       ?choco_setWorld_Problem@@YAXPAVProblem@@H@Z 004e0705 f   choco:prop.obj
 0001:000df716       ?choco_commitWorld_Problem@@YAXPAVProblem@@@Z 004e0716 f   choco:prop.obj
 0001:000df720       ?choco_flushCurrentOpenEvents_ChocEngine@@YAHPAVChocEngine@@@Z 004e0720 f   choco:prop.obj
 0001:000df8b3       ?choco_postInstInt_PropagationEngine@@YAXPAVPropagationEngine@@PAVIntVar@@H@Z 004e08b3 f   choco:prop.obj
 0001:000df925       ?choco_postRemoveVal_PropagationEngine@@YAXPAVPropagationEngine@@PAVIntVar@@HH@Z 004e0925 f   choco:prop.obj
 0001:000df99b       ?choco_postUpdateInf_PropagationEngine@@YAXPAVPropagationEngine@@PAVIntVar@@H@Z 004e099b f   choco:prop.obj
 0001:000dfa0d       ?choco_postUpdateSup_PropagationEngine@@YAXPAVPropagationEngine@@PAVIntVar@@H@Z 004e0a0d f   choco:prop.obj
 0001:000dfa7f       ?choco_postUpdateKer_PropagationEngine@@YAXPAVPropagationEngine@@PAVSetVar@@H@Z 004e0a7f f   choco:prop.obj
 0001:000dfaf1       ?choco_postUpdateEnv_PropagationEngine@@YAXPAVPropagationEngine@@PAVSetVar@@H@Z 004e0af1 f   choco:prop.obj
 0001:000dfb63       ?choco_postInstSet_PropagationEngine@@YAXPAVPropagationEngine@@PAVSetVar@@H@Z 004e0b63 f   choco:prop.obj
 0001:000dfbd5       ?choco_postConstAwake_PropagationEngine@@YAXPAVPropagationEngine@@PAVAbstractConstraint@@PAVClaireBoolean@@@Z 004e0bd5 f   choco:prop.obj
 0001:000dfc56       ?choco_postInstantiateEvt_ChocEngine@@YAXPAVChocEngine@@PAVInstantiation@@H@Z 004e0c56 f   choco:prop.obj
 0001:000dff2e       ?choco_postInstInt_ChocEngine@@YAXPAVChocEngine@@PAVIntVar@@H@Z 004e0f2e f   choco:prop.obj
 0001:000e0025       ?choco_postInstSet_ChocEngine@@YAXPAVChocEngine@@PAVSetVar@@H@Z 004e1025 f   choco:prop.obj
 0001:000e011c       ?choco_postRemoveVal_ChocEngine@@YAXPAVChocEngine@@PAVIntVar@@HH@Z 004e111c f   choco:prop.obj
 0001:000e05c3       ?choco_postBoundEvent_ChocEngine@@YAXPAVChocEngine@@PAVBoundUpdate@@H@Z 004e15c3 f   choco:prop.obj
 0001:000e06d7       ?choco_postUpdateInf_ChocEngine@@YAXPAVChocEngine@@PAVIntVar@@H@Z 004e16d7 f   choco:prop.obj
 0001:000e07ce       ?choco_postUpdateSup_ChocEngine@@YAXPAVChocEngine@@PAVIntVar@@H@Z 004e17ce f   choco:prop.obj
 0001:000e08c5       ?choco_postUpdateKer_ChocEngine@@YAXPAVChocEngine@@PAVSetVar@@H@Z 004e18c5 f   choco:prop.obj
 0001:000e09bc       ?choco_postUpdateEnv_ChocEngine@@YAXPAVChocEngine@@PAVSetVar@@H@Z 004e19bc f   choco:prop.obj
 0001:000e0ab3       ?choco_getQueue_ChocEngine@@YAPAVConstAwakeEventQueue@@PAVChocEngine@@PAVConstAwakeEvent@@@Z 004e1ab3 f   choco:prop.obj
 0001:000e0b17       ?choco_registerEvent_ChocEngine@@YAXPAVChocEngine@@PAVConstAwakeEvent@@@Z 004e1b17 f   choco:prop.obj
 0001:000e0cd6       ?choco_postConstAwake_ChocEngine@@YAPAVClaireBoolean@@PAVChocEngine@@PAVAbstractConstraint@@PAV1@@Z 004e1cd6 f   choco:prop.obj
 0001:000e0e8b       ?choco_remove_ConstAwakeEventQueue@@YAXPAVConstAwakeEventQueue@@PAVConstAwakeEvent@@@Z 004e1e8b f   choco:prop.obj
 0001:000e0fc8       ?choco_constAwake_AbstractConstraint@@YAXPAVAbstractConstraint@@PAVClaireBoolean@@@Z 004e1fc8 f   choco:prop.obj
 0001:000e10f7       ?choco_popSomeEvents_InstantiationStack@@YAXPAVInstantiationStack@@@Z 004e20f7 f   choco:prop.obj
 0001:000e1316       ?choco_propagateEvent_Instantiation_choco@@YAXPAVInstantiation@@@Z 004e2316 f   choco:prop.obj
 0001:000e1686       ?choco_popSomeEvents_RemovalEventQueue@@YAXPAVRemovalEventQueue@@@Z 004e2686 f   choco:prop.obj
 0001:000e170d       ?choco_propagateEvent_ValueRemovals_choco@@YAXPAVValueRemovals@@PAVRemovalEventQueue@@@Z 004e270d f   choco:prop.obj
 0001:000e1b01       ?choco_popSomeEvents_BoundEventQueue@@YAXPAVBoundEventQueue@@@Z 004e2b01 f   choco:prop.obj
 0001:000e1b88       ?choco_propagateEvent_BoundUpdate_choco@@YAXPAVBoundUpdate@@PAVBoundEventQueue@@@Z 004e2b88 f   choco:prop.obj
 0001:000e2224       ?choco_isEmpty_ConstAwakeEventQueue@@YAPAVClaireBoolean@@PAVConstAwakeEventQueue@@@Z 004e3224 f   choco:prop.obj
 0001:000e223d       ?choco_popSomeEvents_ConstAwakeEventQueue@@YAXPAVConstAwakeEventQueue@@@Z 004e323d f   choco:prop.obj
 0001:000e23c8       ?choco_popNextEvent_ConstAwakeEventQueue@@YAPAVConstAwakeEvent@@PAVConstAwakeEventQueue@@@Z 004e33c8 f   choco:prop.obj
 0001:000e2539       ?choco_propagateEvent_ConstAwakeEvent_choco@@YAXPAVConstAwakeEvent@@@Z 004e3539 f   choco:prop.obj
 0001:000e2684       ?choco_popSomeEvents_EventCollection@@YAXPAVEventCollection@@@Z 004e3684 f   choco:prop.obj
 0001:000e26c9       ?choco_getNextActiveEventQueue_PropagationEngine_choco@@YAHPAVPropagationEngine@@@Z 004e36c9 f   choco:prop.obj
 0001:000e2713       ?choco_getNextActiveConstraintEventQueue_ChocEngine@@YAHPAVChocEngine@@@Z 004e3713 f   choco:prop.obj
 0001:000e28d0       ?choco_getNextActiveVariableEventQueue_ChocEngine@@YAHPAVChocEngine@@@Z 004e38d0 f   choco:prop.obj
 0001:000e2976       ?choco_getNextActiveEventQueue_ChocEngine_choco@@YAHPAVChocEngine@@@Z 004e3976 f   choco:prop.obj
 0001:000e2e10       ?choco_domainSequence_AbstractIntDomain_choco@@YAPAVlist@@PAVAbstractIntDomain@@@Z 004e3e10 f   choco:dom.obj
 0001:000e2e7b       ?choco_domainSet_AbstractIntDomain_choco@@YAPAVset@@PAVAbstractIntDomain@@@Z 004e3e7b f   choco:dom.obj
 0001:000e2ee6       ?choco_getDomainInf_AbstractIntDomain_choco@@YAHPAVAbstractIntDomain@@@Z 004e3ee6 f   choco:dom.obj
 0001:000e2f44       ?choco_getDomainSup_AbstractIntDomain_choco@@YAHPAVAbstractIntDomain@@@Z 004e3f44 f   choco:dom.obj
 0001:000e2fa2       ?choco_updateDomainInf_AbstractIntDomain_choco@@YAHPAVAbstractIntDomain@@H@Z 004e3fa2 f   choco:dom.obj
 0001:000e3000       ?choco_updateDomainSup_AbstractIntDomain_choco@@YAHPAVAbstractIntDomain@@H@Z 004e4000 f   choco:dom.obj
 0001:000e305e       ?choco_containsValInDomain_AbstractIntDomain_choco@@YAPAVClaireBoolean@@PAVAbstractIntDomain@@H@Z 004e405e f   choco:dom.obj
 0001:000e30bf       ?choco_removeDomainVal_AbstractIntDomain_choco@@YAPAVClaireBoolean@@PAVAbstractIntDomain@@H@Z 004e40bf f   choco:dom.obj
 0001:000e3120       ?choco_restrict_AbstractIntDomain_choco@@YAXPAVAbstractIntDomain@@H@Z 004e4120 f   choco:dom.obj
 0001:000e317c       ?choco_getDomainCard_AbstractIntDomain_choco@@YAHPAVAbstractIntDomain@@@Z 004e417c f   choco:dom.obj
 0001:000e31dd       ?choco_getNextValue_AbstractIntDomain_choco@@YAHPAVAbstractIntDomain@@H@Z 004e41dd f   choco:dom.obj
 0001:000e323b       ?choco_getPrevValue_AbstractIntDomain_choco@@YAHPAVAbstractIntDomain@@H@Z 004e423b f   choco:dom.obj
 0001:000e3299       ?claire_self_print_LinkedListIntDomain_choco@@YAXPAVLinkedListIntDomain@@@Z 004e4299 f   choco:dom.obj
 0001:000e34b1       ?choco_makeLinkedListIntDomain_integer@@YAPAVLinkedListIntDomain@@HH@Z 004e44b1 f   choco:dom.obj
 0001:000e371c       ?claire_random_LinkedListIntDomain@@YAHPAVLinkedListIntDomain@@@Z 004e471c f   choco:dom.obj
 0001:000e377d       ?choco_domainSet_LinkedListIntDomain_choco@@YAPAVset@@PAVLinkedListIntDomain@@@Z 004e477d f   choco:dom.obj
 0001:000e3862       ?choco_domainSequence_LinkedListIntDomain_choco@@YAPAVlist@@PAVLinkedListIntDomain@@@Z 004e4862 f   choco:dom.obj
 0001:000e3947       ?choco_getDomainInf_LinkedListIntDomain_choco@@YAHPAVLinkedListIntDomain@@@Z 004e4947 f   choco:dom.obj
 0001:000e3973       ?choco_getDomainSup_LinkedListIntDomain_choco@@YAHPAVLinkedListIntDomain@@@Z 004e4973 f   choco:dom.obj
 0001:000e39c7       ?choco_isIncludedIn_LinkedListIntDomain@@YAPAVClaireBoolean@@PAVLinkedListIntDomain@@PAVlist@@@Z 004e49c7 f   choco:dom.obj
 0001:000e3b6f       ?choco_getDomainCard_LinkedListIntDomain_choco@@YAHPAVLinkedListIntDomain@@@Z 004e4b6f f   choco:dom.obj
 0001:000e3b7a       ?choco_containsValInDomain_LinkedListIntDomain_choco@@YAPAVClaireBoolean@@PAVLinkedListIntDomain@@H@Z 004e4b7a f   choco:dom.obj
 0001:000e3bc4       ?choco_getNextValue_LinkedListIntDomain_choco@@YAHPAVLinkedListIntDomain@@H@Z 004e4bc4 f   choco:dom.obj
 0001:000e3c03       ?choco_getPrevValue_LinkedListIntDomain_choco@@YAHPAVLinkedListIntDomain@@H@Z 004e4c03 f   choco:dom.obj
 0001:000e3c63       ?choco_removeDomainVal_LinkedListIntDomain_choco@@YAPAVClaireBoolean@@PAVLinkedListIntDomain@@H@Z 004e4c63 f   choco:dom.obj
 0001:000e3fa2       ?choco_restrict_LinkedListIntDomain_choco@@YAXPAVLinkedListIntDomain@@H@Z 004e4fa2 f   choco:dom.obj
 0001:000e42c3       ?choco_updateDomainInf_LinkedListIntDomain_choco@@YAHPAVLinkedListIntDomain@@H@Z 004e52c3 f   choco:dom.obj
 0001:000e4516       ?choco_updateDomainSup_LinkedListIntDomain_choco@@YAHPAVLinkedListIntDomain@@H@Z 004e5516 f   choco:dom.obj
 0001:000e4876       ?choco_getKernel_AbstractSetDomain@@YAPAVlist@@PAVAbstractSetDomain@@@Z 004e5876 f   choco:dom.obj
 0001:000e48e1       ?choco_getEnveloppe_AbstractSetDomain@@YAPAVlist@@PAVAbstractSetDomain@@@Z 004e58e1 f   choco:dom.obj
 0001:000e494c       ?choco_getKernelSize_AbstractSetDomain@@YAHPAVAbstractSetDomain@@@Z 004e594c f   choco:dom.obj
 0001:000e4957       ?choco_getEnveloppeSize_AbstractSetDomain@@YAHPAVAbstractSetDomain@@@Z 004e5957 f   choco:dom.obj
 0001:000e4962       ?choco_getKernelInf_AbstractSetDomain@@YAHPAVAbstractSetDomain@@@Z 004e5962 f   choco:dom.obj
 0001:000e49c0       ?choco_getKernelSup_AbstractSetDomain@@YAHPAVAbstractSetDomain@@@Z 004e59c0 f   choco:dom.obj
 0001:000e4a1e       ?choco_getEnveloppeInf_AbstractSetDomain@@YAHPAVAbstractSetDomain@@@Z 004e5a1e f   choco:dom.obj
 0001:000e4a7c       ?choco_getEnveloppeSup_AbstractSetDomain@@YAHPAVAbstractSetDomain@@@Z 004e5a7c f   choco:dom.obj
 0001:000e4ada       ?choco_isInEnveloppe_AbstractSetDomain@@YAPAVClaireBoolean@@PAVAbstractSetDomain@@H@Z 004e5ada f   choco:dom.obj
 0001:000e4b3b       ?choco_isInKernel_AbstractSetDomain@@YAPAVClaireBoolean@@PAVAbstractSetDomain@@H@Z 004e5b3b f   choco:dom.obj
 0001:000e4b9c       ?choco_updateKernel_AbstractSetDomain@@YAPAVClaireBoolean@@PAVAbstractSetDomain@@H@Z 004e5b9c f   choco:dom.obj
 0001:000e4bfd       ?choco_updateEnveloppe_AbstractSetDomain@@YAPAVClaireBoolean@@PAVAbstractSetDomain@@H@Z 004e5bfd f   choco:dom.obj
 0001:000e4c5e       ?choco_getKernel_BitSetDomain@@YAPAVlist@@PAVBitSetDomain@@@Z 004e5c5e f   choco:dom.obj
 0001:000e4dfa       ?choco_getEnveloppe_BitSetDomain@@YAPAVlist@@PAVBitSetDomain@@@Z 004e5dfa f   choco:dom.obj
 0001:000e4f96       ?choco_getKernelSize_BitSetDomain@@YAHPAVBitSetDomain@@@Z 004e5f96 f   choco:dom.obj
 0001:000e4fa1       ?choco_getEnveloppeSize_BitSetDomain@@YAHPAVBitSetDomain@@@Z 004e5fa1 f   choco:dom.obj
 0001:000e4fac       ?choco_getKernelInf_BitSetDomain@@YAHPAVBitSetDomain@@@Z 004e5fac f   choco:dom.obj
 0001:000e5029       ?choco_getKernelSup_BitSetDomain@@YAHPAVBitSetDomain@@@Z 004e6029 f   choco:dom.obj
 0001:000e50a6       ?choco_getEnveloppeInf_BitSetDomain@@YAHPAVBitSetDomain@@@Z 004e60a6 f   choco:dom.obj
 0001:000e5123       ?choco_getEnveloppeSup_BitSetDomain@@YAHPAVBitSetDomain@@@Z 004e6123 f   choco:dom.obj
 0001:000e51a0       ?choco_isInEnveloppe_BitSetDomain@@YAPAVClaireBoolean@@PAVBitSetDomain@@H@Z 004e61a0 f   choco:dom.obj
 0001:000e51be       ?choco_isInKernel_BitSetDomain@@YAPAVClaireBoolean@@PAVBitSetDomain@@H@Z 004e61be f   choco:dom.obj
 0001:000e51dc       ?choco_makeBitSetDomain_integer@@YAPAVBitSetDomain@@HH@Z 004e61dc f   choco:dom.obj
 0001:000e567e       ?choco_updateKernel_BitSetDomain@@YAPAVClaireBoolean@@PAVBitSetDomain@@H@Z 004e667e f   choco:dom.obj
 0001:000e58b6       ?choco_updateEnveloppe_BitSetDomain@@YAPAVClaireBoolean@@PAVBitSetDomain@@H@Z 004e68b6 f   choco:dom.obj
 0001:000e5aee       ?choco_makeBitListSetDomain_integer@@YAPAVBitListSetDomain@@HH@Z 004e6aee f   choco:dom.obj
 0001:000e5e66       ?choco_getKernel_BitListSetDomain@@YAPAVlist@@PAVBitListSetDomain@@@Z 004e6e66 f   choco:dom.obj
 0001:000e5f64       ?choco_getEnveloppe_BitListSetDomain@@YAPAVlist@@PAVBitListSetDomain@@@Z 004e6f64 f   choco:dom.obj
 0001:000e6062       ?choco_getKernelSize_BitListSetDomain@@YAHPAVBitListSetDomain@@@Z 004e7062 f   choco:dom.obj
 0001:000e606d       ?choco_getEnveloppeSize_BitListSetDomain@@YAHPAVBitListSetDomain@@@Z 004e706d f   choco:dom.obj
 0001:000e6078       ?choco_getKernelInf_BitListSetDomain@@YAHPAVBitListSetDomain@@@Z 004e7078 f   choco:dom.obj
 0001:000e617e       ?choco_getKernelSup_BitListSetDomain@@YAHPAVBitListSetDomain@@@Z 004e717e f   choco:dom.obj
 0001:000e6284       ?choco_getEnveloppeInf_BitListSetDomain@@YAHPAVBitListSetDomain@@@Z 004e7284 f   choco:dom.obj
 0001:000e638a       ?choco_getEnveloppeSup_BitListSetDomain@@YAHPAVBitListSetDomain@@@Z 004e738a f   choco:dom.obj
 0001:000e6490       ?choco_isInEnveloppe_BitListSetDomain@@YAPAVClaireBoolean@@PAVBitListSetDomain@@H@Z 004e7490 f   choco:dom.obj
 0001:000e6591       ?choco_isInKernel_BitListSetDomain@@YAPAVClaireBoolean@@PAVBitListSetDomain@@H@Z 004e7591 f   choco:dom.obj
 0001:000e6692       ?choco_updateKernel_BitListSetDomain@@YAPAVClaireBoolean@@PAVBitListSetDomain@@H@Z 004e7692 f   choco:dom.obj
 0001:000e68a9       ?choco_updateEnveloppe_BitListSetDomain@@YAPAVClaireBoolean@@PAVBitListSetDomain@@H@Z 004e78a9 f   choco:dom.obj
 0001:000e6ac0       ?choco_showChocoLicense_void@@YAXXZ 004e7ac0 f   choco:model.obj
 0001:000e6b25       ?choco_makeSolution_Solver@@YAPAVSolution@@PAVSolver@@H@Z 004e7b25 f   choco:model.obj
 0001:000e6c75       ?choco_getIntVar_Problem@@YAPAVIntVar@@PAVProblem@@H@Z 004e7c75 f   choco:model.obj
 0001:000e6c9a       ?choco_getSetVar_Problem@@YAPAVSetVar@@PAVProblem@@H@Z 004e7c9a f   choco:model.obj
 0001:000e6cc0       ?choco_div_dash_integer@@YAHHH@Z 004e7cc0 f   choco:chocutils.obj
 0001:000e6d26       ?choco_div_plus_integer@@YAHHH@Z 004e7d26 f   choco:chocutils.obj
 0001:000e6d8c       ?claire_max_integer2@@YAHHH@Z 004e7d8c f   choco:chocutils.obj
 0001:000e6dbc       ?claire_min_integer2@@YAHHH@Z 004e7dbc f   choco:chocutils.obj
 0001:000e6dec       ?claire_max_bag@@YAHPAVbag@@@Z 004e7dec f   choco:chocutils.obj
 0001:000e6e68       ?claire_min_bag@@YAHPAVbag@@@Z 004e7e68 f   choco:chocutils.obj
 0001:000e6ee4       ?claire_sum_bag@@YAHPAVbag@@@Z 004e7ee4 f   choco:chocutils.obj
 0001:000e6f4d       ?claire_product_bag@@YAHPAVbag@@@Z 004e7f4d f   choco:chocutils.obj
 0001:000e6fb7       ?claire_count_any@@YAHH@Z  004e7fb7 f   choco:chocutils.obj
 0001:000e7123       ?claire_abs_integer@@YAHH@Z 004e8123 f   choco:chocutils.obj
 0001:000e7153       ?claire_abs_float_@@YAHH@Z 004e8153 f   choco:chocutils.obj
 0001:000e7180       ?claire_abs_float@@YANN@Z  004e8180 f   choco:chocutils.obj
 0001:000e71d8       ?claire_stringFormat_integer@@YAPADHH@Z 004e81d8 f   choco:chocutils.obj
 0001:000e7459       ?claire_stringFormat_string@@YAPADPADH@Z 004e8459 f   choco:chocutils.obj
 0001:000e75a5       ?claire_random_list@@YAHPAVlist@@@Z 004e85a5 f   choco:chocutils.obj
 0001:000e75df       ?claire_random_Interval@@YAHPAVInterval@@@Z 004e85df f   choco:chocutils.obj
 0001:000e7604       ?claire_random_integer2@@YAHHH@Z 004e8604 f   choco:chocutils.obj
 0001:000e7620       ?claire__7_plus_Interval1@@YAPAVlist@@PAVInterval@@0@Z 004e8620 f   choco:chocutils.obj
 0001:000e7757       ?claire__7_plus_Interval2@@YAPAVlist@@PAVInterval@@PAVset@@@Z 004e8757 f   choco:chocutils.obj
 0001:000e787c       ?claire__7_plus_set2@@YAPAVlist@@PAVset@@PAVInterval@@@Z 004e887c f   choco:chocutils.obj
 0001:000e79a1       ?claire_integer_I_boolean@@YAHPAVClaireBoolean@@@Z 004e89a1 f   choco:chocutils.obj
 0001:000e79c8       ?choco_knownInt_integer@@YAPAVClaireBoolean@@H@Z 004e89c8 f   choco:chocutils.obj
 0001:000e79de       ?claire_self_print_StoredInt_choco@@YAXPAVStoredInt@@@Z 004e89de f   choco:chocutils.obj
 0001:000e79f2       ?claire_write_StoredInt@@YAXPAVStoredInt@@H@Z 004e89f2 f   choco:chocutils.obj
 0001:000e7be0       ?claire_read_StoredInt@@YAHPAVStoredInt@@@Z 004e8be0 f   choco:chocutils.obj
 0001:000e7beb       ?choco_make2DBoolMatrix_integer@@YAPAVBoolMatrix2D@@HHHHPAVClaireBoolean@@0@Z 004e8beb f   choco:chocutils.obj
 0001:000e7d5d       ?choco_make2DIntMatrix_integer@@YAPAVIntMatrix2D@@HHHHHPAVClaireBoolean@@@Z 004e8d5d f   choco:chocutils.obj
 0001:000e7ec0       ?choco_makeNDBoolMatrix_list@@YAPAVBoolMatrixND@@PAVlist@@PAVClaireBoolean@@1@Z 004e8ec0 f   choco:chocutils.obj
 0001:000e81a1       ?choco_makeNDIntMatrix_list@@YAPAVIntMatrixND@@PAVlist@@HPAVClaireBoolean@@@Z 004e91a1 f   choco:chocutils.obj
 0001:000e8473       ?choco_flatIndex_Matrix2D@@YAHPAVMatrix2D@@HH@Z 004e9473 f   choco:chocutils.obj
 0001:000e8497       ?claire_read_BoolMatrix2D@@YAPAVClaireBoolean@@PAVBoolMatrix2D@@HH@Z 004e9497 f   choco:chocutils.obj
 0001:000e84c8       ?claire_store_BoolMatrix2D@@YAXPAVBoolMatrix2D@@HHPAVClaireBoolean@@@Z 004e94c8 f   choco:chocutils.obj
 0001:000e850b       ?claire_read_IntMatrix2D@@YAHPAVIntMatrix2D@@HH@Z 004e950b f   choco:chocutils.obj
 0001:000e852d       ?claire_store_IntMatrix2D@@YAXPAVIntMatrix2D@@HHH@Z 004e952d f   choco:chocutils.obj
 0001:000e8561       ?choco_flatIndex_MatrixND@@YAHPAVMatrixND@@PAVlist@@@Z 004e9561 f   choco:chocutils.obj
 0001:000e8606       ?claire_read_BoolMatrixND@@YAPAVClaireBoolean@@PAVBoolMatrixND@@PAVlist@@@Z 004e9606 f   choco:chocutils.obj
 0001:000e8633       ?claire_store_BoolMatrixND@@YAXPAVBoolMatrixND@@PAVlist@@PAVClaireBoolean@@@Z 004e9633 f   choco:chocutils.obj
 0001:000e8672       ?claire_read_IntMatrixND@@YAHPAVIntMatrixND@@PAVlist@@@Z 004e9672 f   choco:chocutils.obj
 0001:000e8690       ?claire_store_IntMatrixND@@YAXPAVIntMatrixND@@PAVlist@@H@Z 004e9690 f   choco:chocutils.obj
 0001:000e86c0       ?choco_getOriginalMin_IntSetAnnotation@@YAHPAVIntSetAnnotation@@@Z 004e96c0 f   choco:chocutils.obj
 0001:000e86cb       ?choco_getOriginalMax_IntSetAnnotation@@YAHPAVIntSetAnnotation@@@Z 004e96cb f   choco:chocutils.obj
 0001:000e86e0       ?choco_getIntAnnotation_IntSetIntAnnotation@@YAHPAVIntSetIntAnnotation@@H@Z 004e96e0 f   choco:chocutils.obj
 0001:000e86f7       ?choco_setIntAnnotation_IntSetIntAnnotation@@YAXPAVIntSetIntAnnotation@@HH@Z 004e96f7 f   choco:chocutils.obj
 0001:000e880e       ?choco_makeIntSetIntAnnotation_integer@@YAPAVIntSetIntAnnotation@@HHH@Z 004e980e f   choco:chocutils.obj
 0001:000e8947       ?choco_getBoolAnnotation_IntSetBoolAnnotation@@YAPAVClaireBoolean@@PAVIntSetBoolAnnotation@@H@Z 004e9947 f   choco:chocutils.obj
 0001:000e896e       ?choco_setBoolAnnotation_IntSetBoolAnnotation@@YAXPAVIntSetBoolAnnotation@@HPAVClaireBoolean@@@Z 004e996e f   choco:chocutils.obj
 0001:000e8ad3       ?choco_makeIntSetBoolAnnotation_integer@@YAPAVIntSetBoolAnnotation@@HHPAVClaireBoolean@@@Z 004e9ad3 f   choco:chocutils.obj
 0001:000e8c1b       ?choco_makeIndexesTable_type@@YAPAVtable@@PAVClaireType@@@Z 004e9c1b f   choco:chocutils.obj
 0001:000e8c74       ?choco_makeBipartiteSet_type@@YAPAVBipartiteSet@@PAVClaireType@@H@Z 004e9c74 f   choco:chocutils.obj
 0001:000e8dae       ?choco_swap_BipartiteSet@@YAXPAVBipartiteSet@@HH@Z 004e9dae f   choco:chocutils.obj
 0001:000e8f33       ?choco_moveLeft_BipartiteSet@@YAXPAVBipartiteSet@@H@Z 004e9f33 f   choco:chocutils.obj
 0001:000e8fe9       ?choco_moveRight_BipartiteSet@@YAXPAVBipartiteSet@@H@Z 004e9fe9 f   choco:chocutils.obj
 0001:000e909c       ?choco_moveAllLeft_BipartiteSet@@YAXPAVBipartiteSet@@@Z 004ea09c f   choco:chocutils.obj
 0001:000e90af       ?choco_moveAllRight_BipartiteSet@@YAXPAVBipartiteSet@@@Z 004ea0af f   choco:chocutils.obj
 0001:000e90be       ?choco_addRight_BipartiteSet@@YAXPAVBipartiteSet@@H@Z 004ea0be f   choco:chocutils.obj
 0001:000e9255       ?choco_addLeft_BipartiteSet@@YAXPAVBipartiteSet@@H@Z 004ea255 f   choco:chocutils.obj
 0001:000e927a       ?choco_isLeft_BipartiteSet@@YAPAVClaireBoolean@@PAVBipartiteSet@@H@Z 004ea27a f   choco:chocutils.obj
 0001:000e932b       ?choco_isIn_BipartiteSet@@YAPAVClaireBoolean@@PAVBipartiteSet@@H@Z 004ea32b f   choco:chocutils.obj
 0001:000e934e       ?choco_getNbLeft_BipartiteSet@@YAHPAVBipartiteSet@@@Z 004ea34e f   choco:chocutils.obj
 0001:000e9359       ?choco_getNbRight_BipartiteSet@@YAHPAVBipartiteSet@@@Z 004ea359 f   choco:chocutils.obj
 0001:000e936c       ?choco_getNbObjects_BipartiteSet@@YAHPAVBipartiteSet@@@Z 004ea36c f   choco:chocutils.obj
 0001:000e9379       ?choco_getObject_BipartiteSet@@YAHPAVBipartiteSet@@H@Z 004ea379 f   choco:chocutils.obj
 0001:000e9391       ?choco_leftPart_BipartiteSet@@YAPAVset@@PAVBipartiteSet@@@Z 004ea391 f   choco:chocutils.obj
 0001:000e94e9       ?choco_rightPart_BipartiteSet@@YAPAVset@@PAVBipartiteSet@@@Z 004ea4e9 f   choco:chocutils.obj
 0001:000e9648       ?choco_getBitCount_integer@@YAHH@Z 004ea648 f   choco:chocutils.obj
 0001:000e96a3       ?choco_getMinBitIndex_integer@@YAHH@Z 004ea6a3 f   choco:chocutils.obj
 0001:000e96df       ?choco_getMaxBitIndex_integer@@YAHH@Z 004ea6df f   choco:chocutils.obj
 0001:000e971b       ?choco_makeAllOnesBitVector_integer@@YAHH@Z 004ea71b f   choco:chocutils.obj
 0001:000e9746       ?choco_getBitVectorList_integer@@YAPAVlist@@HPAV1@@Z 004ea746 f   choco:chocutils.obj
 0001:000e97e9       ?choco_isInBitVectorList_integer@@YAPAVClaireBoolean@@HPAVlist@@@Z 004ea7e9 f   choco:chocutils.obj
 0001:000e9836       ?choco_addToBitVectorList_integer@@YAPAVClaireBoolean@@HPAVlist@@@Z 004ea836 f   choco:chocutils.obj
 0001:000e99d5       ?choco_remFromBitVectorList_integer@@YAPAVClaireBoolean@@HPAVlist@@@Z 004ea9d5 f   choco:chocutils.obj
 0001:000e9b74       ?choco_getBitVectorListCount_list@@YAHPAVlist@@@Z 004eab74 f   choco:chocutils.obj
 0001:000e9c03       ?choco_getBitVectorInf_list@@YAHPAVlist@@@Z 004eac03 f   choco:chocutils.obj
 0001:000e9cb4       ?choco_getBitVectorSup_list@@YAHPAVlist@@@Z 004eacb4 f   choco:chocutils.obj
 0001:000e9d70       ?metaLoad@iceClass@@QAEXXZ 004ead70 f   ice:ice.obj
 0001:000ee2f0       ?claire_showIglooLicense_void@@YAHXZ 004ef2f0 f   ice:matching.obj
 0001:000ee326       ?ice_getSize_IntCollection@@YAHPAVIntCollection@@@Z 004ef326 f   ice:matching.obj
 0001:000ee331       ?claire_close_IntStack@@YAPAVIntStack@@PAV1@@Z 004ef331 f   ice:matching.obj
 0001:000ee356       ?claire_set_I_IntStack@@YAHPAVIntStack@@@Z 004ef356 f   ice:matching.obj
 0001:000ee4ac       ?ice_clear_IntStack@@YAXPAVIntStack@@@Z 004ef4ac f   ice:matching.obj
 0001:000ee4bb       ?ice_pop_IntStack@@YAHPAVIntStack@@@Z 004ef4bb f   ice:matching.obj
 0001:000ee4e6       ?ice_push_IntStack@@YAXPAVIntStack@@H@Z 004ef4e6 f   ice:matching.obj
 0001:000ee511       ?claire_close_IntQueue@@YAPAVIntQueue@@PAV1@@Z 004ef511 f   ice:matching.obj
 0001:000ee558       ?ice_push_IntQueue@@YAXPAVIntQueue@@H@Z 004ef558 f   ice:matching.obj
 0001:000ee5ff       ?ice_pop_IntQueue@@YAHPAVIntQueue@@@Z 004ef5ff f   ice:matching.obj
 0001:000ee67d       ?ice_init_IntQueue@@YAXPAVIntQueue@@@Z 004ef67d f   ice:matching.obj
 0001:000ee6e0       ?ice_showRefAssignment_AbstractBipartiteGraph@@YAXPAVAbstractBipartiteGraph@@@Z 004ef6e0 f   ice:matching.obj
 0001:000ee893       ?ice_showSCCDecomposition_AbstractBipartiteGraph@@YAXPAVAbstractBipartiteGraph@@@Z 004ef893 f   ice:matching.obj
 0001:000eebc0       ?ice_mayMatch_AbstractBipartiteGraph@@YAPAVlist@@PAVAbstractBipartiteGraph@@H@Z 004efbc0 f   ice:matching.obj
 0001:000eee93       ?ice_mayInverseMatch_AbstractBipartiteGraph@@YAPAVlist@@PAVAbstractBipartiteGraph@@H@Z 004efe93 f   ice:matching.obj
 0001:000ef001       ?ice_match_AbstractBipartiteGraph@@YAHPAVAbstractBipartiteGraph@@H@Z 004f0001 f   ice:matching.obj
 0001:000ef012       ?choco_checkFlow_AbstractBipartiteGraph@@YAXPAVAbstractBipartiteGraph@@@Z 004f0012 f   ice:matching.obj
 0001:000ef049       ?ice_mayGrowFlowToSink_AbstractBipartiteGraph@@YAPAVClaireBoolean@@PAVAbstractBipartiteGraph@@H@Z 004f0049 f   ice:matching.obj
 0001:000ef065       ?ice_mayGrowFlowBetween_AbstractBipartiteGraph@@YAPAVClaireBoolean@@PAVAbstractBipartiteGraph@@HH@Z 004f0065 f   ice:matching.obj
 0001:000ef083       ?ice_mayDiminishFlowBetween_AbstractBipartiteGraph@@YAPAVClaireBoolean@@PAVAbstractBipartiteGraph@@HH@Z 004f0083 f   ice:matching.obj
 0001:000ef0a1       ?ice_inverseMatch_AbstractBipartiteMatching@@YAHPAVAbstractBipartiteMatching@@H@Z 004f00a1 f   ice:matching.obj
 0001:000ef0b2       ?ice_increaseMatchingSize_AbstractBipartiteMatching@@YAXPAVAbstractBipartiteMatching@@H@Z 004f00b2 f   ice:matching.obj
 0001:000ef1b1       ?ice_decreaseMatchingSize_AbstractBipartiteMatching@@YAXPAVAbstractBipartiteMatching@@H@Z 004f01b1 f   ice:matching.obj
 0001:000ef2b0       ?ice_deleteMatch_AbstractBipartiteMatching@@YAXPAVAbstractBipartiteMatching@@HH@Z 004f02b0 f   ice:matching.obj
 0001:000ef5a8       ?ice_putRefMatch_AbstractBipartiteMatching@@YAXPAVAbstractBipartiteMatching@@HH@Z 004f05a8 f   ice:matching.obj
 0001:000ef798       ?ice_setMatch_AbstractBipartiteMatching@@YAXPAVAbstractBipartiteMatching@@HH@Z 004f0798 f   ice:matching.obj
 0001:000efe82       ?ice_mayDiminishFlowFromSource_AbstractBipartiteMatching@@YAPAVClaireBoolean@@PAVAbstractBipartiteMatching@@H@Z 004f0e82 f   ice:matching.obj
 0001:000efe9e       ?ice_mayGrowFlowFromSource_AbstractBipartiteMatching@@YAPAVClaireBoolean@@PAVAbstractBipartiteMatching@@H@Z 004f0e9e f   ice:matching.obj
 0001:000efeba       ?ice_mustGrowFlowFromSource_AbstractBipartiteMatching@@YAPAVClaireBoolean@@PAVAbstractBipartiteMatching@@H@Z 004f0eba f   ice:matching.obj
 0001:000efec4       ?ice_setMatch_AbstractBipartiteFlow@@YAXPAVAbstractBipartiteFlow@@HH@Z 004f0ec4 f   ice:matching.obj
 0001:000f0546       ?ice_deleteMatch_AbstractBipartiteFlow@@YAXPAVAbstractBipartiteFlow@@HH@Z 004f1546 f   ice:matching.obj
 0001:000f086f       ?ice_putRefMatch_AbstractBipartiteFlow@@YAXPAVAbstractBipartiteFlow@@HH@Z 004f186f f   ice:matching.obj
 0001:000f096c       ?ice_mayDiminishFlowFromSource_AbstractBipartiteFlow@@YAPAVClaireBoolean@@PAVAbstractBipartiteFlow@@H@Z 004f196c f   ice:matching.obj
 0001:000f0993       ?ice_mayGrowFlowFromSource_AbstractBipartiteFlow@@YAPAVClaireBoolean@@PAVAbstractBipartiteFlow@@H@Z 004f1993 f   ice:matching.obj
 0001:000f09ba       ?ice_mustGrowFlowFromSource_AbstractBipartiteFlow@@YAPAVClaireBoolean@@PAVAbstractBipartiteFlow@@H@Z 004f19ba f   ice:matching.obj
 0001:000f09e1       ?ice_increaseMatchingSize_AbstractBipartiteFlow@@YAXPAVAbstractBipartiteFlow@@H@Z 004f19e1 f   ice:matching.obj
 0001:000f0c07       ?ice_decreaseMatchingSize_AbstractBipartiteFlow@@YAXPAVAbstractBipartiteFlow@@H@Z 004f1c07 f   ice:matching.obj
 0001:000f0e2d       ?ice_findAlternatingPath_AbstractBipartiteMatching@@YAHPAVAbstractBipartiteMatching@@@Z 004f1e2d f   ice:matching.obj
 0001:000f1182       ?choco_augment_AbstractBipartiteMatching@@YAXPAVAbstractBipartiteMatching@@H@Z 004f2182 f   ice:matching.obj
 0001:000f167f       ?ice_augmentFlow_AbstractBipartiteMatching_ice@@YAXPAVAbstractBipartiteMatching@@@Z 004f267f f   ice:matching.obj
 0001:000f1731       ?ice_findAlternatingPath_AbstractBipartiteFlow@@YAHPAVAbstractBipartiteFlow@@@Z 004f2731 f   ice:matching.obj
 0001:000f1aba       ?choco_augment_AbstractBipartiteFlow@@YAXPAVAbstractBipartiteFlow@@H@Z 004f2aba f   ice:matching.obj
 0001:000f205c       ?ice_augmentFlow_AbstractBipartiteFlow_ice@@YAXPAVAbstractBipartiteFlow@@@Z 004f305c f   ice:matching.obj
 0001:000f210e       ?ice_turnIntoCompatibleFlow_AbstractBipartiteFlow@@YAXPAVAbstractBipartiteFlow@@@Z 004f310e f   ice:matching.obj
 0001:000f2203       ?ice_circulate_AbstractBipartiteFlow@@YAXPAVAbstractBipartiteFlow@@H@Z 004f3203 f   ice:matching.obj
 0001:000f2772       ?ice_findAlternatingCycle_AbstractBipartiteFlow@@YAHPAVAbstractBipartiteFlow@@@Z 004f3772 f   ice:matching.obj
 0001:000f2a6c       ?ice_initSCCGraph_AbstractBipartiteGraph@@YAXPAVAbstractBipartiteGraph@@@Z 004f3a6c f   ice:matching.obj
 0001:000f2bfd       ?ice_addComponentVertex_AbstractBipartiteGraph@@YAXPAVAbstractBipartiteGraph@@@Z 004f3bfd f   ice:matching.obj
 0001:000f2c11       ?ice_addComponentEdge_AbstractBipartiteGraph@@YAXPAVAbstractBipartiteGraph@@HH@Z 004f3c11 f   ice:matching.obj
 0001:000f2d8d       ?ice_firstPassDFS_AbstractBipartiteMatching@@YAXPAVAbstractBipartiteMatching@@@Z 004f3d8d f   ice:matching.obj
 0001:000f2e2b       ?ice_firstDFSearch_AbstractBipartiteMatching@@YAXPAVAbstractBipartiteMatching@@H@Z 004f3e2b f   ice:matching.obj
 0001:000f2fd7       ?ice_secondPassDFS_AbstractBipartiteMatching@@YAXPAVAbstractBipartiteMatching@@@Z 004f3fd7 f   ice:matching.obj
 0001:000f3093       ?ice_secondDFSearch_AbstractBipartiteMatching@@YAXPAVAbstractBipartiteMatching@@H@Z 004f4093 f   ice:matching.obj
 0001:000f3580       ?ice_firstPassDFS_AbstractBipartiteFlow@@YAXPAVAbstractBipartiteFlow@@@Z 004f4580 f   ice:matching.obj
 0001:000f361e       ?ice_firstDFSearch_AbstractBipartiteFlow@@YAXPAVAbstractBipartiteFlow@@H@Z 004f461e f   ice:matching.obj
 0001:000f37e5       ?ice_secondPassDFS_AbstractBipartiteFlow@@YAXPAVAbstractBipartiteFlow@@@Z 004f47e5 f   ice:matching.obj
 0001:000f38a1       ?ice_secondDFSearch_AbstractBipartiteFlow@@YAXPAVAbstractBipartiteFlow@@H@Z 004f48a1 f   ice:matching.obj
 0001:000f3da7       ?ice_removeUselessEdges_AbstractBipartiteMatching@@YAXPAVAbstractBipartiteMatching@@@Z 004f4da7 f   ice:matching.obj
 0001:000f420c       ?ice_removeUselessEdges_AbstractBipartiteFlow@@YAXPAVAbstractBipartiteFlow@@@Z 004f520c f   ice:matching.obj
 0001:000f4668       ?choco_propagate_AbstractBipartiteGraph@@YAXPAVAbstractBipartiteGraph@@@Z 004f5668 f   ice:matching.obj
 0001:000f468a       ?choco_getPriority_AbstractBipartiteGraph_ice@@YAHPAVAbstractBipartiteGraph@@@Z 004f568a f   ice:matching.obj
 0001:000f4694       ?choco_closeAssignmentConstraint_AbstractBipartiteGraph@@YAXPAVAbstractBipartiteGraph@@@Z 004f5694 f   ice:matching.obj
 0001:000f4a48       ?claire_self_print_CompleteAllDiff_ice@@YAHPAVCompleteAllDiff@@@Z 004f5a48 f   ice:matching.obj
 0001:000f4bc4       ?choco_completeAllDiff_list@@YAPAVCompleteAllDiff@@PAVlist@@@Z 004f5bc4 f   ice:matching.obj
 0001:000f4e4d       ?ice_setEdgeAndPublish_CompleteAllDiff@@YAXPAVCompleteAllDiff@@HH@Z 004f5e4d f   ice:matching.obj
 0001:000f559f       ?choco_deleteEdgeAndPublish_CompleteAllDiff@@YAXPAVCompleteAllDiff@@HH@Z 004f659f f   ice:matching.obj
 0001:000f58d4       ?choco_awakeOnRem_CompleteAllDiff@@YAXPAVCompleteAllDiff@@HH@Z 004f68d4 f   ice:matching.obj
 0001:000f5c02       ?choco_awakeOnVar_CompleteAllDiff@@YAXPAVCompleteAllDiff@@H@Z 004f6c02 f   ice:matching.obj
 0001:000f609e       ?choco_awakeOnInf_CompleteAllDiff@@YAXPAVCompleteAllDiff@@H@Z 004f709e f   ice:matching.obj
 0001:000f6418       ?choco_awakeOnSup_CompleteAllDiff@@YAXPAVCompleteAllDiff@@H@Z 004f7418 f   ice:matching.obj
 0001:000f6791       ?choco_awakeOnInst_CompleteAllDiff@@YAXPAVCompleteAllDiff@@H@Z 004f7791 f   ice:matching.obj
 0001:000f67e3       ?choco_awake_CompleteAllDiff_ice@@YAXPAVCompleteAllDiff@@@Z 004f77e3 f   ice:matching.obj
 0001:000f67f4       ?claire_self_print_Permutation_ice@@YAHPAVPermutation@@@Z 004f77f4 f   ice:matching.obj
 0001:000f6a02       ?ice_setEdgeAndPublish_Permutation@@YAXPAVPermutation@@HHPAVClaireBoolean@@@Z 004f7a02 f   ice:matching.obj
 0001:000f7237       ?choco_deleteEdgeAndPublish_Permutation1@@YAXPAVPermutation@@HHPAVClaireBoolean@@@Z 004f8237 f   ice:matching.obj
 0001:000f75b1       ?choco_deleteEdgeAndPublish_Permutation2@@YAXPAVPermutation@@HH@Z 004f85b1 f   ice:matching.obj
 0001:000f791e       ?choco_awakeOnRem_Permutation@@YAXPAVPermutation@@HH@Z 004f891e f   ice:matching.obj
 0001:000f7987       ?choco_awakeOnVar_Permutation@@YAXPAVPermutation@@H@Z 004f8987 f   ice:matching.obj
 0001:000f7ba2       ?choco_awakeOnInf_Permutation@@YAXPAVPermutation@@H@Z 004f8ba2 f   ice:matching.obj
 0001:000f7c90       ?choco_awakeOnSup_Permutation@@YAXPAVPermutation@@H@Z 004f8c90 f   ice:matching.obj
 0001:000f7d7c       ?choco_awakeOnInst_Permutation@@YAXPAVPermutation@@H@Z 004f8d7c f   ice:matching.obj
 0001:000f7e1c       ?choco_awake_Permutation_ice@@YAXPAVPermutation@@@Z 004f8e1c f   ice:matching.obj
 0001:000f8073       ?choco_permutation_list@@YAPAVPermutation@@PAVlist@@0@Z 004f9073 f   ice:matching.obj
 0001:000f82e0       ?claire_self_print_GlobalCardinality_ice@@YAHPAVGlobalCardinality@@@Z 004f92e0 f   ice:matching.obj
 0001:000f845c       ?choco_deleteEdgeAndPublish_GlobalCardinality@@YAXPAVGlobalCardinality@@HH@Z 004f945c f   ice:matching.obj
 0001:000f87c2       ?ice_setEdgeAndPublish_GlobalCardinality@@YAXPAVGlobalCardinality@@HH@Z 004f97c2 f   ice:matching.obj
 0001:000f8e8e       ?choco_awakeOnRem_GlobalCardinality@@YAXPAVGlobalCardinality@@HH@Z 004f9e8e f   ice:matching.obj
 0001:000f8ec3       ?choco_awakeOnVar_GlobalCardinality@@YAXPAVGlobalCardinality@@H@Z 004f9ec3 f   ice:matching.obj
 0001:000f93bd       ?choco_awakeOnInf_GlobalCardinality@@YAXPAVGlobalCardinality@@H@Z 004fa3bd f   ice:matching.obj
 0001:000f9794       ?choco_awakeOnSup_GlobalCardinality@@YAXPAVGlobalCardinality@@H@Z 004fa794 f   ice:matching.obj
 0001:000f9b6b       ?choco_awakeOnInst_GlobalCardinality@@YAXPAVGlobalCardinality@@H@Z 004fab6b f   ice:matching.obj
 0001:000fa3fb       ?choco_awake_GlobalCardinality_ice@@YAXPAVGlobalCardinality@@@Z 004fb3fb f   ice:matching.obj
 0001:000fa4a0       ?choco_gcc_list1@@YAPAVGlobalCardinality@@PAVlist@@0@Z 004fb4a0 f   ice:matching.obj
 0001:000fa4be       ?choco_gcc_list2@@YAPAVGlobalCardinality@@PAVlist@@HH0@Z 004fb4be f   ice:matching.obj
 0001:000fa771       ?ice_checkComponentOrder_AbstractBipartiteMatching@@YAXPAVAbstractBipartiteMatching@@@Z 004fb771 f   ice:matching.obj
 0001:000fb030       ?ice_getTotalPenaltyVar_AbstractWCSP@@YAPAVIntVar@@PAVAbstractWCSP@@@Z 004fc030 f   ice:wcsp.obj
 0001:000fb053       ?ice_getSubConst_AbstractWCSP@@YAPAVAbstractConstraint@@PAVAbstractWCSP@@H@Z 004fc053 f   ice:wcsp.obj
 0001:000fb073       ?ice_getSubConstPenalty_AbstractWCSP@@YAHPAVAbstractWCSP@@H@Z 004fc073 f   ice:wcsp.obj
 0001:000fb084       ?ice_getSubVar_AbstractWCSP@@YAPAVIntVar@@PAVAbstractWCSP@@H@Z 004fc084 f   ice:wcsp.obj
 0001:000fb0a9       ?ice_getNbSubVars_AbstractWCSP@@YAHPAVAbstractWCSP@@@Z 004fc0a9 f   ice:wcsp.obj
 0001:000fb0b4       ?ice_getNbSubConst_AbstractWCSP@@YAHPAVAbstractWCSP@@@Z 004fc0b4 f   ice:wcsp.obj
 0001:000fb0bf       ?ice_getNbSubConstLinkedTo_AbstractWCSP@@YAHPAVAbstractWCSP@@H@Z 004fc0bf f   ice:wcsp.obj
 0001:000fb0e4       ?ice_getSubConstIndex_AbstractWCSP@@YAHPAVAbstractWCSP@@HH@Z 004fc0e4 f   ice:wcsp.obj
 0001:000fb114       ?ice_getIndex_AbstractWCSP@@YAHPAVAbstractWCSP@@PAVIntVar@@@Z 004fc114 f   ice:wcsp.obj
 0001:000fb233       ?ice_addVar_AbstractWCSP@@YAXPAVAbstractWCSP@@PAVIntVar@@@Z 004fc233 f   ice:wcsp.obj
 0001:000fb377       ?ice_getUnInstantiatedVarIdx_AbstractWCSP@@YAHPAVAbstractWCSP@@H@Z 004fc377 f   ice:wcsp.obj
 0001:000fb493       ?ice_initWCSPNetwork_AbstractWCSP@@YAXPAVAbstractWCSP@@PAVlist@@@Z 004fc493 f   ice:wcsp.obj
 0001:000fb92e       ?ice_display_AdditiveWCSP@@YAHPAVAdditiveWCSP@@@Z 004fc92e f   ice:wcsp.obj
 0001:000fbafa       ?choco_additiveWCSP_list@@YAPAVAdditiveWCSP@@PAVlist@@0PAVIntVar@@@Z 004fcafa f   ice:wcsp.obj
 0001:000fbf57       ?ice_getNbUnInstantiatedVars_AdditiveWCSP@@YAHPAVAdditiveWCSP@@H@Z 004fcf57 f   ice:wcsp.obj
 0001:000fbf68       ?ice_getInconsistencyCount_AdditiveWCSP@@YAHPAVAdditiveWCSP@@HH@Z 004fcf68 f   ice:wcsp.obj
 0001:000fbfb6       ?ice_setInconsistencyCount_AdditiveWCSP@@YAXPAVAdditiveWCSP@@HHH@Z 004fcfb6 f   ice:wcsp.obj
 0001:000fc122       ?ice_increaseInconsistencyCount_AdditiveWCSP@@YAPAVClaireBoolean@@PAVAdditiveWCSP@@HHH@Z 004fd122 f   ice:wcsp.obj
 0001:000fc323       ?ice_makeInconsistencyCount_AdditiveWCSP@@YAXPAVAdditiveWCSP@@@Z 004fd323 f   ice:wcsp.obj
 0001:000fc511       ?choco_awakeOnInst_AdditiveWCSP@@YAXPAVAdditiveWCSP@@H@Z 004fd511 f   ice:wcsp.obj
 0001:000fca14       ?ice_updateIC_AdditiveWCSP@@YAPAVClaireBoolean@@PAVAdditiveWCSP@@HH@Z 004fda14 f   ice:wcsp.obj
 0001:000fd0ec       ?ice_recomputeVarPenalty_AdditiveWCSP@@YAPAVClaireBoolean@@PAVAdditiveWCSP@@H@Z 004fe0ec f   ice:wcsp.obj
 0001:000fd6eb       ?ice_getVarPenalty_AdditiveWCSP@@YAHPAVAdditiveWCSP@@H@Z 004fe6eb f   ice:wcsp.obj
 0001:000fd6fc       ?choco_awakeOnRem_AdditiveWCSP@@YAXPAVAdditiveWCSP@@HH@Z 004fe6fc f   ice:wcsp.obj
 0001:000fd748       ?choco_awakeOnVar_AdditiveWCSP@@YAXPAVAdditiveWCSP@@H@Z 004fe748 f   ice:wcsp.obj
 0001:000fd7cc       ?choco_awakeOnInf_AdditiveWCSP@@YAXPAVAdditiveWCSP@@H@Z 004fe7cc f   ice:wcsp.obj
 0001:000fd7ec       ?choco_awakeOnSup_AdditiveWCSP@@YAXPAVAdditiveWCSP@@H@Z 004fe7ec f   ice:wcsp.obj
 0001:000fd821       ?choco_getPriority_AdditiveWCSP_ice@@YAHPAVAdditiveWCSP@@@Z 004fe821 f   ice:wcsp.obj
 0001:000fd82b       ?choco_propagate_AdditiveWCSP@@YAXPAVAdditiveWCSP@@@Z 004fe82b f   ice:wcsp.obj
 0001:000fe200       ?choco_awake_AdditiveWCSP_ice@@YAXPAVAdditiveWCSP@@@Z 004ff200 f   ice:wcsp.obj
 0001:000fe6ba       ?choco_testIfSatisfied_AdditiveWCSP@@YAPAVClaireBoolean@@PAVAdditiveWCSP@@@Z 004ff6ba f   ice:wcsp.obj
 0001:000fe850       ?metaLoad@palmClass@@QAEXXZ 004ff850 f   palm:palm.obj
 0001:0012bfb0       ?palm_makePalmProblem_string1@@YAPAVPalmProblem@@PADH@Z 0052cfb0 f   palm:palmapi.obj
 0001:0012c209       ?palm_makePalmProblem_string2@@YAPAVPalmProblem@@PADHH@Z 0052d209 f   palm:palmapi.obj
 0001:0012c310       ?palm_setObjective_PalmProblem@@YAXPAVPalmProblem@@PAVPalmIntVar@@@Z 0052d310 f   palm:palmapi.obj
 0001:0012c321       ?palm_setSolutionVars_PalmProblem@@YAXPAVPalmProblem@@PAVlist@@@Z 0052d321 f   palm:palmapi.obj
 0001:0012c39b       ?choco_solutions_PalmProblem@@YAPAVlist@@PAVPalmProblem@@@Z 0052d39b f   palm:palmapi.obj
 0001:0012c3a9       ?palm_solve_PalmProblem1@@YAXPAVPalmProblem@@PAVlist@@PAVClaireBoolean@@@Z 0052d3a9 f   palm:palmapi.obj
 0001:0012c6cd       ?palm_solve_PalmProblem2@@YAXPAVPalmProblem@@PAVClaireBoolean@@@Z 0052d6cd f   palm:palmapi.obj
 0001:0012c846       ?palm_solve_PalmProblem3@@YAXPAVPalmProblem@@PAVlist@@@Z 0052d846 f   palm:palmapi.obj
 0001:0012cad6       ?palm_solve_PalmProblem4@@YAXPAVPalmProblem@@@Z 0052dad6 f   palm:palmapi.obj
 0001:0012caed       ?palm_minimize_PalmProblem1@@YAHPAVPalmProblem@@PAVPalmIntVar@@PAVlist@@@Z 0052daed f   palm:palmapi.obj
 0001:0012cd8f       ?palm_minimize_PalmProblem2@@YAHPAVPalmProblem@@PAVPalmIntVar@@@Z 0052dd8f f   palm:palmapi.obj
 0001:0012cebd       ?palm_minimize_PalmProblem3@@YAHPAVPalmProblem@@PAVPalmIntVar@@HHPAVlist@@@Z 0052debd f   palm:palmapi.obj
 0001:0012d166       ?palm_minimize_PalmProblem4@@YAHPAVPalmProblem@@PAVPalmIntVar@@HH@Z 0052e166 f   palm:palmapi.obj
 0001:0012d2ac       ?palm_maximize_PalmProblem1@@YAHPAVPalmProblem@@PAVPalmIntVar@@PAVlist@@@Z 0052e2ac f   palm:palmapi.obj
 0001:0012d54e       ?palm_maximize_PalmProblem2@@YAHPAVPalmProblem@@PAVPalmIntVar@@@Z 0052e54e f   palm:palmapi.obj
 0001:0012d67c       ?palm_maximize_PalmProblem3@@YAHPAVPalmProblem@@PAVPalmIntVar@@HHPAVlist@@@Z 0052e67c f   palm:palmapi.obj
 0001:0012d925       ?palm_maximize_PalmProblem4@@YAHPAVPalmProblem@@PAVPalmIntVar@@HH@Z 0052e925 f   palm:palmapi.obj
 0001:0012da6b       ?palm_makeBoundIntVar_PalmProblem@@YAPAVPalmIntVar@@PAVPalmProblem@@PADHH@Z 0052ea6b f   palm:palmapi.obj
 0001:0012dfcb       ?palm_makeIntVar_PalmProblem1@@YAPAVPalmIntVar@@PAVPalmProblem@@PADHH@Z 0052efcb f   palm:palmapi.obj
 0001:0012e54f       ?palm_makeIntVar_PalmProblem2@@YAPAVPalmIntVar@@PAVPalmProblem@@PADPAVbag@@@Z 0052f54f f   palm:palmapi.obj
 0001:0012e807       ?palm_makeIntVar_PalmProblem3@@YAPAVPalmIntVar@@PAVPalmProblem@@PAVbag@@@Z 0052f807 f   palm:palmapi.obj
 0001:0012e821       ?palm_makeConstantPalmIntVar_integer@@YAPAVPalmIntVar@@H@Z 0052f821 f   palm:palmapi.obj
 0001:0012eda0       ?choco_post_PalmProblem1@@YAXPAVPalmProblem@@PAVIntConstraint@@@Z 0052fda0 f   palm:palmapi.obj
 0001:0012f05d       ?choco_post_PalmProblem2@@YAXPAVPalmProblem@@PAVlist@@@Z 0053005d f   palm:palmapi.obj
 0001:0012f0c8       ?choco_post_PalmProblem3@@YAXPAVPalmProblem@@PAVAbstractConstraint@@H@Z 005300c8 f   palm:palmapi.obj
 0001:0012f200       ?choco_post_PalmProblem4@@YAXPAVPalmProblem@@PAVDelayer@@H@Z 00530200 f   palm:palmapi.obj
 0001:0012f31e       ?choco_post_PalmProblem5@@YAXPAVPalmProblem@@PAVlist@@H@Z 0053031e f   palm:palmapi.obj
 0001:0012f38d       ?choco_post_PalmProblem6@@YAXPAVPalmProblem@@PAVAbstractConstraint@@PAVExplanation@@@Z 0053038d f   palm:palmapi.obj
 0001:0012f3e3       ?choco_post_PalmProblem7@@YAXPAVPalmProblem@@PAVDelayer@@PAVExplanation@@@Z 005303e3 f   palm:palmapi.obj
 0001:0012f502       ?choco_post_PalmProblem8@@YAXPAVPalmProblem@@PAVlist@@PAVExplanation@@@Z 00530502 f   palm:palmapi.obj
 0001:0012f680       ?palm_setMin_PalmIntVar@@YAXPAVPalmIntVar@@H@Z 00530680 f   palm:palmapi.obj
 0001:0012f7a6       ?palm_setMax_PalmIntVar@@YAXPAVPalmIntVar@@H@Z 005307a6 f   palm:palmapi.obj
 0001:0012f8cc       ?palm_setVal_PalmIntVar@@YAXPAVPalmIntVar@@H@Z 005308cc f   palm:palmapi.obj
 0001:0012f9f2       ?palm_remVal_PalmIntVar@@YAXPAVPalmIntVar@@H@Z 005309f2 f   palm:palmapi.obj
 0001:0012fb18       ?palm_remove_PalmProblem1@@YAXPAVPalmProblem@@PAVAbstractConstraint@@@Z 00530b18 f   palm:palmapi.obj
 0001:0012fc0c       ?palm_remove_PalmProblem2@@YAXPAVPalmProblem@@PAVset@@@Z 00530c0c f   palm:palmapi.obj
 0001:0012fd12       ?palm_remove_PalmProblem3@@YAXPAVPalmProblem@@PAVlist@@@Z 00530d12 f   palm:palmapi.obj
 0001:0012fe06       ?choco_propagate_PalmProblem@@YAXPAVPalmProblem@@@Z 00530e06 f   palm:palmapi.obj
 0001:0012fee8       ?palm_makeConstraintTable_type@@YAPAVtable@@PAVClaireType@@@Z 00530ee8 f   palm:palmapi.obj
 0001:0012ff58       ?palm_assign_PalmIntVar@@YAPAVAssignmentConstraint@@PAVPalmIntVar@@H@Z 00530f58 f   palm:palmapi.obj
 0001:00130271       ?palm_negate_AbstractConstraint_palm@@YAHPAVAbstractConstraint@@@Z 00531271 f   palm:palmapi.obj
 0001:001302e7       ?palm_negate_AssignmentConstraint_palm@@YAHPAVAssignmentConstraint@@@Z 005312e7 f   palm:palmapi.obj
 0001:0013034e       ?choco_opposite_AssignmentConstraint@@YAHPAVAssignmentConstraint@@@Z 0053134e f   palm:palmapi.obj
 0001:001304c3       ?palm_negate_PalmLessOrEqualxc_palm@@YAHPAVPalmLessOrEqualxc@@@Z 005314c3 f   palm:palmapi.obj
 0001:001304e2       ?palm_negate_PalmGreaterOrEqualxc_palm@@YAHPAVPalmGreaterOrEqualxc@@@Z 005314e2 f   palm:palmapi.obj
 0001:00130501       ?choco_opposite_PalmGreaterOrEqualxc@@YAPAVPalmLessOrEqualxc@@PAVPalmGreaterOrEqualxc@@@Z 00531501 f   palm:palmapi.obj
 0001:00130608       ?choco_opposite_PalmLessOrEqualxc@@YAPAVPalmGreaterOrEqualxc@@PAVPalmLessOrEqualxc@@@Z 00531608 f   palm:palmapi.obj
 0001:0013070f       ?choco_opposite_PalmEqualxc@@YAPAVPalmNotEqualxc@@PAVPalmEqualxc@@@Z 0053170f f   palm:palmapi.obj
 0001:00130813       ?choco_opposite_PalmNotEqualxc@@YAPAVPalmEqualxc@@PAVPalmNotEqualxc@@@Z 00531813 f   palm:palmapi.obj
 0001:00130917       ?choco_opposite_PalmEqualxyc@@YAPAVPalmNotEqualxyc@@PAVPalmEqualxyc@@@Z 00531917 f   palm:palmapi.obj
 0001:00130a2c       ?choco_opposite_PalmNotEqualxyc@@YAPAVPalmEqualxyc@@PAVPalmNotEqualxyc@@@Z 00531a2c f   palm:palmapi.obj
 0001:00130b41       ?choco_opposite_PalmGreaterOrEqualxyc@@YAPAVPalmGreaterOrEqualxyc@@PAV1@@Z 00531b41 f   palm:palmapi.obj
 0001:00130c5b       ?choco_computeVarIdxInOpposite_PalmGreaterOrEqualxyc@@YAHPAVPalmGreaterOrEqualxyc@@H@Z 00531c5b f   palm:palmapi.obj
 0001:00130c7d       ?choco_opposite_PalmGuard@@YAPAVPalmConjunction@@PAVPalmGuard@@@Z 00531c7d f   palm:palmapi.obj
 0001:00130e00       ?choco_opposite_PalmConjunction@@YAPAVPalmDisjunction@@PAVPalmConjunction@@@Z 00531e00 f   palm:palmapi.obj
 0001:00130fc5       ?choco_opposite_PalmDisjunction@@YAPAVPalmConjunction@@PAVPalmDisjunction@@@Z 00531fc5 f   palm:palmapi.obj
 0001:0013118a       ?choco_opposite_PalmLargeDisjunction@@YAPAVPalmLargeConjunction@@PAVPalmLargeDisjunction@@@Z 0053218a f   palm:palmapi.obj
 0001:00131336       ?choco_opposite_PalmLargeConjunction@@YAPAVPalmLargeDisjunction@@PAVPalmLargeConjunction@@@Z 00532336 f   palm:palmapi.obj
 0001:00131504       ?choco_opposite_PalmEquiv@@YAPAVPalmCardinality@@PAVPalmEquiv@@@Z 00532504 f   palm:palmapi.obj
 0001:0013165e       ?choco_opposite_PalmLinComb@@YAPAVPalmLinComb@@PAV1@@Z 0053265e f   palm:palmapi.obj
 0001:0013192a       ?claire__sup_equal_PalmIntVar1@@YAPAVPalmGreaterOrEqualxc@@PAVPalmIntVar@@H@Z 0053292a f   palm:palmapi.obj
 0001:00131946       ?claire__sup_PalmIntVar1@@YAPAVPalmGreaterOrEqualxc@@PAVPalmIntVar@@H@Z 00532946 f   palm:palmapi.obj
 0001:00131965       ?claire__inf_equal_PalmIntVar1@@YAPAVPalmLessOrEqualxc@@PAVPalmIntVar@@H@Z 00532965 f   palm:palmapi.obj
 0001:00131981       ?claire__inf_PalmIntVar1@@YAPAVPalmLessOrEqualxc@@PAVPalmIntVar@@H@Z 00532981 f   palm:palmapi.obj
 0001:001319a0       ?claire__equal_equal_PalmIntVar1@@YAPAVPalmEqualxc@@PAVPalmIntVar@@H@Z 005329a0 f   palm:palmapi.obj
 0001:001319bc       ?claire__I_equal_equal_PalmIntVar1@@YAPAVPalmNotEqualxc@@PAVPalmIntVar@@H@Z 005329bc f   palm:palmapi.obj
 0001:001319d8       ?claire__sup_equal_integer6@@YAPAVPalmLessOrEqualxc@@HPAVPalmIntVar@@@Z 005329d8 f   palm:palmapi.obj
 0001:001319ed       ?claire__sup_integer6@@YAPAVPalmLessOrEqualxc@@HPAVPalmIntVar@@@Z 005329ed f   palm:palmapi.obj
 0001:00131a02       ?claire__inf_equal_integer7@@YAPAVPalmGreaterOrEqualxc@@HPAVPalmIntVar@@@Z 00532a02 f   palm:palmapi.obj
 0001:00131a17       ?claire__inf_integer6@@YAPAVPalmGreaterOrEqualxc@@HPAVPalmIntVar@@@Z 00532a17 f   palm:palmapi.obj
 0001:00131a2c       ?claire__equal_equal_integer8@@YAPAVPalmEqualxc@@HPAVPalmIntVar@@@Z 00532a2c f   palm:palmapi.obj
 0001:00131a41       ?claire__I_equal_equal_integer5@@YAPAVPalmNotEqualxc@@HPAVPalmIntVar@@@Z 00532a41 f   palm:palmapi.obj
 0001:00131a56       ?claire__equal_equal_PalmIntVar2@@YAPAVPalmEqualxyc@@PAVPalmIntVar@@0@Z 00532a56 f   palm:palmapi.obj
 0001:00131a74       ?claire__I_equal_equal_PalmIntVar2@@YAPAVPalmNotEqualxyc@@PAVPalmIntVar@@0@Z 00532a74 f   palm:palmapi.obj
 0001:00131a92       ?claire__inf_equal_PalmIntVar2@@YAPAVPalmGreaterOrEqualxyc@@PAVPalmIntVar@@0@Z 00532a92 f   palm:palmapi.obj
 0001:00131aa7       ?claire__sup_equal_PalmIntVar2@@YAPAVPalmGreaterOrEqualxyc@@PAVPalmIntVar@@0@Z 00532aa7 f   palm:palmapi.obj
 0001:00131ac5       ?claire__sup_PalmIntVar2@@YAPAVPalmGreaterOrEqualxyc@@PAVPalmIntVar@@0@Z 00532ac5 f   palm:palmapi.obj
 0001:00131ae3       ?claire__inf_PalmIntVar2@@YAPAVPalmGreaterOrEqualxyc@@PAVPalmIntVar@@0@Z 00532ae3 f   palm:palmapi.obj
 0001:00131af8       ?claire_self_print_PalmUnTerm_palm@@YAHPAVPalmUnTerm@@@Z 00532af8 f   palm:palmapi.obj
 0001:00131c8d       ?claire_self_print_PalmBinTerm_palm@@YAHPAVPalmBinTerm@@@Z 00532c8d f   palm:palmapi.obj
 0001:00131e90       ?claire_self_print_PalmLinTerm_palm@@YAHPAVPalmLinTerm@@@Z 00532e90 f   palm:palmapi.obj
 0001:00131f7c       ?claire_e_dashscalar_list@@YAPAVPalmLinTerm@@PAVlist@@0@Z 00532f7c f   palm:palmapi.obj
 0001:00132154       ?palm_e_dashsumVars_list@@YAPAVPalmLinTerm@@PAVlist@@@Z 00533154 f   palm:palmapi.obj
 0001:001322dd       ?claire__star_integer4@@YAPAVPalmLinTerm@@HPAVPalmIntVar@@@Z 005332dd f   palm:palmapi.obj
 0001:0013241e       ?claire__star_PalmIntVar@@YAPAVPalmLinTerm@@PAVPalmIntVar@@H@Z 0053341e f   palm:palmapi.obj
 0001:0013255f       ?claire__plus_PalmIntVar1@@YAPAVPalmUnTerm@@PAVPalmIntVar@@H@Z 0053355f f   palm:palmapi.obj
 0001:0013266f       ?claire__plus_integer6@@YAPAVPalmUnTerm@@HPAVPalmIntVar@@@Z 0053366f f   palm:palmapi.obj
 0001:00132684       ?claire__plus_PalmIntVar2@@YAPAVPalmBinTerm@@PAVPalmIntVar@@0@Z 00533684 f   palm:palmapi.obj
 0001:00132794       ?claire__plus_PalmUnTerm1@@YAPAVPalmUnTerm@@PAV1@H@Z 00533794 f   palm:palmapi.obj
 0001:001327ab       ?claire__plus_integer7@@YAPAVPalmUnTerm@@HPAV1@@Z 005337ab f   palm:palmapi.obj
 0001:001327c0       ?claire__plus_PalmUnTerm2@@YAPAVPalmBinTerm@@PAVPalmUnTerm@@PAVPalmIntVar@@@Z 005337c0 f   palm:palmapi.obj
 0001:001328ea       ?claire__plus_PalmIntVar3@@YAPAVPalmBinTerm@@PAVPalmIntVar@@PAVPalmUnTerm@@@Z 005338ea f   palm:palmapi.obj
 0001:001328ff       ?claire__plus_PalmUnTerm3@@YAPAVPalmBinTerm@@PAVPalmUnTerm@@0@Z 005338ff f   palm:palmapi.obj
 0001:00132a3f       ?claire__plus_PalmBinTerm1@@YAPAVPalmBinTerm@@PAV1@H@Z 00533a3f f   palm:palmapi.obj
 0001:00132a56       ?claire__plus_integer8@@YAPAVPalmBinTerm@@HPAV1@@Z 00533a56 f   palm:palmapi.obj
 0001:00132a6b       ?claire__plus_PalmBinTerm2@@YAPAVPalmLinTerm@@PAVPalmBinTerm@@PAVPalmIntVar@@@Z 00533a6b f   palm:palmapi.obj
 0001:00132c92       ?claire__plus_PalmIntVar4@@YAPAVPalmLinTerm@@PAVPalmIntVar@@PAVPalmBinTerm@@@Z 00533c92 f   palm:palmapi.obj
 0001:00132ca7       ?claire__plus_PalmBinTerm3@@YAPAVPalmLinTerm@@PAVPalmBinTerm@@PAVPalmUnTerm@@@Z 00533ca7 f   palm:palmapi.obj
 0001:00132f02       ?claire__plus_PalmUnTerm4@@YAPAVPalmLinTerm@@PAVPalmUnTerm@@PAVPalmBinTerm@@@Z 00533f02 f   palm:palmapi.obj
 0001:00132f17       ?claire__plus_PalmBinTerm4@@YAPAVPalmLinTerm@@PAVPalmBinTerm@@0@Z 00533f17 f   palm:palmapi.obj
 0001:001331b9       ?claire__plus_PalmLinTerm1@@YAPAVPalmLinTerm@@PAV1@H@Z 005341b9 f   palm:palmapi.obj
 0001:001331d0       ?claire__plus_integer9@@YAPAVPalmLinTerm@@HPAV1@@Z 005341d0 f   palm:palmapi.obj
 0001:001331e5       ?claire__plus_PalmLinTerm2@@YAPAVPalmLinTerm@@PAV1@PAVPalmIntVar@@@Z 005341e5 f   palm:palmapi.obj
 0001:00133309       ?claire__plus_PalmIntVar5@@YAPAVPalmLinTerm@@PAVPalmIntVar@@PAV1@@Z 00534309 f   palm:palmapi.obj
 0001:0013331e       ?claire__plus_PalmLinTerm3@@YAPAVPalmLinTerm@@PAV1@PAVPalmUnTerm@@@Z 0053431e f   palm:palmapi.obj
 0001:0013347f       ?claire__plus_PalmUnTerm5@@YAPAVPalmLinTerm@@PAVPalmUnTerm@@PAV1@@Z 0053447f f   palm:palmapi.obj
 0001:00133494       ?claire__plus_PalmLinTerm4@@YAPAVPalmLinTerm@@PAV1@PAVPalmBinTerm@@@Z 00534494 f   palm:palmapi.obj
 0001:001336bf       ?claire__plus_PalmBinTerm5@@YAPAVPalmLinTerm@@PAVPalmBinTerm@@PAV1@@Z 005346bf f   palm:palmapi.obj
 0001:001336d4       ?claire__plus_PalmLinTerm5@@YAPAVPalmLinTerm@@PAV1@0@Z 005346d4 f   palm:palmapi.obj
 0001:0013383f       ?claire__dash_PalmIntVar1@@YAPAVPalmUnTerm@@PAVPalmIntVar@@@Z 0053483f f   palm:palmapi.obj
 0001:00133951       ?claire__dash_PalmUnTerm1@@YAPAVPalmUnTerm@@PAV1@@Z 00534951 f   palm:palmapi.obj
 0001:0013398b       ?claire__dash_PalmBinTerm1@@YAPAVPalmBinTerm@@PAV1@@Z 0053498b f   palm:palmapi.obj
 0001:001339e9       ?claire__dash_PalmLinTerm1@@YAPAVPalmLinTerm@@PAV1@@Z 005349e9 f   palm:palmapi.obj
 0001:00133b56       ?claire__dash_PalmIntVar2@@YAPAVPalmUnTerm@@PAVPalmIntVar@@H@Z 00534b56 f   palm:palmapi.obj
 0001:00133b6d       ?claire__dash_PalmUnTerm2@@YAPAVPalmUnTerm@@PAV1@H@Z 00534b6d f   palm:palmapi.obj
 0001:00133b84       ?claire__dash_PalmBinTerm2@@YAPAVPalmBinTerm@@PAV1@H@Z 00534b84 f   palm:palmapi.obj
 0001:00133b9b       ?claire__dash_PalmLinTerm2@@YAPAVPalmLinTerm@@PAV1@H@Z 00534b9b f   palm:palmapi.obj
 0001:00133bb2       ?claire__dash_integer8@@YAPAVPalmUnTerm@@HPAVPalmIntVar@@@Z 00534bb2 f   palm:palmapi.obj
 0001:00133cb3       ?claire__dash_PalmIntVar3@@YAPAVPalmBinTerm@@PAVPalmIntVar@@0@Z 00534cb3 f   palm:palmapi.obj
 0001:00133db4       ?claire__dash_PalmUnTerm3@@YAPAVPalmBinTerm@@PAVPalmUnTerm@@PAVPalmIntVar@@@Z 00534db4 f   palm:palmapi.obj
 0001:00133eb5       ?claire__dash_PalmBinTerm3@@YAPAVPalmLinTerm@@PAVPalmBinTerm@@PAVPalmIntVar@@@Z 00534eb5 f   palm:palmapi.obj
 0001:00133fb6       ?claire__dash_PalmLinTerm3@@YAPAVPalmLinTerm@@PAV1@PAVPalmIntVar@@@Z 00534fb6 f   palm:palmapi.obj
 0001:001340b7       ?claire__dash_integer9@@YAPAVPalmUnTerm@@HPAV1@@Z 005350b7 f   palm:palmapi.obj
 0001:001341b8       ?claire__dash_PalmIntVar4@@YAPAVPalmBinTerm@@PAVPalmIntVar@@PAVPalmUnTerm@@@Z 005351b8 f   palm:palmapi.obj
 0001:001342b9       ?claire__dash_PalmUnTerm4@@YAPAVPalmBinTerm@@PAVPalmUnTerm@@0@Z 005352b9 f   palm:palmapi.obj
 0001:001343ba       ?claire__dash_PalmBinTerm4@@YAPAVPalmLinTerm@@PAVPalmBinTerm@@PAVPalmUnTerm@@@Z 005353ba f   palm:palmapi.obj
 0001:001344bb       ?claire__dash_PalmLinTerm4@@YAPAVPalmLinTerm@@PAV1@PAVPalmUnTerm@@@Z 005354bb f   palm:palmapi.obj
 0001:001345bc       ?claire__dash_integer10@@YAPAVPalmBinTerm@@HPAV1@@Z 005355bc f   palm:palmapi.obj
 0001:001346bd       ?claire__dash_PalmIntVar5@@YAPAVPalmLinTerm@@PAVPalmIntVar@@PAVPalmBinTerm@@@Z 005356bd f   palm:palmapi.obj
 0001:001347be       ?claire__dash_PalmUnTerm5@@YAPAVPalmLinTerm@@PAVPalmUnTerm@@PAVPalmBinTerm@@@Z 005357be f   palm:palmapi.obj
 0001:001348bf       ?claire__dash_PalmBinTerm5@@YAPAVPalmLinTerm@@PAVPalmBinTerm@@0@Z 005358bf f   palm:palmapi.obj
 0001:001349c0       ?claire__dash_PalmLinTerm5@@YAPAVPalmLinTerm@@PAV1@PAVPalmBinTerm@@@Z 005359c0 f   palm:palmapi.obj
 0001:00134ac1       ?claire__dash_integer11@@YAPAVPalmLinTerm@@HPAV1@@Z 00535ac1 f   palm:palmapi.obj
 0001:00134bc2       ?claire__dash_PalmIntVar6@@YAPAVPalmLinTerm@@PAVPalmIntVar@@PAV1@@Z 00535bc2 f   palm:palmapi.obj
 0001:00134cc3       ?claire__dash_PalmUnTerm6@@YAPAVPalmLinTerm@@PAVPalmUnTerm@@PAV1@@Z 00535cc3 f   palm:palmapi.obj
 0001:00134dc4       ?claire__dash_PalmBinTerm6@@YAPAVPalmLinTerm@@PAVPalmBinTerm@@PAV1@@Z 00535dc4 f   palm:palmapi.obj
 0001:00134ec5       ?claire__dash_PalmLinTerm6@@YAPAVPalmLinTerm@@PAV1@0@Z 00535ec5 f   palm:palmapi.obj
 0001:00134fc6       ?claire__sup_equal_integer7@@YAPAVAbstractConstraint@@HPAVPalmUnTerm@@@Z 00535fc6 f   palm:palmapi.obj
 0001:001350c9       ?claire__sup_equal_integer8@@YAPAVAbstractConstraint@@HPAVPalmBinTerm@@@Z 005360c9 f   palm:palmapi.obj
 0001:001351cc       ?claire__sup_equal_integer9@@YAPAVAbstractConstraint@@HPAVPalmLinTerm@@@Z 005361cc f   palm:palmapi.obj
 0001:001352cf       ?claire__sup_equal_PalmIntVar3@@YAPAVAbstractConstraint@@PAVPalmIntVar@@PAVPalmUnTerm@@@Z 005362cf f   palm:palmapi.obj
 0001:001353e2       ?claire__sup_equal_PalmIntVar4@@YAPAVAbstractConstraint@@PAVPalmIntVar@@PAVPalmBinTerm@@@Z 005363e2 f   palm:palmapi.obj
 0001:001354f5       ?claire__sup_equal_PalmIntVar5@@YAPAVAbstractConstraint@@PAVPalmIntVar@@PAVPalmLinTerm@@@Z 005364f5 f   palm:palmapi.obj
 0001:00135608       ?claire__sup_equal_PalmUnTerm1@@YAPAVAbstractConstraint@@PAVPalmUnTerm@@PAVPalmBinTerm@@@Z 00536608 f   palm:palmapi.obj
 0001:0013571b       ?claire__sup_equal_PalmUnTerm2@@YAPAVAbstractConstraint@@PAVPalmUnTerm@@PAVPalmLinTerm@@@Z 0053671b f   palm:palmapi.obj
 0001:0013582e       ?claire__sup_equal_PalmBinTerm1@@YAPAVAbstractConstraint@@PAVPalmBinTerm@@PAVPalmLinTerm@@@Z 0053682e f   palm:palmapi.obj
 0001:00135941       ?claire__sup_equal_PalmUnTerm3@@YAPAVPalmUnIntConstraint@@PAVPalmUnTerm@@H@Z 00536941 f   palm:palmapi.obj
 0001:00135a8c       ?claire__sup_equal_PalmUnTerm4@@YAPAVAbstractConstraint@@PAVPalmUnTerm@@PAVPalmIntVar@@@Z 00536a8c f   palm:palmapi.obj
 0001:00135b9f       ?claire__sup_equal_PalmUnTerm5@@YAPAVAbstractConstraint@@PAVPalmUnTerm@@0@Z 00536b9f f   palm:palmapi.obj
 0001:00135e2d       ?claire__sup_equal_PalmBinTerm2@@YAPAVAbstractConstraint@@PAVPalmBinTerm@@H@Z 00536e2d f   palm:palmapi.obj
 0001:001360bb       ?claire__sup_equal_PalmBinTerm3@@YAPAVPalmLinComb@@PAVPalmBinTerm@@PAVPalmIntVar@@@Z 005370bb f   palm:palmapi.obj
 0001:001362b8       ?claire__sup_equal_PalmBinTerm4@@YAPAVPalmLinComb@@PAVPalmBinTerm@@PAVPalmUnTerm@@@Z 005372b8 f   palm:palmapi.obj
 0001:001364de       ?claire__sup_equal_PalmBinTerm5@@YAPAVPalmLinComb@@PAVPalmBinTerm@@0@Z 005374de f   palm:palmapi.obj
 0001:00136743       ?claire__sup_equal_PalmLinTerm1@@YAPAVPalmLinComb@@PAVPalmLinTerm@@H@Z 00537743 f   palm:palmapi.obj
 0001:00136857       ?claire__sup_equal_PalmLinTerm2@@YAPAVPalmLinComb@@PAVPalmLinTerm@@PAVPalmIntVar@@@Z 00537857 f   palm:palmapi.obj
 0001:0013699c       ?claire__sup_equal_PalmLinTerm3@@YAPAVPalmLinComb@@PAVPalmLinTerm@@PAVPalmUnTerm@@@Z 0053799c f   palm:palmapi.obj
 0001:00136b09       ?claire__sup_equal_PalmLinTerm4@@YAPAVPalmLinComb@@PAVPalmLinTerm@@PAVPalmBinTerm@@@Z 00537b09 f   palm:palmapi.obj
 0001:00136cd4       ?claire__sup_equal_PalmLinTerm5@@YAPAVPalmLinComb@@PAVPalmLinTerm@@0@Z 00537cd4 f   palm:palmapi.obj
 0001:00136ea4       ?claire__sup_integer7@@YAPAVAbstractConstraint@@HPAVPalmUnTerm@@@Z 00537ea4 f   palm:palmapi.obj
 0001:00136fa7       ?claire__sup_integer8@@YAPAVAbstractConstraint@@HPAVPalmBinTerm@@@Z 00537fa7 f   palm:palmapi.obj
 0001:001370aa       ?claire__sup_integer9@@YAPAVAbstractConstraint@@HPAVPalmLinTerm@@@Z 005380aa f   palm:palmapi.obj
 0001:001371ad       ?claire__sup_PalmIntVar3@@YAPAVAbstractConstraint@@PAVPalmIntVar@@PAVPalmUnTerm@@@Z 005381ad f   palm:palmapi.obj
 0001:001372b0       ?claire__sup_PalmIntVar4@@YAPAVAbstractConstraint@@PAVPalmIntVar@@PAVPalmBinTerm@@@Z 005382b0 f   palm:palmapi.obj
 0001:001373b3       ?claire__sup_PalmIntVar5@@YAPAVAbstractConstraint@@PAVPalmIntVar@@PAVPalmLinTerm@@@Z 005383b3 f   palm:palmapi.obj
 0001:001374b6       ?claire__sup_PalmUnTerm1@@YAPAVAbstractConstraint@@PAVPalmUnTerm@@H@Z 005384b6 f   palm:palmapi.obj
 0001:001374ce       ?claire__sup_PalmBinTerm1@@YAPAVAbstractConstraint@@PAVPalmBinTerm@@H@Z 005384ce f   palm:palmapi.obj
 0001:001374e6       ?claire__sup_PalmLinTerm1@@YAPAVAbstractConstraint@@PAVPalmLinTerm@@H@Z 005384e6 f   palm:palmapi.obj
 0001:001374fe       ?claire__sup_PalmUnTerm2@@YAPAVAbstractConstraint@@PAVPalmUnTerm@@PAVPalmIntVar@@@Z 005384fe f   palm:palmapi.obj
 0001:00137601       ?claire__sup_PalmBinTerm2@@YAPAVAbstractConstraint@@PAVPalmBinTerm@@PAVPalmIntVar@@@Z 00538601 f   palm:palmapi.obj
 0001:00137704       ?claire__sup_PalmLinTerm2@@YAPAVAbstractConstraint@@PAVPalmLinTerm@@PAVPalmIntVar@@@Z 00538704 f   palm:palmapi.obj
 0001:00137807       ?claire__sup_PalmUnTerm3@@YAPAVAbstractConstraint@@PAVPalmUnTerm@@0@Z 00538807 f   palm:palmapi.obj
 0001:0013790a       ?claire__sup_PalmBinTerm3@@YAPAVAbstractConstraint@@PAVPalmBinTerm@@PAVPalmUnTerm@@@Z 0053890a f   palm:palmapi.obj
 0001:00137a0d       ?claire__sup_PalmLinTerm3@@YAPAVAbstractConstraint@@PAVPalmLinTerm@@PAVPalmUnTerm@@@Z 00538a0d f   palm:palmapi.obj
 0001:00137b10       ?claire__sup_PalmUnTerm4@@YAPAVAbstractConstraint@@PAVPalmUnTerm@@PAVPalmBinTerm@@@Z 00538b10 f   palm:palmapi.obj
 0001:00137c13       ?claire__sup_PalmBinTerm4@@YAPAVAbstractConstraint@@PAVPalmBinTerm@@0@Z 00538c13 f   palm:palmapi.obj
 0001:00137d16       ?claire__sup_PalmLinTerm4@@YAPAVAbstractConstraint@@PAVPalmLinTerm@@PAVPalmBinTerm@@@Z 00538d16 f   palm:palmapi.obj
 0001:00137e19       ?claire__sup_PalmUnTerm5@@YAPAVAbstractConstraint@@PAVPalmUnTerm@@PAVPalmLinTerm@@@Z 00538e19 f   palm:palmapi.obj
 0001:00137f1c       ?claire__sup_PalmBinTerm5@@YAPAVAbstractConstraint@@PAVPalmBinTerm@@PAVPalmLinTerm@@@Z 00538f1c f   palm:palmapi.obj
 0001:0013801f       ?claire__sup_PalmLinTerm5@@YAPAVAbstractConstraint@@PAVPalmLinTerm@@0@Z 0053901f f   palm:palmapi.obj
 0001:00138122       ?claire__inf_equal_integer8@@YAPAVAbstractConstraint@@HPAVPalmUnTerm@@@Z 00539122 f   palm:palmapi.obj
 0001:00138137       ?claire__inf_equal_integer9@@YAPAVAbstractConstraint@@HPAVPalmBinTerm@@@Z 00539137 f   palm:palmapi.obj
 0001:0013814c       ?claire__inf_equal_integer10@@YAPAVAbstractConstraint@@HPAVPalmLinTerm@@@Z 0053914c f   palm:palmapi.obj
 0001:00138161       ?claire__inf_equal_PalmIntVar3@@YAPAVAbstractConstraint@@PAVPalmIntVar@@PAVPalmUnTerm@@@Z 00539161 f   palm:palmapi.obj
 0001:00138274       ?claire__inf_equal_PalmIntVar4@@YAPAVAbstractConstraint@@PAVPalmIntVar@@PAVPalmBinTerm@@@Z 00539274 f   palm:palmapi.obj
 0001:00138289       ?claire__inf_equal_PalmIntVar5@@YAPAVAbstractConstraint@@PAVPalmIntVar@@PAVPalmLinTerm@@@Z 00539289 f   palm:palmapi.obj
 0001:0013829e       ?claire__inf_equal_PalmUnTerm1@@YAPAVAbstractConstraint@@PAVPalmUnTerm@@H@Z 0053929e f   palm:palmapi.obj
 0001:001382b3       ?claire__inf_equal_PalmBinTerm1@@YAPAVAbstractConstraint@@PAVPalmBinTerm@@H@Z 005392b3 f   palm:palmapi.obj
 0001:001382c8       ?claire__inf_equal_PalmLinTerm1@@YAPAVAbstractConstraint@@PAVPalmLinTerm@@H@Z 005392c8 f   palm:palmapi.obj
 0001:001382dd       ?claire__inf_equal_PalmUnTerm2@@YAPAVAbstractConstraint@@PAVPalmUnTerm@@PAVPalmIntVar@@@Z 005392dd f   palm:palmapi.obj
 0001:001382f2       ?claire__inf_equal_PalmBinTerm2@@YAPAVAbstractConstraint@@PAVPalmBinTerm@@PAVPalmIntVar@@@Z 005392f2 f   palm:palmapi.obj
 0001:00138307       ?claire__inf_equal_PalmLinTerm2@@YAPAVAbstractConstraint@@PAVPalmLinTerm@@PAVPalmIntVar@@@Z 00539307 f   palm:palmapi.obj
 0001:0013831c       ?claire__inf_equal_PalmUnTerm3@@YAPAVAbstractConstraint@@PAVPalmUnTerm@@0@Z 0053931c f   palm:palmapi.obj
 0001:00138331       ?claire__inf_equal_PalmBinTerm3@@YAPAVAbstractConstraint@@PAVPalmBinTerm@@PAVPalmUnTerm@@@Z 00539331 f   palm:palmapi.obj
 0001:00138346       ?claire__inf_equal_PalmLinTerm3@@YAPAVAbstractConstraint@@PAVPalmLinTerm@@PAVPalmUnTerm@@@Z 00539346 f   palm:palmapi.obj
 0001:0013835b       ?claire__inf_equal_PalmUnTerm4@@YAPAVAbstractConstraint@@PAVPalmUnTerm@@PAVPalmBinTerm@@@Z 0053935b f   palm:palmapi.obj
 0001:00138370       ?claire__inf_equal_PalmBinTerm4@@YAPAVAbstractConstraint@@PAVPalmBinTerm@@0@Z 00539370 f   palm:palmapi.obj
 0001:00138385       ?claire__inf_equal_PalmLinTerm4@@YAPAVAbstractConstraint@@PAVPalmLinTerm@@PAVPalmBinTerm@@@Z 00539385 f   palm:palmapi.obj
 0001:0013839a       ?claire__inf_equal_PalmUnTerm5@@YAPAVAbstractConstraint@@PAVPalmUnTerm@@PAVPalmLinTerm@@@Z 0053939a f   palm:palmapi.obj
 0001:001383af       ?claire__inf_equal_PalmBinTerm5@@YAPAVAbstractConstraint@@PAVPalmBinTerm@@PAVPalmLinTerm@@@Z 005393af f   palm:palmapi.obj
 0001:001383c4       ?claire__inf_equal_PalmLinTerm5@@YAPAVAbstractConstraint@@PAVPalmLinTerm@@0@Z 005393c4 f   palm:palmapi.obj
 0001:001383d9       ?claire__inf_integer7@@YAPAVAbstractConstraint@@HPAVPalmUnTerm@@@Z 005393d9 f   palm:palmapi.obj
 0001:001384dc       ?claire__inf_integer8@@YAPAVAbstractConstraint@@HPAVPalmBinTerm@@@Z 005394dc f   palm:palmapi.obj
 0001:001385df       ?claire__inf_integer9@@YAPAVAbstractConstraint@@HPAVPalmLinTerm@@@Z 005395df f   palm:palmapi.obj
 0001:001386e2       ?claire__inf_PalmIntVar3@@YAPAVAbstractConstraint@@PAVPalmIntVar@@PAVPalmUnTerm@@@Z 005396e2 f   palm:palmapi.obj
 0001:001387e5       ?claire__inf_PalmIntVar4@@YAPAVAbstractConstraint@@PAVPalmIntVar@@PAVPalmBinTerm@@@Z 005397e5 f   palm:palmapi.obj
 0001:001388e8       ?claire__inf_PalmIntVar5@@YAPAVAbstractConstraint@@PAVPalmIntVar@@PAVPalmLinTerm@@@Z 005398e8 f   palm:palmapi.obj
 0001:001389eb       ?claire__inf_PalmUnTerm1@@YAPAVAbstractConstraint@@PAVPalmUnTerm@@H@Z 005399eb f   palm:palmapi.obj
 0001:00138a03       ?claire__inf_PalmBinTerm1@@YAPAVAbstractConstraint@@PAVPalmBinTerm@@H@Z 00539a03 f   palm:palmapi.obj
 0001:00138a1b       ?claire__inf_PalmLinTerm1@@YAPAVAbstractConstraint@@PAVPalmLinTerm@@H@Z 00539a1b f   palm:palmapi.obj
 0001:00138a33       ?claire__inf_PalmUnTerm2@@YAPAVAbstractConstraint@@PAVPalmUnTerm@@PAVPalmIntVar@@@Z 00539a33 f   palm:palmapi.obj
 0001:00138b36       ?claire__inf_PalmBinTerm2@@YAPAVAbstractConstraint@@PAVPalmBinTerm@@PAVPalmIntVar@@@Z 00539b36 f   palm:palmapi.obj
 0001:00138c39       ?claire__inf_PalmLinTerm2@@YAPAVAbstractConstraint@@PAVPalmLinTerm@@PAVPalmIntVar@@@Z 00539c39 f   palm:palmapi.obj
 0001:00138d3c       ?claire__inf_PalmUnTerm3@@YAPAVAbstractConstraint@@PAVPalmUnTerm@@0@Z 00539d3c f   palm:palmapi.obj
 0001:00138e3f       ?claire__inf_PalmBinTerm3@@YAPAVAbstractConstraint@@PAVPalmBinTerm@@PAVPalmUnTerm@@@Z 00539e3f f   palm:palmapi.obj
 0001:00138f42       ?claire__inf_PalmLinTerm3@@YAPAVAbstractConstraint@@PAVPalmLinTerm@@PAVPalmUnTerm@@@Z 00539f42 f   palm:palmapi.obj
 0001:00139045       ?claire__inf_PalmUnTerm4@@YAPAVAbstractConstraint@@PAVPalmUnTerm@@PAVPalmBinTerm@@@Z 0053a045 f   palm:palmapi.obj
 0001:00139148       ?claire__inf_PalmBinTerm4@@YAPAVAbstractConstraint@@PAVPalmBinTerm@@0@Z 0053a148 f   palm:palmapi.obj
 0001:0013924b       ?claire__inf_PalmLinTerm4@@YAPAVAbstractConstraint@@PAVPalmLinTerm@@PAVPalmBinTerm@@@Z 0053a24b f   palm:palmapi.obj
 0001:0013934e       ?claire__inf_PalmUnTerm5@@YAPAVAbstractConstraint@@PAVPalmUnTerm@@PAVPalmLinTerm@@@Z 0053a34e f   palm:palmapi.obj
 0001:00139451       ?claire__inf_PalmBinTerm5@@YAPAVAbstractConstraint@@PAVPalmBinTerm@@PAVPalmLinTerm@@@Z 0053a451 f   palm:palmapi.obj
 0001:00139554       ?claire__inf_PalmLinTerm5@@YAPAVAbstractConstraint@@PAVPalmLinTerm@@0@Z 0053a554 f   palm:palmapi.obj
 0001:00139657       ?claire__equal_equal_integer9@@YAPAVAbstractConstraint@@HPAVPalmUnTerm@@@Z 0053a657 f   palm:palmapi.obj
 0001:0013966c       ?claire__equal_equal_integer10@@YAPAVAbstractConstraint@@HPAVPalmBinTerm@@@Z 0053a66c f   palm:palmapi.obj
 0001:00139681       ?claire__equal_equal_integer11@@YAPAVAbstractConstraint@@HPAVPalmLinTerm@@@Z 0053a681 f   palm:palmapi.obj
 0001:00139696       ?claire__equal_equal_PalmIntVar3@@YAPAVAbstractConstraint@@PAVPalmIntVar@@PAVPalmUnTerm@@@Z 0053a696 f   palm:palmapi.obj
 0001:001396ab       ?claire__equal_equal_PalmIntVar4@@YAPAVAbstractConstraint@@PAVPalmIntVar@@PAVPalmBinTerm@@@Z 0053a6ab f   palm:palmapi.obj
 0001:001396c0       ?claire__equal_equal_PalmIntVar5@@YAPAVAbstractConstraint@@PAVPalmIntVar@@PAVPalmLinTerm@@@Z 0053a6c0 f   palm:palmapi.obj
 0001:001396d5       ?claire__equal_equal_PalmUnTerm1@@YAPAVAbstractConstraint@@PAVPalmUnTerm@@PAVPalmBinTerm@@@Z 0053a6d5 f   palm:palmapi.obj
 0001:001396ea       ?claire__equal_equal_PalmUnTerm2@@YAPAVAbstractConstraint@@PAVPalmUnTerm@@PAVPalmLinTerm@@@Z 0053a6ea f   palm:palmapi.obj
 0001:001396ff       ?claire__equal_equal_PalmBinTerm1@@YAPAVAbstractConstraint@@PAVPalmBinTerm@@PAVPalmLinTerm@@@Z 0053a6ff f   palm:palmapi.obj
 0001:00139714       ?claire__equal_equal_PalmUnTerm3@@YAPAVPalmUnIntConstraint@@PAVPalmUnTerm@@H@Z 0053a714 f   palm:palmapi.obj
 0001:0013981b       ?claire__equal_equal_PalmUnTerm4@@YAPAVAbstractConstraint@@PAVPalmUnTerm@@PAVPalmIntVar@@@Z 0053a81b f   palm:palmapi.obj
 0001:001399aa       ?claire__equal_equal_PalmUnTerm5@@YAPAVPalmBinIntConstraint@@PAVPalmUnTerm@@0@Z 0053a9aa f   palm:palmapi.obj
 0001:00139ac4       ?claire__equal_equal_PalmBinTerm2@@YAPAVAbstractConstraint@@PAVPalmBinTerm@@H@Z 0053aac4 f   palm:palmapi.obj
 0001:00139d1b       ?claire__equal_equal_PalmBinTerm3@@YAPAVPalmLinComb@@PAVPalmBinTerm@@PAVPalmIntVar@@@Z 0053ad1b f   palm:palmapi.obj
 0001:00139f18       ?claire__equal_equal_PalmBinTerm4@@YAPAVPalmLinComb@@PAVPalmBinTerm@@PAVPalmUnTerm@@@Z 0053af18 f   palm:palmapi.obj
 0001:0013a13e       ?claire__equal_equal_PalmBinTerm5@@YAPAVPalmLinComb@@PAVPalmBinTerm@@0@Z 0053b13e f   palm:palmapi.obj
 0001:0013a3a3       ?claire__equal_equal_PalmLinTerm1@@YAPAVPalmLinComb@@PAVPalmLinTerm@@H@Z 0053b3a3 f   palm:palmapi.obj
 0001:0013a4b7       ?claire__equal_equal_PalmLinTerm2@@YAPAVPalmLinComb@@PAVPalmLinTerm@@PAVPalmIntVar@@@Z 0053b4b7 f   palm:palmapi.obj
 0001:0013a5fc       ?claire__equal_equal_PalmLinTerm3@@YAPAVPalmLinComb@@PAVPalmLinTerm@@PAVPalmUnTerm@@@Z 0053b5fc f   palm:palmapi.obj
 0001:0013a769       ?claire__equal_equal_PalmLinTerm4@@YAPAVPalmLinComb@@PAVPalmLinTerm@@PAVPalmBinTerm@@@Z 0053b769 f   palm:palmapi.obj
 0001:0013a934       ?claire__equal_equal_PalmLinTerm5@@YAPAVPalmLinComb@@PAVPalmLinTerm@@0@Z 0053b934 f   palm:palmapi.obj
 0001:0013ab04       ?claire__I_equal_equal_integer6@@YAPAVAbstractConstraint@@HPAVPalmUnTerm@@@Z 0053bb04 f   palm:palmapi.obj
 0001:0013ab19       ?claire__I_equal_equal_integer7@@YAPAVAbstractConstraint@@HPAVPalmBinTerm@@@Z 0053bb19 f   palm:palmapi.obj
 0001:0013ab2e       ?claire__I_equal_equal_integer8@@YAHHPAVPalmLinTerm@@@Z 0053bb2e f   palm:palmapi.obj
 0001:0013ab51       ?claire__I_equal_equal_PalmIntVar3@@YAPAVAbstractConstraint@@PAVPalmIntVar@@PAVPalmUnTerm@@@Z 0053bb51 f   palm:palmapi.obj
 0001:0013ab66       ?claire__I_equal_equal_PalmIntVar4@@YAHPAVPalmIntVar@@PAVPalmBinTerm@@@Z 0053bb66 f   palm:palmapi.obj
 0001:0013ab89       ?claire__I_equal_equal_PalmIntVar5@@YAHPAVPalmIntVar@@PAVPalmLinTerm@@@Z 0053bb89 f   palm:palmapi.obj
 0001:0013abac       ?claire__I_equal_equal_PalmUnTerm1@@YAHPAVPalmUnTerm@@PAVPalmBinTerm@@@Z 0053bbac f   palm:palmapi.obj
 0001:0013abcf       ?claire__I_equal_equal_PalmUnTerm2@@YAHPAVPalmUnTerm@@PAVPalmLinTerm@@@Z 0053bbcf f   palm:palmapi.obj
 0001:0013abf2       ?claire__I_equal_equal_PalmBinTerm1@@YAHPAVPalmBinTerm@@PAVPalmLinTerm@@@Z 0053bbf2 f   palm:palmapi.obj
 0001:0013ac15       ?claire__I_equal_equal_PalmUnTerm3@@YAPAVPalmUnIntConstraint@@PAVPalmUnTerm@@H@Z 0053bc15 f   palm:palmapi.obj
 0001:0013ad3f       ?claire__I_equal_equal_PalmUnTerm4@@YAPAVIntConstraint@@PAVPalmUnTerm@@PAVPalmIntVar@@@Z 0053bd3f f   palm:palmapi.obj
 0001:0013aece       ?claire__I_equal_equal_PalmUnTerm5@@YAPAVIntConstraint@@PAVPalmUnTerm@@0@Z 0053bece f   palm:palmapi.obj
 0001:0013b09c       ?claire__I_equal_equal_PalmBinTerm2@@YAPAVIntConstraint@@PAVPalmBinTerm@@H@Z 0053c09c f   palm:palmapi.obj
 0001:0013b264       ?claire__I_equal_equal_PalmBinTerm3@@YAPAVPalmLinComb@@PAVPalmBinTerm@@PAVPalmIntVar@@@Z 0053c264 f   palm:palmapi.obj
 0001:0013b461       ?claire__I_equal_equal_PalmBinTerm4@@YAPAVPalmLinComb@@PAVPalmBinTerm@@PAVPalmUnTerm@@@Z 0053c461 f   palm:palmapi.obj
 0001:0013b687       ?claire__I_equal_equal_PalmBinTerm5@@YAPAVPalmLinComb@@PAVPalmBinTerm@@0@Z 0053c687 f   palm:palmapi.obj
 0001:0013b8ec       ?claire__I_equal_equal_PalmLinTerm1@@YAPAVPalmLinComb@@PAVPalmLinTerm@@H@Z 0053c8ec f   palm:palmapi.obj
 0001:0013ba00       ?claire__I_equal_equal_PalmLinTerm2@@YAPAVPalmLinComb@@PAVPalmLinTerm@@PAVPalmIntVar@@@Z 0053ca00 f   palm:palmapi.obj
 0001:0013bb45       ?claire__I_equal_equal_PalmLinTerm3@@YAPAVPalmLinComb@@PAVPalmLinTerm@@PAVPalmUnTerm@@@Z 0053cb45 f   palm:palmapi.obj
 0001:0013bcb2       ?claire__I_equal_equal_PalmLinTerm4@@YAPAVPalmLinComb@@PAVPalmLinTerm@@PAVPalmBinTerm@@@Z 0053ccb2 f   palm:palmapi.obj
 0001:0013be7d       ?claire__I_equal_equal_PalmLinTerm5@@YAPAVPalmLinComb@@PAVPalmLinTerm@@0@Z 0053ce7d f   palm:palmapi.obj
 0001:0013c04d       ?palm_makePalmOccurConstraint_PalmOccurTerm@@YAPAVPalmOccurrence@@PAVPalmOccurTerm@@PAVPalmIntVar@@PAVClaireBoolean@@2@Z 0053d04d f   palm:palmapi.obj
 0001:0013c5e1       ?palm_occur_integer@@YAPAVPalmOccurTerm@@HPAVlist@@@Z 0053d5e1 f   palm:palmapi.obj
 0001:0013c756       ?claire__equal_equal_PalmOccurTerm@@YAPAVPalmOccurrence@@PAVPalmOccurTerm@@PAVPalmIntVar@@@Z 0053d756 f   palm:palmapi.obj
 0001:0013c778       ?claire__equal_equal_PalmIntVar6@@YAPAVPalmOccurrence@@PAVPalmIntVar@@PAVPalmOccurTerm@@@Z 0053d778 f   palm:palmapi.obj
 0001:0013c78d       ?claire__sup_equal_PalmOccurTerm@@YAPAVPalmOccurrence@@PAVPalmOccurTerm@@PAVPalmIntVar@@@Z 0053d78d f   palm:palmapi.obj
 0001:0013c7af       ?claire__inf_equal_PalmOccurTerm@@YAPAVPalmOccurrence@@PAVPalmOccurTerm@@PAVPalmIntVar@@@Z 0053d7af f   palm:palmapi.obj
 0001:0013c7d1       ?claire__sup_equal_PalmIntVar6@@YAPAVPalmOccurrence@@PAVPalmIntVar@@PAVPalmOccurTerm@@@Z 0053d7d1 f   palm:palmapi.obj
 0001:0013c7e6       ?claire__inf_equal_PalmIntVar6@@YAPAVPalmOccurrence@@PAVPalmIntVar@@PAVPalmOccurTerm@@@Z 0053d7e6 f   palm:palmapi.obj
 0001:0013c7fb       ?choco_getNth_list3@@YAPAVPalmEltTerm@@PAVlist@@PAVPalmUnTerm@@@Z 0053d7fb f   palm:palmapi.obj
 0001:0013c968       ?choco_getNth_list4@@YAPAVPalmEltTerm@@PAVlist@@PAVPalmIntVar@@@Z 0053d968 f   palm:palmapi.obj
 0001:0013ca81       ?claire__equal_equal_PalmEltTerm1@@YAPAVPalmElt@@PAVPalmEltTerm@@PAVPalmIntVar@@@Z 0053da81 f   palm:palmapi.obj
 0001:0013cb93       ?claire__equal_equal_PalmIntVar7@@YAPAVPalmElt@@PAVPalmIntVar@@PAVPalmEltTerm@@@Z 0053db93 f   palm:palmapi.obj
 0001:0013cca5       ?claire__equal_equal_PalmEltTerm2@@YAPAVPalmElt@@PAVPalmEltTerm@@H@Z 0053dca5 f   palm:palmapi.obj
 0001:0013cdc9       ?claire__equal_equal_integer12@@YAPAVPalmElt@@HPAVPalmEltTerm@@@Z 0053ddc9 f   palm:palmapi.obj
 0001:0013ceed       ?claire_e_dashor_PalmLargeDisjunction1@@YAPAVPalmLargeDisjunction@@PAV1@0@Z 0053deed f   palm:palmapi.obj
 0001:0013d070       ?claire_e_dashor_PalmDisjunction1@@YAPAVPalmLargeDisjunction@@PAVPalmDisjunction@@0@Z 0053e070 f   palm:palmapi.obj
 0001:0013d25a       ?claire_e_dashor_PalmLargeDisjunction2@@YAPAVPalmLargeDisjunction@@PAV1@PAVPalmDisjunction@@@Z 0053e25a f   palm:palmapi.obj
 0001:0013d403       ?claire_e_dashor_PalmDisjunction2@@YAPAVPalmLargeDisjunction@@PAVPalmDisjunction@@PAV1@@Z 0053e403 f   palm:palmapi.obj
 0001:0013d5ac       ?claire_e_dashor_PalmDisjunction3@@YAPAVPalmLargeDisjunction@@PAVPalmDisjunction@@PAVAbstractConstraint@@@Z 0053e5ac f   palm:palmapi.obj
 0001:0013d765       ?claire_e_dashor_PalmLargeDisjunction3@@YAPAVPalmLargeDisjunction@@PAV1@PAVAbstractConstraint@@@Z 0053e765 f   palm:palmapi.obj
 0001:0013d8ab       ?claire_e_dashor_AbstractConstraint1@@YAPAVPalmLargeDisjunction@@PAVAbstractConstraint@@PAVPalmDisjunction@@@Z 0053e8ab f   palm:palmapi.obj
 0001:0013d8c0       ?claire_e_dashor_AbstractConstraint2@@YAPAVPalmLargeDisjunction@@PAVAbstractConstraint@@PAV1@@Z 0053e8c0 f   palm:palmapi.obj
 0001:0013d8d5       ?claire_e_dashor_AbstractConstraint3@@YAPAVPalmDisjunction@@PAVAbstractConstraint@@0@Z 0053e8d5 f   palm:palmapi.obj
 0001:0013da0e       ?claire_e_dashor_list@@YAPAVPalmLargeDisjunction@@PAVlist@@@Z 0053ea0e f   palm:palmapi.obj
 0001:0013db70       ?claire_e_dashand_PalmConjunction1@@YAPAVPalmLargeConjunction@@PAVPalmConjunction@@0@Z 0053eb70 f   palm:palmapi.obj
 0001:0013dd29       ?claire_e_dashand_PalmLargeConjunction1@@YAPAVPalmLargeConjunction@@PAV1@0@Z 0053ed29 f   palm:palmapi.obj
 0001:0013de7e       ?claire_e_dashand_PalmLargeConjunction2@@YAPAVPalmLargeConjunction@@PAV1@PAVPalmConjunction@@@Z 0053ee7e f   palm:palmapi.obj
 0001:0013dfe1       ?claire_e_dashand_PalmConjunction2@@YAPAVPalmLargeConjunction@@PAVPalmConjunction@@PAV1@@Z 0053efe1 f   palm:palmapi.obj
 0001:0013e144       ?claire_e_dashand_PalmConjunction3@@YAPAVPalmLargeConjunction@@PAVPalmConjunction@@PAVAbstractConstraint@@@Z 0053f144 f   palm:palmapi.obj
 0001:0013e2d2       ?claire_e_dashand_PalmLargeConjunction3@@YAPAVPalmLargeConjunction@@PAV1@PAVAbstractConstraint@@@Z 0053f2d2 f   palm:palmapi.obj
 0001:0013e3f6       ?claire_e_dashand_AbstractConstraint1@@YAPAVPalmLargeConjunction@@PAVAbstractConstraint@@PAVPalmConjunction@@@Z 0053f3f6 f   palm:palmapi.obj
 0001:0013e40b       ?claire_e_dashand_AbstractConstraint2@@YAPAVPalmLargeConjunction@@PAVAbstractConstraint@@PAV1@@Z 0053f40b f   palm:palmapi.obj
 0001:0013e420       ?claire_e_dashand_AbstractConstraint3@@YAPAVPalmConjunction@@PAVAbstractConstraint@@0@Z 0053f420 f   palm:palmapi.obj
 0001:0013e559       ?claire_e_dashand_list@@YAPAVPalmLargeConjunction@@PAVlist@@@Z 0053f559 f   palm:palmapi.obj
 0001:0013e69b       ?claire_e_dashimplies_AbstractConstraint@@YAPAVCompositeConstraint@@PAVAbstractConstraint@@0@Z 0053f69b f   palm:palmapi.obj
 0001:0013e7ce       ?palm_e_dashifThen_AbstractConstraint@@YAPAVPalmGuard@@PAVAbstractConstraint@@0@Z 0053f7ce f   palm:palmapi.obj
 0001:0013e907       ?claire_e_dashiff_AbstractConstraint@@YAPAVPalmEquiv@@PAVAbstractConstraint@@0@Z 0053f907 f   palm:palmapi.obj
 0001:0013ea40       ?palm_makePalmCardinalityConstraint_list@@YAPAVPalmCardinality@@PAVlist@@PAVPalmIntVar@@PAVClaireBoolean@@2@Z 0053fa40 f   palm:palmapi.obj
 0001:0013ebdf       ?palm_e_dashcard_list1@@YAPAVPalmCardinality@@PAVlist@@PAVPalmIntVar@@@Z 0053fbdf f   palm:palmapi.obj
 0001:0013ec01       ?palm_e_dashatleast_list1@@YAPAVPalmCardinality@@PAVlist@@PAVPalmIntVar@@@Z 0053fc01 f   palm:palmapi.obj
 0001:0013ec23       ?palm_e_dashatmost_list1@@YAPAVPalmCardinality@@PAVlist@@PAVPalmIntVar@@@Z 0053fc23 f   palm:palmapi.obj
 0001:0013ec45       ?palm_e_dashcard_list2@@YAPAVPalmCardinality@@PAVlist@@H@Z 0053fc45 f   palm:palmapi.obj
 0001:0013ed46       ?palm_e_dashatleast_list2@@YAPAVPalmCardinality@@PAVlist@@H@Z 0053fd46 f   palm:palmapi.obj
 0001:0013ee47       ?palm_e_dashatmost_list2@@YAPAVPalmCardinality@@PAVlist@@H@Z 0053fe47 f   palm:palmapi.obj
 0001:0013ef48       ?palm_startInfoBox_PalmProblem@@YAXPAVPalmProblem@@PAD1@Z 0053ff48 f   palm:palmapi.obj
 0001:0013f10e       ?palm_endInfoBox_PalmProblem@@YAXPAVPalmProblem@@@Z 0054010e f   palm:palmapi.obj
 0001:0013f142       ?claire_self_print_PalmUserFriendlyBox_palm@@YAHPAVPalmUserFriendlyBox@@@Z 00540142 f   palm:palmapi.obj
 0001:0013f1b0       ?claire_self_print_PalmProblem_palm@@YAXPAVPalmProblem@@@Z 005401b0 f   palm:palmapi.obj
 0001:0013f319       ?palm_showInfoBox_integer@@YAHHPAVPalmUserFriendlyBox@@@Z 00540319 f   palm:palmapi.obj
 0001:0013f504       ?palm_project_AbstractConstraint@@YAPAVPalmUserFriendlyBox@@PAVAbstractConstraint@@PAVPalmProblem@@@Z 00540504 f   palm:palmapi.obj
 0001:0013f5a4       ?palm_getConstraints_PalmUserFriendlyBox@@YAPAVset@@PAVPalmUserFriendlyBox@@@Z 005405a4 f   palm:palmapi.obj
 0001:0013f6ea       ?palm_setUserFriendly_boolean@@YAHPAVClaireBoolean@@@Z 005406ea f   palm:palmapi.obj
 0001:0013f712       ?palm_setUserRepresentation_PalmProblem@@YAXPAVPalmProblem@@PAVlist@@@Z 00540712 f   palm:palmapi.obj
 0001:0013f918       ?choco_post_PalmProblem9@@YAXPAVPalmProblem@@PAVPalmUserFriendlyBox@@@Z 00540918 f   palm:palmapi.obj
 0001:0013fb0f       ?palm_checkPalm_AbstractConstraint@@YAPAVClaireBoolean@@PAVAbstractConstraint@@@Z 00540b0f f   palm:palmapi.obj
 0001:0013fb19       ?palm_checkFullPalm_PalmProblem@@YAPAVClaireBoolean@@PAVPalmProblem@@@Z 00540b19 f   palm:palmapi.obj
 0001:0013fdc0       ?palm_initHook_PalmDisjunction@@YAXPAVPalmDisjunction@@@Z 00540dc0 f   palm:p-bool.obj
 0001:0013ffc5       ?palm_takeIntoAccountStatusChange_PalmDisjunction@@YAXPAVPalmDisjunction@@H@Z 00540fc5 f   palm:p-bool.obj
 0001:00140225       ?claire_self_print_PalmDisjunction_palm@@YAHPAVPalmDisjunction@@@Z 00541225 f   palm:p-bool.obj
 0001:0014037c       ?palm_needToAwake_PalmDisjunction@@YAPAVClaireBoolean@@PAVPalmDisjunction@@H@Z 0054137c f   palm:p-bool.obj
 0001:001403a9       ?palm_setNeedToAwake_PalmDisjunction@@YAXPAVPalmDisjunction@@HPAVClaireBoolean@@@Z 005413a9 f   palm:p-bool.obj
 0001:001403c8       ?palm_checkStatusAndReport_PalmDisjunction@@YAXPAVPalmDisjunction@@H@Z 005413c8 f   palm:p-bool.obj
 0001:00140917       ?palm_updateDataStructuresOnConstraint_PalmDisjunction_palm@@YAXPAVPalmDisjunction@@HHHH@Z 00541917 f   palm:p-bool.obj
 0001:00140ad7       ?palm_updateDataStructuresOnRestoreConstraint_PalmDisjunction_palm@@YAXPAVPalmDisjunction@@HHHH@Z 00541ad7 f   palm:p-bool.obj
 0001:00140d98       ?palm_checkConstraintState_PalmDisjunction@@YAPAVClaireBoolean@@PAVPalmDisjunction@@@Z 00541d98 f   palm:p-bool.obj
 0001:001414f9       ?choco_awakeOnInf_PalmDisjunction@@YAXPAVPalmDisjunction@@H@Z 005424f9 f   palm:p-bool.obj
 0001:001416bc       ?palm_awakeOnRestoreInf_PalmDisjunction@@YAXPAVPalmDisjunction@@H@Z 005426bc f   palm:p-bool.obj
 0001:00141877       ?choco_awakeOnSup_PalmDisjunction@@YAXPAVPalmDisjunction@@H@Z 00542877 f   palm:p-bool.obj
 0001:00141a3a       ?palm_awakeOnRestoreSup_PalmDisjunction@@YAXPAVPalmDisjunction@@H@Z 00542a3a f   palm:p-bool.obj
 0001:00141bf5       ?choco_awakeOnRem_PalmDisjunction@@YAXPAVPalmDisjunction@@HH@Z 00542bf5 f   palm:p-bool.obj
 0001:00141dbf       ?palm_awakeOnRestoreVal_PalmDisjunction@@YAXPAVPalmDisjunction@@HH@Z 00542dbf f   palm:p-bool.obj
 0001:00141f84       ?choco_askIfEntailed_PalmDisjunction@@YAHPAVPalmDisjunction@@@Z 00542f84 f   palm:p-bool.obj
 0001:00142506       ?choco_testIfSatisfied_PalmDisjunction@@YAPAVClaireBoolean@@PAVPalmDisjunction@@@Z 00543506 f   palm:p-bool.obj
 0001:001426c6       ?choco_propagate_PalmDisjunction@@YAXPAVPalmDisjunction@@@Z 005436c6 f   palm:p-bool.obj
 0001:001426f3       ?choco_awake_PalmDisjunction_palm@@YAXPAVPalmDisjunction@@@Z 005436f3 f   palm:p-bool.obj
 0001:00142720       ?palm_whyIsTrue_PalmDisjunction@@YAPAVset@@PAVPalmDisjunction@@@Z 00543720 f   palm:p-bool.obj
 0001:001429a6       ?palm_whyIsFalse_PalmDisjunction@@YAPAVset@@PAVPalmDisjunction@@@Z 005439a6 f   palm:p-bool.obj
 0001:00142c52       ?choco_awakeOnInst_PalmDisjunction@@YAHPAVPalmDisjunction@@H@Z 00543c52 f   palm:p-bool.obj
 0001:00142cb6       ?palm_checkPalm_PalmDisjunction@@YAPAVClaireBoolean@@PAVPalmDisjunction@@@Z 00543cb6 f   palm:p-bool.obj
 0001:00142e3e       ?palm_initHook_PalmGuard@@YAXPAVPalmGuard@@@Z 00543e3e f   palm:p-bool.obj
 0001:00142fcc       ?palm_takeIntoAccountStatusChange_PalmGuard@@YAXPAVPalmGuard@@H@Z 00543fcc f   palm:p-bool.obj
 0001:001431c1       ?claire_self_print_PalmGuard_palm@@YAHPAVPalmGuard@@@Z 005441c1 f   palm:p-bool.obj
 0001:00143318       ?palm_needToAwake_PalmGuard@@YAPAVClaireBoolean@@PAVPalmGuard@@H@Z 00544318 f   palm:p-bool.obj
 0001:00143323       ?palm_setNeedToAwake_PalmGuard@@YAXPAVPalmGuard@@HPAVClaireBoolean@@@Z 00544323 f   palm:p-bool.obj
 0001:00143331       ?palm_checkStatusAndReport_PalmGuard@@YAXPAVPalmGuard@@H@Z 00544331 f   palm:p-bool.obj
 0001:00143792       ?palm_updateDataStructuresOnConstraint_PalmGuard_palm@@YAXPAVPalmGuard@@HHHH@Z 00544792 f   palm:p-bool.obj
 0001:00143901       ?palm_updateDataStructuresOnRestoreConstraint_PalmGuard_palm@@YAXPAVPalmGuard@@HHHH@Z 00544901 f   palm:p-bool.obj
 0001:00143bc5       ?palm_checkConstraintState_PalmGuard@@YAPAVClaireBoolean@@PAVPalmGuard@@@Z 00544bc5 f   palm:p-bool.obj
 0001:00143e4f       ?choco_awakeOnInf_PalmGuard@@YAXPAVPalmGuard@@H@Z 00544e4f f   palm:p-bool.obj
 0001:00143fa1       ?palm_awakeOnRestoreInf_PalmGuard@@YAXPAVPalmGuard@@H@Z 00544fa1 f   palm:p-bool.obj
 0001:001440f3       ?choco_awakeOnSup_PalmGuard@@YAXPAVPalmGuard@@H@Z 005450f3 f   palm:p-bool.obj
 0001:00144245       ?palm_awakeOnRestoreSup_PalmGuard@@YAXPAVPalmGuard@@H@Z 00545245 f   palm:p-bool.obj
 0001:00144397       ?choco_awakeOnRem_PalmGuard@@YAXPAVPalmGuard@@HH@Z 00545397 f   palm:p-bool.obj
 0001:001444ec       ?palm_awakeOnRestoreVal_PalmGuard@@YAXPAVPalmGuard@@HH@Z 005454ec f   palm:p-bool.obj
 0001:00144641       ?choco_propagate_PalmGuard@@YAXPAVPalmGuard@@@Z 00545641 f   palm:p-bool.obj
 0001:00144660       ?choco_awake_PalmGuard_palm@@YAXPAVPalmGuard@@@Z 00545660 f   palm:p-bool.obj
 0001:0014467f       ?choco_askIfEntailed_PalmGuard@@YAHPAVPalmGuard@@@Z 0054567f f   palm:p-bool.obj
 0001:00144c0d       ?choco_testIfSatisfied_PalmGuard@@YAPAVClaireBoolean@@PAVPalmGuard@@@Z 00545c0d f   palm:p-bool.obj
 0001:00144dc7       ?choco_awakeOnInst_PalmGuard@@YAHPAVPalmGuard@@H@Z 00545dc7 f   palm:p-bool.obj
 0001:00144e2b       ?palm_checkPalm_PalmGuard@@YAPAVClaireBoolean@@PAVPalmGuard@@@Z 00545e2b f   palm:p-bool.obj
 0001:00144fb3       ?palm_initHook_PalmEquiv@@YAXPAVPalmEquiv@@@Z 00545fb3 f   palm:p-bool.obj
 0001:001452a6       ?palm_takeIntoAccountStatusChange_PalmEquiv@@YAXPAVPalmEquiv@@H@Z 005462a6 f   palm:p-bool.obj
 0001:0014566e       ?claire_self_print_PalmEquiv_palm@@YAHPAVPalmEquiv@@@Z 0054666e f   palm:p-bool.obj
 0001:001457c5       ?palm_needToAwake_PalmEquiv@@YAPAVClaireBoolean@@PAVPalmEquiv@@H@Z 005467c5 f   palm:p-bool.obj
 0001:00145837       ?palm_setNeedToAwake_PalmEquiv@@YAXPAVPalmEquiv@@HPAVClaireBoolean@@@Z 00546837 f   palm:p-bool.obj
 0001:0014587e       ?palm_checkStatusAndReport_PalmEquiv@@YAXPAVPalmEquiv@@H@Z 0054687e f   palm:p-bool.obj
 0001:00145e48       ?palm_updateDataStructuresOnConstraint_PalmEquiv_palm@@YAXPAVPalmEquiv@@HHHH@Z 00546e48 f   palm:p-bool.obj
 0001:001460a0       ?palm_updateDataStructuresOnRestoreConstraint_PalmEquiv_palm@@YAXPAVPalmEquiv@@HHHH@Z 005470a0 f   palm:p-bool.obj
 0001:001463f6       ?palm_checkConstraintState_PalmEquiv@@YAPAVClaireBoolean@@PAVPalmEquiv@@@Z 005473f6 f   palm:p-bool.obj
 0001:0014706c       ?choco_awakeOnInf_PalmEquiv@@YAXPAVPalmEquiv@@H@Z 0054806c f   palm:p-bool.obj
 0001:00147308       ?palm_awakeOnRestoreInf_PalmEquiv@@YAXPAVPalmEquiv@@H@Z 00548308 f   palm:p-bool.obj
 0001:001475a4       ?choco_awakeOnSup_PalmEquiv@@YAXPAVPalmEquiv@@H@Z 005485a4 f   palm:p-bool.obj
 0001:00147840       ?palm_awakeOnRestoreSup_PalmEquiv@@YAXPAVPalmEquiv@@H@Z 00548840 f   palm:p-bool.obj
 0001:00147adc       ?choco_awakeOnRem_PalmEquiv@@YAXPAVPalmEquiv@@HH@Z 00548adc f   palm:p-bool.obj
 0001:00147d88       ?palm_awakeOnRestoreVal_PalmEquiv@@YAXPAVPalmEquiv@@HH@Z 00548d88 f   palm:p-bool.obj
 0001:00148034       ?choco_propagate_PalmEquiv@@YAXPAVPalmEquiv@@@Z 00549034 f   palm:p-bool.obj
 0001:00148061       ?choco_awake_PalmEquiv_palm@@YAXPAVPalmEquiv@@@Z 00549061 f   palm:p-bool.obj
 0001:0014808e       ?choco_askIfEntailed_PalmEquiv@@YAHPAVPalmEquiv@@@Z 0054908e f   palm:p-bool.obj
 0001:0014860b       ?choco_testIfSatisfied_PalmEquiv@@YAPAVClaireBoolean@@PAVPalmEquiv@@@Z 0054960b f   palm:p-bool.obj
 0001:001487a0       ?choco_awakeOnInst_PalmEquiv@@YAXPAVPalmEquiv@@H@Z 005497a0 f   palm:p-bool.obj
 0001:001487ff       ?palm_checkPalm_PalmEquiv@@YAPAVClaireBoolean@@PAVPalmEquiv@@@Z 005497ff f   palm:p-bool.obj
 0001:00148987       ?palm_initHook_PalmConjunction@@YAXPAVPalmConjunction@@@Z 00549987 f   palm:p-bool.obj
 0001:00148b8c       ?palm_takeIntoAccountStatusChange_PalmConjunction@@YAXPAVPalmConjunction@@H@Z 00549b8c f   palm:p-bool.obj
 0001:00148d9f       ?claire_self_print_PalmConjunction_palm@@YAHPAVPalmConjunction@@@Z 00549d9f f   palm:p-bool.obj
 0001:00148ef6       ?palm_updateDataStructuresOnConstraint_PalmConjunction_palm@@YAXPAVPalmConjunction@@HHHH@Z 00549ef6 f   palm:p-bool.obj
 0001:00149059       ?palm_updateDataStructuresOnRestoreConstraint_PalmConjunction_palm@@YAXPAVPalmConjunction@@HHHH@Z 0054a059 f   palm:p-bool.obj
 0001:0014931d       ?choco_awakeOnInf_PalmConjunction@@YAXPAVPalmConjunction@@H@Z 0054a31d f   palm:p-bool.obj
 0001:00149486       ?palm_awakeOnRestoreInf_PalmConjunction@@YAXPAVPalmConjunction@@H@Z 0054a486 f   palm:p-bool.obj
 0001:001495ef       ?choco_awakeOnSup_PalmConjunction@@YAXPAVPalmConjunction@@H@Z 0054a5ef f   palm:p-bool.obj
 0001:00149758       ?palm_awakeOnRestoreSup_PalmConjunction@@YAXPAVPalmConjunction@@H@Z 0054a758 f   palm:p-bool.obj
 0001:001498c1       ?choco_awakeOnRem_PalmConjunction@@YAXPAVPalmConjunction@@HH@Z 0054a8c1 f   palm:p-bool.obj
 0001:00149a2f       ?palm_awakeOnRestoreVal_PalmConjunction@@YAXPAVPalmConjunction@@HH@Z 0054aa2f f   palm:p-bool.obj
 0001:00149b9d       ?choco_propagate_PalmConjunction@@YAXPAVPalmConjunction@@@Z 0054ab9d f   palm:p-bool.obj
 0001:00149db9       ?choco_awake_PalmConjunction_palm@@YAXPAVPalmConjunction@@@Z 0054adb9 f   palm:p-bool.obj
 0001:00149fb8       ?choco_askIfEntailed_PalmConjunction@@YAHPAVPalmConjunction@@@Z 0054afb8 f   palm:p-bool.obj
 0001:0014a52f       ?palm_whyIsTrue_PalmConjunction@@YAPAVset@@PAVPalmConjunction@@@Z 0054b52f f   palm:p-bool.obj
 0001:0014a7db       ?palm_whyIsFalse_PalmConjunction@@YAPAVset@@PAVPalmConjunction@@@Z 0054b7db f   palm:p-bool.obj
 0001:0014abe3       ?choco_testIfSatisfied_PalmConjunction@@YAPAVClaireBoolean@@PAVPalmConjunction@@@Z 0054bbe3 f   palm:p-bool.obj
 0001:0014ada4       ?choco_awakeOnInst_PalmConjunction@@YAXPAVPalmConjunction@@H@Z 0054bda4 f   palm:p-bool.obj
 0001:0014ae03       ?palm_checkPalm_PalmConjunction@@YAPAVClaireBoolean@@PAVPalmConjunction@@@Z 0054be03 f   palm:p-bool.obj
 0001:0014af8b       ?palm_initHook_PalmLargeConjunction@@YAXPAVPalmLargeConjunction@@@Z 0054bf8b f   palm:p-bool.obj
 0001:0014b177       ?palm_takeIntoAccountStatusChange_PalmLargeConjunction@@YAXPAVPalmLargeConjunction@@H@Z 0054c177 f   palm:p-bool.obj
 0001:0014b232       ?claire_self_print_PalmLargeConjunction_palm@@YAHPAVPalmLargeConjunction@@@Z 0054c232 f   palm:p-bool.obj
 0001:0014b2e7       ?palm_updateDataStructuresOnConstraint_PalmLargeConjunction_palm@@YAXPAVPalmLargeConjunction@@HHHH@Z 0054c2e7 f   palm:p-bool.obj
 0001:0014b488       ?palm_updateDataStructuresOnRestoreConstraint_PalmLargeConjunction_palm@@YAXPAVPalmLargeConjunction@@HHHH@Z 0054c488 f   palm:p-bool.obj
 0001:0014b799       ?choco_awakeOnInf_PalmLargeConjunction@@YAXPAVPalmLargeConjunction@@H@Z 0054c799 f   palm:p-bool.obj
 0001:0014b93d       ?palm_awakeOnRestoreInf_PalmLargeConjunction@@YAXPAVPalmLargeConjunction@@H@Z 0054c93d f   palm:p-bool.obj
 0001:0014bae1       ?choco_awakeOnSup_PalmLargeConjunction@@YAXPAVPalmLargeConjunction@@H@Z 0054cae1 f   palm:p-bool.obj
 0001:0014bc85       ?palm_awakeOnRestoreSup_PalmLargeConjunction@@YAXPAVPalmLargeConjunction@@H@Z 0054cc85 f   palm:p-bool.obj
 0001:0014be29       ?choco_awakeOnRem_PalmLargeConjunction@@YAXPAVPalmLargeConjunction@@HH@Z 0054ce29 f   palm:p-bool.obj
 0001:0014bfd2       ?palm_awakeOnRestoreVal_PalmLargeConjunction@@YAXPAVPalmLargeConjunction@@HH@Z 0054cfd2 f   palm:p-bool.obj
 0001:0014c17b       ?choco_propagate_PalmLargeConjunction@@YAXPAVPalmLargeConjunction@@@Z 0054d17b f   palm:p-bool.obj
 0001:0014c3a6       ?choco_awake_PalmLargeConjunction_palm@@YAXPAVPalmLargeConjunction@@@Z 0054d3a6 f   palm:p-bool.obj
 0001:0014c5c2       ?choco_askIfEntailed_PalmLargeConjunction@@YAHPAVPalmLargeConjunction@@@Z 0054d5c2 f   palm:p-bool.obj
 0001:0014cd1d       ?choco_testIfSatisfied_PalmLargeConjunction@@YAPAVClaireBoolean@@PAVPalmLargeConjunction@@@Z 0054dd1d f   palm:p-bool.obj
 0001:0014ced0       ?palm_whyIsTrue_PalmLargeConjunction@@YAPAVset@@PAVPalmLargeConjunction@@@Z 0054ded0 f   palm:p-bool.obj
 0001:0014d0eb       ?palm_whyIsFalse_PalmLargeConjunction@@YAPAVset@@PAVPalmLargeConjunction@@@Z 0054e0eb f   palm:p-bool.obj
 0001:0014d501       ?choco_awakeOnInst_PalmLargeConjunction@@YAXPAVPalmLargeConjunction@@H@Z 0054e501 f   palm:p-bool.obj
 0001:0014d560       ?palm_checkPalm_PalmLargeConjunction@@YAPAVClaireBoolean@@PAVPalmLargeConjunction@@@Z 0054e560 f   palm:p-bool.obj
 0001:0014d5f0       ?palm_initHook_PalmLargeDisjunction@@YAXPAVPalmLargeDisjunction@@@Z 0054e5f0 f   palm:p-bool.obj
 0001:0014d7dc       ?palm_takeIntoAccountStatusChange_PalmLargeDisjunction@@YAXPAVPalmLargeDisjunction@@H@Z 0054e7dc f   palm:p-bool.obj
 0001:0014da76       ?claire_self_print_PalmLargeDisjunction_palm@@YAHPAVPalmLargeDisjunction@@@Z 0054ea76 f   palm:p-bool.obj
 0001:0014db2b       ?palm_needToAwake_PalmLargeDisjunction2@@YAPAVClaireBoolean@@PAVPalmLargeDisjunction@@H@Z 0054eb2b f   palm:p-bool.obj
 0001:0014db50       ?palm_setNeedToAwake_PalmLargeDisjunction@@YAXPAVPalmLargeDisjunction@@HPAVClaireBoolean@@@Z 0054eb50 f   palm:p-bool.obj
 0001:0014db7a       ?palm_checkStatusAndReport_PalmLargeDisjunction@@YAXPAVPalmLargeDisjunction@@H@Z 0054eb7a f   palm:p-bool.obj
 0001:0014e818       ?palm_updateDataStructuresOnConstraint_PalmLargeDisjunction_palm@@YAXPAVPalmLargeDisjunction@@HHHH@Z 0054f818 f   palm:p-bool.obj
 0001:0014ea42       ?palm_updateDataStructuresOnRestoreConstraint_PalmLargeDisjunction_palm@@YAXPAVPalmLargeDisjunction@@HHHH@Z 0054fa42 f   palm:p-bool.obj
 0001:0014ed53       ?palm_checkConstraintState_PalmLargeDisjunction@@YAPAVClaireBoolean@@PAVPalmLargeDisjunction@@@Z 0054fd53 f   palm:p-bool.obj
 0001:0014f23d       ?choco_awakeOnInf_PalmLargeDisjunction@@YAXPAVPalmLargeDisjunction@@H@Z 0055023d f   palm:p-bool.obj
 0001:0014f4b2       ?palm_awakeOnRestoreInf_PalmLargeDisjunction@@YAXPAVPalmLargeDisjunction@@H@Z 005504b2 f   palm:p-bool.obj
 0001:0014f727       ?choco_awakeOnSup_PalmLargeDisjunction@@YAXPAVPalmLargeDisjunction@@H@Z 00550727 f   palm:p-bool.obj
 0001:0014f99c       ?palm_awakeOnRestoreSup_PalmLargeDisjunction@@YAXPAVPalmLargeDisjunction@@H@Z 0055099c f   palm:p-bool.obj
 0001:0014fc11       ?choco_awakeOnRem_PalmLargeDisjunction@@YAXPAVPalmLargeDisjunction@@HH@Z 00550c11 f   palm:p-bool.obj
 0001:0014fe8a       ?palm_awakeOnRestoreVal_PalmLargeDisjunction@@YAXPAVPalmLargeDisjunction@@HH@Z 00550e8a f   palm:p-bool.obj
 0001:00150103       ?choco_askIfEntailed_PalmLargeDisjunction@@YAHPAVPalmLargeDisjunction@@@Z 00551103 f   palm:p-bool.obj
 0001:00150316       ?choco_testIfSatisfied_PalmLargeDisjunction@@YAPAVClaireBoolean@@PAVPalmLargeDisjunction@@@Z 00551316 f   palm:p-bool.obj
 0001:001504d1       ?choco_propagate_PalmLargeDisjunction@@YAXPAVPalmLargeDisjunction@@@Z 005514d1 f   palm:p-bool.obj
 0001:0015051a       ?choco_awake_PalmLargeDisjunction_palm@@YAXPAVPalmLargeDisjunction@@@Z 0055151a f   palm:p-bool.obj
 0001:00150563       ?palm_whyIsTrue_PalmLargeDisjunction@@YAPAVset@@PAVPalmLargeDisjunction@@@Z 00551563 f   palm:p-bool.obj
 0001:00150791       ?palm_whyIsFalse_PalmLargeDisjunction@@YAPAVset@@PAVPalmLargeDisjunction@@@Z 00551791 f   palm:p-bool.obj
 0001:001509c2       ?choco_awakeOnInst_PalmLargeDisjunction@@YAXPAVPalmLargeDisjunction@@H@Z 005519c2 f   palm:p-bool.obj
 0001:00150a21       ?palm_checkPalm_PalmLargeDisjunction@@YAPAVClaireBoolean@@PAVPalmLargeDisjunction@@@Z 00551a21 f   palm:p-bool.obj
 0001:00150ab1       ?palm_initHook_PalmCardinality@@YAXPAVPalmCardinality@@@Z 00551ab1 f   palm:p-bool.obj
 0001:00150d2f       ?palm_needToAwake_PalmCardinality2@@YAPAVClaireBoolean@@PAVPalmCardinality@@H@Z 00551d2f f   palm:p-bool.obj
 0001:00150d54       ?palm_setNeedToAwake_PalmCardinality@@YAXPAVPalmCardinality@@HPAVClaireBoolean@@@Z 00551d54 f   palm:p-bool.obj
 0001:00150d7e       ?claire_self_print_PalmCardinality_palm@@YAHPAVPalmCardinality@@@Z 00551d7e f   palm:p-bool.obj
 0001:00150f6f       ?palm_takeIntoAccountStatusChange_PalmCardinality@@YAXPAVPalmCardinality@@H@Z 00551f6f f   palm:p-bool.obj
 0001:00151287       ?palm_checkOnNbTrue_PalmCardinality@@YAXPAVPalmCardinality@@@Z 00552287 f   palm:p-bool.obj
 0001:0015139e       ?palm_checkOnNbFalse_PalmCardinality@@YAXPAVPalmCardinality@@@Z 0055239e f   palm:p-bool.obj
 0001:001514b5       ?palm_checkStatusAndReport_PalmCardinality@@YAXPAVPalmCardinality@@H@Z 005524b5 f   palm:p-bool.obj
 0001:00151ae9       ?palm_explainTrueConstraints_PalmCardinality@@YAPAVExplanation@@PAVPalmCardinality@@@Z 00552ae9 f   palm:p-bool.obj
 0001:00151df5       ?palm_explainFalseConstraints_PalmCardinality@@YAPAVExplanation@@PAVPalmCardinality@@@Z 00552df5 f   palm:p-bool.obj
 0001:0015211e       ?palm_checkConstraintState_PalmCardinality@@YAPAVClaireBoolean@@PAVPalmCardinality@@@Z 0055311e f   palm:p-bool.obj
 0001:0015250c       ?palm_updateDataStructuresOnConstraint_PalmCardinality_palm@@YAXPAVPalmCardinality@@HHHH@Z 0055350c f   palm:p-bool.obj
 0001:00152829       ?palm_updateDataStructuresOnRestoreConstraint_PalmCardinality_palm@@YAXPAVPalmCardinality@@HHHH@Z 00553829 f   palm:p-bool.obj
 0001:00152b69       ?choco_awakeOnInf_PalmCardinality@@YAXPAVPalmCardinality@@H@Z 00553b69 f   palm:p-bool.obj
 0001:00152df3       ?palm_awakeOnRestoreInf_PalmCardinality@@YAXPAVPalmCardinality@@H@Z 00553df3 f   palm:p-bool.obj
 0001:0015307d       ?choco_awakeOnSup_PalmCardinality@@YAXPAVPalmCardinality@@H@Z 0055407d f   palm:p-bool.obj
 0001:00153307       ?palm_awakeOnRestoreSup_PalmCardinality@@YAXPAVPalmCardinality@@H@Z 00554307 f   palm:p-bool.obj
 0001:00153591       ?choco_awakeOnRem_PalmCardinality@@YAXPAVPalmCardinality@@HH@Z 00554591 f   palm:p-bool.obj
 0001:0015381f       ?palm_awakeOnRestoreVal_PalmCardinality@@YAXPAVPalmCardinality@@HH@Z 0055481f f   palm:p-bool.obj
 0001:00153aad       ?palm_checkPalm_PalmCardinality@@YAPAVClaireBoolean@@PAVPalmCardinality@@@Z 00554aad f   palm:p-bool.obj
 0001:00153b40       ?palm_getGlobalStatistics_PalmSolver@@YAHPAVPalmSolver@@H@Z 00554b40 f   palm:p-solve.obj
 0001:00153bc9       ?palm_getGlobalStatistics_PalmProblem@@YAHPAVPalmProblem@@H@Z 00554bc9 f   palm:p-solve.obj
 0001:00153ccc       ?palm_getRuntimeStatistic_PalmSolver@@YAHPAVPalmSolver@@H@Z 00554ccc f   palm:p-solve.obj
 0001:00153ce2       ?palm_getRuntimeStatistic_PalmProblem@@YAHPAVPalmProblem@@H@Z 00554ce2 f   palm:p-solve.obj
 0001:00153cfb       ?palm_setRuntimeStatistic_PalmSolver@@YAHPAVPalmSolver@@HH@Z 00554cfb f   palm:p-solve.obj
 0001:00153d17       ?palm_incRuntimeStatistic_PalmSolver@@YAXPAVPalmSolver@@HH@Z 00554d17 f   palm:p-solve.obj
 0001:00153d43       ?palm_decRuntimeStatistic_PalmSolver@@YAXPAVPalmSolver@@HH@Z 00554d43 f   palm:p-solve.obj
 0001:00153d6f       ?palm_printRuntimeStatistics_PalmProblem1@@YAHPAVPalmProblem@@@Z 00554d6f f   palm:p-solve.obj
 0001:00153e02       ?palm_printRuntimeStatistics_PalmProblem2@@YAHPAVPalmProblem@@H@Z 00554e02 f   palm:p-solve.obj
 0001:00153eb2       ?palm_reset_PalmSolver@@YAXPAVPalmSolver@@@Z 00554eb2 f   palm:p-solve.obj
 0001:00154027       ?palm_initPalmSolver_PalmProblem@@YAXPAVPalmProblem@@@Z 00555027 f   palm:p-solve.obj
 0001:00154495       ?palm_initPalmBranchAndBound_PalmProblem@@YAXPAVPalmProblem@@PAVClaireBoolean@@PAVPalmIntVar@@@Z 00555495 f   palm:p-solve.obj
 0001:001546fa       ?palm_attachPalmExtend_PalmProblem@@YAXPAVPalmProblem@@PAVPalmExtend@@@Z 005556fa f   palm:p-solve.obj
 0001:00154717       ?palm_attachPalmLearn_PalmProblem@@YAXPAVPalmProblem@@PAVPalmLearn@@@Z 00555717 f   palm:p-solve.obj
 0001:00154734       ?palm_attachPalmRepair_PalmProblem@@YAXPAVPalmProblem@@PAVPalmRepair@@@Z 00555734 f   palm:p-solve.obj
 0001:00154751       ?palm_attachPalmState_PalmProblem@@YAXPAVPalmProblem@@PAVPalmState@@@Z 00555751 f   palm:p-solve.obj
 0001:0015476e       ?palm_attachPalmBranchings_PalmProblem@@YAXPAVPalmProblem@@PAVlist@@@Z 0055576e f   palm:p-solve.obj
 0001:001549f2       ?palm_searchOneSolution_PalmProblem@@YAPAVClaireBoolean@@PAVPalmProblem@@@Z 005559f2 f   palm:p-solve.obj
 0001:00154ba2       ?palm_run_PalmSolver@@YAHPAVPalmSolver@@@Z 00555ba2 f   palm:p-solve.obj
 0001:00155000       ?palm_runonce_PalmBranchAndBound@@YAXPAVPalmBranchAndBound@@@Z 00556000 f   palm:p-solve.obj
 0001:00155365       ?palm_run_PalmBranchAndBound@@YAXPAVPalmBranchAndBound@@@Z 00556365 f   palm:p-solve.obj
 0001:001556c6       ?palm_postDynamicCut_PalmBranchAndBound@@YAXPAVPalmBranchAndBound@@@Z 005566c6 f   palm:p-solve.obj
 0001:00155b32       ?palm_extend_PalmSolver_palm@@YAXPAVPalmSolver@@@Z 00556b32 f   palm:p-solve.obj
 0001:00155c54       ?palm_explore_PalmExtend@@YAXPAVPalmExtend@@PAVPalmBranching@@@Z 00556c54 f   palm:p-solve.obj
 0001:00155edb       ?palm_explore_PalmUnsureExtend@@YAXPAVPalmUnsureExtend@@PAVPalmBranching@@@Z 00556edb f   palm:p-solve.obj
 0001:0015605d       ?palm_selectAuthorizedDecisions_PalmBranching@@YAPAVlist@@PAVPalmBranching@@H@Z 0055705d f   palm:p-solve.obj
 0001:0015635c       ?palm_propagateAllDecisionConstraints_PalmProblem@@YAXPAVPalmProblem@@PAVlist@@@Z 0055735c f   palm:p-solve.obj
 0001:0015652a       ?palm_selectBranchingItem_PalmBranching_palm@@YAHPAVPalmBranching@@@Z 0055752a f   palm:p-solve.obj
 0001:0015658e       ?palm_selectDecisions_PalmBranching_palm@@YAPAVlist@@PAVPalmBranching@@H@Z 0055758e f   palm:p-solve.obj
 0001:001565fb       ?palm_getNextDecisions_PalmBranching_palm@@YAPAVlist@@PAVPalmBranching@@@Z 005575fb f   palm:p-solve.obj
 0001:00156668       ?palm_checkAcceptable_PalmBranching_palm@@YAPAVClaireBoolean@@PAVPalmBranching@@PAVlist@@@Z 00557668 f   palm:p-solve.obj
 0001:001566cc       ?palm_learnFromRejection_PalmBranching_palm@@YAXPAVPalmBranching@@@Z 005576cc f   palm:p-solve.obj
 0001:0015672b       ?palm_repair_PalmProblem_palm@@YAXPAVPalmProblem@@@Z 0055772b f   palm:p-solve.obj
 0001:0015682b       ?palm_repair_PalmSolver_palm@@YAXPAVPalmSolver@@@Z 0055782b f   palm:p-solve.obj
 0001:00156efc       ?palm_addDecision_PalmState_palm@@YAXPAVPalmState@@PAVAbstractConstraint@@@Z 00557efc f   palm:p-solve.obj
 0001:00156ff5       ?palm_reverseDecision_PalmState_palm@@YAXPAVPalmState@@PAVAbstractConstraint@@@Z 00557ff5 f   palm:p-solve.obj
 0001:0015701e       ?palm_removeDecision_PalmState_palm@@YAXPAVPalmState@@PAVAbstractConstraint@@@Z 0055801e f   palm:p-solve.obj
 0001:00157159       ?palm_learnFromContradiction_PalmLearn_palm@@YAXPAVPalmLearn@@PAVExplanation@@@Z 00558159 f   palm:p-solve.obj
 0001:0015715e       ?palm_learnFromRemoval_PalmLearn_palm@@YAXPAVPalmLearn@@PAVAbstractConstraint@@@Z 0055815e f   palm:p-solve.obj
 0001:00157163       ?palm_checkAcceptable_PalmLearn_palm@@YAPAVClaireBoolean@@PAVPalmLearn@@PAVlist@@@Z 00558163 f   palm:p-solve.obj
 0001:0015716d       ?palm_sortConstraintsToUndo_PalmLearn_palm@@YAPAVlist@@PAVPalmLearn@@PAVExplanation@@@Z 0055816d f   palm:p-solve.obj
 0001:00157338       ?palm_checkAcceptableRelaxation_PalmLearn_palm@@YAPAVClaireBoolean@@PAVPalmLearn@@PAVAbstractConstraint@@@Z 00558338 f   palm:p-solve.obj
 0001:00157342       ?palm_selectDecisionToUndo_PalmRepair_palm@@YAHPAVPalmRepair@@PAVExplanation@@@Z 00558342 f   palm:p-solve.obj
 0001:00157491       ?palm_selectDecisionToUndo_PalmUnsureRepair_palm@@YAHPAVPalmUnsureRepair@@PAVExplanation@@@Z 00558491 f   palm:p-solve.obj
 0001:00157679       ?palm_standard_better_constraint_AbstractConstraint@@YAPAVClaireBoolean@@PAVAbstractConstraint@@0@Z 00558679 f   palm:p-solve.obj
 0001:001577f6       ?palm_standard_better_ordered_constraint_AbstractConstraint@@YAPAVClaireBoolean@@PAVAbstractConstraint@@0@Z 005587f6 f   palm:p-solve.obj
 0001:001579a6       ?palm_getObjectiveValue_PalmProblem@@YAHPAVPalmProblem@@PAVPalmIntVar@@PAVClaireBoolean@@@Z 005589a6 f   palm:p-solve.obj
 0001:001579f1       ?palm_selectBranchingItem_PalmAssignVar_palm@@YAHPAVPalmAssignVar@@@Z 005589f1 f   palm:p-solve.obj
 0001:00157af8       ?palm_selectDecisions_PalmAssignVar_palm@@YAPAVlist@@PAVPalmAssignVar@@PAVPalmIntVar@@@Z 00558af8 f   palm:p-solve.obj
 0001:00157c1d       ?palm_selectBranchingItem_PalmAssignMinDomDegVar_palm@@YAHPAVPalmAssignMinDomDegVar@@@Z 00558c1d f   palm:p-solve.obj
 0001:00157d24       ?palm_getMinDomVar_Problem@@YAHPAVProblem@@@Z 00558d24 f   palm:p-solve.obj
 0001:00157e22       ?palm_getMinDomVar_list@@YAHPAVlist@@@Z 00558e22 f   palm:p-solve.obj
 0001:00157f13       ?palm_getMinDomDegVar_Problem@@YAHPAVProblem@@@Z 00558f13 f   palm:p-solve.obj
 0001:00158011       ?palm_getMinDomDegVar_list@@YAHPAVlist@@@Z 00559011 f   palm:p-solve.obj
 0001:0015811a       ?claire_self_print_PalmSolution_palm@@YAHPAVPalmSolution@@@Z 0055911a f   palm:p-solve.obj
 0001:00158262       ?palm_getRuntimeStatistic_PalmSolution@@YAHPAVPalmSolution@@H@Z 00559262 f   palm:p-solve.obj
 0001:00158278       ?palm_storeSolution_PalmSolver@@YAXPAVPalmSolver@@@Z 00559278 f   palm:p-solve.obj
 0001:00158481       ?palm_storeSolution_PalmBranchAndBound@@YAXPAVPalmBranchAndBound@@@Z 00559481 f   palm:p-solve.obj
 0001:00158797       ?palm_discardCurrentSolution_PalmState@@YAPAVClaireBoolean@@PAVPalmState@@@Z 00559797 f   palm:p-solve.obj
 0001:00158b61       ?palm_makePathRepairLearn_integer@@YAPAVPathRepairLearn@@HH@Z 00559b61 f   palm:p-solve.obj
 0001:00158d0c       ?palm_makePathRepairLearn_class@@YAPAVPathRepairLearn@@PAVClaireClass@@HH@Z 00559d0c f   palm:p-solve.obj
 0001:00158f2f       ?palm_addForbiddenSituation_PathRepairLearn@@YAXPAVPathRepairLearn@@PAVExplanation@@@Z 00559f2f f   palm:p-solve.obj
 0001:001590e6       ?palm_isForbidden_PathRepairLearn@@YAPAVClaireBoolean@@PAVPathRepairLearn@@PAVExplanation@@@Z 0055a0e6 f   palm:p-solve.obj
 0001:00159248       ?palm_learnFromContradiction_PathRepairLearn_palm@@YAXPAVPathRepairLearn@@PAVExplanation@@@Z 0055a248 f   palm:p-solve.obj
 0001:001594a2       ?palm_informConstraintsInExplanation_PathRepairLearn_palm@@YAXPAVPathRepairLearn@@PAVExplanation@@@Z 0055a4a2 f   palm:p-solve.obj
 0001:001596fd       ?palm_learnFromRemoval_PathRepairLearn_palm@@YAXPAVPathRepairLearn@@PAVAbstractConstraint@@@Z 0055a6fd f   palm:p-solve.obj
 0001:0015971d       ?palm_checkAcceptable_PathRepairLearn_palm@@YAPAVClaireBoolean@@PAVPathRepairLearn@@PAVlist@@@Z 0055a71d f   palm:p-solve.obj
 0001:00159aca       ?palm_checkAcceptableRelaxation_PathRepairLearn_palm@@YAPAVClaireBoolean@@PAVPathRepairLearn@@PAVAbstractConstraint@@@Z 0055aaca f   palm:p-solve.obj
 0001:00159e60       ?claire_self_print_Explanation_palm@@YAHPAVExplanation@@@Z 0055ae60 f   palm:p-explain.obj
 0001:0015a2e3       ?palm_addConstraint_Explanation@@YAXPAVExplanation@@PAVAbstractConstraint@@@Z 0055b2e3 f   palm:p-explain.obj
 0001:0015a3d8       ?palm_deleteConstraint_Explanation@@YAXPAVExplanation@@PAVAbstractConstraint@@@Z 0055b3d8 f   palm:p-explain.obj
 0001:0015a3fe       ?palm_mergeConstraints_Explanation@@YAXPAVExplanation@@PAVset@@@Z 0055b3fe f   palm:p-explain.obj
 0001:0015a543       ?palm_merge_Explanation@@YAXPAVExplanation@@0@Z 0055b543 f   palm:p-explain.obj
 0001:0015a68e       ?palm_empty_ask_Explanation@@YAPAVClaireBoolean@@PAVExplanation@@@Z 0055b68e f   palm:p-explain.obj
 0001:0015a6a7       ?palm_empties_Explanation@@YAXPAVExplanation@@@Z 0055b6a7 f   palm:p-explain.obj
 0001:0015a6c0       ?claire_delete_Explanation@@YAPAVExplanation@@PAV1@PAVAbstractConstraint@@@Z 0055b6c0 f   palm:p-explain.obj
 0001:0015a6e9       ?claire_set_I_Explanation@@YAPAVset@@PAVExplanation@@@Z 0055b6e9 f   palm:p-explain.obj
 0001:0015a6f4       ?claire__Z_AbstractConstraint@@YAPAVClaireBoolean@@PAVAbstractConstraint@@PAVExplanation@@@Z 0055b6f4 f   palm:p-explain.obj
 0001:0015a71a       ?palm_clone_Explanation@@YAPAVExplanation@@PAV1@@Z 0055b71a f   palm:p-explain.obj
 0001:0015a89c       ?palm_valid_ask_Explanation@@YAPAVClaireBoolean@@PAVExplanation@@@Z 0055b89c f   palm:p-explain.obj
 0001:0015aa2c       ?palm_contains_ask_Explanation@@YAPAVClaireBoolean@@PAVExplanation@@0@Z 0055ba2c f   palm:p-explain.obj
 0001:0015aad4       ?palm_clean_Explanation@@YAXPAVExplanation@@@Z 0055bad4 f   palm:p-explain.obj
 0001:0015ac61       ?claire_self_print_DecInf_palm@@YAXPAVDecInf@@@Z 0055bc61 f   palm:p-explain.obj
 0001:0015add2       ?claire_self_print_IncSup_palm@@YAXPAVIncSup@@@Z 0055bdd2 f   palm:p-explain.obj
 0001:0015af43       ?claire_self_print_ValueRestorations_palm@@YAXPAVValueRestorations@@@Z 0055bf43 f   palm:p-explain.obj
 0001:0015b19b       ?palm_makeValueRestorations_PalmIntVar@@YAPAVValueRestorations@@PAVPalmIntVar@@H@Z 0055c19b f   palm:p-explain.obj
 0001:0015b2fe       ?palm_addDependencies_Explanation@@YAHPAVExplanation@@@Z 0055c2fe f   palm:p-explain.obj
 0001:0015b487       ?palm_addDependencies_set@@YAHPAVset@@PAVExplanation@@@Z 0055c487 f   palm:p-explain.obj
 0001:0015b50f       ?palm_removeDependencies_Explanation@@YAHPAVExplanation@@PAVAbstractConstraint@@@Z 0055c50f f   palm:p-explain.obj
 0001:0015b6af       ?palm_makeIncInfExplanation_Explanation@@YAPAVPalmIncInfExplanation@@PAVExplanation@@HPAVPalmIntVar@@@Z 0055c6af f   palm:p-explain.obj
 0001:0015b86b       ?claire_self_print_PalmIncInfExplanation_palm@@YAHPAVPalmIncInfExplanation@@@Z 0055c86b f   palm:p-explain.obj
 0001:0015b9bd       ?palm_postUndoRemoval_PalmIncInfExplanation_palm@@YAXPAVPalmIncInfExplanation@@PAVAbstractConstraint@@@Z 0055c9bd f   palm:p-explain.obj
 0001:0015bb5a       ?palm_makeDecSupExplanation_Explanation@@YAPAVPalmDecSupExplanation@@PAVExplanation@@HPAVPalmIntVar@@@Z 0055cb5a f   palm:p-explain.obj
 0001:0015bd16       ?claire_self_print_PalmDecSupExplanation_palm@@YAHPAVPalmDecSupExplanation@@@Z 0055cd16 f   palm:p-explain.obj
 0001:0015be68       ?palm_postUndoRemoval_PalmDecSupExplanation_palm@@YAXPAVPalmDecSupExplanation@@PAVAbstractConstraint@@@Z 0055ce68 f   palm:p-explain.obj
 0001:0015c005       ?palm_makeRemovalExplanation_Explanation@@YAPAVPalmRemovalExplanation@@PAVExplanation@@HPAVPalmIntVar@@@Z 0055d005 f   palm:p-explain.obj
 0001:0015c290       ?claire_self_print_PalmRemovalExplanation_palm@@YAHPAVPalmRemovalExplanation@@@Z 0055d290 f   palm:p-explain.obj
 0001:0015c3e2       ?palm_postUndoRemoval_PalmRemovalExplanation_palm@@YAHPAVPalmRemovalExplanation@@PAVAbstractConstraint@@@Z 0055d3e2 f   palm:p-explain.obj
 0001:0015c5bd       ?palm_makePalmEngine_integer@@YAPAVPalmEngine@@H@Z 0055d5bd f   palm:p-explain.obj
 0001:0015d017       ?choco_getNextActiveEventQueue_PalmEngine_palm@@YAHPAVPalmEngine@@@Z 0055e017 f   palm:p-explain.obj
 0001:0015d2c9       ?palm_resetEvent_BoundUpdate@@YAXPAVBoundUpdate@@@Z 0055e2c9 f   palm:p-explain.obj
 0001:0015d2d8       ?palm_resetEvent_ValueRemovals@@YAXPAVValueRemovals@@@Z 0055e2d8 f   palm:p-explain.obj
 0001:0015d31a       ?palm_resetPoppingQueue_BoundEventQueue@@YAXPAVBoundEventQueue@@@Z 0055e31a f   palm:p-explain.obj
 0001:0015d3e3       ?palm_resetPoppingQueue_RemovalEventQueue@@YAXPAVRemovalEventQueue@@@Z 0055e3e3 f   palm:p-explain.obj
 0001:0015d4ee       ?palm_resetEventQueue_EventQueue@@YAXPAVEventQueue@@@Z 0055e4ee f   palm:p-explain.obj
 0001:0015d94d       ?palm_resetEvents_PalmEngine@@YAXPAVPalmEngine@@@Z 0055e94d f   palm:p-explain.obj
 0001:0015da84       ?palm_flushEvents_PalmEngine@@YAXPAVPalmEngine@@@Z 0055ea84 f   palm:p-explain.obj
 0001:0015dbbb       ?palm_raisePalmContradiction_PalmEngine@@YAXPAVPalmEngine@@PAVPalmIntVar@@@Z 0055ebbb f   palm:p-explain.obj
 0001:0015dbf8       ?palm_raisePalmFakeContradiction_PalmEngine@@YAXPAVPalmEngine@@PAVExplanation@@@Z 0055ebf8 f   palm:p-explain.obj
 0001:0015dd69       ?palm_raiseSystemContradiction_PalmEngine@@YAXPAVPalmEngine@@@Z 0055ed69 f   palm:p-explain.obj
 0001:0015dd8b       ?palm_remove_PalmEngine1@@YAXPAVPalmEngine@@PAVAbstractConstraint@@@Z 0055ed8b f   palm:p-explain.obj
 0001:0015ddb4       ?palm_remove_PalmEngine2@@YAXPAVPalmEngine@@PAVlist@@@Z 0055edb4 f   palm:p-explain.obj
 0001:0015de3f       ?palm_restoreVariableExplanations_PalmEngine@@YAHPAVPalmEngine@@@Z 0055ee3f f   palm:p-explain.obj
 0001:0015e294       ?palm_checkVariableDomainAgainstRemValEvt_PalmIntVar@@YAHPAVPalmIntVar@@@Z 0055f294 f   palm:p-explain.obj
 0001:0015e482       ?choco_propagateEvent_DecInf_palm@@YAXPAVDecInf@@PAVBoundEventQueue@@@Z 0055f482 f   palm:p-explain.obj
 0001:0015e6f6       ?choco_propagateEvent_IncSup_palm@@YAXPAVIncSup@@PAVBoundEventQueue@@@Z 0055f6f6 f   palm:p-explain.obj
 0001:0015e96a       ?choco_propagateEvent_ValueRestorations_palm@@YAXPAVValueRestorations@@PAVRemovalEventQueue@@@Z 0055f96a f   palm:p-explain.obj
 0001:0015ed0c       ?palm_becauseOf_listargs@@YAPAVExplanation@@PAVlistargs@@@Z 0055fd0c f   palm:p-explain.obj
 0001:0015f63d       ?palm_theInf_PalmIntVar_@@YAPAVtuple@@PAVPalmIntVar@@@Z 0056063d f   palm:p-explain.obj
 0001:0015f655       ?palm_theInf_PalmIntVar@@YAPAVtuple@@PAVPalmIntVar@@@Z 00560655 f   palm:p-explain.obj
 0001:0015f681       ?palm_theSup_PalmIntVar_@@YAPAVtuple@@PAVPalmIntVar@@@Z 00560681 f   palm:p-explain.obj
 0001:0015f699       ?palm_theSup_PalmIntVar@@YAPAVtuple@@PAVPalmIntVar@@@Z 00560699 f   palm:p-explain.obj
 0001:0015f6c5       ?palm_theDom_PalmIntVar_@@YAPAVtuple@@PAVPalmIntVar@@@Z 005606c5 f   palm:p-explain.obj
 0001:0015f6dd       ?palm_theDom_PalmIntVar@@YAPAVtuple@@PAVPalmIntVar@@@Z 005606dd f   palm:p-explain.obj
 0001:0015f709       ?palm_theHole_PalmIntVar_@@YAPAVtuple@@PAVPalmIntVar@@H@Z 00560709 f   palm:p-explain.obj
 0001:0015f725       ?palm_theHole_PalmIntVar@@YAPAVtuple@@PAVPalmIntVar@@H@Z 00560725 f   palm:p-explain.obj
 0001:0015f756       ?palm_theVars_AbstractConstraint_@@YAPAVtuple@@PAVAbstractConstraint@@@Z 00560756 f   palm:p-explain.obj
 0001:0015f76e       ?palm_theVars_AbstractConstraint@@YAPAVtuple@@PAVAbstractConstraint@@@Z 0056076e f   palm:p-explain.obj
 0001:0015f798       ?palm_explain_PalmIntVar1@@YAPAVExplanation@@PAVPalmIntVar@@H@Z 00560798 f   palm:p-explain.obj
 0001:0015f8bb       ?palm_explain_PalmIntVar2@@YAPAVExplanation@@PAVPalmIntVar@@HH@Z 005608bb f   palm:p-explain.obj
 0001:0015f9e2       ?palm_explain_AbstractConstraint@@YAPAVExplanation@@PAVAbstractConstraint@@@Z 005609e2 f   palm:p-explain.obj
 0001:0015fb02       ?palm_explain_PalmProblem@@YAPAVExplanation@@PAVPalmProblem@@@Z 00560b02 f   palm:p-explain.obj
 0001:0015fcc0       ?claire_self_print_PalmAC4BinConstraint_palm@@YAHPAVPalmAC4BinConstraint@@@Z 00560cc0 f   palm:p-ac4.obj
 0001:0015fd73       ?palm_makeAC4constraint_PalmIntVar@@YAPAVPalmAC4BinConstraint@@PAVPalmIntVar@@0PAVClaireBoolean@@PAVlist@@@Z 00560d73 f   palm:p-ac4.obj
 0001:001605ee       ?choco_testIfSatisfied_PalmAC4BinConstraint@@YAPAVClaireBoolean@@PAVPalmAC4BinConstraint@@@Z 005615ee f   palm:p-ac4.obj
 0001:0016081c       ?choco_awake_PalmAC4BinConstraint_palm@@YAXPAVPalmAC4BinConstraint@@@Z 0056181c f   palm:p-ac4.obj
 0001:00161088       ?choco_propagate_PalmAC4BinConstraint@@YAXPAVPalmAC4BinConstraint@@@Z 00562088 f   palm:p-ac4.obj
 0001:00161597       ?choco_awakeOnRem_PalmAC4BinConstraint@@YAXPAVPalmAC4BinConstraint@@HH@Z 00562597 f   palm:p-ac4.obj
 0001:00161b2b       ?palm_awakeOnRestoreVal_PalmAC4BinConstraint@@YAXPAVPalmAC4BinConstraint@@HH@Z 00562b2b f   palm:p-ac4.obj
 0001:00161ebc       ?palm_updateDataStructuresOnConstraint_PalmAC4BinConstraint_palm@@YAXPAVPalmAC4BinConstraint@@HHHH@Z 00562ebc f   palm:p-ac4.obj
 0001:00162033       ?palm_updateDataStructuresOnRestoreConstraint_PalmAC4BinConstraint_palm@@YAXPAVPalmAC4BinConstraint@@HHHH@Z 00563033 f   palm:p-ac4.obj
 0001:001621aa       ?choco_awakeOnInf_PalmAC4BinConstraint@@YAXPAVPalmAC4BinConstraint@@H@Z 005631aa f   palm:p-ac4.obj
 0001:001621af       ?choco_awakeOnSup_PalmAC4BinConstraint@@YAXPAVPalmAC4BinConstraint@@H@Z 005631af f   palm:p-ac4.obj
 0001:001621b4       ?choco_awakeOnInst_PalmAC4BinConstraint@@YAXPAVPalmAC4BinConstraint@@H@Z 005631b4 f   palm:p-ac4.obj
 0001:001621b9       ?choco_askIfEntailed_PalmAC4BinConstraint@@YAHPAVPalmAC4BinConstraint@@@Z 005631b9 f   palm:p-ac4.obj
 0001:001621c3       ?choco_testIfCompletelyInstantiated_PalmAC4BinConstraint@@YAPAVClaireBoolean@@PAVPalmAC4BinConstraint@@@Z 005631c3 f   palm:p-ac4.obj
 0001:001621cd       ?palm_checkPalm_PalmAC4BinConstraint@@YAPAVClaireBoolean@@PAVPalmAC4BinConstraint@@@Z 005631cd f   palm:p-ac4.obj
 0001:001621e0       ?claire_self_print_PalmCompleteAllDiff_palm@@YAHPAVPalmCompleteAllDiff@@@Z 005631e0 f   palm:p-symbolic.obj
 0001:0016236d       ?claire_e_dashallDifferent_list@@YAPAVPalmCompleteAllDiff@@PAVlist@@@Z 0056336d f   palm:p-symbolic.obj
 0001:0016237e       ?claire_e_dashcompleteAllDiff_list@@YAPAVPalmCompleteAllDiff@@PAVlist@@@Z 0056337e f   palm:p-symbolic.obj
 0001:001625ff       ?choco_deleteEdgeAndPublish_PalmCompleteAllDiff@@YAXPAVPalmCompleteAllDiff@@HH@Z 005635ff f   palm:p-symbolic.obj
 0001:00162f7a       ?palm_updateDataStructuresOnConstraint_PalmCompleteAllDiff_palm@@YAXPAVPalmCompleteAllDiff@@HHHH@Z 00563f7a f   palm:p-symbolic.obj
 0001:001632a8       ?palm_updateDataStructuresOnRestoreConstraint_PalmCompleteAllDiff_palm@@YAXPAVPalmCompleteAllDiff@@HHHH@Z 005642a8 f   palm:p-symbolic.obj
 0001:001632ff       ?choco_awakeOnRem_PalmCompleteAllDiff@@YAXPAVPalmCompleteAllDiff@@HH@Z 005642ff f   palm:p-symbolic.obj
 0001:00163304       ?palm_awakeOnRestoreVal_PalmCompleteAllDiff@@YAXPAVPalmCompleteAllDiff@@HH@Z 00564304 f   palm:p-symbolic.obj
 0001:00163309       ?choco_awake_PalmCompleteAllDiff_palm@@YAXPAVPalmCompleteAllDiff@@@Z 00564309 f   palm:p-symbolic.obj
 0001:0016331a       ?palm_checkPalm_PalmCompleteAllDiff@@YAPAVClaireBoolean@@PAVPalmCompleteAllDiff@@@Z 0056431a f   palm:p-symbolic.obj
 0001:00163324       ?claire_self_print_PalmPermutation_palm@@YAHPAVPalmPermutation@@@Z 00564324 f   palm:p-symbolic.obj
 0001:00163532       ?claire_e_dashpermutation_list@@YAPAVPalmPermutation@@PAVlist@@0@Z 00564532 f   palm:p-symbolic.obj
 0001:001637de       ?choco_deleteEdgeAndPublish_PalmPermutation@@YAXPAVPalmPermutation@@HH@Z 005647de f   palm:p-symbolic.obj
 0001:00163d60       ?palm_publishDeletion_PalmPermutation@@YAHPAVPalmPermutation@@HHPAVClaireBoolean@@@Z 00564d60 f   palm:p-symbolic.obj
 0001:00163f90       ?palm_updateDataStructuresOnConstraint_PalmPermutation_palm@@YAXPAVPalmPermutation@@HHHH@Z 00564f90 f   palm:p-symbolic.obj
 0001:001645aa       ?palm_updateDataStructuresOnRestoreConstraint_PalmPermutation_palm@@YAXPAVPalmPermutation@@HHHH@Z 005655aa f   palm:p-symbolic.obj
 0001:0016463a       ?choco_awakeOnRem_PalmPermutation@@YAXPAVPalmPermutation@@HH@Z 0056563a f   palm:p-symbolic.obj
 0001:00164696       ?palm_awakeOnRestoreVal_PalmPermutation@@YAXPAVPalmPermutation@@HH@Z 00565696 f   palm:p-symbolic.obj
 0001:0016469b       ?choco_awake_PalmPermutation_palm@@YAXPAVPalmPermutation@@@Z 0056569b f   palm:p-symbolic.obj
 0001:00164bcb       ?palm_checkPalm_PalmPermutation@@YAPAVClaireBoolean@@PAVPalmPermutation@@@Z 00565bcb f   palm:p-symbolic.obj
 0001:00164bd5       ?claire_self_print_PalmGlobalCardinality_palm@@YAHPAVPalmGlobalCardinality@@@Z 00565bd5 f   palm:p-symbolic.obj
 0001:00164dba       ?palm_e_dashgcc_list1@@YAPAVPalmGlobalCardinality@@PAVlist@@0@Z 00565dba f   palm:p-symbolic.obj
 0001:00164dd8       ?palm_e_dashgcc_list2@@YAPAVPalmGlobalCardinality@@PAVlist@@HH0@Z 00565dd8 f   palm:p-symbolic.obj
 0001:00165085       ?choco_deleteEdgeAndPublish_PalmGlobalCardinality@@YAXPAVPalmGlobalCardinality@@HH@Z 00566085 f   palm:p-symbolic.obj
 0001:00165689       ?palm_updateDataStructuresOnConstraint_PalmGlobalCardinality_palm@@YAXPAVPalmGlobalCardinality@@HHHH@Z 00566689 f   palm:p-symbolic.obj
 0001:00165a13       ?palm_updateDataStructuresOnRestoreConstraint_PalmGlobalCardinality_palm@@YAXPAVPalmGlobalCardinality@@HHHH@Z 00566a13 f   palm:p-symbolic.obj
 0001:00165a6a       ?choco_awakeOnRem_PalmGlobalCardinality@@YAXPAVPalmGlobalCardinality@@HH@Z 00566a6a f   palm:p-symbolic.obj
 0001:00165a6f       ?palm_awakeOnRestoreVal_PalmGlobalCardinality@@YAXPAVPalmGlobalCardinality@@HH@Z 00566a6f f   palm:p-symbolic.obj
 0001:00165a74       ?choco_awake_PalmGlobalCardinality_palm@@YAXPAVPalmGlobalCardinality@@@Z 00566a74 f   palm:p-symbolic.obj
 0001:00165c61       ?palm_checkPalm_PalmGlobalCardinality@@YAPAVClaireBoolean@@PAVPalmGlobalCardinality@@@Z 00566c61 f   palm:p-symbolic.obj
 0001:00165c6b       ?claire_self_print_PalmGlobalCardinalityVar_palm@@YAHPAVPalmGlobalCardinalityVar@@@Z 00566c6b f   palm:p-symbolic.obj
 0001:00165e79       ?palm_e_dashgcc_list3@@YAPAVPalmGlobalCardinalityVar@@PAVlist@@0@Z 00566e79 f   palm:p-symbolic.obj
 0001:00165e97       ?palm_e_dashgcc_list4@@YAPAVPalmGlobalCardinalityVar@@PAVlist@@HH0@Z 00566e97 f   palm:p-symbolic.obj
 0001:0016616a       ?palm_mustDiminishFlowFromSource_PalmGlobalCardinalityVar@@YAPAVClaireBoolean@@PAVPalmGlobalCardinalityVar@@H@Z 0056716a f   palm:p-symbolic.obj
 0001:00166191       ?palm_updateDataStructuresOnConstraint_PalmGlobalCardinalityVar_palm@@YAXPAVPalmGlobalCardinalityVar@@HHHH@Z 00567191 f   palm:p-symbolic.obj
 0001:001666a5       ?palm_updateDataStructuresOnRestoreConstraint_PalmGlobalCardinalityVar_palm@@YAXPAVPalmGlobalCardinalityVar@@HHHH@Z 005676a5 f   palm:p-symbolic.obj
 0001:00166810       ?choco_awakeOnRem_PalmGlobalCardinalityVar@@YAXPAVPalmGlobalCardinalityVar@@HH@Z 00567810 f   palm:p-symbolic.obj
 0001:00166815       ?palm_awakeOnRestoreVal_PalmGlobalCardinalityVar@@YAXPAVPalmGlobalCardinalityVar@@HH@Z 00567815 f   palm:p-symbolic.obj
 0001:0016681a       ?choco_awake_PalmGlobalCardinalityVar_palm@@YAXPAVPalmGlobalCardinalityVar@@@Z 0056781a f   palm:p-symbolic.obj
 0001:00166a04       ?choco_propagate_PalmGlobalCardinalityVar@@YAXPAVPalmGlobalCardinalityVar@@@Z 00567a04 f   palm:p-symbolic.obj
 0001:00166d6d       ?palm_checkPalm_PalmGlobalCardinalityVar@@YAPAVClaireBoolean@@PAVPalmGlobalCardinalityVar@@@Z 00567d6d f   palm:p-symbolic.obj
 0001:00166d77       ?ice_augmentFlow_PalmCompleteAllDiff_palm@@YAXPAVPalmCompleteAllDiff@@@Z 00567d77 f   palm:p-symbolic.obj
 0001:00166fbf       ?ice_augmentFlow_PalmPermutation_palm@@YAXPAVPalmPermutation@@@Z 00567fbf f   palm:p-symbolic.obj
 0001:00167207       ?ice_augmentFlow_PalmGlobalCardinality_palm@@YAXPAVPalmGlobalCardinality@@@Z 00568207 f   palm:p-symbolic.obj
 0001:0016744f       ?palm_removeUselessEdges_PalmCompleteAllDiff@@YAXPAVPalmCompleteAllDiff@@@Z 0056844f f   palm:p-symbolic.obj
 0001:0016787f       ?palm_removeUselessEdges_PalmPermutation@@YAXPAVPalmPermutation@@@Z 0056887f f   palm:p-symbolic.obj
 0001:00167caf       ?palm_removeUselessEdges_PalmGlobalCardinality@@YAXPAVPalmGlobalCardinality@@@Z 00568caf f   palm:p-symbolic.obj
 0001:001680df       ?palm_checkNbPossible_PalmOccurrence@@YAXPAVPalmOccurrence@@@Z 005690df f   palm:p-symbolic.obj
 0001:0016840e       ?palm_checkNbSure_PalmOccurrence@@YAXPAVPalmOccurrence@@@Z 0056940e f   palm:p-symbolic.obj
 0001:0016878b       ?palm_updateDataStructuresOnConstraint_PalmOccurrence_palm@@YAXPAVPalmOccurrence@@HHHH@Z 0056978b f   palm:p-symbolic.obj
 0001:00169670       ?palm_updateDataStructuresOnRestoreConstraint_PalmOccurrence_palm@@YAHPAVPalmOccurrence@@HHHH@Z 0056a670 f   palm:p-symbolic.obj
 0001:0016a8d5       ?choco_awakeOnInf_PalmOccurrence@@YAXPAVPalmOccurrence@@H@Z 0056b8d5 f   palm:p-symbolic.obj
 0001:0016ac46       ?choco_awakeOnSup_PalmOccurrence@@YAXPAVPalmOccurrence@@H@Z 0056bc46 f   palm:p-symbolic.obj
 0001:0016afb7       ?choco_awakeOnRem_PalmOccurrence@@YAXPAVPalmOccurrence@@HH@Z 0056bfb7 f   palm:p-symbolic.obj
 0001:0016b060       ?palm_awakeOnRestoreInf_PalmOccurrence@@YAXPAVPalmOccurrence@@H@Z 0056c060 f   palm:p-symbolic.obj
 0001:0016b071       ?palm_awakeOnRestoreSup_PalmOccurrence@@YAXPAVPalmOccurrence@@H@Z 0056c071 f   palm:p-symbolic.obj
 0001:0016b082       ?palm_awakeOnRestoreVal_PalmOccurrence@@YAXPAVPalmOccurrence@@HH@Z 0056c082 f   palm:p-symbolic.obj
 0001:0016b093       ?choco_awake_PalmOccurrence_palm@@YAXPAVPalmOccurrence@@@Z 0056c093 f   palm:p-symbolic.obj
 0001:0016b2a9       ?choco_testIfSatisfied_PalmOccurrence@@YAPAVClaireBoolean@@PAVPalmOccurrence@@@Z 0056c2a9 f   palm:p-symbolic.obj
 0001:0016b2b3       ?choco_askIfEntailed_PalmOccurrence@@YAHPAVPalmOccurrence@@@Z 0056c2b3 f   palm:p-symbolic.obj
 0001:0016b5e8       ?palm_checkPalm_PalmOccurrence@@YAPAVClaireBoolean@@PAVPalmOccurrence@@@Z 0056c5e8 f   palm:p-symbolic.obj
 0001:0016b5f2       ?palm_makePalmEltConstraint_list@@YAPAVPalmElt@@PAVlist@@PAVPalmIntVar@@1H@Z 0056c5f2 f   palm:p-symbolic.obj
 0001:0016b76c       ?palm_updateValueFromIndex_PalmElt@@YAXPAVPalmElt@@@Z 0056c76c f   palm:p-symbolic.obj
 0001:0016c7a0       ?palm_updateIndexFromValue_PalmElt@@YAXPAVPalmElt@@@Z 0056d7a0 f   palm:p-symbolic.obj
 0001:0016cc4d       ?choco_awake_PalmElt_palm@@YAXPAVPalmElt@@@Z 0056dc4d f   palm:p-symbolic.obj
 0001:0016ce5c       ?choco_propagate_PalmElt@@YAXPAVPalmElt@@@Z 0056de5c f   palm:p-symbolic.obj
 0001:0016ce79       ?choco_awakeOnInf_PalmElt@@YAXPAVPalmElt@@H@Z 0056de79 f   palm:p-symbolic.obj
 0001:0016ce9e       ?choco_awakeOnSup_PalmElt@@YAXPAVPalmElt@@H@Z 0056de9e f   palm:p-symbolic.obj
 0001:0016cec3       ?choco_awakeOnInst_PalmElt@@YAXPAVPalmElt@@H@Z 0056dec3 f   palm:p-symbolic.obj
 0001:0016cff1       ?choco_awakeOnRem_PalmElt@@YAXPAVPalmElt@@HH@Z 0056dff1 f   palm:p-symbolic.obj
 0001:0016d016       ?palm_awakeOnRestore_PalmElt@@YAXPAVPalmElt@@H@Z 0056e016 f   palm:p-symbolic.obj
 0001:0016d214       ?palm_awakeOnRestoreInf_PalmElt@@YAXPAVPalmElt@@H@Z 0056e214 f   palm:p-symbolic.obj
 0001:0016d229       ?palm_awakeOnRestoreSup_PalmElt@@YAXPAVPalmElt@@H@Z 0056e229 f   palm:p-symbolic.obj
 0001:0016d23e       ?palm_awakeOnRestoreVal_PalmElt@@YAXPAVPalmElt@@HH@Z 0056e23e f   palm:p-symbolic.obj
 0001:0016d253       ?choco_askIfEntailed_PalmElt@@YAHPAVPalmElt@@@Z 0056e253 f   palm:p-symbolic.obj
 0001:0016d9ff       ?choco_testIfSatisfied_PalmElt@@YAPAVClaireBoolean@@PAVPalmElt@@@Z 0056e9ff f   palm:p-symbolic.obj
 0001:0016da34       ?palm_whyTrueOrFalse_PalmElt@@YAPAVset@@PAVPalmElt@@@Z 0056ea34 f   palm:p-symbolic.obj
 0001:0016db82       ?palm_whyIsFalse_PalmElt@@YAPAVset@@PAVPalmElt@@@Z 0056eb82 f   palm:p-symbolic.obj
 0001:0016db93       ?palm_whyIsTrue_PalmElt@@YAPAVset@@PAVPalmElt@@@Z 0056eb93 f   palm:p-symbolic.obj
 0001:0016dba4       ?palm_checkPalm_PalmElt@@YAPAVClaireBoolean@@PAVPalmElt@@@Z 0056eba4 f   palm:p-symbolic.obj
 0001:0016dbb0       ?claire_self_print_PalmControlConstraint_palm@@YAHPAVPalmControlConstraint@@@Z 0056ebb0 f   palm:p-constraints.obj
 0001:0016dcef       ?palm_addDependency_AbstractConstraint@@YAXPAVAbstractConstraint@@PAVExplanation@@@Z 0056ecef f   palm:p-constraints.obj
 0001:0016de09       ?palm_removeDependency_AbstractConstraint@@YAXPAVAbstractConstraint@@PAVExplanation@@@Z 0056ee09 f   palm:p-constraints.obj
 0001:0016df23       ?palm_undo_AbstractConstraint@@YAXPAVAbstractConstraint@@@Z 0056ef23 f   palm:p-constraints.obj
 0001:0016e0c0       ?palm_indirect_ask_AbstractConstraint@@YAPAVClaireBoolean@@PAVAbstractConstraint@@@Z 0056f0c0 f   palm:p-constraints.obj
 0001:0016e11b       ?palm_setIndirect_AbstractConstraint@@YAXPAVAbstractConstraint@@PAVExplanation@@@Z 0056f11b f   palm:p-constraints.obj
 0001:0016e15c       ?palm_setDirect_AbstractConstraint@@YAXPAVAbstractConstraint@@@Z 0056f15c f   palm:p-constraints.obj
 0001:0016e1a7       ?palm_setIndirectDependance_AbstractConstraint@@YAXPAVAbstractConstraint@@PAVExplanation@@@Z 0056f1a7 f   palm:p-constraints.obj
 0001:0016e342       ?palm_removeIndirectDependance_AbstractConstraint@@YAXPAVAbstractConstraint@@@Z 0056f342 f   palm:p-constraints.obj
 0001:0016e4e8       ?palm_informControllersOfDeactivation_AbstractConstraint@@YAXPAVAbstractConstraint@@@Z 0056f4e8 f   palm:p-constraints.obj
 0001:0016e68f       ?palm_weight_AbstractConstraint@@YAHPAVAbstractConstraint@@@Z 0056f68f f   palm:p-constraints.obj
 0001:0016e787       ?palm_self_explain_AbstractConstraint@@YAXPAVAbstractConstraint@@PAVExplanation@@@Z 0056f787 f   palm:p-constraints.obj
 0001:0016e946       ?palm_activate_AbstractConstraint@@YAXPAVAbstractConstraint@@@Z 0056f946 f   palm:p-constraints.obj
 0001:0016e987       ?palm_deactivate_AbstractConstraint@@YAXPAVAbstractConstraint@@@Z 0056f987 f   palm:p-constraints.obj
 0001:0016eac5       ?palm_initHook_AbstractConstraint@@YAXPAVAbstractConstraint@@@Z 0056fac5 f   palm:p-constraints.obj
 0001:0016ebdc       ?palm_addControl_AbstractConstraint@@YAXPAVAbstractConstraint@@0H@Z 0056fbdc f   palm:p-constraints.obj
 0001:0016ed2b       ?choco_connectIntVarEvents_PalmIntVar_palm@@YAXPAVPalmIntVar@@PAVClaireBoolean@@111@Z 0056fd2b f   palm:p-constraints.obj
 0001:0016ef4b       ?choco_disconnectIntVarEvents_PalmIntVar_palm@@YAXPAVPalmIntVar@@HPAVClaireBoolean@@111@Z 0056ff4b f   palm:p-constraints.obj
 0001:0016f10d       ?choco_reconnectIntVarEvents_PalmIntVar_palm@@YAXPAVPalmIntVar@@HPAVClaireBoolean@@111@Z 0057010d f   palm:p-constraints.obj
 0001:0016f2cf       ?choco_connectHook_PalmInfoConstraint_palm@@YAXPAVPalmInfoConstraint@@PAVAbstractConstraint@@@Z 005702cf f   palm:p-constraints.obj
 0001:0016f2fb       ?choco_disconnectHook_PalmInfoConstraint_palm@@YAXPAVPalmInfoConstraint@@PAVAbstractConstraint@@@Z 005702fb f   palm:p-constraints.obj
 0001:0016f30c       ?choco_reconnectHook_PalmInfoConstraint_palm@@YAXPAVPalmInfoConstraint@@PAVAbstractConstraint@@@Z 0057030c f   palm:p-constraints.obj
 0001:0016f31d       ?palm_awakeOnRestoreInf_AbstractConstraint@@YAXPAVAbstractConstraint@@H@Z 0057031d f   palm:p-constraints.obj
 0001:0016f37c       ?palm_awakeOnRestoreSup_AbstractConstraint@@YAXPAVAbstractConstraint@@H@Z 0057037c f   palm:p-constraints.obj
 0001:0016f3db       ?palm_awakeOnRestoreVal_AbstractConstraint@@YAXPAVAbstractConstraint@@HH@Z 005703db f   palm:p-constraints.obj
 0001:0016f43a       ?palm_whyIsTrue_AbstractConstraint@@YAPAVset@@PAVAbstractConstraint@@@Z 0057043a f   palm:p-constraints.obj
 0001:0016f499       ?palm_whyIsFalse_AbstractConstraint@@YAPAVset@@PAVAbstractConstraint@@@Z 00570499 f   palm:p-constraints.obj
 0001:0016f4f8       ?palm_makePalmUnIntConstraint_class@@YAPAVPalmUnIntConstraint@@PAVClaireClass@@PAVPalmIntVar@@H@Z 005704f8 f   palm:p-constraints.obj
 0001:0016f6dd       ?palm_awakeOnRestoreInf_PalmUnIntConstraint@@YAXPAVPalmUnIntConstraint@@H@Z 005706dd f   palm:p-constraints.obj
 0001:0016f6f1       ?palm_awakeOnRestoreSup_PalmUnIntConstraint@@YAXPAVPalmUnIntConstraint@@H@Z 005706f1 f   palm:p-constraints.obj
 0001:0016f705       ?palm_makePalmBinIntConstraint_class@@YAPAVPalmBinIntConstraint@@PAVClaireClass@@PAVPalmIntVar@@1H@Z 00570705 f   palm:p-constraints.obj
 0001:0016f948       ?palm_awakeOnRestoreInf_PalmBinIntConstraint@@YAXPAVPalmBinIntConstraint@@H@Z 00570948 f   palm:p-constraints.obj
 0001:0016f95c       ?palm_awakeOnRestoreSup_PalmBinIntConstraint@@YAXPAVPalmBinIntConstraint@@H@Z 0057095c f   palm:p-constraints.obj
 0001:0016f970       ?palm_makePalmLargeIntConstraint_class@@YAPAVPalmLargeIntConstraint@@PAVClaireClass@@PAVlist@@H@Z 00570970 f   palm:p-constraints.obj
 0001:0016fb49       ?claire_self_print_PalmGreaterOrEqualxc_palm@@YAHPAVPalmGreaterOrEqualxc@@@Z 00570b49 f   palm:p-constraints.obj
 0001:0016fb8e       ?choco_propagate_PalmGreaterOrEqualxc@@YAXPAVPalmGreaterOrEqualxc@@@Z 00570b8e f   palm:p-constraints.obj
 0001:0016fcf0       ?choco_awakeOnInf_PalmGreaterOrEqualxc@@YAXPAVPalmGreaterOrEqualxc@@H@Z 00570cf0 f   palm:p-constraints.obj
 0001:0016fcf5       ?choco_awakeOnSup_PalmGreaterOrEqualxc@@YAXPAVPalmGreaterOrEqualxc@@H@Z 00570cf5 f   palm:p-constraints.obj
 0001:0016fcfa       ?palm_awakeOnRestoreVal_PalmGreaterOrEqualxc@@YAXPAVPalmGreaterOrEqualxc@@HH@Z 00570cfa f   palm:p-constraints.obj
 0001:0016fe6d       ?choco_awakeOnInst_PalmGreaterOrEqualxc@@YAXPAVPalmGreaterOrEqualxc@@H@Z 00570e6d f   palm:p-constraints.obj
 0001:0016fe72       ?choco_awakeOnRem_PalmGreaterOrEqualxc@@YAXPAVPalmGreaterOrEqualxc@@HH@Z 00570e72 f   palm:p-constraints.obj
 0001:0016fe77       ?choco_askIfEntailed_PalmGreaterOrEqualxc@@YAHPAVPalmGreaterOrEqualxc@@@Z 00570e77 f   palm:p-constraints.obj
 0001:0016ffbc       ?choco_testIfSatisfied_PalmGreaterOrEqualxc@@YAPAVClaireBoolean@@PAVPalmGreaterOrEqualxc@@@Z 00570fbc f   palm:p-constraints.obj
 0001:0016ffc6       ?choco_testIfCompletelyInstantiated_PalmGreaterOrEqualxc@@YAPAVClaireBoolean@@PAVPalmGreaterOrEqualxc@@@Z 00570fc6 f   palm:p-constraints.obj
 0001:0016ffd0       ?palm_whyIsFalse_PalmGreaterOrEqualxc@@YAPAVset@@PAVPalmGreaterOrEqualxc@@@Z 00570fd0 f   palm:p-constraints.obj
 0001:00170100       ?palm_whyIsTrue_PalmGreaterOrEqualxc@@YAPAVset@@PAVPalmGreaterOrEqualxc@@@Z 00571100 f   palm:p-constraints.obj
 0001:00170230       ?palm_checkPalm_PalmGreaterOrEqualxc@@YAPAVClaireBoolean@@PAVPalmGreaterOrEqualxc@@@Z 00571230 f   palm:p-constraints.obj
 0001:0017023a       ?claire_self_print_PalmLessOrEqualxc_palm@@YAHPAVPalmLessOrEqualxc@@@Z 0057123a f   palm:p-constraints.obj
 0001:0017027f       ?choco_propagate_PalmLessOrEqualxc@@YAXPAVPalmLessOrEqualxc@@@Z 0057127f f   palm:p-constraints.obj
 0001:001703e1       ?choco_awakeOnInf_PalmLessOrEqualxc@@YAXPAVPalmLessOrEqualxc@@H@Z 005713e1 f   palm:p-constraints.obj
 0001:001703e6       ?choco_awakeOnSup_PalmLessOrEqualxc@@YAXPAVPalmLessOrEqualxc@@H@Z 005713e6 f   palm:p-constraints.obj
 0001:001703eb       ?palm_awakeOnRestoreVal_PalmLessOrEqualxc@@YAXPAVPalmLessOrEqualxc@@HH@Z 005713eb f   palm:p-constraints.obj
 0001:0017055e       ?palm_whyIsFalse_PalmLessOrEqualxc@@YAPAVset@@PAVPalmLessOrEqualxc@@@Z 0057155e f   palm:p-constraints.obj
 0001:0017068e       ?palm_whyIsTrue_PalmLessOrEqualxc@@YAPAVset@@PAVPalmLessOrEqualxc@@@Z 0057168e f   palm:p-constraints.obj
 0001:001707be       ?choco_awakeOnInst_PalmLessOrEqualxc@@YAXPAVPalmLessOrEqualxc@@H@Z 005717be f   palm:p-constraints.obj
 0001:001707c3       ?choco_awakeOnRem_PalmLessOrEqualxc@@YAXPAVPalmLessOrEqualxc@@HH@Z 005717c3 f   palm:p-constraints.obj
 0001:001707c8       ?choco_askIfEntailed_PalmLessOrEqualxc@@YAHPAVPalmLessOrEqualxc@@@Z 005717c8 f   palm:p-constraints.obj
 0001:0017090d       ?choco_testIfSatisfied_PalmLessOrEqualxc@@YAPAVClaireBoolean@@PAVPalmLessOrEqualxc@@@Z 0057190d f   palm:p-constraints.obj
 0001:00170917       ?choco_testIfCompletelyInstantiated_PalmLessOrEqualxc@@YAPAVClaireBoolean@@PAVPalmLessOrEqualxc@@@Z 00571917 f   palm:p-constraints.obj
 0001:00170921       ?palm_checkPalm_PalmLessOrEqualxc@@YAPAVClaireBoolean@@PAVPalmLessOrEqualxc@@@Z 00571921 f   palm:p-constraints.obj
 0001:0017092b       ?claire_self_print_PalmNotEqualxc_palm@@YAHPAVPalmNotEqualxc@@@Z 0057192b f   palm:p-constraints.obj
 0001:00170970       ?choco_propagate_PalmNotEqualxc@@YAXPAVPalmNotEqualxc@@@Z 00571970 f   palm:p-constraints.obj
 0001:00170c98       ?choco_awakeOnInf_PalmNotEqualxc@@YAXPAVPalmNotEqualxc@@H@Z 00571c98 f   palm:p-constraints.obj
 0001:00170e3d       ?choco_awakeOnSup_PalmNotEqualxc@@YAXPAVPalmNotEqualxc@@H@Z 00571e3d f   palm:p-constraints.obj
 0001:00170fb3       ?palm_awakeOnRestoreInf_PalmNotEqualxc@@YAXPAVPalmNotEqualxc@@H@Z 00571fb3 f   palm:p-constraints.obj
 0001:00170fc8       ?palm_awakeOnRestoreSup_PalmNotEqualxc@@YAXPAVPalmNotEqualxc@@H@Z 00571fc8 f   palm:p-constraints.obj
 0001:00170fdd       ?palm_awakeOnRestoreVal_PalmNotEqualxc@@YAXPAVPalmNotEqualxc@@HH@Z 00571fdd f   palm:p-constraints.obj
 0001:00171163       ?choco_awakeOnInst_PalmNotEqualxc@@YAXPAVPalmNotEqualxc@@H@Z 00572163 f   palm:p-constraints.obj
 0001:00171168       ?choco_awakeOnRem_PalmNotEqualxc@@YAXPAVPalmNotEqualxc@@HH@Z 00572168 f   palm:p-constraints.obj
 0001:0017116d       ?choco_askIfEntailed_PalmNotEqualxc@@YAHPAVPalmNotEqualxc@@@Z 0057216d f   palm:p-constraints.obj
 0001:001712f5       ?choco_testIfSatisfied_PalmNotEqualxc@@YAPAVClaireBoolean@@PAVPalmNotEqualxc@@@Z 005722f5 f   palm:p-constraints.obj
 0001:001712ff       ?choco_testIfCompletelyInstantiated_PalmNotEqualxc@@YAPAVClaireBoolean@@PAVPalmNotEqualxc@@@Z 005722ff f   palm:p-constraints.obj
 0001:00171309       ?palm_whyIsTrue_PalmNotEqualxc@@YAPAVset@@PAVPalmNotEqualxc@@@Z 00572309 f   palm:p-constraints.obj
 0001:00171440       ?palm_whyIsFalse_PalmNotEqualxc@@YAPAVset@@PAVPalmNotEqualxc@@@Z 00572440 f   palm:p-constraints.obj
 0001:00171570       ?palm_checkPalm_PalmNotEqualxc@@YAPAVClaireBoolean@@PAVPalmNotEqualxc@@@Z 00572570 f   palm:p-constraints.obj
 0001:0017157a       ?claire_self_print_PalmEqualxc_palm@@YAHPAVPalmEqualxc@@@Z 0057257a f   palm:p-constraints.obj
 0001:001715bf       ?choco_propagate_PalmEqualxc@@YAXPAVPalmEqualxc@@@Z 005725bf f   palm:p-constraints.obj
 0001:001717a7       ?choco_propagate_AssignmentConstraint@@YAXPAVAssignmentConstraint@@@Z 005727a7 f   palm:p-constraints.obj
 0001:001717b8       ?choco_awakeOnInf_PalmEqualxc@@YAXPAVPalmEqualxc@@H@Z 005727b8 f   palm:p-constraints.obj
 0001:001717bd       ?choco_awakeOnSup_PalmEqualxc@@YAXPAVPalmEqualxc@@H@Z 005727bd f   palm:p-constraints.obj
 0001:001717c2       ?choco_awakeOnInf_AssignmentConstraint@@YAXPAVAssignmentConstraint@@H@Z 005727c2 f   palm:p-constraints.obj
 0001:001717c7       ?choco_awakeOnSup_AssignmentConstraint@@YAXPAVAssignmentConstraint@@H@Z 005727c7 f   palm:p-constraints.obj
 0001:001717cc       ?choco_awakeOnRem_PalmEqualxc@@YAXPAVPalmEqualxc@@HH@Z 005727cc f   palm:p-constraints.obj
 0001:001717d1       ?choco_awakeOnRem_AssignmentConstraint@@YAXPAVAssignmentConstraint@@HH@Z 005727d1 f   palm:p-constraints.obj
 0001:001717d6       ?palm_awakeOnRestoreVal_PalmEqualxc@@YAXPAVPalmEqualxc@@HH@Z 005727d6 f   palm:p-constraints.obj
 0001:00171949       ?choco_awakeOnInst_PalmEqualxc@@YAXPAVPalmEqualxc@@H@Z 00572949 f   palm:p-constraints.obj
 0001:0017194e       ?choco_askIfEntailed_PalmEqualxc@@YAHPAVPalmEqualxc@@@Z 0057294e f   palm:p-constraints.obj
 0001:00171ad6       ?choco_testIfSatisfied_PalmEqualxc@@YAPAVClaireBoolean@@PAVPalmEqualxc@@@Z 00572ad6 f   palm:p-constraints.obj
 0001:00171ae0       ?choco_testIfCompletelyInstantiated_PalmEqualxc@@YAPAVClaireBoolean@@PAVPalmEqualxc@@@Z 00572ae0 f   palm:p-constraints.obj
 0001:00171aea       ?palm_whyIsTrue_PalmEqualxc@@YAPAVset@@PAVPalmEqualxc@@@Z 00572aea f   palm:p-constraints.obj
 0001:00171c1a       ?palm_whyIsFalse_PalmEqualxc@@YAPAVset@@PAVPalmEqualxc@@@Z 00572c1a f   palm:p-constraints.obj
 0001:00171d51       ?palm_checkPalm_PalmEqualxc@@YAPAVClaireBoolean@@PAVPalmEqualxc@@@Z 00572d51 f   palm:p-constraints.obj
 0001:00171d5b       ?palm_checkPalm_AssignmentConstraint@@YAPAVClaireBoolean@@PAVAssignmentConstraint@@@Z 00572d5b f   palm:p-constraints.obj
 0001:00171d65       ?claire_self_print_PalmNotEqualxyc_palm@@YAHPAVPalmNotEqualxyc@@@Z 00572d65 f   palm:p-constraints.obj
 0001:00171dc9       ?choco_propagate_PalmNotEqualxyc@@YAXPAVPalmNotEqualxyc@@@Z 00572dc9 f   palm:p-constraints.obj
 0001:00172560       ?choco_awakeOnInf_PalmNotEqualxyc@@YAXPAVPalmNotEqualxyc@@H@Z 00573560 f   palm:p-constraints.obj
 0001:00172920       ?choco_awakeOnSup_PalmNotEqualxyc@@YAXPAVPalmNotEqualxyc@@H@Z 00573920 f   palm:p-constraints.obj
 0001:00172935       ?palm_awakeOnRestoreInf_PalmNotEqualxyc@@YAXPAVPalmNotEqualxyc@@H@Z 00573935 f   palm:p-constraints.obj
 0001:0017294a       ?palm_awakeOnRestoreSup_PalmNotEqualxyc@@YAXPAVPalmNotEqualxyc@@H@Z 0057394a f   palm:p-constraints.obj
 0001:0017295f       ?choco_awakeOnRem_PalmNotEqualxyc@@YAXPAVPalmNotEqualxyc@@HH@Z 0057395f f   palm:p-constraints.obj
 0001:00172bbf       ?palm_awakeOnRestoreVal_PalmNotEqualxyc@@YAXPAVPalmNotEqualxyc@@HH@Z 00573bbf f   palm:p-constraints.obj
 0001:00172e1f       ?choco_awakeOnInst_PalmNotEqualxyc@@YAXPAVPalmNotEqualxyc@@H@Z 00573e1f f   palm:p-constraints.obj
 0001:00172e24       ?choco_askIfEntailed_PalmNotEqualxyc@@YAHPAVPalmNotEqualxyc@@@Z 00573e24 f   palm:p-constraints.obj
 0001:001731be       ?choco_testIfSatisfied_PalmNotEqualxyc@@YAPAVClaireBoolean@@PAVPalmNotEqualxyc@@@Z 005741be f   palm:p-constraints.obj
 0001:001731c8       ?choco_testIfCompletelyInstantiated_PalmNotEqualxyc@@YAPAVClaireBoolean@@PAVPalmNotEqualxyc@@@Z 005741c8 f   palm:p-constraints.obj
 0001:001731d2       ?palm_checkPalm_PalmNotEqualxyc@@YAPAVClaireBoolean@@PAVPalmNotEqualxyc@@@Z 005741d2 f   palm:p-constraints.obj
 0001:001731dc       ?claire_self_print_PalmEqualxyc_palm@@YAHPAVPalmEqualxyc@@@Z 005741dc f   palm:p-constraints.obj
 0001:00173240       ?choco_propagate_PalmEqualxyc@@YAXPAVPalmEqualxyc@@@Z 00574240 f   palm:p-constraints.obj
 0001:00173929       ?choco_awakeOnInf_PalmEqualxyc@@YAXPAVPalmEqualxyc@@H@Z 00574929 f   palm:p-constraints.obj
 0001:00173b75       ?choco_awakeOnSup_PalmEqualxyc@@YAXPAVPalmEqualxyc@@H@Z 00574b75 f   palm:p-constraints.obj
 0001:00173dc1       ?palm_awakeOnRestoreInf_PalmEqualxyc@@YAXPAVPalmEqualxyc@@H@Z 00574dc1 f   palm:p-constraints.obj
 0001:00173dea       ?palm_awakeOnRestoreSup_PalmEqualxyc@@YAXPAVPalmEqualxyc@@H@Z 00574dea f   palm:p-constraints.obj
 0001:00173e13       ?choco_awakeOnRem_PalmEqualxyc@@YAXPAVPalmEqualxyc@@HH@Z 00574e13 f   palm:p-constraints.obj
 0001:00174134       ?palm_awakeOnRestoreVal_PalmEqualxyc@@YAXPAVPalmEqualxyc@@HH@Z 00575134 f   palm:p-constraints.obj
 0001:0017444c       ?choco_awakeOnInst_PalmEqualxyc@@YAXPAVPalmEqualxyc@@H@Z 0057544c f   palm:p-constraints.obj
 0001:00174451       ?choco_askIfEntailed_PalmEqualxyc@@YAHPAVPalmEqualxyc@@@Z 00575451 f   palm:p-constraints.obj
 0001:001747eb       ?choco_testIfSatisfied_PalmEqualxyc@@YAPAVClaireBoolean@@PAVPalmEqualxyc@@@Z 005757eb f   palm:p-constraints.obj
 0001:001747f5       ?choco_testIfCompletelyInstantiated_PalmEqualxyc@@YAPAVClaireBoolean@@PAVPalmEqualxyc@@@Z 005757f5 f   palm:p-constraints.obj
 0001:001747ff       ?palm_checkPalm_PalmEqualxyc@@YAPAVClaireBoolean@@PAVPalmEqualxyc@@@Z 005757ff f   palm:p-constraints.obj
 0001:00174809       ?claire_self_print_PalmGreaterOrEqualxyc_palm@@YAHPAVPalmGreaterOrEqualxyc@@@Z 00575809 f   palm:p-constraints.obj
 0001:0017486d       ?palm_hasSupport_PalmGreaterOrEqualxyc@@YAPAVClaireBoolean@@PAVPalmGreaterOrEqualxyc@@HH@Z 0057586d f   palm:p-constraints.obj
 0001:00174b1b       ?choco_propagate_PalmGreaterOrEqualxyc@@YAXPAVPalmGreaterOrEqualxyc@@@Z 00575b1b f   palm:p-constraints.obj
 0001:00174fc9       ?choco_awakeOnInf_PalmGreaterOrEqualxyc@@YAXPAVPalmGreaterOrEqualxyc@@H@Z 00575fc9 f   palm:p-constraints.obj
 0001:00175163       ?choco_awakeOnSup_PalmGreaterOrEqualxyc@@YAXPAVPalmGreaterOrEqualxyc@@H@Z 00576163 f   palm:p-constraints.obj
 0001:001752fd       ?palm_awakeOnRestoreInf_PalmGreaterOrEqualxyc@@YAXPAVPalmGreaterOrEqualxyc@@H@Z 005762fd f   palm:p-constraints.obj
 0001:00175316       ?palm_awakeOnRestoreSup_PalmGreaterOrEqualxyc@@YAXPAVPalmGreaterOrEqualxyc@@H@Z 00576316 f   palm:p-constraints.obj
 0001:0017532f       ?choco_awakeOnRem_PalmGreaterOrEqualxyc@@YAXPAVPalmGreaterOrEqualxyc@@HH@Z 0057632f f   palm:p-constraints.obj
 0001:00175712       ?palm_awakeOnRestoreVal_PalmGreaterOrEqualxyc@@YAXPAVPalmGreaterOrEqualxyc@@HH@Z 00576712 f   palm:p-constraints.obj
 0001:00175a2f       ?palm_whyIsFalse_PalmGreaterOrEqualxyc@@YAPAVset@@PAVPalmGreaterOrEqualxyc@@@Z 00576a2f f   palm:p-constraints.obj
 0001:00175b7d       ?palm_whyIsTrue_PalmGreaterOrEqualxyc@@YAPAVset@@PAVPalmGreaterOrEqualxyc@@@Z 00576b7d f   palm:p-constraints.obj
 0001:00175ccb       ?choco_awakeOnInst_PalmGreaterOrEqualxyc@@YAXPAVPalmGreaterOrEqualxyc@@H@Z 00576ccb f   palm:p-constraints.obj
 0001:00175cd0       ?choco_askIfEntailed_PalmGreaterOrEqualxyc@@YAHPAVPalmGreaterOrEqualxyc@@@Z 00576cd0 f   palm:p-constraints.obj
 0001:00175ed1       ?choco_testIfSatisfied_PalmGreaterOrEqualxyc@@YAPAVClaireBoolean@@PAVPalmGreaterOrEqualxyc@@@Z 00576ed1 f   palm:p-constraints.obj
 0001:00175edb       ?choco_testIfCompletelyInstantiated_PalmGreaterOrEqualxyc@@YAPAVClaireBoolean@@PAVPalmGreaterOrEqualxyc@@@Z 00576edb f   palm:p-constraints.obj
 0001:00175ee5       ?palm_checkPalm_PalmGreaterOrEqualxyc@@YAPAVClaireBoolean@@PAVPalmGreaterOrEqualxyc@@@Z 00576ee5 f   palm:p-constraints.obj
 0001:00175eef       ?claire_self_print_PalmLessOrEqualxyc_palm@@YAHPAVPalmLessOrEqualxyc@@@Z 00576eef f   palm:p-constraints.obj
 0001:00175f53       ?palm_hasSupport_PalmLessOrEqualxyc@@YAPAVClaireBoolean@@PAVPalmLessOrEqualxyc@@HH@Z 00576f53 f   palm:p-constraints.obj
 0001:00176201       ?choco_propagate_PalmLessOrEqualxyc@@YAXPAVPalmLessOrEqualxyc@@@Z 00577201 f   palm:p-constraints.obj
 0001:001766ae       ?choco_awakeOnInf_PalmLessOrEqualxyc@@YAXPAVPalmLessOrEqualxyc@@H@Z 005776ae f   palm:p-constraints.obj
 0001:00176848       ?choco_awakeOnSup_PalmLessOrEqualxyc@@YAXPAVPalmLessOrEqualxyc@@H@Z 00577848 f   palm:p-constraints.obj
 0001:001769e2       ?palm_awakeOnRestoreInf_PalmLessOrEqualxyc@@YAXPAVPalmLessOrEqualxyc@@H@Z 005779e2 f   palm:p-constraints.obj
 0001:001769fb       ?palm_awakeOnRestoreSup_PalmLessOrEqualxyc@@YAXPAVPalmLessOrEqualxyc@@H@Z 005779fb f   palm:p-constraints.obj
 0001:00176a14       ?choco_awakeOnRem_PalmLessOrEqualxyc@@YAXPAVPalmLessOrEqualxyc@@HH@Z 00577a14 f   palm:p-constraints.obj
 0001:00176dfa       ?palm_awakeOnRestoreVal_PalmLessOrEqualxyc@@YAXPAVPalmLessOrEqualxyc@@HH@Z 00577dfa f   palm:p-constraints.obj
 0001:00177127       ?palm_whyIsFalse_PalmLessOrEqualxyc@@YAPAVset@@PAVPalmLessOrEqualxyc@@@Z 00578127 f   palm:p-constraints.obj
 0001:00177275       ?palm_whyIsTrue_PalmLessOrEqualxyc@@YAPAVset@@PAVPalmLessOrEqualxyc@@@Z 00578275 f   palm:p-constraints.obj
 0001:001773c3       ?choco_awakeOnInst_PalmLessOrEqualxyc@@YAXPAVPalmLessOrEqualxyc@@H@Z 005783c3 f   palm:p-constraints.obj
 0001:001773c8       ?choco_askIfEntailed_PalmLessOrEqualxyc@@YAHPAVPalmLessOrEqualxyc@@@Z 005783c8 f   palm:p-constraints.obj
 0001:001775c9       ?choco_testIfSatisfied_PalmLessOrEqualxyc@@YAPAVClaireBoolean@@PAVPalmLessOrEqualxyc@@@Z 005785c9 f   palm:p-constraints.obj
 0001:001775d3       ?choco_testIfCompletelyInstantiated_PalmLessOrEqualxyc@@YAPAVClaireBoolean@@PAVPalmLessOrEqualxyc@@@Z 005785d3 f   palm:p-constraints.obj
 0001:001775dd       ?palm_checkPalm_PalmLessOrEqualxyc@@YAPAVClaireBoolean@@PAVPalmLessOrEqualxyc@@@Z 005785dd f   palm:p-constraints.obj
 0001:001775e7       ?claire_self_print_PalmLinComb_palm@@YAHPAVPalmLinComb@@@Z 005785e7 f   palm:p-constraints.obj
 0001:00177ae6       ?choco_assignIndices_PalmLinComb@@YAHPAVPalmLinComb@@PAVAbstractConstraint@@H@Z 00578ae6 f   palm:p-constraints.obj
 0001:00177c8b       ?palm_makePalmLinComb_list@@YAPAVPalmLinComb@@PAVlist@@0HH@Z 00578c8b f   palm:p-constraints.obj
 0001:00177f56       ?palm_updateDataStructuresOnConstraint_PalmLinComb_palm@@YAXPAVPalmLinComb@@HHHH@Z 00578f56 f   palm:p-constraints.obj
 0001:0017813d       ?palm_updateDataStructuresOnRestoreConstraint_PalmLinComb_palm@@YAXPAVPalmLinComb@@HHHH@Z 0057913d f   palm:p-constraints.obj
 0001:00178324       ?palm_explainVariablesLB_PalmLinComb@@YAPAVExplanation@@PAVPalmLinComb@@@Z 00579324 f   palm:p-constraints.obj
 0001:001784ee       ?palm_explainVariablesUB_PalmLinComb@@YAPAVExplanation@@PAVPalmLinComb@@@Z 005794ee f   palm:p-constraints.obj
 0001:001786b8       ?choco_computeUpperBound_PalmLinComb_palm@@YAHPAVPalmLinComb@@@Z 005796b8 f   palm:p-constraints.obj
 0001:001787ad       ?choco_computeLowerBound_PalmLinComb_palm@@YAHPAVPalmLinComb@@@Z 005797ad f   palm:p-constraints.obj
 0001:001788a2       ?choco_propagateNewLowerBound_PalmLinComb_palm@@YAPAVClaireBoolean@@PAVPalmLinComb@@H@Z 005798a2 f   palm:p-constraints.obj
 0001:00178bf5       ?choco_propagateNewUpperBound_PalmLinComb_palm@@YAPAVClaireBoolean@@PAVPalmLinComb@@H@Z 00579bf5 f   palm:p-constraints.obj
 0001:00178f48       ?choco_propagate_PalmLinComb@@YAXPAVPalmLinComb@@@Z 00579f48 f   palm:p-constraints.obj
 0001:00178fc7       ?choco_awake_PalmLinComb_palm@@YAXPAVPalmLinComb@@@Z 00579fc7 f   palm:p-constraints.obj
 0001:001791c3       ?choco_awakeOnInf_PalmLinComb@@YAXPAVPalmLinComb@@H@Z 0057a1c3 f   palm:p-constraints.obj
 0001:001791ff       ?choco_awakeOnSup_PalmLinComb@@YAXPAVPalmLinComb@@H@Z 0057a1ff f   palm:p-constraints.obj
 0001:0017923b       ?choco_awakeOnRem_PalmLinComb@@YAXPAVPalmLinComb@@HH@Z 0057a23b f   palm:p-constraints.obj
 0001:00179254       ?palm_awakeOnRestoreInf_PalmLinComb@@YAXPAVPalmLinComb@@H@Z 0057a254 f   palm:p-constraints.obj
 0001:0017926d       ?palm_awakeOnRestoreSup_PalmLinComb@@YAXPAVPalmLinComb@@H@Z 0057a26d f   palm:p-constraints.obj
 0001:00179286       ?palm_awakeOnRestoreVal_PalmLinComb@@YAXPAVPalmLinComb@@HH@Z 0057a286 f   palm:p-constraints.obj
 0001:0017929f       ?palm_abstractDecInf_PalmLinComb@@YAPAVClaireBoolean@@PAVPalmLinComb@@H@Z 0057a29f f   palm:p-constraints.obj
 0001:0017948b       ?palm_abstractIncSup_PalmLinComb@@YAPAVClaireBoolean@@PAVPalmLinComb@@H@Z 0057a48b f   palm:p-constraints.obj
 0001:00179677       ?palm_abstractRestoreVal_PalmLinComb@@YAPAVClaireBoolean@@PAVPalmLinComb@@HH@Z 0057a677 f   palm:p-constraints.obj
 0001:00179863       ?choco_askIfEntailed_PalmLinComb@@YAHPAVPalmLinComb@@@Z 0057a863 f   palm:p-constraints.obj
 0001:001799ef       ?choco_testIfSatisfied_PalmLinComb@@YAPAVClaireBoolean@@PAVPalmLinComb@@@Z 0057a9ef f   palm:p-constraints.obj
 0001:00179b3b       ?choco_awakeOnInst_PalmLinComb@@YAXPAVPalmLinComb@@H@Z 0057ab3b f   palm:p-constraints.obj
 0001:00179b40       ?palm_checkPalm_PalmLinComb@@YAPAVClaireBoolean@@PAVPalmLinComb@@@Z 0057ab40 f   palm:p-constraints.obj
 0001:00179b4a       ?palm_awakeOnRestoreInf_Delayer@@YAXPAVDelayer@@H@Z 0057ab4a f   palm:p-constraints.obj
 0001:00179c7e       ?palm_awakeOnRestoreSup_Delayer@@YAXPAVDelayer@@H@Z 0057ac7e f   palm:p-constraints.obj
 0001:00179db2       ?palm_awakeOnRestoreVal_Delayer@@YAXPAVDelayer@@HH@Z 0057adb2 f   palm:p-constraints.obj
 0001:00179ee9       ?palm_abstractDecInf_AbstractConstraint@@YAPAVClaireBoolean@@PAVAbstractConstraint@@H@Z 0057aee9 f   palm:p-constraints.obj
 0001:00179ef3       ?palm_abstractIncSup_AbstractConstraint@@YAPAVClaireBoolean@@PAVAbstractConstraint@@H@Z 0057aef3 f   palm:p-constraints.obj
 0001:00179efd       ?palm_abstractRestoreVal_AbstractConstraint@@YAPAVClaireBoolean@@PAVAbstractConstraint@@HH@Z 0057aefd f   palm:p-constraints.obj
 0001:00179f07       ?palm_updateDataStructuresOnConstraint_Delayer_palm@@YAXPAVDelayer@@HHHH@Z 0057af07 f   palm:p-constraints.obj
 0001:0017a019       ?palm_updateDataStructuresOnRestoreConstraint_Delayer_palm@@YAXPAVDelayer@@HHHH@Z 0057b019 f   palm:p-constraints.obj
 0001:0017a130       ?claire_self_print_PalmIntVar_palm@@YAHPAVPalmIntVar@@@Z 0057b130 f   palm:p-variables.obj
 0001:0017a42a       ?choco_getInf_PalmIntVar_palm@@YAHPAVPalmIntVar@@@Z 0057b42a f   palm:p-variables.obj
 0001:0017a594       ?choco_getSup_PalmIntVar_palm@@YAHPAVPalmIntVar@@@Z 0057b594 f   palm:p-variables.obj
 0001:0017a6fe       ?palm_self_explain_PalmIntVar1@@YAXPAVPalmIntVar@@HPAVExplanation@@@Z 0057b6fe f   palm:p-variables.obj
 0001:0017ab1c       ?palm_self_explain_PalmIntVar2@@YAXPAVPalmIntVar@@HHPAVExplanation@@@Z 0057bb1c f   palm:p-variables.obj
 0001:0017ae97       ?palm_firstValue_PalmIntVar@@YAHPAVPalmIntVar@@@Z 0057be97 f   palm:p-variables.obj
 0001:0017afba       ?palm_updateDataStructures_PalmIntVar@@YAXPAVPalmIntVar@@HHH@Z 0057bfba f   palm:p-variables.obj
 0001:0017b000       ?palm_updateDataStructuresOnVariable_PalmIntVar_palm@@YAXPAVPalmIntVar@@HHH@Z 0057c000 f   palm:p-variables.obj
 0001:0017b005       ?palm_updateDataStructuresOnConstraints_PalmIntVar@@YAXPAVPalmIntVar@@HHH@Z 0057c005 f   palm:p-variables.obj
 0001:0017b1f7       ?palm_updateDataStructuresOnConstraint_AbstractConstraint_palm@@YAXPAVAbstractConstraint@@HHHH@Z 0057c1f7 f   palm:p-variables.obj
 0001:0017b1fc       ?palm_updateDataStructuresOnRestore_PalmIntVar@@YAXPAVPalmIntVar@@HHH@Z 0057c1fc f   palm:p-variables.obj
 0001:0017b242       ?palm_updateDataStructuresOnRestoreVariable_PalmIntVar_palm@@YAXPAVPalmIntVar@@HHH@Z 0057c242 f   palm:p-variables.obj
 0001:0017b247       ?palm_updateDataStructuresOnRestoreConstraints_PalmIntVar@@YAXPAVPalmIntVar@@HHH@Z 0057c247 f   palm:p-variables.obj
 0001:0017b439       ?palm_updateDataStructuresOnRestoreConstraint_AbstractConstraint_palm@@YAXPAVAbstractConstraint@@HHHH@Z 0057c439 f   palm:p-variables.obj
 0001:0017b43e       ?palm_restoreInf_PalmIntVar@@YAXPAVPalmIntVar@@H@Z 0057c43e f   palm:p-variables.obj
 0001:0017b7c1       ?palm_restoreSup_PalmIntVar@@YAXPAVPalmIntVar@@H@Z 0057c7c1 f   palm:p-variables.obj
 0001:0017bb44       ?palm_postRestoreInf_PalmEngine@@YAXPAVPalmEngine@@PAVPalmIntVar@@@Z 0057cb44 f   palm:p-variables.obj
 0001:0017bc38       ?palm_postRestoreSup_PalmEngine@@YAXPAVPalmEngine@@PAVPalmIntVar@@@Z 0057cc38 f   palm:p-variables.obj
 0001:0017bd2c       ?palm_postRestoreEvent_PalmEngine1@@YAXPAVPalmEngine@@PAVBoundUpdate@@@Z 0057cd2c f   palm:p-variables.obj
 0001:0017be0c       ?palm_restoreVariableExplanation_DecInf@@YAXPAVDecInf@@@Z 0057ce0c f   palm:p-variables.obj
 0001:0017bfa9       ?palm_restoreVariableExplanation_IncSup@@YAXPAVIncSup@@@Z 0057cfa9 f   palm:p-variables.obj
 0001:0017c146       ?palm_restoreVal_PalmIntVar@@YAXPAVPalmIntVar@@H@Z 0057d146 f   palm:p-variables.obj
 0001:0017c50a       ?palm_postRestoreVal_PalmEngine@@YAHPAVPalmEngine@@PAVPalmIntVar@@H@Z 0057d50a f   palm:p-variables.obj
 0001:0017c610       ?palm_postRestoreEvent_PalmEngine2@@YAHPAVPalmEngine@@PAVValueRestorations@@H@Z 0057d610 f   palm:p-variables.obj
 0001:0017c9a8       ?choco_updateInf_PalmIntVar1_palm@@YAPAVClaireBoolean@@PAVPalmIntVar@@HHPAVExplanation@@@Z 0057d9a8 f   palm:p-variables.obj
 0001:0017cd79       ?choco_updateInf_PalmIntVar2_palm@@YAPAVClaireBoolean@@PAVPalmIntVar@@HPAVExplanation@@@Z 0057dd79 f   palm:p-variables.obj
 0001:0017d053       ?choco_updateSup_PalmIntVar1_palm@@YAPAVClaireBoolean@@PAVPalmIntVar@@HHPAVExplanation@@@Z 0057e053 f   palm:p-variables.obj
 0001:0017d424       ?choco_updateSup_PalmIntVar2_palm@@YAPAVClaireBoolean@@PAVPalmIntVar@@HPAVExplanation@@@Z 0057e424 f   palm:p-variables.obj
 0001:0017d6fe       ?choco_removeVal_PalmIntVar1_palm@@YAPAVClaireBoolean@@PAVPalmIntVar@@HHPAVExplanation@@@Z 0057e6fe f   palm:p-variables.obj
 0001:0017d9b7       ?choco_removeVal_PalmIntVar2_palm@@YAPAVClaireBoolean@@PAVPalmIntVar@@HPAVExplanation@@@Z 0057e9b7 f   palm:p-variables.obj
 0001:0017dd01       ?palm_postRemoveVal_PalmEngine@@YAXPAVPalmEngine@@PAVIntVar@@HH@Z 0057ed01 f   palm:p-variables.obj
 0001:0017e0a5       ?choco_instantiate_PalmIntVar@@YAPAVClaireBoolean@@PAVPalmIntVar@@HHPAVExplanation@@@Z 0057f0a5 f   palm:p-variables.obj
 0001:0017e280       ?palm_not_I_integer@@YAHH@Z 0057f280 f   palm:p-domain.obj
 0001:0017e290       ?claire_sum_list@@YAHPAVlist@@@Z 0057f290 f   palm:p-domain.obj
 0001:0017e2f9       ?palm_firstCode29bits_PalmIntDomain@@YAHPAVPalmIntDomain@@H@Z 0057f2f9 f   palm:p-domain.obj
 0001:0017e32d       ?palm_secondCode29bits_PalmIntDomain@@YAHPAVPalmIntDomain@@H@Z 0057f32d f   palm:p-domain.obj
 0001:0017e361       ?palm_decode29bits_PalmIntDomain@@YAHPAVPalmIntDomain@@HH@Z 0057f361 f   palm:p-domain.obj
 0001:0017e378       ?palm_makePalmIntDomain_integer@@YAPAVPalmIntDomain@@HH@Z 0057f378 f   palm:p-domain.obj
 0001:0017e80b       ?claire_self_print_PalmIntDomain_palm@@YAHPAVPalmIntDomain@@@Z 0057f80b f   palm:p-domain.obj
 0001:0017ea73       ?choco_domainSequence_PalmIntDomain_palm@@YAPAVlist@@PAVPalmIntDomain@@@Z 0057fa73 f   palm:p-domain.obj
 0001:0017eb53       ?choco_domainSet_PalmIntDomain_palm@@YAPAVset@@PAVPalmIntDomain@@@Z 0057fb53 f   palm:p-domain.obj
 0001:0017ec33       ?palm_removedlist_I_PalmIntDomain@@YAPAVlist@@PAVPalmIntDomain@@@Z 0057fc33 f   palm:p-domain.obj
 0001:0017ec88       ?choco_getDomainCard_PalmIntDomain_palm@@YAHPAVPalmIntDomain@@@Z 0057fc88 f   palm:p-domain.obj
 0001:0017ec93       ?choco_containsValInDomain_PalmIntDomain_palm@@YAPAVClaireBoolean@@PAVPalmIntDomain@@H@Z 0057fc93 f   palm:p-domain.obj
 0001:0017ed58       ?palm_firstElement_PalmIntDomain@@YAHPAVPalmIntDomain@@@Z 0057fd58 f   palm:p-domain.obj
 0001:0017ed93       ?choco_getInf_PalmIntDomain_palm@@YAHPAVPalmIntDomain@@@Z 0057fd93 f   palm:p-domain.obj
 0001:0017ef11       ?choco_getSup_PalmIntDomain_palm@@YAHPAVPalmIntDomain@@@Z 0057ff11 f   palm:p-domain.obj
 0001:0017f088       ?palm_addDomainVal_PalmIntDomain@@YAXPAVPalmIntDomain@@H@Z 00580088 f   palm:p-domain.obj
 0001:0017f96f       ?choco_removeDomainVal_PalmIntDomain_palm@@YAPAVClaireBoolean@@PAVPalmIntDomain@@H@Z 0058096f f   palm:p-domain.obj
 0001:00180280       ?palm_palmVersion_void@@YAPADXZ 00581280 f   palm:p-model.obj
 0001:0018028a       ?palm_palmReleaseDate_void@@YAPADXZ 0058128a f   palm:p-model.obj
 0001:00180294       ?palm_palmInfo_void@@YAPADXZ 00581294 f   palm:p-model.obj
 0001:0018029e       ?palm_showPalmLicense_void@@YAHXZ 0058129e f   palm:p-model.obj
 0001:00180310       ?metaLoad@ptidejClass@@QAEXXZ 00581310 f   ptidej:ptidej.obj
 0001:00187fb0       ?ptidej_customProblemForRedundantTransitivityPattern_void@@YAPAVPtidejProblem@@XZ 00588fb0 f   ptidej:RedundantTransitivity.obj
 0001:00188321       ?ptidej_ac4ProblemForRedundantTransitivityPattern_void@@YAPAVPtidejProblem@@XZ 00589321 f   ptidej:RedundantTransitivity.obj
 0001:00188790       ?ptidej_customProblemForGoodInheritancePattern_void@@YAPAVPtidejProblem@@XZ 00589790 f   ptidej:GoodInheritance.obj
 0001:00188a2c       ?ptidej_ac4ProblemForGoodInheritancePattern_void@@YAPAVPtidejProblem@@XZ 00589a2c f   ptidej:GoodInheritance.obj
 0001:00188d80       ?ptidej_customProblemForBadCompositionTestPattern_void@@YAPAVPtidejProblem@@XZ 00589d80 f   ptidej:BadCompositionTest.obj
 0001:00188fea       ?ptidej_ac4ProblemForBadCompositionTestPattern_void@@YAPAVPtidejProblem@@XZ 00589fea f   ptidej:BadCompositionTest.obj
 0001:001892b0       ?ptidej_ac4ProblemForVisitorPattern_void@@YAPAVPtidejProblem@@XZ 0058a2b0 f   ptidej:VisitorPattern.obj
 0001:00189dc2       ?ptidej_customProblemForVisitorPattern_void@@YAPAVPtidejProblem@@XZ 0058adc2 f   ptidej:VisitorPattern.obj
 0001:0018a430       ?ptidej_customProblemForProxyPattern_void@@YAPAVPtidejProblem@@XZ 0058b430 f   ptidej:ProxyPattern.obj
 0001:0018a837       ?ptidej_ac4ProblemForProxyPattern_void@@YAPAVPtidejProblem@@XZ 0058b837 f   ptidej:ProxyPattern.obj
 0001:0018ad40       ?ptidej_customProblemForObserverPattern_void@@YAPAVPtidejProblem@@XZ 0058bd40 f   ptidej:ObserverPattern.obj
 0001:0018b316       ?ptidej_ac4ProblemForObserverPattern_void@@YAPAVPtidejProblem@@XZ 0058c316 f   ptidej:ObserverPattern.obj
 0001:0018baa0       ?ptidej_customProblemForMementoPattern_void@@YAPAVPtidejProblem@@XZ 0058caa0 f   ptidej:MementoPattern.obj
 0001:0018bddf       ?ptidej_ac4ProblemForMementoPattern_void@@YAPAVPtidejProblem@@XZ 0058cddf f   ptidej:MementoPattern.obj
 0001:0018c1d0       ?ptidej_customProblemForMediatorPattern_void@@YAPAVPtidejProblem@@XZ 0058d1d0 f   ptidej:MediatorPattern.obj
 0001:0018c5d7       ?ptidej_ac4ProblemForMediatorPattern_void@@YAPAVPtidejProblem@@XZ 0058d5d7 f   ptidej:MediatorPattern.obj
 0001:0018cbe0       ?ptidej_customProblemForIteratorPattern_void@@YAPAVPtidejProblem@@XZ 0058dbe0 f   ptidej:IteratorPattern.obj
 0001:0018d058       ?ptidej_ac4ProblemForIteratorPattern_void@@YAPAVPtidejProblem@@XZ 0058e058 f   ptidej:IteratorPattern.obj
 0001:0018d630       ?ptidej_customProblemForFactoryMethodPattern_void@@YAPAVPtidejProblem@@XZ 0058e630 f   ptidej:FactoryMethodPattern.obj
 0001:0018da76       ?ptidej_ac4ProblemForFactoryMethodPattern_void@@YAPAVPtidejProblem@@XZ 0058ea76 f   ptidej:FactoryMethodPattern.obj
 0001:0018e010       ?ptidej_customProblemForFacadePattern_void@@YAPAVPtidejProblem@@XZ 0058f010 f   ptidej:FacadePattern.obj
 0001:0018e3e5       ?ptidej_ac4ProblemForFacadePattern_void@@YAPAVPtidejProblem@@XZ 0058f3e5 f   ptidej:FacadePattern.obj
 0001:0018e870       ?ptidej_customProblemForExtendedCompositePattern_void@@YAPAVPtidejProblem@@XZ 0058f870 f   ptidej:ExtendedCompositePattern.obj
 0001:0018ece8       ?ptidej_ac4ProblemForExtendedCompositePattern_void@@YAPAVPtidejProblem@@XZ 0058fce8 f   ptidej:ExtendedCompositePattern.obj
 0001:0018f360       ?ptidej_customProblemForCompositePattern_void@@YAPAVPalmProblem@@XZ 00590360 f   ptidej:CompositePattern.obj
 0001:0018f735       ?ptidej_ac4ProblemForCompositePattern_void@@YAPAVPalmProblem@@XZ 00590735 f   ptidej:CompositePattern.obj
 0001:0018fcc0       ?ptidej_customProblemForChainOfResponsibilityPattern_void@@YAPAVPtidejProblem@@XZ 00590cc0 f   ptidej:ChainOfResponsibilityPattern.obj
 0001:0019000c       ?ptidej_ac4ProblemForChainOfResponsibilityPattern_void@@YAPAVPtidejProblem@@XZ 0059100c f   ptidej:ChainOfResponsibilityPattern.obj
 0001:00190450       ?ptidej_customProblemForAbstractFactoryPattern_void@@YAPAVPtidejProblem@@XZ 00591450 f   ptidej:AbstractFactoryPattern.obj
 0001:00190896       ?ptidej_ac4ProblemForAbstractFactoryPattern_void@@YAPAVPtidejProblem@@XZ 00591896 f   ptidej:AbstractFactoryPattern.obj
 0001:00190e30       ?ptidej_customProblemForStrictInheritanceTestPattern_void@@YAPAVPtidejProblem@@XZ 00591e30 f   ptidej:StrictInheritanceTest.obj
 0001:0019109a       ?ptidej_ac4ProblemForStrictInheritanceTestPattern_void@@YAPAVPtidejProblem@@XZ 0059209a f   ptidej:StrictInheritanceTest.obj
 0001:00191360       ?ptidej_customProblemForUseTestPattern_void@@YAPAVPtidejProblem@@XZ 00592360 f   ptidej:UseTest.obj
 0001:001915ca       ?ptidej_ac4ProblemForUseTestPattern_void@@YAPAVPtidejProblem@@XZ 005925ca f   ptidej:UseTest.obj
 0001:00191890       ?ptidej_customProblemForUseDistanceTestPattern_void@@YAPAVPtidejProblem@@XZ 00592890 f   ptidej:useDistanceTest.obj
 0001:00191b80       ?ptidej_customProblemForInheritanceTreeDepthTestPattern_void@@YAPAVPtidejProblem@@XZ 00592b80 f   ptidej:InheritanceTreeDepthTest.obj
 0001:00191e80       ?ptidej_customProblemForInheritanceTestPattern_void@@YAPAVPtidejProblem@@XZ 00592e80 f   ptidej:InheritanceTest.obj
 0001:001920b8       ?ptidej_ac4ProblemForInheritanceTestPattern_void@@YAPAVPtidejProblem@@XZ 005930b8 f   ptidej:InheritanceTest.obj
 0001:00192350       ?ptidej_customProblemForInheritancePathTestPattern_void@@YAPAVPtidejProblem@@XZ 00593350 f   ptidej:InheritancePathTest.obj
 0001:001925ba       ?ptidej_ac4ProblemForInheritancePathTestPattern_void@@YAPAVPtidejProblem@@XZ 005935ba f   ptidej:InheritancePathTest.obj
 0001:00192880       ?ptidej_customProblemForIgnoranceTestPattern_void@@YAPAVPtidejProblem@@XZ 00593880 f   ptidej:IgnoranceTest.obj
 0001:00192aea       ?ptidej_ac4ProblemForIgnoranceTestPattern_void@@YAPAVPtidejProblem@@XZ 00593aea f   ptidej:IgnoranceTest.obj
 0001:00192db0       ?ptidej_customProblemForCreationTestPattern_void@@YAPAVPtidejProblem@@XZ 00593db0 f   ptidej:CreationTest.obj
 0001:00193040       ?ptidej_ac4ProblemForCreationTestPattern_void@@YAPAVPtidejProblem@@XZ 00594040 f   ptidej:CreationTest.obj
 0001:00193340       ?ptidej_customProblemForCompositionTestPattern_void@@YAPAVPtidejProblem@@XZ 00594340 f   ptidej:CompositionTest.obj
 0001:001935aa       ?ptidej_ac4ProblemForCompositionTestPattern_void@@YAPAVPtidejProblem@@XZ 005945aa f   ptidej:CompositionTest.obj
 0001:00193870       ?ptidej_customProblemForAssociationDistanceTestPattern_void@@YAPAVPtidejProblem@@XZ 00594870 f   ptidej:AssociationDistanceTest.obj
 0001:00193b20       ?ptidej_classicalPtidejProblem_void@@YAXXZ 00594b20 f   ptidej:SimpleTests.obj
 0001:00193f03       ?ptidej_inconsistentPtidejProblem_void@@YAXXZ 00594f03 f   ptidej:SimpleTests.obj
 0001:001942a6       ?ptidej_overConstrainedPtidejProblem_void@@YAXXZ 005952a6 f   ptidej:SimpleTests.obj
 0001:00194880       ?ptidej_makeBitString_integer@@YAPAVBitString@@H@Z 00595880 f   ptidej:CombinatorialAutomaticSolver.obj
 0001:00194896       ?claire_self_print_BitString_ptidej@@YAXPAVBitString@@@Z 00595896 f   ptidej:CombinatorialAutomaticSolver.obj
 0001:00194a07       ?ptidej_getString_BitString@@YAPADPAVBitString@@@Z 00595a07 f   ptidej:CombinatorialAutomaticSolver.obj
 0001:00194b65       ?ptidej_compose_array@@YAHPAH@Z 00595b65 f   ptidej:CombinatorialAutomaticSolver.obj
 0001:00194bdb       ?ptidej_decompose_BitString@@YAPAHPAVBitString@@@Z 00595bdb f   ptidej:CombinatorialAutomaticSolver.obj
 0001:00194e14       ?ptidej_inc_BitString@@YAXPAVBitString@@@Z 00595e14 f   ptidej:CombinatorialAutomaticSolver.obj
 0001:00194fd6       ?ptidej_factorial_integer@@YAHH@Z 00595fd6 f   ptidej:CombinatorialAutomaticSolver.obj
 0001:00195021       ?ptidej_getNumberOfOnes_BitString@@YAHPAVBitString@@@Z 00596021 f   ptidej:CombinatorialAutomaticSolver.obj
 0001:0019516a       ?ptidej_getIndexesOfOnes_BitString@@YAPAVlist@@PAVBitString@@@Z 0059616a f   ptidej:CombinatorialAutomaticSolver.obj
 0001:001952bb       ?ptidej_C_integer@@YAPAVlist@@HH@Z 005962bb f   ptidej:CombinatorialAutomaticSolver.obj
 0001:00195489       ?palm_selectDecisionToUndo_PtidejCombinatorialAutomaticRepair_ptidej_@@YAPAVtuple@@PAVPtidejCombinatorialAutomaticRepair@@PAVExplanation@@@Z 00596489 f   ptidej:CombinatorialAutomaticSolver.obj
 0001:001954a5       ?palm_selectDecisionToUndo_PtidejCombinatorialAutomaticRepair_ptidej@@YAPAVtuple@@PAVPtidejCombinatorialAutomaticRepair@@PAVExplanation@@@Z 005964a5 f   ptidej:CombinatorialAutomaticSolver.obj
 0001:00196088       ?ptidej_initCombinatorialAutomaticSolver_PtidejProblem@@YAXPAVPtidejProblem@@@Z 00597088 f   ptidej:CombinatorialAutomaticSolver.obj
 0001:00196783       ?ptidej_combinatorialAutomaticSolve_PtidejProblem@@YAXPAVPtidejProblem@@@Z 00597783 f   ptidej:CombinatorialAutomaticSolver.obj
 0001:0019cf0b       ?ptidej_dynamicPost_PtidejProblem@@YAXPAVPtidejProblem@@PAVAbstractConstraint@@@Z 0059df0b f   ptidej:CombinatorialAutomaticSolver.obj
 0001:0019d369       ?ptidej_findNewVariable_PtidejProblem@@YAPAVIntVar@@PAVPtidejProblem@@PAV1@@Z 0059e369 f   ptidej:CombinatorialAutomaticSolver.obj
 0001:0019d450       ?_integer_@@YAHH@Z         0059e450 f i ptidej:CombinatorialAutomaticSolver.obj
 0001:0019d480       ?palm_selectDecisionToUndo_PtidejInteractiveRepair_ptidej_@@YAPAVtuple@@PAVPtidejInteractiveRepair@@PAVExplanation@@@Z 0059e480 f   ptidej:InteractiveSolver.obj
 0001:0019d49c       ?palm_selectDecisionToUndo_PtidejInteractiveRepair_ptidej@@YAPAVtuple@@PAVPtidejInteractiveRepair@@PAVExplanation@@@Z 0059e49c f   ptidej:InteractiveSolver.obj
 0001:0019e184       ?ptidej_initInteractiveSolver_PtidejProblem@@YAXPAVPtidejProblem@@@Z 0059f184 f   ptidej:InteractiveSolver.obj
 0001:0019e7d3       ?ptidej_interactiveSolve_PtidejProblem@@YAXPAVPtidejProblem@@@Z 0059f7d3 f   ptidej:InteractiveSolver.obj
 0001:0019e800       ?palm_selectDecisionToUndo_PtidejAutomaticRepair_ptidej_@@YAPAVtuple@@PAVPtidejAutomaticRepair@@PAVExplanation@@@Z 0059f800 f   ptidej:AutomaticSolver.obj
 0001:0019e81c       ?palm_selectDecisionToUndo_PtidejAutomaticRepair_ptidej@@YAPAVtuple@@PAVPtidejAutomaticRepair@@PAVExplanation@@@Z 0059f81c f   ptidej:AutomaticSolver.obj
 0001:0019f677       ?ptidej_initAutomaticSolver_PtidejProblem@@YAXPAVPtidejProblem@@@Z 005a0677 f   ptidej:AutomaticSolver.obj
 0001:001a0bbe       ?ptidej_automaticSolve_PtidejProblem@@YAXPAVPtidejProblem@@@Z 005a1bbe f   ptidej:AutomaticSolver.obj
 0001:001a0c80       ?palm_selectDecisionToUndo_PtidejSimpleInteractiveRepair_ptidej_@@YAPAVtuple@@PAVPtidejSimpleInteractiveRepair@@PAVExplanation@@@Z 005a1c80 f   ptidej:SimpleInteractiveSolver.obj
 0001:001a0c9c       ?palm_selectDecisionToUndo_PtidejSimpleInteractiveRepair_ptidej@@YAPAVtuple@@PAVPtidejSimpleInteractiveRepair@@PAVExplanation@@@Z 005a1c9c f   ptidej:SimpleInteractiveSolver.obj
 0001:001a111e       ?ptidej_initSimpleInteractiveSolver_PtidejProblem@@YAXPAVPtidejProblem@@@Z 005a211e f   ptidej:SimpleInteractiveSolver.obj
 0001:001a1762       ?ptidej_simpleInteractiveSolve_PtidejProblem@@YAXPAVPtidejProblem@@@Z 005a2762 f   ptidej:SimpleInteractiveSolver.obj
 0001:001a17d0       ?ptidej_getSymbol_method@@YAPADPAVmethod@@@Z 005a27d0 f   ptidej:ConstraintHelpers.obj
 0001:001a1ae0       ?ptidej_selectBranchingObject_PtidejSaveAllSolutions@@YAHPAVPtidejSaveAllSolutions@@@Z 005a2ae0 f   ptidej:SimpleAutomaticSolver.obj
 0001:001a20ed       ?palm_selectDecisionToUndo_PtidejSimpleAutomaticRepair_ptidej_@@YAPAVtuple@@PAVPtidejSimpleAutomaticRepair@@PAVExplanation@@@Z 005a30ed f   ptidej:SimpleAutomaticSolver.obj
 0001:001a2109       ?palm_selectDecisionToUndo_PtidejSimpleAutomaticRepair_ptidej@@YAPAVtuple@@PAVPtidejSimpleAutomaticRepair@@PAVExplanation@@@Z 005a3109 f   ptidej:SimpleAutomaticSolver.obj
 0001:001a2672       ?ptidej_initSimpleAutomaticSolver_PtidejProblem@@YAXPAVPtidejProblem@@@Z 005a3672 f   ptidej:SimpleAutomaticSolver.obj
 0001:001a2d61       ?ptidej_simpleAutomaticSolve_PtidejProblem@@YAXPAVPtidejProblem@@@Z 005a3d61 f   ptidej:SimpleAutomaticSolver.obj
 0001:001a2e60       ?ptidej_getAllReachableEntities_Entity@@YAPAVlist@@PAVEntity@@PAV1@PAVproperty@@@Z 005a3e60 f   ptidej:CustomConstraints.obj
 0001:001a322e       ?ptidej_makePropertyTypeConstraint_class@@YAPAVPtidejBinConstraint@@PAVClaireClass@@PAD1PAVPtidejVar@@2PAVproperty@@@Z 005a422e f   ptidej:CustomConstraints.obj
 0001:001a33af       ?claire_self_print_PropertyTypeConstraint_ptidej@@YAXPAVPropertyTypeConstraint@@@Z 005a43af f   ptidej:CustomConstraints.obj
 0001:001a34f9       ?choco_awake_PropertyTypeConstraint_ptidej@@YAXPAVPropertyTypeConstraint@@@Z 005a44f9 f   ptidej:CustomConstraints.obj
 0001:001a40f8       ?choco_awakeOnRem_PropertyTypeConstraint@@YAXPAVPropertyTypeConstraint@@HH@Z 005a50f8 f   ptidej:CustomConstraints.obj
 0001:001a411a       ?palm_awakeOnRestoreVal_PropertyTypeConstraint@@YAXPAVPropertyTypeConstraint@@HH@Z 005a511a f   ptidej:CustomConstraints.obj
 0001:001a413c       ?choco_doAwake_PropertyTypeConstraint@@YAXPAVPropertyTypeConstraint@@@Z 005a513c f   ptidej:CustomConstraints.obj
 0001:001a415e       ?ptidej_makeListPropertyTypeConstraint_class@@YAPAVPtidejBinConstraint@@PAVClaireClass@@PAD1PAVPtidejVar@@2PAVproperty@@@Z 005a515e f   ptidej:CustomConstraints.obj
 0001:001a42df       ?claire_self_print_ListPropertyTypeConstraint_ptidej@@YAXPAVListPropertyTypeConstraint@@@Z 005a52df f   ptidej:CustomConstraints.obj
 0001:001a4429       ?choco_awake_ListPropertyTypeConstraint_ptidej@@YAXPAVListPropertyTypeConstraint@@@Z 005a5429 f   ptidej:CustomConstraints.obj
 0001:001a4d3a       ?choco_awakeOnRem_ListPropertyTypeConstraint@@YAXPAVListPropertyTypeConstraint@@HH@Z 005a5d3a f   ptidej:CustomConstraints.obj
 0001:001a5e96       ?palm_awakeOnRestoreVal_ListPropertyTypeConstraint@@YAXPAVListPropertyTypeConstraint@@HH@Z 005a6e96 f   ptidej:CustomConstraints.obj
 0001:001a5eb8       ?choco_doAwake_ListPropertyTypeConstraint@@YAXPAVListPropertyTypeConstraint@@@Z 005a6eb8 f   ptidej:CustomConstraints.obj
 0001:001a5eda       ?ptidej_makePropertyDistanceConstraint_class@@YAPAVPropertyDistanceConstraint@@PAVClaireClass@@PAD1PAVPtidejVar@@2PAVPalmIntVar@@PAVproperty@@@Z 005a6eda f   ptidej:CustomConstraints.obj
 0001:001a60a3       ?claire_self_print_PropertyDistanceConstraint_ptidej@@YAXPAVPropertyDistanceConstraint@@@Z 005a70a3 f   ptidej:CustomConstraints.obj
 0001:001a61ed       ?choco_awake_PropertyDistanceConstraint_ptidej@@YAXPAVPropertyDistanceConstraint@@@Z 005a71ed f   ptidej:CustomConstraints.obj
 0001:001a7603       ?palm_awakeOnRestoreInf_PropertyDistanceConstraint@@YAXPAVPropertyDistanceConstraint@@H@Z 005a8603 f   ptidej:CustomConstraints.obj
 0001:001a7625       ?choco_awakeOnRem_PropertyDistanceConstraint@@YAXPAVPropertyDistanceConstraint@@HH@Z 005a8625 f   ptidej:CustomConstraints.obj
 0001:001a7647       ?palm_awakeOnRestoreSup_PropertyDistanceConstraint@@YAXPAVPropertyDistanceConstraint@@H@Z 005a8647 f   ptidej:CustomConstraints.obj
 0001:001a7669       ?palm_awakeOnRestoreVal_PropertyDistanceConstraint@@YAXPAVPropertyDistanceConstraint@@HH@Z 005a8669 f   ptidej:CustomConstraints.obj
 0001:001a768b       ?choco_doAwake_PropertyDistanceConstraint@@YAXPAVPropertyDistanceConstraint@@@Z 005a868b f   ptidej:CustomConstraints.obj
 0001:001a76ad       ?choco_propagate_PropertyDistanceConstraint@@YAXPAVPropertyDistanceConstraint@@@Z 005a86ad f   ptidej:CustomConstraints.obj
 0001:001a76cf       ?ptidej_makeEqualConstraint_string@@YAPAVEqualConstraint@@PAD0PAVPtidejVar@@1@Z 005a86cf f   ptidej:CustomConstraints.obj
 0001:001a788d       ?claire_self_print_EqualConstraint_ptidej@@YAXPAVEqualConstraint@@@Z 005a888d f   ptidej:CustomConstraints.obj
 0001:001a79d7       ?choco_awake_EqualConstraint_ptidej@@YAXPAVEqualConstraint@@@Z 005a89d7 f   ptidej:CustomConstraints.obj
 0001:001a84e3       ?choco_awakeOnRem_EqualConstraint@@YAXPAVEqualConstraint@@HH@Z 005a94e3 f   ptidej:CustomConstraints.obj
 0001:001a8505       ?palm_awakeOnRestoreVal_EqualConstraint@@YAXPAVEqualConstraint@@HH@Z 005a9505 f   ptidej:CustomConstraints.obj
 0001:001a8527       ?choco_doAwake_EqualConstraint@@YAXPAVEqualConstraint@@@Z 005a9527 f   ptidej:CustomConstraints.obj
 0001:001a8549       ?ptidej_makeNotEqualConstraint_string@@YAPAVNotEqualConstraint@@PAD0PAVPtidejVar@@1@Z 005a9549 f   ptidej:CustomConstraints.obj
 0001:001a86e9       ?claire_self_print_NotEqualConstraint_ptidej@@YAXPAVNotEqualConstraint@@@Z 005a96e9 f   ptidej:CustomConstraints.obj
 0001:001a8833       ?choco_awake_NotEqualConstraint_ptidej@@YAXPAVNotEqualConstraint@@@Z 005a9833 f   ptidej:CustomConstraints.obj
 0001:001a933f       ?choco_awakeOnRem_NotEqualConstraint@@YAXPAVNotEqualConstraint@@HH@Z 005aa33f f   ptidej:CustomConstraints.obj
 0001:001a9361       ?palm_awakeOnRestoreVal_NotEqualConstraint@@YAXPAVNotEqualConstraint@@HH@Z 005aa361 f   ptidej:CustomConstraints.obj
 0001:001a9383       ?choco_doAwake_NotEqualConstraint@@YAXPAVNotEqualConstraint@@@Z 005aa383 f   ptidej:CustomConstraints.obj
 0001:001a93a5       ?ptidej_makeGreaterOrEqualPtidejConstraint_string@@YAPAVGreaterOrEqualPtidejConstraint@@PAD0PAVPtidejBoundVar@@H@Z 005aa3a5 f   ptidej:CustomConstraints.obj
 0001:001a9543       ?claire_self_print_GreaterOrEqualPtidejConstraint_ptidej@@YAXPAVGreaterOrEqualPtidejConstraint@@@Z 005aa543 f   ptidej:CustomConstraints.obj
 0001:001a9583       ?ptidej_getConstant_GreaterOrEqualPtidejConstraint@@YAHPAVGreaterOrEqualPtidejConstraint@@@Z 005aa583 f   ptidej:CustomConstraints.obj
 0001:001a958e       ?ptidej_makeLessOrEqualPtidejConstraint_string@@YAPAVLessOrEqualPtidejConstraint@@PAD0PAVPtidejBoundVar@@H@Z 005aa58e f   ptidej:CustomConstraints.obj
 0001:001a972c       ?claire_self_print_LessOrEqualPtidejConstraint_ptidej@@YAXPAVLessOrEqualPtidejConstraint@@@Z 005aa72c f   ptidej:CustomConstraints.obj
 0001:001a976c       ?ptidej_getConstant_LessOrEqualPtidejConstraint@@YAHPAVLessOrEqualPtidejConstraint@@@Z 005aa76c f   ptidej:CustomConstraints.obj
 0001:001a9777       ?ptidej_makeAggregationConstraint_string@@YAPAVAggregationConstraint@@PAD0PAVPtidejVar@@1@Z 005aa777 f   ptidej:CustomConstraints.obj
 0001:001a98e3       ?ptidej_makeAssociationConstraint_string@@YAPAVAssociationConstraint@@PAD0PAVPtidejVar@@1@Z 005aa8e3 f   ptidej:CustomConstraints.obj
 0001:001a9a4f       ?ptidej_makeCompositionConstraint_string@@YAPAVCompositionConstraint@@PAD0PAVPtidejVar@@1@Z 005aaa4f f   ptidej:CustomConstraints.obj
 0001:001a9bbb       ?ptidej_makeContainerAggregationConstraint_string@@YAPAVContainerAggregationConstraint@@PAD0PAVPtidejVar@@1@Z 005aabbb f   ptidej:CustomConstraints.obj
 0001:001a9d27       ?ptidej_makeContainerCompositionConstraint_string@@YAPAVContainerCompositionConstraint@@PAD0PAVPtidejVar@@1@Z 005aad27 f   ptidej:CustomConstraints.obj
 0001:001a9e93       ?ptidej_makeUseConstraint_string@@YAPAVUseConstraint@@PAD0PAVPtidejVar@@1@Z 005aae93 f   ptidej:CustomConstraints.obj
 0001:001a9fd6       ?ptidej_makeIgnoranceConstraint_string@@YAPAVIgnoranceConstraint@@PAD0PAVPtidejVar@@1@Z 005aafd6 f   ptidej:CustomConstraints.obj
 0001:001aa119       ?ptidej_makeCreationConstraint_string@@YAPAVCreationConstraint@@PAD0PAVPtidejVar@@1@Z 005ab119 f   ptidej:CustomConstraints.obj
 0001:001aa25c       ?ptidej_makeAssociationDistanceConstraint_string@@YAPAVAssociationDistanceConstraint@@PAD0PAVPtidejVar@@1PAVPalmIntVar@@@Z 005ab25c f   ptidej:CustomConstraints.obj
 0001:001aa3a4       ?ptidej_makeUseDistanceConstraint_string@@YAPAVUseDistanceConstraint@@PAD0PAVPtidejVar@@1PAVPalmIntVar@@@Z 005ab3a4 f   ptidej:CustomConstraints.obj
 0001:001aa4ec       ?ptidej_makeInheritanceTreeDepthConstraint_string@@YAPAVInheritanceTreeDepthConstraint@@PAD0PAVPtidejVar@@1PAVPalmIntVar@@@Z 005ab4ec f   ptidej:CustomConstraints.obj
 0001:001aa634       ?ptidej_makeInheritancePathConstraint_string@@YAPAVInheritancePathConstraint@@PAD0PAVPtidejVar@@1@Z 005ab634 f   ptidej:CustomConstraints.obj
 0001:001aa7d4       ?claire_self_print_InheritancePathConstraint_ptidej@@YAXPAVInheritancePathConstraint@@@Z 005ab7d4 f   ptidej:CustomConstraints.obj
 0001:001aa91e       ?choco_awake_InheritancePathConstraint_ptidej@@YAXPAVInheritancePathConstraint@@@Z 005ab91e f   ptidej:CustomConstraints.obj
 0001:001ab385       ?choco_awakeOnRem_InheritancePathConstraint@@YAXPAVInheritancePathConstraint@@HH@Z 005ac385 f   ptidej:CustomConstraints.obj
 0001:001ab3a7       ?palm_awakeOnRestoreVal_InheritancePathConstraint@@YAXPAVInheritancePathConstraint@@HH@Z 005ac3a7 f   ptidej:CustomConstraints.obj
 0001:001ab3c9       ?choco_doAwake_InheritancePathConstraint@@YAXPAVInheritancePathConstraint@@@Z 005ac3c9 f   ptidej:CustomConstraints.obj
 0001:001ab3eb       ?ptidej_makeStrictInheritancePathConstraint_string@@YAPAVStrictInheritancePathConstraint@@PAD0PAVPtidejVar@@1@Z 005ac3eb f   ptidej:CustomConstraints.obj
 0001:001ab5cc       ?claire_self_print_StrictInheritancePathConstraint_ptidej@@YAXPAVStrictInheritancePathConstraint@@@Z 005ac5cc f   ptidej:CustomConstraints.obj
 0001:001ab716       ?choco_awake_StrictInheritancePathConstraint_ptidej@@YAXPAVStrictInheritancePathConstraint@@@Z 005ac716 f   ptidej:CustomConstraints.obj
 0001:001ac17d       ?choco_awakeOnRem_StrictInheritancePathConstraint@@YAXPAVStrictInheritancePathConstraint@@HH@Z 005ad17d f   ptidej:CustomConstraints.obj
 0001:001ac19f       ?palm_awakeOnRestoreVal_StrictInheritancePathConstraint@@YAXPAVStrictInheritancePathConstraint@@HH@Z 005ad19f f   ptidej:CustomConstraints.obj
 0001:001ac1c1       ?choco_doAwake_StrictInheritancePathConstraint@@YAXPAVStrictInheritancePathConstraint@@@Z 005ad1c1 f   ptidej:CustomConstraints.obj
 0001:001ac1e3       ?ptidej_makeInheritanceConstraint_string@@YAPAVInheritanceConstraint@@PAD0PAVPtidejVar@@1@Z 005ad1e3 f   ptidej:CustomConstraints.obj
 0001:001ac3c4       ?claire_self_print_InheritanceConstraint_ptidej@@YAXPAVInheritanceConstraint@@@Z 005ad3c4 f   ptidej:CustomConstraints.obj
 0001:001ac50e       ?choco_awake_InheritanceConstraint_ptidej@@YAXPAVInheritanceConstraint@@@Z 005ad50e f   ptidej:CustomConstraints.obj
 0001:001ad373       ?choco_awakeOnRem_InheritanceConstraint@@YAXPAVInheritanceConstraint@@HH@Z 005ae373 f   ptidej:CustomConstraints.obj
 0001:001ad395       ?palm_awakeOnRestoreVal_InheritanceConstraint@@YAXPAVInheritanceConstraint@@HH@Z 005ae395 f   ptidej:CustomConstraints.obj
 0001:001ad3b7       ?choco_doAwake_InheritanceConstraint@@YAXPAVInheritanceConstraint@@@Z 005ae3b7 f   ptidej:CustomConstraints.obj
 0001:001ad3d9       ?ptidej_makeStrictInheritanceConstraint_string@@YAPAVStrictInheritanceConstraint@@PAD0PAVPtidejVar@@1@Z 005ae3d9 f   ptidej:CustomConstraints.obj
 0001:001ad5ba       ?claire_self_print_StrictInheritanceConstraint_ptidej@@YAXPAVStrictInheritanceConstraint@@@Z 005ae5ba f   ptidej:CustomConstraints.obj
 0001:001ad704       ?choco_awake_StrictInheritanceConstraint_ptidej@@YAXPAVStrictInheritanceConstraint@@@Z 005ae704 f   ptidej:CustomConstraints.obj
 0001:001ae1f2       ?choco_awakeOnRem_StrictInheritanceConstraint@@YAXPAVStrictInheritanceConstraint@@HH@Z 005af1f2 f   ptidej:CustomConstraints.obj
 0001:001aed7d       ?palm_awakeOnRestoreVal_StrictInheritanceConstraint@@YAXPAVStrictInheritanceConstraint@@HH@Z 005afd7d f   ptidej:CustomConstraints.obj
 0001:001aed9f       ?choco_doAwake_StrictInheritanceConstraint@@YAXPAVStrictInheritanceConstraint@@@Z 005afd9f f   ptidej:CustomConstraints.obj
 0001:001aedd0       ?ptidej_makePtidejAC4Constraint_string@@YAPAVPtidejAC4Constraint@@PAD0PAVPtidejVar@@1PAVClaireBoolean@@PAVlist@@HH@Z 005afdd0 f   ptidej:AC4Constraints.obj
 0001:001afdeb       ?claire_self_print_PtidejAC4Constraint_ptidej@@YAXPAVPtidejAC4Constraint@@@Z 005b0deb f   ptidej:AC4Constraints.obj
 0001:001aff35       ?ptidej_makeAggregationAC4Constraint_string_ptidej@@YAPAVPtidejAC4Constraint@@PAD0PAVPtidejVar@@1@Z 005b0f35 f   ptidej:AC4Constraints.obj
 0001:001aff9a       ?ptidej_makeAssociationAC4Constraint_string_ptidej@@YAPAVPtidejAC4Constraint@@PAD0PAVPtidejVar@@1@Z 005b0f9a f   ptidej:AC4Constraints.obj
 0001:001affff       ?ptidej_makeAwarenessAC4Constraint_string_ptidej@@YAPAVPtidejAC4Constraint@@PAD0PAVPtidejVar@@1@Z 005b0fff f   ptidej:AC4Constraints.obj
 0001:001b0064       ?ptidej_makeCompositionAC4Constraint_string_ptidej@@YAPAVPtidejAC4Constraint@@PAD0PAVPtidejVar@@1@Z 005b1064 f   ptidej:AC4Constraints.obj
 0001:001b00c9       ?ptidej_makeContainerAggregationAC4Constraint_string_ptidej@@YAPAVPtidejAC4Constraint@@PAD0PAVPtidejVar@@1@Z 005b10c9 f   ptidej:AC4Constraints.obj
 0001:001b012e       ?ptidej_makeContainerCompositionAC4Constraint_string_ptidej@@YAPAVPtidejAC4Constraint@@PAD0PAVPtidejVar@@1@Z 005b112e f   ptidej:AC4Constraints.obj
 0001:001b0193       ?ptidej_makeCreationAC4Constraint_string_ptidej@@YAPAVPtidejAC4Constraint@@PAD0PAVPtidejVar@@1@Z 005b1193 f   ptidej:AC4Constraints.obj
 0001:001b01f8       ?ptidej_makeIgnoranceAC4Constraint_string_ptidej@@YAPAVPtidejAC4Constraint@@PAD0PAVPtidejVar@@1@Z 005b11f8 f   ptidej:AC4Constraints.obj
 0001:001b025d       ?ptidej_makeInheritanceAC4Constraint_string_ptidej@@YAPAVPtidejAC4Constraint@@PAD0PAVPtidejVar@@1@Z 005b125d f   ptidej:AC4Constraints.obj
 0001:001b02c2       ?ptidej_makeInheritancePathAC4Constraint_string_ptidej@@YAPAVPtidejAC4Constraint@@PAD0PAVPtidejVar@@1@Z 005b12c2 f   ptidej:AC4Constraints.obj
 0001:001b0327       ?ptidej_makeUseAC4Constraint_string_ptidej@@YAPAVPtidejAC4Constraint@@PAD0PAVPtidejVar@@1@Z 005b1327 f   ptidej:AC4Constraints.obj
 0001:001b038c       ?ptidej_makeNoAssociationAC4Constraint_string_ptidej@@YAPAVPtidejAC4Constraint@@PAD0PAVPtidejVar@@1@Z 005b138c f   ptidej:AC4Constraints.obj
 0001:001b03f1       ?ptidej_makeNoAggregationAC4Constraint_string_ptidej@@YAPAVPtidejAC4Constraint@@PAD0PAVPtidejVar@@1@Z 005b13f1 f   ptidej:AC4Constraints.obj
 0001:001b0456       ?ptidej_makeNoCompositionAC4Constraint_string_ptidej@@YAPAVPtidejAC4Constraint@@PAD0PAVPtidejVar@@1@Z 005b1456 f   ptidej:AC4Constraints.obj
 0001:001b04bb       ?ptidej_makeStrictInheritanceAC4Constraint_string_ptidej@@YAPAVPtidejAC4Constraint@@PAD0PAVPtidejVar@@1@Z 005b14bb f   ptidej:AC4Constraints.obj
 0001:001b0520       ?ptidej_makeStrictInheritancePathAC4Constraint_string_ptidej@@YAPAVPtidejAC4Constraint@@PAD0PAVPtidejVar@@1@Z 005b1520 f   ptidej:AC4Constraints.obj
 0001:001b0590       ?palm_repair_PtidejProblem_ptidej@@YAXPAVPtidejProblem@@@Z 005b1590 f   ptidej:GeneralRepairAlgorithm.obj
 0001:001b06cd       ?palm_repair_PtidejSolver_ptidej@@YAXPAVPtidejSolver@@@Z 005b16cd f   ptidej:GeneralRepairAlgorithm.obj
 0001:001b11c0       ?choco_attach_LocalSearchSolver@@YAXPAVLocalSearchSolver@@PAVPalmProblem@@@Z 005b21c0 f   ptidej:SolverCore.obj
 0001:001b11d5       ?palm_remove_GeneralPalmRepair@@YAXPAVGeneralPalmRepair@@PAVAbstractConstraint@@@Z 005b21d5 f   ptidej:SolverCore.obj
 0001:001b121a       ?ptidej_getRemovedConstraints_GeneralPalmRepair@@YAPAVlist@@PAVGeneralPalmRepair@@@Z 005b221a f   ptidej:SolverCore.obj
 0001:001b125f       ?palm_selectDecisionToUndo_GeneralPalmRepair_ptidej_@@YAPAVtuple@@PAVGeneralPalmRepair@@PAVExplanation@@@Z 005b225f f   ptidej:SolverCore.obj
 0001:001b127b       ?palm_selectDecisionToUndo_GeneralPalmRepair_ptidej@@YAPAVtuple@@PAVGeneralPalmRepair@@PAVExplanation@@@Z 005b227b f   ptidej:SolverCore.obj
 0001:001b12c9       ?palm_selectDecisionToUndo_MinimumPtidejRepair_ptidej_@@YAPAVtuple@@PAVMinimumPtidejRepair@@PAVExplanation@@@Z 005b22c9 f   ptidej:SolverCore.obj
 0001:001b12e5       ?palm_selectDecisionToUndo_MinimumPtidejRepair_ptidej@@YAPAVtuple@@PAVMinimumPtidejRepair@@PAVExplanation@@@Z 005b22e5 f   ptidej:SolverCore.obj
 0001:001b14ca       ?ptidej_makePtidejProblem_string@@YAPAVPtidejProblem@@PADHH@Z 005b24ca f   ptidej:SolverCore.obj
 0001:001b1819       ?palm_selectBranchingItem_PtidejAssignVar_ptidej@@YAHPAVPtidejAssignVar@@@Z 005b2819 f   ptidej:SolverCore.obj
 0001:001b1cf0       ?palm_remove_PtidejRepair@@YAXPAVPtidejRepair@@PAVAbstractConstraint@@@Z 005b2cf0 f   ptidej:SolverCore.obj
 0001:001b1df1       ?ptidej_getRemovedConstraints_PtidejRepair@@YAPAVlist@@PAVPtidejRepair@@@Z 005b2df1 f   ptidej:SolverCore.obj
 0001:001b1dfc       ?ptidej_setRemovedConstraints_PtidejRepair@@YAXPAVPtidejRepair@@PAVlist@@@Z 005b2dfc f   ptidej:SolverCore.obj
 0001:001b1e26       ?ptidej_getProblemRelaxationLevel_PtidejRepair@@YAHPAVPtidejRepair@@@Z 005b2e26 f   ptidej:SolverCore.obj
 0001:001b1e57       ?choco_getProblem_PtidejRepair@@YAPAVPtidejProblem@@PAVPtidejRepair@@@Z 005b2e57 f   ptidej:SolverCore.obj
 0001:001b1e88       ?ptidej_setProblem_PtidejRepair@@YAXPAVPtidejRepair@@PAVPtidejProblem@@@Z 005b2e88 f   ptidej:SolverCore.obj
 0001:001b1eb2       ?ptidej_setSolutionNumber_PtidejBranching@@YAXPAVPtidejBranching@@H@Z 005b2eb2 f   ptidej:SolverCore.obj
 0001:001b1ec0       ?ptidej_getSolutionNumber_PtidejBranching@@YAHPAVPtidejBranching@@@Z 005b2ec0 f   ptidej:SolverCore.obj
 0001:001b1ecb       ?ptidej_setMessage_PtidejBranching@@YAXPAVPtidejBranching@@PAD@Z 005b2ecb f   ptidej:SolverCore.obj
 0001:001b1ed9       ?ptidej_getMessage_PtidejBranching@@YAPADPAVPtidejBranching@@@Z 005b2ed9 f   ptidej:SolverCore.obj
 0001:001b1ee4       ?ptidej_setPercentage_PtidejBranching@@YAXPAVPtidejBranching@@H@Z 005b2ee4 f   ptidej:SolverCore.obj
 0001:001b1ef2       ?ptidej_getPercentage_PtidejBranching@@YAHPAVPtidejBranching@@@Z 005b2ef2 f   ptidej:SolverCore.obj
 0001:001b1efd       ?ptidej_setXCommand_PtidejBranching@@YAXPAVPtidejBranching@@PAD@Z 005b2efd f   ptidej:SolverCore.obj
 0001:001b1f0b       ?ptidej_getXCommand_PtidejBranching@@YAPADPAVPtidejBranching@@@Z 005b2f0b f   ptidej:SolverCore.obj
 0001:001b1f16       ?ptidej_makePtidejVar_PalmProblem1@@YAPAVPtidejVar@@PAVPalmProblem@@PADHH@Z 005b2f16 f   ptidej:SolverCore.obj
 0001:001b1f39       ?ptidej_makePtidejVar_PalmProblem2@@YAPAVPtidejVar@@PAVPalmProblem@@PADHHPAVClaireBoolean@@@Z 005b2f39 f   ptidej:SolverCore.obj
 0001:001b24c7       ?ptidej_makePtidejBoundVar_PalmProblem1@@YAPAVPtidejBoundVar@@PAVPalmProblem@@PADHH@Z 005b34c7 f   ptidej:SolverCore.obj
 0001:001b24ea       ?ptidej_makePtidejBoundVar_PalmProblem2@@YAPAVPtidejBoundVar@@PAVPalmProblem@@PADHHPAVClaireBoolean@@@Z 005b34ea f   ptidej:SolverCore.obj
 0001:001b2a53       ?claire_self_print_PtidejVar_ptidej@@YAXPAVPtidejVar@@@Z 005b3a53 f   ptidej:SolverCore.obj
 0001:001b2e2c       ?ptidej_userAssignSelectVar_list@@YAHPAVlist@@@Z 005b3e2c f   ptidej:SolverCore.obj
 0001:001b3086       ?ptidej_isBetterConstraint_AbstractConstraint@@YAPAVClaireBoolean@@PAVAbstractConstraint@@0@Z 005b4086 f   ptidej:SolverCore.obj
 0001:001b30d0       ?ptidej_getExplanations_list@@YAXPAVlist@@PAVExplanation@@@Z 005b40d0 f   ptidej:SolverCore.obj
 0001:001b313c       ?ptidej_clearResultFile_void@@YAHXZ 005b413c f   ptidej:SolverCore.obj
 0001:001b343d       ?ptidej_printOutSolution_PtidejProblem@@YAXPAVPtidejProblem@@PADHH1@Z 005b443d f   ptidej:SolverCore.obj
 0001:001b4550       ?ptidej_printOutTime_integer@@YAXH@Z 005b5550 f   ptidej:SolverCore.obj
 0001:001b487c       ?ptidej_printHeader_void@@YAXXZ 005b587c f   ptidej:SolverCore.obj
 0001:001b48fa       ?ptidej_printFooter_void@@YAXXZ 005b58fa f   ptidej:SolverCore.obj
 0001:001b4978       ?ptidej_printStatus_void@@YAXXZ 005b5978 f   ptidej:SolverCore.obj
 0001:001b4a67       ?palm_selectBranchingItem_PtidejInteractiveBranching_ptidej@@YAHPAVPtidejInteractiveBranching@@@Z 005b5a67 f   ptidej:SolverCore.obj
 0001:001b610d       ?palm_selectBranchingItem_PtidejAutomaticBranching_ptidej@@YAHPAVPtidejAutomaticBranching@@@Z 005b710d f   ptidej:SolverCore.obj
 0001:001b69da       ?ptidej_searchConcretePatterns_method@@YAXPAVmethod@@PAVPtidejProblem@@@Z 005b79da f   ptidej:SolverCore.obj
 0001:001b6b80       ?ptidej_getGlobalWeight_PtidejProblem@@YAHPAVPtidejProblem@@@Z 005b7b80 f   ptidej:SolverModel.obj
 0001:001b6b8b       ?ptidej_setGlobalWeight_PtidejProblem@@YAXPAVPtidejProblem@@H@Z 005b7b8b f   ptidej:SolverModel.obj
 0001:001b6b99       ?ptidej_getName_PtidejBinConstraint@@YAPADPAVPtidejBinConstraint@@@Z 005b7b99 f   ptidej:SolverModel.obj
 0001:001b6be3       ?ptidej_getXCommand_PtidejBinConstraint@@YAPADPAVPtidejBinConstraint@@@Z 005b7be3 f   ptidej:SolverModel.obj
 0001:001b6c2d       ?ptidej_getThisConstraint_PtidejBinConstraint@@YAHPAVPtidejBinConstraint@@@Z 005b7c2d f   ptidej:SolverModel.obj
 0001:001b6c38       ?ptidej_getNextConstraint_PtidejBinConstraint@@YAHPAVPtidejBinConstraint@@@Z 005b7c38 f   ptidej:SolverModel.obj
 0001:001b6c43       ?palm_weight_PtidejBinConstraint@@YAHPAVPtidejBinConstraint@@@Z 005b7c43 f   ptidej:SolverModel.obj
 0001:001b6d3b       ?ptidej_getName_PtidejLargeConstraint@@YAPADPAVPtidejLargeConstraint@@@Z 005b7d3b f   ptidej:SolverModel.obj
 0001:001b6d85       ?ptidej_getXCommand_PtidejLargeConstraint@@YAPADPAVPtidejLargeConstraint@@@Z 005b7d85 f   ptidej:SolverModel.obj
 0001:001b6dcf       ?ptidej_getThisConstraint_PtidejLargeConstraint@@YAHPAVPtidejLargeConstraint@@@Z 005b7dcf f   ptidej:SolverModel.obj
 0001:001b6dda       ?ptidej_getNextConstraint_PtidejLargeConstraint@@YAHPAVPtidejLargeConstraint@@@Z 005b7dda f   ptidej:SolverModel.obj
 0001:001b6de5       ?palm_weight_PtidejLargeConstraint@@YAHPAVPtidejLargeConstraint@@@Z 005b7de5 f   ptidej:SolverModel.obj
 0001:001b6edd       ?ptidej_getName_PtidejAC4Constraint@@YAPADPAVPtidejAC4Constraint@@@Z 005b7edd f   ptidej:SolverModel.obj
 0001:001b6f27       ?ptidej_getXCommand_PtidejAC4Constraint@@YAPADPAVPtidejAC4Constraint@@@Z 005b7f27 f   ptidej:SolverModel.obj
 0001:001b6f71       ?ptidej_getThisConstraint_PtidejAC4Constraint@@YAHPAVPtidejAC4Constraint@@@Z 005b7f71 f   ptidej:SolverModel.obj
 0001:001b6f7c       ?ptidej_getNextConstraint_PtidejAC4Constraint@@YAHPAVPtidejAC4Constraint@@@Z 005b7f7c f   ptidej:SolverModel.obj
 0001:001b6f87       ?palm_weight_PtidejAC4Constraint@@YAHPAVPtidejAC4Constraint@@@Z 005b7f87 f   ptidej:SolverModel.obj
 0001:001b707f       ?ptidej_setVarsToShow_GlobalSearchSolver1@@YAXPAVGlobalSearchSolver@@PAVlist@@@Z 005b807f f   ptidej:SolverModel.obj
 0001:001b71d1       ?ptidej_setVarsToShow_GlobalSearchSolver2@@YAXPAVGlobalSearchSolver@@PAVlist@@@Z 005b81d1 f   ptidej:SolverModel.obj
 0001:001b7200       ?claire_self_print_Entity_ptidej@@YAXPAVEntity@@@Z 005b8200 f   ptidej:DomainModel.obj
 0001:001b7369       ?ptidej_getCachedReachableRelationship_property@@YAPAVproperty@@PAV1@@Z 005b8369 f   ptidej:DomainModel.obj
 0001:001b7420       ?claire_self_print_list2_ptidej@@YAXPAVlist@@@Z 005b8420 f   ptidej:DomainModel.obj
 0001:001b74b0       ?ptidej_ptidejVersion_void@@YAPADXZ 005b84b0 f   ptidej:Release.obj
 0001:001b74ba       ?ptidej_ptidejReleaseDate_void@@YAPADXZ 005b84ba f   ptidej:Release.obj
 0001:001b74c4       ?ptidej_ptidejInfo_void@@YAPADXZ 005b84c4 f   ptidej:Release.obj
 0001:001b74ce       ?ptidej_showPtidejLicense_void@@YAXXZ 005b84ce f   ptidej:Release.obj
 0001:001b7530       ?bootstrap@KernelClass@@QAEXXZ 005b8530 f   Kernel:Kernel.obj
 0001:001b9640       ?metaLoad@KernelClass@@QAEXXZ 005ba640 f   Kernel:Kernel.obj
 0001:001bbc90       ?copy_string@@YAPADPAD@Z   005bcc90 f   Kernel:Clstring.obj
 0001:001bbcf0       ?equal_string@@YAPAVClaireBoolean@@PAD0@Z 005bccf0 f   Kernel:Clstring.obj
 0001:001bbd30       ?princ_string@@YAXPAD@Z    005bcd30 f   Kernel:Clstring.obj
 0001:001bbd60       ?self_print_string@@YAXPAD@Z 005bcd60 f   Kernel:Clstring.obj
 0001:001bbe00       ?append_string@@YAPADPAD0@Z 005bce00 f   Kernel:Clstring.obj
 0001:001bbec0       ?integer_I_string@@YAHPAD@Z 005bcec0 f   Kernel:Clstring.obj
 0001:001bbee0       ?substring_string@@YAPADPADHH@Z 005bcee0 f   Kernel:Clstring.obj
 0001:001bbf70       ?get_string@@YAHPADPAVClaireChar@@@Z 005bcf70 f   Kernel:Clstring.obj
 0001:001bbfa0       ?_less_string@@YAPAVClaireBoolean@@PAD0@Z 005bcfa0 f   Kernel:Clstring.obj
 0001:001bbfe0       ?included_string@@YAHPAD0PAVClaireBoolean@@@Z 005bcfe0 f   Kernel:Clstring.obj
 0001:001bc060       ?nth_string@@YAPAVClaireChar@@PADH@Z 005bd060 f   Kernel:Clstring.obj
 0001:001bc0c0       ?nth_set_string@@YAXPADHPAVClaireChar@@@Z 005bd0c0 f   Kernel:Clstring.obj
 0001:001bc110       ?shrink_string@@YAPADPADH@Z 005bd110 f   Kernel:Clstring.obj
 0001:001bc160       ?value_string@@YAHPAD@Z    005bd160 f   Kernel:Clstring.obj
 0001:001bc180       ?value_module@@YAHPAVmodule@@PAD@Z 005bd180 f   Kernel:Clstring.obj
 0001:001bc1a0       ?get_symbol_module@@YAHPAVmodule@@PAD@Z 005bd1a0 f   Kernel:Clstring.obj
 0001:001bc1d0       ?date_I_integer@@YAPADH@Z  005bd1d0 f   Kernel:Clstring.obj
 0001:001bc200       ?getenv_string@@YAPADPAD@Z 005bd200 f   Kernel:Clstring.obj
 0001:001bc220       ?make@module@@SAPAV1@PADPAV1@@Z 005bd220 f   Kernel:Clstring.obj
 0001:001bc290       ?hash@module@@QAEIPAD@Z    005bd290 f   Kernel:Clstring.obj
 0001:001bc2d0       ?lookup@module@@QAEPAVsymbol@@PAD@Z 005bd2d0 f   Kernel:Clstring.obj
 0001:001bc370       ?getSymbol@module@@QAEPAVsymbol@@PADPAV1@@Z 005bd370 f   Kernel:Clstring.obj
 0001:001bc3c0       ?initModule@NameSpace@@QAEXPADPAVmodule@@@Z 005bd3c0 f   Kernel:Clstring.obj
 0001:001bc3e0       ?initModule@NameSpace@@QAEXPADPAVmodule@@PAVlist@@02@Z 005bd3e0 f   Kernel:Clstring.obj
 0001:001bc470       ?begin_module@@YAXPAVmodule@@@Z 005bd470 f   Kernel:Clstring.obj
 0001:001bc4a0       ?end_module@@YAXPAVmodule@@@Z 005bd4a0 f   Kernel:Clstring.obj
 0001:001bc4f0       ?make@symbol@@SAPAV1@PADPAVmodule@@1@Z 005bd4f0 f   Kernel:Clstring.obj
 0001:001bc5d0       ?getValue@symbol@@QAEHXZ   005bd5d0 f   Kernel:Clstring.obj
 0001:001bc610       ?symbolDebug@@YAXPAVsymbol@@@Z 005bd610 f   Kernel:Clstring.obj
 0001:001bc680       ?symbol_I_string@@YAPAVsymbol@@PADPAVmodule@@@Z 005bd680 f   Kernel:Clstring.obj
 0001:001bc6a0       ?put_symbol@@YAHPAVsymbol@@H@Z 005bd6a0 f   Kernel:Clstring.obj
 0001:001bc6b0       ?get_symbol@@YAHPAVsymbol@@@Z 005bd6b0 f   Kernel:Clstring.obj
 0001:001bc6d0       ?append_symbol@@YAPAVsymbol@@PAV1@H@Z 005bd6d0 f   Kernel:Clstring.obj
 0001:001bc7f0       ?princ_symbol@@YAXPAVsymbol@@@Z 005bd7f0 f   Kernel:Clstring.obj
 0001:001bc850       ?defined_symbol@@YAPAVmodule@@PAVsymbol@@@Z 005bd850 f   Kernel:Clstring.obj
 0001:001bc860       ?module_I_symbol@@YAPAVmodule@@PAVsymbol@@@Z 005bd860 f   Kernel:Clstring.obj
 0001:001bc870       ?string_I_symbol@@YAPADPAVsymbol@@@Z 005bd870 f   Kernel:Clstring.obj
 0001:001bc880       ?gensym_string@@YAPAVsymbol@@PAD@Z 005bd880 f   Kernel:Clstring.obj
 0001:001bca60       ?integer_I_symbol@@YAHPAVsymbol@@@Z 005bda60 f   Kernel:Clstring.obj
 0001:001bcad0       ?princ_integer@@YAXH@Z     005bdad0 f   Kernel:Clstring.obj
 0001:001bcaf0       ?ch_sign@@YAHH@Z           005bdaf0 f   Kernel:Clstring.obj
 0001:001bcb00       ?_7_integer@@YAHHH@Z       005bdb00 f   Kernel:Clstring.obj
 0001:001bcb30       ?mod_integer@@YAHHH@Z      005bdb30 f   Kernel:Clstring.obj
 0001:001bcb60       ?_exp_integer@@YAHHH@Z     005bdb60 f   Kernel:Clstring.obj
 0001:001bcbb0       ?exp2_integer@@YAHH@Z      005bdbb0 f   Kernel:Clstring.obj
 0001:001bcbe0       ?char_I_integer@@YAPAVClaireChar@@H@Z 005bdbe0 f   Kernel:Clstring.obj
 0001:001bcc30       ?string_I_integer@@YAPADH@Z 005bdc30 f   Kernel:Clstring.obj
 0001:001bcc60       ?make_string_integer@@YAPADHPAVClaireChar@@@Z 005bdc60 f   Kernel:Clstring.obj
 0001:001bccc0       ?make_string_list@@YAPADPAVlist@@@Z 005bdcc0 f   Kernel:Clstring.obj
 0001:001bcd40       ?times_integer@@YAHHH@Z    005bdd40 f   Kernel:Clstring.obj
 0001:001bcda0       ?random_integer@@YAHH@Z    005bdda0 f   Kernel:Clstring.obj
 0001:001bcdd0       ?princ_int@@YAXH@Z         005bddd0 f   Kernel:Clstring.obj
 0001:001bcdf0       ?to_float_@@YAHH@Z         005bddf0 f   Kernel:Clstring.obj
 0001:001bce60       ?to_float@@YANH@Z          005bde60 f   Kernel:Clstring.obj
 0001:001bce70       ?integer_I_float_@@YAHH@Z  005bde70 f   Kernel:Clstring.obj
 0001:001bcea0       ?integer_I_float@@YAHN@Z   005bdea0 f   Kernel:Clstring.obj
 0001:001bcf80       ?_inf_float@@YAPAVClaireBoolean@@NN@Z 005bdf80 f   Kernel:Clstring.obj
 0001:001bcfa0       ?_inf_equal_float@@YAPAVClaireBoolean@@NN@Z 005bdfa0 f   Kernel:Clstring.obj
 0001:001bcfc0       ?_sup_float@@YAPAVClaireBoolean@@NN@Z 005bdfc0 f   Kernel:Clstring.obj
 0001:001bcfe0       ?_sup_equal_float@@YAPAVClaireBoolean@@NN@Z 005bdfe0 f   Kernel:Clstring.obj
 0001:001bd000       ?_inf_float_@@YAPAVClaireBoolean@@HH@Z 005be000 f   Kernel:Clstring.obj
 0001:001bd040       ?_inf_equal_float_@@YAPAVClaireBoolean@@HH@Z 005be040 f   Kernel:Clstring.obj
 0001:001bd080       ?_sup_float_@@YAPAVClaireBoolean@@HH@Z 005be080 f   Kernel:Clstring.obj
 0001:001bd0c0       ?_sup_equal_float_@@YAPAVClaireBoolean@@HH@Z 005be0c0 f   Kernel:Clstring.obj
 0001:001bd100       ?princ_float@@YAXN@Z       005be100 f   Kernel:Clstring.obj
 0001:001bd120       ?princ_float_@@YAXH@Z      005be120 f   Kernel:Clstring.obj
 0001:001bd150       ?checkNextFree@@YAXXZ      005be150 f   Kernel:Clalloc.OBJ
 0001:001bd180       ?GC_DEBUG@@YAHH@Z          005be180 f   Kernel:Clalloc.OBJ
 0001:001bd190       ?init@ClaireAllocation@@QAEXXZ 005be190 f   Kernel:Clalloc.OBJ
 0001:001bd3d0       ?log2up@ClaireAllocation@@SAHH@Z 005be3d0 f   Kernel:Clalloc.OBJ
 0001:001bd3f0       ?newChunk@ClaireAllocation@@AAEHH@Z 005be3f0 f   Kernel:Clalloc.OBJ
 0001:001bd580       ?newShort@ClaireAllocation@@AAEHH@Z 005be580 f   Kernel:Clalloc.OBJ
 0001:001bd620       ?newLong@ClaireAllocation@@AAEHH@Z 005be620 f   Kernel:Clalloc.OBJ
 0001:001bd670       ?makeStatic@ClaireAllocation@@QAEPAVClaireAny@@H@Z 005be670 f   Kernel:Clalloc.OBJ
 0001:001bd6a0       ?makeAny@ClaireAllocation@@QAEPAVClaireAny@@H@Z 005be6a0 f   Kernel:Clalloc.OBJ
 0001:001bd700       ?makeString@ClaireAllocation@@QAEPADH@Z 005be700 f   Kernel:Clalloc.OBJ
 0001:001bd740       ?makeArray@ClaireAllocation@@QAEPAHHPAVClaireType@@@Z 005be740 f   Kernel:Clalloc.OBJ
 0001:001bd7a0       ?makeContent@ClaireAllocation@@QAEPAHH@Z 005be7a0 f   Kernel:Clalloc.OBJ
 0001:001bd7d0       ?import@ClaireAllocation@@QAEHPAVClaireClass@@PAH@Z 005be7d0 f   Kernel:Clalloc.OBJ
 0001:001bd870       ?makeFunction@ClaireAllocation@@QAEPAVClaireFunction@@P6AHH@ZPAD@Z 005be870 f   Kernel:Clalloc.OBJ
 0001:001bd8a0       ?error_undefined_function@@YAHXZ 005be8a0 f   Kernel:Clalloc.OBJ
 0001:001bd8c0       ?make_function_string@@YAPAVClaireFunction@@PAD@Z 005be8c0 f   Kernel:Clalloc.OBJ
 0001:001bd8e0       ?freeChunk@ClaireAllocation@@AAEHH@Z 005be8e0 f   Kernel:Clalloc.OBJ
 0001:001bd960       ?freeLoop@ClaireAllocation@@AAEHH@Z 005be960 f   Kernel:Clalloc.OBJ
 0001:001bda10       ?freeSimple@ClaireAllocation@@AAEHHH@Z 005bea10 f   Kernel:Clalloc.OBJ
 0001:001bda60       ?mergeRight@ClaireAllocation@@AAEHHHH@Z 005bea60 f   Kernel:Clalloc.OBJ
 0001:001bdad0       ?mergeLeft@ClaireAllocation@@AAEHHHH@Z 005bead0 f   Kernel:Clalloc.OBJ
 0001:001bdb40       ?freeObject@ClaireAllocation@@AAEXH@Z 005beb40 f   Kernel:Clalloc.OBJ
 0001:001bdba0       ?freeString@ClaireAllocation@@AAEXPAD@Z 005beba0 f   Kernel:Clalloc.OBJ
 0001:001bdbe0       ?freeChain@@YAXXZ          005bebe0 f   Kernel:Clalloc.OBJ
 0001:001bdc40       ?gc@ClaireAllocation@@QAEXPAD@Z 005bec40 f   Kernel:Clalloc.OBJ
 0001:001bdd90       ?markHash@ClaireAllocation@@AAEXXZ 005bed90 f   Kernel:Clalloc.OBJ
 0001:001bde50       ?markStack@ClaireAllocation@@AAEXXZ 005bee50 f   Kernel:Clalloc.OBJ
 0001:001bdf40       ?markPushed@ClaireAllocation@@AAEXH@Z 005bef40 f   Kernel:Clalloc.OBJ
 0001:001bdfa0       ?mark@ClaireAllocation@@AAEXH@Z 005befa0 f   Kernel:Clalloc.OBJ
 0001:001be0a0       ?markAny@ClaireAllocation@@AAEXPAVClaireAny@@@Z 005bf0a0 f   Kernel:Clalloc.OBJ
 0001:001be130       ?markObject@ClaireAllocation@@AAEXPAVClaireObject@@@Z 005bf130 f   Kernel:Clalloc.OBJ
 0001:001be230       ?markPrimitive@ClaireAllocation@@AAEXPAVClairePrimitive@@@Z 005bf230 f   Kernel:Clalloc.OBJ
 0001:001be2c0       ?markBag@ClaireAllocation@@AAEXPAVbag@@@Z 005bf2c0 f   Kernel:Clalloc.OBJ
 0001:001be360       ?markString@ClaireAllocation@@AAEXPAD@Z 005bf360 f   Kernel:Clalloc.OBJ
 0001:001be3a0       ?markArray@ClaireAllocation@@AAEXPAH@Z 005bf3a0 f   Kernel:Clalloc.OBJ
 0001:001be400       ?sweepChunk@ClaireAllocation@@AAEXXZ 005bf400 f   Kernel:Clalloc.OBJ
 0001:001be470       ?sweepObject@ClaireAllocation@@AAEXXZ 005bf470 f   Kernel:Clalloc.OBJ
 0001:001be500       ?checkOID@@YAXH@Z          005bf500 f   Kernel:Clalloc.OBJ
 0001:001be5c0       ?kill@ClaireAllocation@@QAEXH@Z 005bf5c0 f   Kernel:Clalloc.OBJ
 0001:001be750       ?kill_I_any@@YAXH@Z        005bf750 f   Kernel:Clalloc.OBJ
 0001:001be770       ?claire_gc@@YAXXZ          005bf770 f   Kernel:Clalloc.OBJ
 0001:001be790       ?GC_OBJ_F@@YAPAVClaireObject@@PAV1@@Z 005bf790 f   Kernel:Clalloc.OBJ
 0001:001be7c0       ?GC_OID@@YAHH@Z            005bf7c0 f   Kernel:Clalloc.OBJ
 0001:001be810       ?GC__OID@@YAXHH@Z          005bf810 f   Kernel:Clalloc.OBJ
 0001:001be850       ?GC_STRING@@YAPADPAD@Z     005bf850 f   Kernel:Clalloc.OBJ
 0001:001be8a0       ?GC__STRING@@YAXPADH@Z     005bf8a0 f   Kernel:Clalloc.OBJ
 0001:001be8f0       ?GC_ARRAY@@YAPAHPAH@Z      005bf8f0 f   Kernel:Clalloc.OBJ
 0001:001be930       ?gc_error@@YAHXZ           005bf930 f   Kernel:Clalloc.OBJ
 0001:001be950       ?GC_RESERVE@@YAXH@Z        005bf950 f   Kernel:Clalloc.OBJ
 0001:001be9d0       ?memStat@ClaireAllocation@@QAEXXZ 005bf9d0 f   Kernel:Clalloc.OBJ
 0001:001bed30       ?memList@ClaireAllocation@@QAEPAVlist@@PAVClaireBoolean@@@Z 005bfd30 f   Kernel:Clalloc.OBJ
 0001:001bee00       ?claire_stat@@YAXXZ        005bfe00 f   Kernel:Clalloc.OBJ
 0001:001bee10       ?claire_mem@@YAHH@Z        005bfe10 f   Kernel:Clalloc.OBJ
 0001:001beef0       ?quickSort@bag@@SAXPAHHH@Z 005bfef0 f   Kernel:Clbag.OBJ
 0001:001bf010       ?quickClean@bag@@SAHPAHH@Z 005c0010 f   Kernel:Clbag.OBJ
 0001:001bf170       ?clone@bag@@QAEPAVlist@@XZ 005c0170 f   Kernel:Clbag.OBJ
 0001:001bf180       ?clone@bag@@QAEPAVlist@@PAVClaireType@@@Z 005c0180 f   Kernel:Clbag.OBJ
 0001:001bf280       ?copy_bag@@YAPAVbag@@PAV1@@Z 005c0280 f   Kernel:Clbag.OBJ
 0001:001bf340       ?empty_bag@@YAPAVbag@@PAV1@@Z 005c0340 f   Kernel:Clbag.OBJ
 0001:001bf3d0       ?delete_bag@@YAPAVbag@@PAV1@H@Z 005c03d0 f   Kernel:Clbag.OBJ
 0001:001bf4c0       ?of_bag@@YAPAVClaireType@@PAVbag@@@Z 005c04c0 f   Kernel:Clbag.OBJ
 0001:001bf4e0       ?cast_I_bag@@YAPAVbag@@PAV1@PAVClaireType@@@Z 005c04e0 f   Kernel:Clbag.OBJ
 0001:001bf4f0       ?empty@list@@SAPAV1@XZ     005c04f0 f   Kernel:Clbag.OBJ
 0001:001bf570       ?empty@list@@SAPAV1@PAVClaireType@@@Z 005c0570 f   Kernel:Clbag.OBJ
 0001:001bf5f0       ?make@list@@SAPAV1@H@Z     005c05f0 f   Kernel:Clbag.OBJ
 0001:001bf670       ?make@list@@SAPAV1@HH@Z    005c0670 f   Kernel:Clbag.OBJ
 0001:001bf6f0       ?alloc@list@@SAPAV1@HZZ    005c06f0 f   Kernel:Clbag.OBJ
 0001:001bf790       ?alloc@list@@SAPAV1@PAVClaireType@@HZZ 005c0790 f   Kernel:Clbag.OBJ
 0001:001bf830       ?domain@list@@SAPAV1@HZZ   005c0830 f   Kernel:Clbag.OBJ
 0001:001bf8e0       ?addFast@list@@QAEPAV1@H@Z 005c08e0 f   Kernel:Clbag.OBJ
 0001:001bf940       ?equalList@list@@QAEPAVClaireBoolean@@PAV1@@Z 005c0940 f   Kernel:Clbag.OBJ
 0001:001bf9b0       ?memq@list@@QAEPAVClaireBoolean@@H@Z 005c09b0 f   Kernel:Clbag.OBJ
 0001:001bf9f0       ?contain_ask_list@@YAPAVClaireBoolean@@PAVlist@@H@Z 005c09f0 f   Kernel:Clbag.OBJ
 0001:001bfa80       ?add_list@@YAPAVlist@@PAV1@H@Z 005c0a80 f   Kernel:Clbag.OBJ
 0001:001bfad0       ?add_I_list@@YAPAVlist@@PAV1@H@Z 005c0ad0 f   Kernel:Clbag.OBJ
 0001:001bfae0       ?cons_any@@YAPAVlist@@HPAV1@@Z 005c0ae0 f   Kernel:Clbag.OBJ
 0001:001bfbc0       ?make_list_integer@@YAPAVlist@@HH@Z 005c0bc0 f   Kernel:Clbag.OBJ
 0001:001bfc80       ?index_list@@YAHPAVlist@@H@Z 005c0c80 f   Kernel:Clbag.OBJ
 0001:001bfce0       ?add_star_list@@YAPAVlist@@PAV1@0@Z 005c0ce0 f   Kernel:Clbag.OBJ
 0001:001bfde0       ?append_list@@YAPAVlist@@PAV1@0@Z 005c0de0 f   Kernel:Clbag.OBJ
 0001:001bff10       ?add_at_list@@YAPAVlist@@PAV1@HH@Z 005c0f10 f   Kernel:Clbag.OBJ
 0001:001bffe0       ?delete_at_list@@YAPAVlist@@PAV1@H@Z 005c0fe0 f   Kernel:Clbag.OBJ
 0001:001c0040       ?skip_list@@YAPAVlist@@PAV1@H@Z 005c1040 f   Kernel:Clbag.OBJ
 0001:001c00d0       ?cdr_list@@YAPAVlist@@PAV1@@Z 005c10d0 f   Kernel:Clbag.OBJ
 0001:001c0190       ?shrink_list@@YAPAVbag@@PAV1@H@Z 005c1190 f   Kernel:Clbag.OBJ
 0001:001c01d0       ?empty@set@@SAPAV1@XZ      005c11d0 f   Kernel:Clbag.OBJ
 0001:001c0250       ?empty@set@@SAPAV1@PAVClaireType@@@Z 005c1250 f   Kernel:Clbag.OBJ
 0001:001c02d0       ?alloc@set@@SAPAV1@HZZ     005c12d0 f   Kernel:Clbag.OBJ
 0001:001c0310       ?alloc@set@@SAPAV1@PAVClaireType@@HZZ 005c1310 f   Kernel:Clbag.OBJ
 0001:001c0350       ?addFast@set@@QAEPAV1@H@Z  005c1350 f   Kernel:Clbag.OBJ
 0001:001c04e0       ?equalSet@set@@QAEPAVClaireBoolean@@PAV1@@Z 005c14e0 f   Kernel:Clbag.OBJ
 0001:001c05a0       ?contain_ask_set@@YAPAVClaireBoolean@@PAVset@@H@Z 005c15a0 f   Kernel:Clbag.OBJ
 0001:001c0670       ?add_set@@YAPAVset@@PAV1@H@Z 005c1670 f   Kernel:Clbag.OBJ
 0001:001c06c0       ?add_I_set@@YAPAVset@@PAV1@H@Z 005c16c0 f   Kernel:Clbag.OBJ
 0001:001c06d0       ?_exp_set@@YAPAVset@@PAV1@0@Z 005c16d0 f   Kernel:Clbag.OBJ
 0001:001c0870       ?append_set@@YAPAVset@@PAV1@0@Z 005c1870 f   Kernel:Clbag.OBJ
 0001:001c0b50       ?set_I_bag@@YAPAVset@@PAVbag@@@Z 005c1b50 f   Kernel:Clbag.OBJ
 0001:001c0bc0       ?list_I_set@@YAPAVlist@@PAVset@@@Z 005c1bc0 f   Kernel:Clbag.OBJ
 0001:001c0be0       ?sequence_integer@@YAPAVset@@HH@Z 005c1be0 f   Kernel:Clbag.OBJ
 0001:001c0cc0       ?empty@tuple@@SAPAV1@XZ    005c1cc0 f   Kernel:Clbag.OBJ
 0001:001c0d40       ?alloc@tuple@@SAPAV1@HZZ   005c1d40 f   Kernel:Clbag.OBJ
 0001:001c0de0       ?allocStack@tuple@@SAPAV1@HZZ 005c1de0 f   Kernel:Clbag.OBJ
 0001:001c0e70       ?tuple_I_list@@YAPAVtuple@@PAVlist@@@Z 005c1e70 f   Kernel:Clbag.OBJ
 0001:001c0e90       ?list_I_tuple@@YAPAVlist@@PAVtuple@@@Z 005c1e90 f   Kernel:Clbag.OBJ
 0001:001c0eb0       ?addFast@tuple@@QAEPAV1@H@Z 005c1eb0 f   Kernel:Clbag.OBJ
 0001:001c0ec0       ?copyIfNeeded@tuple@@QAEPAV1@XZ 005c1ec0 f   Kernel:Clbag.OBJ
 0001:001c0ef0       ?copy_array@@YAPAHPAH@Z    005c1ef0 f   Kernel:Clbag.OBJ
 0001:001c0f30       ?length_array@@YAHPAH@Z    005c1f30 f   Kernel:Clbag.OBJ
 0001:001c0f40       ?of_array@@YAPAVClaireType@@PAH@Z 005c1f40 f   Kernel:Clbag.OBJ
 0001:001c0f50       ?make_array_integer@@YAPAHHPAVClaireType@@H@Z 005c1f50 f   Kernel:Clbag.OBJ
 0001:001c1000       ?nth_get_array@@YAHPAHH@Z  005c2000 f   Kernel:Clbag.OBJ
 0001:001c10a0       ?nth_put_array@@YAXPAHHH@Z 005c20a0 f   Kernel:Clbag.OBJ
 0001:001c10f0       ?list_I_array@@YAPAVlist@@PAH@Z 005c20f0 f   Kernel:Clbag.OBJ
 0001:001c1270       ?array_I_list@@YAPAHPAVlist@@@Z 005c2270 f   Kernel:Clbag.OBJ
 0001:001c12f0       ?contain_ask_array@@YAPAVClaireBoolean@@PAHH@Z 005c22f0 f   Kernel:Clbag.OBJ
 0001:001c1420       ?contains@ClaireCollection@@QAEPAVClaireBoolean@@H@Z 005c2420 f   Kernel:Clreflect.obj
 0001:001c1520       ?copy_object@@YAPAVClaireObject@@PAV1@@Z 005c2520 f   Kernel:Clreflect.obj
 0001:001c1550       ?equal@@YAPAVClaireBoolean@@HH@Z 005c2550 f   Kernel:Clreflect.obj
 0001:001c1660       ?slot_get_object@@YAHPAVClaireObject@@HPAVClaireClass@@@Z 005c2660 f   Kernel:Clreflect.obj
 0001:001c1820       ?belong_to@@YAPAVClaireBoolean@@HH@Z 005c2820 f   Kernel:Clreflect.obj
 0001:001c18b0       ?hash_list@@YAHPAVlist@@H@Z 005c28b0 f   Kernel:Clreflect.obj
 0001:001c18e0       ?boolean_I_ClaireAny@@YAPAVClaireBoolean@@PAVClaireAny@@@Z 005c28e0 f   Kernel:Clreflect.obj
 0001:001c1930       ?boolean_I_any@@YAPAVClaireBoolean@@H@Z 005c2930 f   Kernel:Clreflect.obj
 0001:001c1970       ?CL_Address@@YAHH@Z        005c2970 f   Kernel:Clreflect.obj
 0001:001c1980       ?CL_Oid@@YAPADH@Z          005c2980 f   Kernel:Clreflect.obj
 0001:001c19b0       ?CL_Oid_inv@@YAHPAD@Z      005c29b0 f   Kernel:Clreflect.obj
 0001:001c19d0       ??RClaireClass@@QAEPAVClaireObject@@H@Z 005c29d0 f   Kernel:Clreflect.obj
 0001:001c1a00       ??RClaireClass@@QAEPAVClaireObject@@HH@Z 005c2a00 f   Kernel:Clreflect.obj
 0001:001c1a40       ??RClaireClass@@QAEPAVClaireObject@@HHH@Z 005c2a40 f   Kernel:Clreflect.obj
 0001:001c1a90       ?make@ClaireClass@@SAPAV1@PAVClaireAny@@@Z 005c2a90 f   Kernel:Clreflect.obj
 0001:001c1b10       ?make@ClaireClass@@SAPAV1@PAD@Z 005c2b10 f   Kernel:Clreflect.obj
 0001:001c1b90       ?make@ClaireClass@@SAPAV1@PADPAV1@PAVmodule@@@Z 005c2b90 f   Kernel:Clreflect.obj
 0001:001c1c20       ?instantiate@ClaireClass@@QAEPAVClaireObject@@H@Z 005c2c20 f   Kernel:Clreflect.obj
 0001:001c1c40       ?instantiate@ClaireClass@@QAEPAVClaireObject@@XZ 005c2c40 f   Kernel:Clreflect.obj
 0001:001c1db0       ?instantiate@ClaireClass@@QAEPAVthing@@PADPAVmodule@@@Z 005c2db0 f   Kernel:Clreflect.obj
 0001:001c1eb0       ?genealogy@ClaireClass@@QAEXXZ 005c2eb0 f   Kernel:Clreflect.obj
 0001:001c1f50       ?addSlot@ClaireClass@@QAEPAVslot@@PAVproperty@@PAVClaireType@@HH@Z 005c2f50 f   Kernel:Clreflect.obj
 0001:001c23a0       ?nBits@ClaireClass@@QAEHH@Z 005c33a0 f   Kernel:Clreflect.obj
 0001:001c2400       ?totalBits@ClaireClass@@QAEHXZ 005c3400 f   Kernel:Clreflect.obj
 0001:001c2470       ?encode@ClaireClass@@QAEXXZ 005c3470 f   Kernel:Clreflect.obj
 0001:001c2480       ?recode@ClaireClass@@QAEXH@Z 005c3480 f   Kernel:Clreflect.obj
 0001:001c24f0       ?nodeCode@ClaireClass@@QAEXHHHH@Z 005c34f0 f   Kernel:Clreflect.obj
 0001:001c2560       ?add_slot_class@@YAXPAVClaireClass@@PAVproperty@@PAVClaireType@@HH@Z 005c3560 f   Kernel:Clreflect.obj
 0001:001c2580       ?new_object_class@@YAPAVClaireObject@@PAVClaireClass@@@Z 005c3580 f   Kernel:Clreflect.obj
 0001:001c2590       ?new_thing_class@@YAPAVthing@@PAVClaireClass@@PAVsymbol@@@Z 005c3590 f   Kernel:Clreflect.obj
 0001:001c25b0       ?class_I_symbol@@YAPAVClaireClass@@PAVsymbol@@PAV1@@Z 005c35b0 f   Kernel:Clreflect.obj
 0001:001c25d0       ?sort_I_class@@YAPAVClaireClass@@PAV1@@Z 005c35d0 f   Kernel:Clreflect.obj
 0001:001c2640       ?make@property@@SAPAV1@PADPAVmodule@@@Z 005c3640 f   Kernel:Clreflect.obj
 0001:001c26a0       ?make@property@@SAPAV1@PADHPAVmodule@@@Z 005c36a0 f   Kernel:Clreflect.obj
 0001:001c26c0       ?make@property@@SAPAV1@PADHPAVmodule@@H@Z 005c36c0 f   Kernel:Clreflect.obj
 0001:001c26f0       ?make@property@@SAPAV1@PADHPAVmodule@@PAVClaireClass@@H@Z 005c36f0 f   Kernel:Clreflect.obj
 0001:001c2720       ?make@operation@@SAPAV1@PADPAVmodule@@H@Z 005c3720 f   Kernel:Clreflect.obj
 0001:001c2760       ?make@operation@@SAPAV1@PADHPAVmodule@@H@Z 005c3760 f   Kernel:Clreflect.obj
 0001:001c27a0       ??Rproperty@@QAEHH@Z       005c37a0 f   Kernel:Clreflect.obj
 0001:001c27d0       ??Rproperty@@QAEHHH@Z      005c37d0 f   Kernel:Clreflect.obj
 0001:001c2820       ??Rproperty@@QAEHHHH@Z     005c3820 f   Kernel:Clreflect.obj
 0001:001c2890       ??Rproperty@@QAEHHHHH@Z    005c3890 f   Kernel:Clreflect.obj
 0001:001c2920       ??Rproperty@@QAEHHHHHH@Z   005c3920 f   Kernel:Clreflect.obj
 0001:001c29d0       ??Rproperty@@QAEHHHHHHH@Z  005c39d0 f   Kernel:Clreflect.obj
 0001:001c2aa0       ??Rproperty@@QAEHHHHHHHH@Z 005c3aa0 f   Kernel:Clreflect.obj
 0001:001c2b90       ??Rproperty@@QAEHHHHHHHHH@Z 005c3b90 f   Kernel:Clreflect.obj
 0001:001c2ca0       ??Rproperty@@QAEHHHHHHHHHH@Z 005c3ca0 f   Kernel:Clreflect.obj
 0001:001c2de0       ??Rproperty@@QAEHHHHHHHHHHH@Z 005c3de0 f   Kernel:Clreflect.obj
 0001:001c2f40       ?super@property@@QAEHPAVClaireClass@@H@Z 005c3f40 f   Kernel:Clreflect.obj
 0001:001c2f80       ?stack_apply@property@@QAEHH@Z 005c3f80 f   Kernel:Clreflect.obj
 0001:001c2ff0       ?addMethod@property@@QAEPAVmethod@@PAVlist@@PAVClaireType@@HPAVClaireFunction@@@Z 005c3ff0 f   Kernel:Clreflect.obj
 0001:001c3120       ?addFloatMethod@property@@QAEPAVmethod@@PAVlist@@PAVClaireType@@HPAVClaireFunction@@2@Z 005c4120 f   Kernel:Clreflect.obj
 0001:001c3150       ?inlineDef@method@@QAEPAV1@PAD@Z 005c4150 f   Kernel:Clreflect.obj
 0001:001c3170       ?add_method_property@@YAPAVmethod@@PAVproperty@@PAVlist@@PAVClaireType@@HH@Z 005c4170 f   Kernel:Clreflect.obj
 0001:001c31b0       ?expand@table@@QAEHH@Z     005c41b0 f   Kernel:Clreflect.obj
 0001:001c3290       ?insertHash@table@@QAEHPAVlist@@HH@Z 005c4290 f   Kernel:Clreflect.obj
 0001:001c3340       ?index_table@@YAHPAVtable@@H@Z 005c4340 f   Kernel:Clreflect.obj
 0001:001c3560       ?index_table2@@YAHPAVtable@@HH@Z 005c4560 f   Kernel:Clreflect.obj
 0001:001c36f0       ?get@ClairePort@@UAEDXZ    005c46f0 f   Kernel:Clport.obj
 0001:001c3700       ?put@ClairePort@@UAEXD@Z   005c4700 f   Kernel:Clport.obj
 0001:001c3710       ?put@ClairePort@@UAEXH@Z   005c4710 f   Kernel:Clport.obj
 0001:001c3720       ?put@ClairePort@@UAEXN@Z   005c4720 f   Kernel:Clport.obj
 0001:001c3730       ?flush@ClairePort@@UAEXXZ  005c4730 f   Kernel:Clport.obj
 0001:001c3740       ?pclose@ClairePort@@UAEXXZ 005c4740 f   Kernel:Clport.obj
 0001:001c3750       ?debugSee@ClairePort@@UAEXXZ 005c4750 f   Kernel:Clport.obj
 0001:001c3760       ?getNext@ClairePort@@QAEHXZ 005c4760 f   Kernel:Clport.obj
 0001:001c3770       ?make@ClairePort@@SAPAV1@PAU_iobuf@@@Z 005c4770 f   Kernel:Clport.obj
 0001:001c37a0       ?get@CPFile@@UAEDXZ        005c47a0 f i Kernel:Clport.obj
 0001:001c37d0       ?debugSee@CPFile@@UAEXXZ   005c47d0 f i Kernel:Clport.obj
 0001:001c37e0       ?put@CPFile@@UAEXD@Z       005c47e0 f i Kernel:Clport.obj
 0001:001c3820       ?put@CPFile@@UAEXH@Z       005c4820 f i Kernel:Clport.obj
 0001:001c3840       ?put@CPFile@@UAEXN@Z       005c4840 f i Kernel:Clport.obj
 0001:001c3970       ?flush@CPFile@@UAEXXZ      005c4970 f i Kernel:Clport.obj
 0001:001c3980       ?pclose@CPFile@@UAEXXZ     005c4980 f i Kernel:Clport.obj
 0001:001c3990       ?use_as_output_port@@YAPAVClairePort@@PAV1@@Z 005c4990 f   Kernel:Clport.obj
 0001:001c39b0       ?fclose_port@@YAXPAVClairePort@@@Z 005c49b0 f   Kernel:Clport.obj
 0001:001c39e0       ?free_I_port@@YAXPAVClairePort@@@Z 005c49e0 f   Kernel:Clport.obj
 0001:001c39f0       ?putc_char@@YAXPAVClaireChar@@PAVClairePort@@@Z 005c49f0 f   Kernel:Clport.obj
 0001:001c3a10       ?getc_port@@YAPAVClaireChar@@PAVClairePort@@@Z 005c4a10 f   Kernel:Clport.obj
 0001:001c3a30       ?flush_port@@YAXPAVClairePort@@@Z 005c4a30 f   Kernel:Clport.obj
 0001:001c3a40       ?fopen_string@@YAPAVClairePort@@PAD0@Z 005c4a40 f   Kernel:Clport.obj
 0001:001c3ac0       ?port_I_void@@YAPAVClairePort@@XZ 005c4ac0 f   Kernel:Clport.obj
 0001:001c3b10       ?debugSee@CPStringOut@@UAEXXZ 005c4b10 f i Kernel:Clport.obj
 0001:001c3b20       ?put@CPStringOut@@UAEXD@Z  005c4b20 f i Kernel:Clport.obj
 0001:001c3b50       ?put@CPStringOut@@UAEXH@Z  005c4b50 f i Kernel:Clport.obj
 0001:001c3bb0       ?put@CPStringOut@@UAEXN@Z  005c4bb0 f i Kernel:Clport.obj
 0001:001c3d10       ?port_I_string@@YAPAVClairePort@@PAD@Z 005c4d10 f   Kernel:Clport.obj
 0001:001c3d50       ?debugSee@CPStringIn@@UAEXXZ 005c4d50 f i Kernel:Clport.obj
 0001:001c3d60       ?get@CPStringIn@@UAEDXZ    005c4d60 f i Kernel:Clport.obj
 0001:001c3d80       ?pushback_port@@YAXPAVClairePort@@H@Z 005c4d80 f   Kernel:Clport.obj
 0001:001c3d90       ?string_I_port@@YAPADPAVClairePort@@@Z 005c4d90 f   Kernel:Clport.obj
 0001:001c3dc0       ?length_port@@YAHPAVClairePort@@@Z 005c4dc0 f   Kernel:Clport.obj
 0001:001c3de0       ?set_length_port@@YAXPAVClairePort@@H@Z 005c4de0 f   Kernel:Clport.obj
 0001:001c3e00       ?alpha_char@@YAPAVClaireBoolean@@PAVClaireChar@@@Z 005c4e00 f   Kernel:Clport.obj
 0001:001c3e70       ?read_string_port@@YAPADPAVClairePort@@@Z 005c4e70 f   Kernel:Clport.obj
 0001:001c3f10       ?read_ident_port@@YAHPAVClairePort@@@Z 005c4f10 f   Kernel:Clport.obj
 0001:001c4060       ?read_number_port@@YAHPAVClairePort@@@Z 005c5060 f   Kernel:Clport.obj
 0001:001c42e0       ?read_thing_port@@YAHPAVClairePort@@PAVmodule@@PAVClaireChar@@1@Z 005c52e0 f   Kernel:Clport.obj
 0001:001c4760       ?init@ClaireChar@@SAXXZ    005c5760 f   Kernel:Clport.obj
 0001:001c47b0       ?princ_char@@YAXPAVClaireChar@@@Z 005c57b0 f   Kernel:Clport.obj
 0001:001c47d0       ?c_princ_c@@YAXPAVClaireChar@@@Z 005c57d0 f   Kernel:Clport.obj
 0001:001c4a70       ?c_princ_string@@YAXPAD@Z  005c5a70 f   Kernel:Clport.obj
 0001:001c4aa0       ?c_princ_symbol@@YAXPAVsymbol@@@Z 005c5aa0 f   Kernel:Clport.obj
 0001:001c4ae0       ?integer_I_char@@YAHPAVClaireChar@@@Z 005c5ae0 f   Kernel:Clport.obj
 0001:001c4af0       ?time_set_void@@YAXXZ      005c5af0 f   Kernel:Clport.obj
 0001:001c4b60       ?time_get_void@@YAHXZ      005c5b60 f   Kernel:Clport.obj
 0001:001c4bd0       ?time_read_void@@YAHXZ     005c5bd0 f   Kernel:Clport.obj
 0001:001c4c40       ?time_show_void@@YAXXZ     005c5c40 f   Kernel:Clport.obj
 0001:001c4cf0       ?claire_shell@@YAXPAD@Z    005c5cf0 f   Kernel:Clport.obj
 0001:001c4d00       ?PRstart@@YAPAVPRcount@@PAV1@@Z 005c5d00 f   Kernel:Clport.obj
 0001:001c4d50       ?PRend@@YAXPAVPRcount@@@Z  005c5d50 f   Kernel:Clport.obj
 0001:001c4da0       ?PRloop@@YAXPAVPRcount@@@Z 005c5da0 f   Kernel:Clport.obj
 0001:001c4db0       ?close_exception@@YAHPAVClaireException@@@Z 005c5db0 f   Kernel:Clenv.obj
 0001:001c4de0       ?safe_exception@@YAHPAVClaireException@@@Z 005c5de0 f   Kernel:Clenv.obj
 0001:001c4e10       ??0ClaireHandler@@QAE@XZ   005c5e10 f   Kernel:Clenv.obj
 0001:001c4ea0       ?catchIt@ClaireHandler@@QAEXXZ 005c5ea0 f   Kernel:Clenv.obj
 0001:001c4f10       ?Cerror@@YAHHHH@Z          005c5f10 f   Kernel:Clenv.obj
 0001:001c4ff0       ?my_handler@@YAXH@Z        005c5ff0 f   Kernel:Clenv.obj
 0001:001c5010       ?make@system_error@@SAPAV1@HHH@Z 005c6010 f   Kernel:Clenv.obj
 0001:001c5040       ?run@ClaireResource@@SAXXZ 005c6040 f   Kernel:Clenv.obj
 0001:001c51a0       ?init@ClaireResource@@QAEXXZ 005c61a0 f   Kernel:Clenv.obj
 0001:001c51c0       ?magicInit@ClaireResource@@QAEXXZ 005c61c0 f   Kernel:Clenv.obj
 0001:001c5340       ?makeCode@ClaireResource@@QAEHHHH@Z 005c6340 f   Kernel:Clenv.obj
 0001:001c5360       ?hashOid@ClaireResource@@QAEHHH@Z 005c6360 f   Kernel:Clenv.obj
 0001:001c5460       ?init@ClaireEnvironment@@QAEXXZ 005c6460 f   Kernel:Clenv.obj
 0001:001c54d0       ?abort@ClaireEnvironment@@QAEXXZ 005c64d0 f   Kernel:Clenv.obj
 0001:001c54f0       ?restore_state_void@@YAXXZ 005c64f0 f   Kernel:Clenv.obj
 0001:001c5530       ?bufferCopy@ClaireEnvironment@@QAEPADXZ 005c6530 f   Kernel:Clenv.obj
 0001:001c5580       ?pushInteger@ClaireEnvironment@@QAEXH@Z 005c6580 f   Kernel:Clenv.obj
 0001:001c5610       ?localString@ClaireEnvironment@@QAEPADPAD@Z 005c6610 f   Kernel:Clenv.obj
 0001:001c5640       ?Cpointer@@YAHHPAVClaireClass@@@Z 005c6640 f   Kernel:Clenv.obj
 0001:001c56c0       ?reset_stack@@YAHHH@Z      005c66c0 f   Kernel:Clenv.obj
 0001:001c56e0       ?stack_add@@YAXH@Z         005c66e0 f   Kernel:Clenv.obj
 0001:001c5720       ?fcall1@@YAHPAVClaireFunction@@PAVClaireClass@@H1@Z 005c6720 f   Kernel:Clenv.obj
 0001:001c5830       ?fcall2@@YAHPAVClaireFunction@@PAVClaireClass@@H1H1@Z 005c6830 f   Kernel:Clenv.obj
 0001:001c59a0       ?fcall3@@YAHPAVClaireFunction@@PAVClaireClass@@H1H1H1@Z 005c69a0 f   Kernel:Clenv.obj
 0001:001c5b60       ?stack_apply_function@@YAHPAVClaireFunction@@PAVlist@@HH@Z 005c6b60 f   Kernel:Clenv.obj
 0001:001c81f0       ?string_I_function@@YAPADPAVClaireFunction@@@Z 005c91f0 f   Kernel:Clenv.obj
 0001:001c8200       ?store_list@@YAHPAVlist@@HHPAVClaireBoolean@@@Z 005c9200 f   Kernel:Clenv.obj
 0001:001c8280       ?store_array@@YAHPAHHHPAVClaireBoolean@@@Z 005c9280 f   Kernel:Clenv.obj
 0001:001c83a0       ?store_object@@YAHPAVClaireObject@@HPAVClaireClass@@HPAVClaireBoolean@@@Z 005c93a0 f   Kernel:Clenv.obj
 0001:001c85d0       ?store_add@@YAPAVlist@@PAV1@H@Z 005c95d0 f   Kernel:Clenv.obj
 0001:001c8640       ?world_push@@YAXXZ         005c9640 f   Kernel:Clenv.obj
 0001:001c8710       ?world_pop@@YAXXZ          005c9710 f   Kernel:Clenv.obj
 0001:001c8800       ?world_remove@@YAXXZ       005c9800 f   Kernel:Clenv.obj
 0001:001c88a0       ?world_slaughter@@YAXXZ    005c98a0 f   Kernel:Clenv.obj
 0001:001c8950       ?world_number@@YAHXZ       005c9950 f   Kernel:Clenv.obj
 0001:001c8960       ?world_get_id@@YAHXZ       005c9960 f   Kernel:Clenv.obj
 0001:001c8970       ?C_to_Claire@@YAPAVlist@@HQAPAD@Z 005c9970 f   Console:clConsole.obj
 0001:001c8a20       _main                      005c9a20 f   Console:clConsole.obj
 0001:001c8c20       ?CL_exit@@YAXH@Z           005c9c20 f   Console:clConsole.obj
 0001:001c8c30       ?CL_system@@YAXPAD@Z       005c9c30 f   Console:clConsole.obj
 0001:001c8c40       ?CL_alloc@@YAPAXH@Z        005c9c40 f   Console:clConsole.obj
 0001:001c8c70       ?topLevel@@YAXPAVmeta_reader@@@Z 005c9c70 f   Console:clConsole.obj
 0001:001c8fa0       ?InspectLoop@@YAHPAVlist@@@Z 005c9fa0 f   Console:clConsole.obj
 0001:001c8fd0       ?loadInit@@YAXXZ           005c9fd0 f   Console:clConsole.obj
 0001:001c9050       ?DebugLoop@@YAXXZ          005ca050 f   Console:clConsole.obj
 0001:001c90a0       ?StepLoop@@YAHXZ           005ca0a0 f   Console:clConsole.obj
 0001:001c9110       ?CommandLoopVoid@@YAPADXZ  005ca110 f   Console:clConsole.obj
 0001:001c91a0       ?default_main@@YAXXZ       005ca1a0 f   Console:clConsole.obj
 0001:001c92d0       ?see@@YAXHH@Z              005ca2d0 f   Console:clConsole.obj
 0001:001c9640       ?see@@YAXH@Z               005ca640 f   Console:clConsole.obj
 0001:001c9650       ?see@@YAXPADHH@Z           005ca650 f   Console:clConsole.obj
 0001:001c9690       ?seeIt@@YAXPADH@Z          005ca690 f   Console:clConsole.obj
 0001:001c96c0       ?see@@YAXPADH@Z            005ca6c0 f   Console:clConsole.obj
 0001:001c96e0       _mainCRTStartup            005ca6e0 f   LIBC:crt0.obj
 0001:001c97bf       __amsg_exit                005ca7bf f   LIBC:crt0.obj
 0001:001c9810       _strlen                    005ca810 f   LIBC:strlen.obj
 0001:001c988b       __fpmath                   005ca88b f   LIBC:fpinit.obj
 0001:001c98a2       __fpclear                  005ca8a2 f   LIBC:fpinit.obj
 0001:001c98a3       __cfltcvt_init             005ca8a3 f   LIBC:fpinit.obj
 0001:001c98db       ___setfflag                005ca8db f   LIBC:fpinit.obj
 0001:001c98ec       _longjmp                   005ca8ec f   LIBC:longjmp.obj
 0001:001c9968       __setjmp3                  005ca968 f   LIBC:setjmp3.obj
 0001:001c99f0       __CIpow                    005ca9f0 f   LIBC:pow.obj
 0001:001c9a09       _pow                       005caa09 f   LIBC:pow.obj
 0001:001c9c0d       _srand                     005cac0d f   LIBC:rand.obj
 0001:001c9c17       _rand                      005cac17 f   LIBC:rand.obj
 0001:001c9c35       _strtol                    005cac35 f   LIBC:strtol.obj
 0001:001c9e54       _strtoul                   005cae54 f   LIBC:strtol.obj
 0001:001c9e6b       _asctime                   005cae6b f   LIBC:asctime.obj
 0001:001c9f41       _localtime                 005caf41 f   LIBC:localtim.obj
 0001:001ca0a1       _time                      005cb0a1 f   LIBC:time.obj
 0001:001ca17d       _getenv                    005cb17d f   LIBC:getenv.obj
 0001:001ca1fa       _printf                    005cb1fa f   LIBC:printf.obj
 0001:001ca22b       _floor                     005cb22b f   LIBC:floor.obj
 0001:001ca2fc       __ftol                     005cb2fc f   LIBC:ftol.obj
 0001:001ca323       ??2@YAPAXI@Z               005cb323 f   LIBC:new.obj
 0001:001ca331       _sprintf                   005cb331 f   LIBC:sprintf.obj
 0001:001ca383       _sscanf                    005cb383 f   LIBC:sscanf.obj
 0001:001ca3b7       __filbuf                   005cb3b7 f   LIBC:_filbuf.obj
 0001:001ca490       __flsbuf                   005cb490 f   LIBC:_flsbuf.obj
 0001:001ca5a5       _fprintf                   005cb5a5 f   LIBC:fprintf.obj
 0001:001ca5d7       _ceil                      005cb5d7 f   LIBC:ceil.obj
 0001:001ca6a6       _fflush                    005cb6a6 f   LIBC:fflush.obj
 0001:001ca6e1       __flush                    005cb6e1 f   LIBC:fflush.obj
 0001:001ca73d       __flushall                 005cb73d f   LIBC:fflush.obj
 0001:001ca7b3       _fclose                    005cb7b3 f   LIBC:fclose.obj
 0001:001ca809       __fsopen                   005cb809 f   LIBC:fopen.obj
 0001:001ca829       _fopen                     005cb829 f   LIBC:fopen.obj
 0001:001ca83c       _clock                     005cb83c f   LIBC:clock.obj
 0001:001ca87f       ___inittime                005cb87f f   LIBC:clock.obj
 0001:001ca8b4       _abort                     005cb8b4 f   LIBC:abort.obj
 0001:001ca8cb       _signal                    005cb8cb f   LIBC:winsig.obj
 0001:001caa0f       _raise                     005cba0f f   LIBC:winsig.obj
 0001:001cab81       __cinit                    005cbb81 f   LIBC:crt0dat.obj
 0001:001cabae       _exit                      005cbbae f   LIBC:crt0dat.obj
 0001:001cabbf       __exit                     005cbbbf f   LIBC:crt0dat.obj
 0001:001cabd0       __cexit                    005cbbd0 f   LIBC:crt0dat.obj
 0001:001cabdf       __c_exit                   005cbbdf f   LIBC:crt0dat.obj
 0001:001caca1       ___initstdio               005cbca1 f   LIBC:_file.obj
 0001:001cad46       ___endstdio                005cbd46 f   LIBC:_file.obj
 0001:001cad5a       _atol                      005cbd5a f   LIBC:atox.obj
 0001:001cade5       _atoi                      005cbde5 f   LIBC:atox.obj
 0001:001cadf0       __atoi64                   005cbdf0 f   LIBC:atox.obj
 0001:001caeaa       _system                    005cbeaa f   LIBC:system.obj
 0001:001caf40       _malloc                    005cbf40 f   LIBC:malloc.obj
 0001:001caf52       __nh_malloc                005cbf52 f   LIBC:malloc.obj
 0001:001caf7e       __heap_alloc               005cbf7e f   LIBC:malloc.obj
 0001:001cafb4       __XcptFilter               005cbfb4 f   LIBC:winxfltr.obj
 0001:001cb138       __setenvp                  005cc138 f   LIBC:stdenvp.obj
 0001:001cb1f1       __setargv                  005cc1f1 f   LIBC:stdargv.obj
 0001:001cb43e       ___crtGetEnvironmentStringsA 005cc43e f   LIBC:a_env.obj
 0001:001cb570       __ioinit                   005cc570 f   LIBC:ioinit.obj
 0001:001cb71b       __ioterm                   005cc71b f   LIBC:ioinit.obj
 0001:001cb73e       __heap_init                005cc73e f   LIBC:heapinit.obj
 0001:001cb77a       __heap_term                005cc77a f   LIBC:heapinit.obj
 0001:001cb7f0       __global_unwind2           005cc7f0 f   LIBC:exsup.obj
 0001:001cb832       __local_unwind2            005cc832 f   LIBC:exsup.obj
 0001:001cb88a       __NLG_Return2              005cc88a f   LIBC:exsup.obj
 0001:001cb89a       __abnormal_termination     005cc89a f   LIBC:exsup.obj
 0001:001cb8bd       __NLG_Notify1              005cc8bd f   LIBC:exsup.obj
 0001:001cb8c6       __NLG_Notify               005cc8c6 f   LIBC:exsup.obj
 0001:001cb8d9       __NLG_Dispatch             005cc8d9 f   LIBC:exsup.obj
 0001:001cb8e8       __except_handler3          005cc8e8 f   LIBC:exsup3.obj
 0001:001cb9a5       __seh_longjmp_unwind@4     005cc9a5 f   LIBC:exsup3.obj
 0001:001cb9c0       __FF_MSGBANNER             005cc9c0 f   LIBC:crt0msg.obj
 0001:001cb9f9       __NMSG_WRITE               005cc9f9 f   LIBC:crt0msg.obj
 0001:001cbb4c       __GET_RTERRMSG             005ccb4c f   LIBC:crt0msg.obj
 0001:001cbb7d       __setdefaultprecision      005ccb7d f   LIBC:fp8.obj
 0001:001cbb8f       __ms_p5_test_fdiv          005ccb8f f   LIBC:testfdiv.obj
 0001:001cbbcd       __ms_p5_mp_test_fdiv       005ccbcd f   LIBC:testfdiv.obj
 0001:001cbbf6       __forcdecpt                005ccbf6 f   LIBC:cvt.obj
 0001:001cbc50       __cropzeros                005ccc50 f   LIBC:cvt.obj
 0001:001cbc9e       __positive                 005ccc9e f   LIBC:cvt.obj
 0001:001cbcb6       __fassign                  005cccb6 f   LIBC:cvt.obj
 0001:001cbcf4       __cftoe                    005cccf4 f   LIBC:cvt.obj
 0001:001cbdf8       __cftof                    005ccdf8 f   LIBC:cvt.obj
 0001:001cbed6       __cftog                    005cced6 f   LIBC:cvt.obj
 0001:001cbfbb       __cfltcvt                  005ccfbb f   LIBC:cvt.obj
 0001:001cc031       __rt_probe_read4@4         005cd031 f   LIBC:sehsupp.obj
 0001:001cc0b1       __fFEXP                    005cd0b1 f   LIBC:87tran.obj
 0001:001cc118       __rtinfpopse               005cd118 f   LIBC:87tran.obj
 0001:001cc11a       __rtinfnpopse              005cd11a f   LIBC:87tran.obj
 0001:001cc12a       __fFLN                     005cd12a f   LIBC:87tran.obj
 0001:001cc1df       __rtinfpop                 005cd1df f   LIBC:87tran.obj
 0001:001cc1e1       __rtinfnpop                005cd1e1 f   LIBC:87tran.obj
 0001:001cc1fe       __ffexpm1                  005cd1fe f   LIBC:87tran.obj
 0001:001cc2b0       __trandisp1                005cd2b0 f   LIBC:87disp.obj
 0001:001cc317       __trandisp2                005cd317 f   LIBC:87disp.obj
 0001:001cc3a3       __rttospopde               005cd3a3 f   LIBC:87disp.obj
 0001:001cc3a8       __rttospop                 005cd3a8 f   LIBC:87disp.obj
 0001:001cc3aa       __rtnospop                 005cd3aa f   LIBC:87disp.obj
 0001:001cc3ac       __rttosnpop                005cd3ac f   LIBC:87disp.obj
 0001:001cc3ad       __rtnospopde               005cd3ad f   LIBC:87disp.obj
 0001:001cc3b4       __rtzeropop                005cd3b4 f   LIBC:87disp.obj
 0001:001cc3b6       __rtzeronpop               005cd3b6 f   LIBC:87disp.obj
 0001:001cc3bb       __rtonepop                 005cd3bb f   LIBC:87disp.obj
 0001:001cc3bd       __rtonenpop                005cd3bd f   LIBC:87disp.obj
 0001:001cc3c2       __tosnan1                  005cd3c2 f   LIBC:87disp.obj
 0001:001cc3ed       __nosnan2                  005cd3ed f   LIBC:87disp.obj
 0001:001cc3ef       __tosnan2                  005cd3ef f   LIBC:87disp.obj
 0001:001cc417       __nan2                     005cd417 f   LIBC:87disp.obj
 0001:001cc456       __rtindfpop                005cd456 f   LIBC:87disp.obj
 0001:001cc458       __rtindfnpop               005cd458 f   LIBC:87disp.obj
 0001:001cc469       __rttosnpopde              005cd469 f   LIBC:87disp.obj
 0001:001cc473       __rtchsifneg               005cd473 f   LIBC:87disp.obj
 0001:001cc480       __startTwoArgErrorHandling 005cd480 f   LIBC:genexcep.obj
 0001:001cc497       __startOneArgErrorHandling 005cd497 f   LIBC:genexcep.obj
 0001:001cc4e0       __twoToTOS                 005cd4e0 f   LIBC:common.obj
 0001:001cc4f5       __load_CW                  005cd4f5 f   LIBC:common.obj
 0001:001cc50c       __convertTOStoQNaN         005cd50c f   LIBC:common.obj
 0001:001cc525       __fload_withFB             005cd525 f   LIBC:common.obj
 0001:001cc568       __checkTOS_withFB          005cd568 f   LIBC:common.obj
 0001:001cc57e       __fast_exit                005cd57e f   LIBC:common.obj
 0001:001cc58b       __math_exit                005cd58b f   LIBC:common.obj
 0001:001cc5b5       __check_overflow_exit      005cd5b5 f   LIBC:common.obj
 0001:001cc5c9       __check_range_exit         005cd5c9 f   LIBC:common.obj
 0001:001cc66c       __powhlp                   005cd66c f   LIBC:powhlp.obj
 0001:001cc79c       __d_inttype                005cd79c f   LIBC:powhlp.obj
 0001:001cc801       __toupper                  005cd801 f   LIBC:toupper.obj
 0001:001cc809       _toupper                   005cd809 f   LIBC:toupper.obj
 0001:001cc8d5       __isctype                  005cd8d5 f   LIBC:isctype.obj
 0001:001cc94a       ___tzset                   005cd94a f   LIBC:tzset.obj
 0001:001cc95f       __tzset                    005cd95f f   LIBC:tzset.obj
 0001:001ccbbd       __isindst                  005cdbbd f   LIBC:tzset.obj
 0001:001ccea9       _gmtime                    005cdea9 f   LIBC:gmtime.obj
 0001:001ccfa2       ___loctotime_t             005cdfa2 f   LIBC:dtoxtime.obj
 0001:001cd064       __mbsnbicoll               005ce064 f   LIBC:mbsnbico.obj
 0001:001cd0a3       ___wtomb_environ           005ce0a3 f   LIBC:wtombenv.obj
 0001:001cd111       __stbuf                    005ce111 f   LIBC:_sftbuf.obj
 0001:001cd19e       __ftbuf                    005ce19e f   LIBC:_sftbuf.obj
 0001:001cd1db       __output                   005ce1db f   LIBC:output.obj
 0001:001cd9e5       __handle_qnan1             005ce9e5 f   LIBC:fpexcept.obj
 0001:001cda38       __handle_qnan2             005cea38 f   LIBC:fpexcept.obj
 0001:001cda97       __except1                  005cea97 f   LIBC:fpexcept.obj
 0001:001cdb2f       __except2                  005ceb2f f   LIBC:fpexcept.obj
 0001:001cdbd4       __raise_exc                005cebd4 f   LIBC:fpexcept.obj
 0001:001cde87       __handle_exc               005cee87 f   LIBC:fpexcept.obj
 0001:001ce09e       __umatherr                 005cf09e f   LIBC:fpexcept.obj
 0001:001ce126       __set_errno                005cf126 f   LIBC:fpexcept.obj
 0001:001ce171       __errcode                  005cf171 f   LIBC:fpexcept.obj
 0001:001ce19e       __frnd                     005cf19e f   LIBC:frnd.obj
 0001:001ce1b0       __set_exp                  005cf1b0 f   LIBC:util.obj
 0001:001ce1d9       __get_exp                  005cf1d9 f   LIBC:util.obj
 0001:001ce1ed       __add_exp                  005cf1ed f   LIBC:util.obj
 0001:001ce219       __set_bexp                 005cf219 f   LIBC:util.obj
 0001:001ce23d       __sptype                   005cf23d f   LIBC:util.obj
 0001:001ce297       __decomp                   005cf297 f   LIBC:util.obj
 0001:001ce358       __statfp                   005cf358 f   LIBC:fpctrl.obj
 0001:001ce366       __clrfp                    005cf366 f   LIBC:fpctrl.obj
 0001:001ce375       __ctrlfp                   005cf375 f   LIBC:fpctrl.obj
 0001:001ce398       __set_statfp               005cf398 f   LIBC:fpctrl.obj
 0001:001ce3ee       __input                    005cf3ee f   LIBC:input.obj
 0001:001cee9f       __read                     005cfe9f f   LIBC:read.obj
 0001:001cf095       __getbuf                   005d0095 f   LIBC:_getbuf.obj
 0001:001cf0d9       __lseek                    005d00d9 f   LIBC:lseek.obj
 0001:001cf173       __write                    005d0173 f   LIBC:write.obj
 0001:001cf320       __isatty                   005d0320 f   LIBC:isatty.obj
 0001:001cf346       __commit                   005d0346 f   LIBC:commit.obj
 0001:001cf39d       _free                      005d039d f   LIBC:free.obj
 0001:001cf3cc       __close                    005d03cc f   LIBC:close.obj
 0001:001cf47f       __freebuf                  005d047f f   LIBC:_freebuf.obj
 0001:001cf4aa       __openfile                 005d04aa f   LIBC:_open.obj
 0001:001cf61a       __getstream                005d061a f   LIBC:stream.obj
 0001:001cf6a0       __aulldiv                  005d06a0 f   LIBC:ulldiv.obj
 0001:001cf710       __allmul                   005d0710 f   LIBC:llmul.obj
 0001:001cf744       _calloc                    005d0744 f   LIBC:calloc.obj
 0001:001cf7c1       __fcloseall                005d07c1 f   LIBC:closeall.obj
 0001:001cf819       __spawnvpe                 005d0819 f   LIBC:spawnvpe.obj
 0001:001cf97c       __spawnve                  005d097c f   LIBC:spawnve.obj
 0001:001cfb16       __access                   005d0b16 f   LIBC:access.obj
 0001:001cfb5a       ?_set_new_handler@@YAP6AHI@ZP6AHI@Z@Z 005d0b5a f   LIBC:handler.obj
 0001:001cfb6a       ?_query_new_handler@@YAP6AHI@ZXZ 005d0b6a f   LIBC:handler.obj
 0001:001cfb70       __callnewh                 005d0b70 f   LIBC:handler.obj
 0001:001cfb8b       __get_sbh_threshold        005d0b8b f   LIBC:sbheap.obj
 0001:001cfb91       __set_sbh_threshold        005d0b91 f   LIBC:sbheap.obj
 0001:001cfba8       ___sbh_heap_init           005d0ba8 f   LIBC:sbheap.obj
 0001:001cfbe6       ___sbh_find_block          005d0be6 f   LIBC:sbheap.obj
 0001:001cfc11       ___sbh_free_block          005d0c11 f   LIBC:sbheap.obj
 0001:001cff3c       ___sbh_alloc_block         005d0f3c f   LIBC:sbheap.obj
 0001:001d0245       ___sbh_alloc_new_region    005d1245 f   LIBC:sbheap.obj
 0001:001d02f6       ___sbh_alloc_new_group     005d12f6 f   LIBC:sbheap.obj
 0001:001d03f1       ___sbh_resize_block        005d13f1 f   LIBC:sbheap.obj
 0001:001d06e7       ___sbh_heapmin             005d16e7 f   LIBC:sbheap.obj
 0001:001d07b8       ___sbh_heap_check          005d17b8 f   LIBC:sbheap.obj
 0001:001d0af0       _strcpy                    005d1af0 f   LIBC:strcat.obj
 0001:001d0b00       _strcat                    005d1b00 f   LIBC:strcat.obj
 0001:001d0be0       __setmbcp                  005d1be0 f   LIBC:mbctype.obj
 0001:001d0fa4       __getmbcp                  005d1fa4 f   LIBC:mbctype.obj
 0001:001d0fb4       ___initmbctable            005d1fb4 f   LIBC:mbctype.obj
 0001:001d0fd0       _memcpy                    005d1fd0 f   LIBC:memcpy.obj
 0001:001d1305       ___crtMessageBoxA          005d2305 f   LIBC:crtmbox.obj
 0001:001d1390       _strncpy                   005d2390 f   LIBC:strncpy.obj
 0001:001d148e       __statusfp                 005d248e f   LIBC:ieee87.obj
 0001:001d14a1       __clearfp                  005d24a1 f   LIBC:ieee87.obj
 0001:001d14b5       __control87                005d24b5 f   LIBC:ieee87.obj
 0001:001d14ea       __controlfp                005d24ea f   LIBC:ieee87.obj
 0001:001d1500       __fpreset                  005d2500 f   LIBC:ieee87.obj
 0001:001d167a       __tolower                  005d267a f   LIBC:tolower.obj
 0001:001d1682       _tolower                   005d2682 f   LIBC:tolower.obj
 0001:001d174d       __ZeroTail                 005d274d f   LIBC:intrncvt.obj
 0001:001d1796       __IncMan                   005d2796 f   LIBC:intrncvt.obj
 0001:001d17ec       __RoundMan                 005d27ec f   LIBC:intrncvt.obj
 0001:001d1878       __CopyMan                  005d2878 f   LIBC:intrncvt.obj
 0001:001d1893       __FillZeroMan              005d2893 f   LIBC:intrncvt.obj
 0001:001d189f       __IsZeroMan                005d289f f   LIBC:intrncvt.obj
 0001:001d18ba       __ShrMan                   005d28ba f   LIBC:intrncvt.obj
 0001:001d1947       __ld12cvt                  005d2947 f   LIBC:intrncvt.obj
 0001:001d1ab3       __ld12tod                  005d2ab3 f   LIBC:intrncvt.obj
 0001:001d1ac9       __ld12tof                  005d2ac9 f   LIBC:intrncvt.obj
 0001:001d1adf       __ld12told                 005d2adf f   LIBC:intrncvt.obj
 0001:001d1b59       __atodbl                   005d2b59 f   LIBC:intrncvt.obj
 0001:001d1b86       __atoldbl                  005d2b86 f   LIBC:intrncvt.obj
 0001:001d1bb4       __atoflt                   005d2bb4 f   LIBC:intrncvt.obj
 0001:001d1be1       __fptostr                  005d2be1 f   LIBC:_fptostr.obj
 0001:001d1c58       __fltout                   005d2c58 f   LIBC:cfout.obj
 0001:001d1cbc       ___dtold                   005d2cbc f   LIBC:cfout.obj
 0001:001d1d80       _memset                    005d2d80 f   LIBC:memset.obj
 0001:001d1de0       _memmove                   005d2de0 f   LIBC:memmove.obj
 0001:001d2115       __fptrap                   005d3115 f   LIBC:crt0fp.obj
 0001:001d2120       _fdiv_main_routine         005d3120 f   LIBC:adj_fdiv.obj
 0001:001d2237       __adj_fdiv_r               005d3237 f   LIBC:adj_fdiv.obj
 0001:001d26d6       __fdivp_sti_st             005d36d6 f   LIBC:adj_fdiv.obj
 0001:001d26e9       __fdivrp_sti_st            005d36e9 f   LIBC:adj_fdiv.obj
 0001:001d26fc       __adj_fdiv_m32             005d36fc f   LIBC:adj_fdiv.obj
 0001:001d2748       __adj_fdiv_m64             005d3748 f   LIBC:adj_fdiv.obj
 0001:001d2794       __adj_fdiv_m16i            005d3794 f   LIBC:adj_fdiv.obj
 0001:001d27c8       __adj_fdiv_m32i            005d37c8 f   LIBC:adj_fdiv.obj
 0001:001d27fc       __adj_fdivr_m32            005d37fc f   LIBC:adj_fdiv.obj
 0001:001d2848       __adj_fdivr_m64            005d3848 f   LIBC:adj_fdiv.obj
 0001:001d2894       __adj_fdivr_m16i           005d3894 f   LIBC:adj_fdiv.obj
 0001:001d28c8       __adj_fdivr_m32i           005d38c8 f   LIBC:adj_fdiv.obj
 0001:001d28fc       __safe_fdiv                005d38fc f   LIBC:adj_fdiv.obj
 0001:001d2911       __safe_fdivr               005d3911 f   LIBC:adj_fdiv.obj
 0001:001d2926       __fprem_common             005d3926 f   LIBC:adj_fdiv.obj
 0001:001d2b2c       __adj_fprem                005d3b2c f   LIBC:adj_fdiv.obj
 0001:001d2bde       __fprem1_common            005d3bde f   LIBC:adj_fdiv.obj
 0001:001d2de4       __adj_fprem1               005d3de4 f   LIBC:adj_fdiv.obj
 0001:001d2e99       __safe_fprem               005d3e99 f   LIBC:adj_fdiv.obj
 0001:001d2e9f       __safe_fprem1              005d3e9f f   LIBC:adj_fdiv.obj
 0001:001d2ea5       __adj_fpatan               005d3ea5 f   LIBC:adj_fdiv.obj
 0001:001d2ea8       __adj_fptan                005d3ea8 f   LIBC:adj_fdiv.obj
 0001:001d2eab       __87except                 005d3eab f   LIBC:87except.obj
 0001:001d2f7b       __copysign                 005d3f7b f   LIBC:ieeemisc.obj
 0001:001d2f9c       __chgsign                  005d3f9c f   LIBC:ieeemisc.obj
 0001:001d2fc1       __scalb                    005d3fc1 f   LIBC:ieeemisc.obj
 0001:001d2fd7       __logb                     005d3fd7 f   LIBC:ieeemisc.obj
 0001:001d30be       __nextafter                005d40be f   LIBC:ieeemisc.obj
 0001:001d3353       __finite                   005d4353 f   LIBC:ieeemisc.obj
 0001:001d3367       __isnan                    005d4367 f   LIBC:ieeemisc.obj
 0001:001d3395       __fpclass                  005d4395 f   LIBC:ieeemisc.obj
 0001:001d3427       ___crtLCMapStringA         005d4427 f   LIBC:a_map.obj
 0001:001d3676       ___crtGetStringTypeA       005d4676 f   LIBC:a_str.obj
 0001:001d37c0       _strcmp                    005d47c0 f   LIBC:strcmp.obj
 0001:001d3844       ___crtCompareStringA       005d4844 f   LIBC:a_cmp.obj
 0001:001d3aec       ___crtsetenv               005d4aec f   LIBC:setenv.obj
 0001:001d3d32       _wctomb                    005d4d32 f   LIBC:wctomb.obj
 0001:001d3da0       __aullrem                  005d4da0 f   LIBC:ullrem.obj
 0001:001d3e15       __matherr                  005d4e15 f   LIBC:matherr.obj
 0001:001d3e18       _mbtowc                    005d4e18 f   LIBC:mbtowc.obj
 0001:001d3ee0       _isalpha                   005d4ee0 f   LIBC:_ctype.obj
 0001:001d3f0e       _isupper                   005d4f0e f   LIBC:_ctype.obj
 0001:001d3f36       _islower                   005d4f36 f   LIBC:_ctype.obj
 0001:001d3f5e       _isdigit                   005d4f5e f   LIBC:_ctype.obj
 0001:001d3f86       _isxdigit                  005d4f86 f   LIBC:_ctype.obj
 0001:001d3fb3       _isspace                   005d4fb3 f   LIBC:_ctype.obj
 0001:001d3fdb       _ispunct                   005d4fdb f   LIBC:_ctype.obj
 0001:001d4003       _isalnum                   005d5003 f   LIBC:_ctype.obj
 0001:001d4031       _isprint                   005d5031 f   LIBC:_ctype.obj
 0001:001d405f       _isgraph                   005d505f f   LIBC:_ctype.obj
 0001:001d408d       _iscntrl                   005d508d f   LIBC:_ctype.obj
 0001:001d40b5       ___isascii                 005d50b5 f   LIBC:_ctype.obj
 0001:001d40c2       ___toascii                 005d50c2 f   LIBC:_ctype.obj
 0001:001d40ca       ___iscsymf                 005d50ca f   LIBC:_ctype.obj
 0001:001d4107       ___iscsym                  005d5107 f   LIBC:_ctype.obj
 0001:001d4150       __allshl                   005d5150 f   LIBC:llshl.obj
 0001:001d416f       _ungetc                    005d516f f   LIBC:ungetc.obj
 0001:001d41dd       __dosmaperr                005d51dd f   LIBC:dosmap.obj
 0001:001d4244       __alloc_osfhnd             005d5244 f   LIBC:osfinfo.obj
 0001:001d42d9       __set_osfhnd               005d52d9 f   LIBC:osfinfo.obj
 0001:001d4350       __free_osfhnd              005d5350 f   LIBC:osfinfo.obj
 0001:001d43ca       __get_osfhandle            005d53ca f   LIBC:osfinfo.obj
 0001:001d4407       __open_osfhandle           005d5407 f   LIBC:osfinfo.obj
 0001:001d44a4       __open                     005d54a4 f   LIBC:open.obj
 0001:001d44bb       __sopen                    005d54bb f   LIBC:open.obj
 0001:001d4774       __mbsrchr                  005d5774 f   LIBC:mbsrchr.obj
 0001:001d47d4       __getpath                  005d57d4 f   LIBC:getpath.obj
 0001:001d4848       __mbschr                   005d5848 f   LIBC:mbschr.obj
 0001:001d48bb       __dospawn                  005d58bb f   LIBC:dospawn.obj
 0001:001d4a9a       __cenvarg                  005d5a9a f   LIBC:cenvarg.obj
 0001:001d4c9e       ___addl                    005d5c9e f   LIBC:mantold.obj
 0001:001d4cbf       ___add_12                  005d5cbf f   LIBC:mantold.obj
 0001:001d4d1d       ___shl_12                  005d5d1d f   LIBC:mantold.obj
 0001:001d4d4b       ___shr_12                  005d5d4b f   LIBC:mantold.obj
 0001:001d4d78       ___mtold12                 005d5d78 f   LIBC:mantold.obj
 0001:001d4e3f       ___strgtold12              005d5e3f f   LIBC:strgtold.obj
 0001:001d5310       ___STRINGTOLD              005d6310 f   LIBC:strgtold.obj
 0001:001d534c       _$I10_OUTPUT               005d634c f   LIBC:x10fout.obj
 0001:001d55df       _ldexp                     005d65df f   LIBC:ldexp.obj
 0001:001d57d0       __alloca_probe             005d67d0 f   LIBC:chkstk.obj
 0001:001d57d0       __chkstk                   005d67d0 f   LIBC:chkstk.obj
 0001:001d57ff       _realloc                   005d67ff f   LIBC:realloc.obj
 0001:001d591f       __strdup                   005d691f f   LIBC:strdup.obj
 0001:001d594a       __chsize                   005d694a f   LIBC:chsize.obj
 0001:001d5a90       _strrchr                   005d6a90 f   LIBC:strrchr.obj
 0001:001d5ad0       _strchr                    005d6ad0 f   LIBC:strchr.obj
 0001:001d5ad6       ___from_strstr_to_strchr   005d6ad6 f   LIBC:strchr.obj
 0001:001d5b8c       ___ld12mul                 005d6b8c f   LIBC:tenpow.obj
 0001:001d5dac       ___multtenpow12            005d6dac f   LIBC:tenpow.obj
 0001:001d5e28       __setmode                  005d6e28 f   LIBC:setmode.obj
 0001:001d5e9e       _GetCommandLineA@0         005d6e9e f   kernel32:KERNEL32.dll
 0001:001d5ea4       _GetVersion@0              005d6ea4 f   kernel32:KERNEL32.dll
 0001:001d5eaa       _ExitProcess@4             005d6eaa f   kernel32:KERNEL32.dll
 0001:001d5eb0       _GetTimeZoneInformation@4  005d6eb0 f   kernel32:KERNEL32.dll
 0001:001d5eb6       _GetSystemTime@4           005d6eb6 f   kernel32:KERNEL32.dll
 0001:001d5ebc       _GetLocalTime@4            005d6ebc f   kernel32:KERNEL32.dll
 0001:001d5ec2       _GetSystemTimeAsFileTime@4 005d6ec2 f   kernel32:KERNEL32.dll
 0001:001d5ec8       _GetLastError@0            005d6ec8 f   kernel32:KERNEL32.dll
 0001:001d5ece       _SetConsoleCtrlHandler@8   005d6ece f   kernel32:KERNEL32.dll
 0001:001d5ed4       _TerminateProcess@8        005d6ed4 f   kernel32:KERNEL32.dll
 0001:001d5eda       _GetCurrentProcess@0       005d6eda f   kernel32:KERNEL32.dll
 0001:001d5ee0       _HeapAlloc@12              005d6ee0 f   kernel32:KERNEL32.dll
 0001:001d5ee6       _UnhandledExceptionFilter@4 005d6ee6 f   kernel32:KERNEL32.dll
 0001:001d5eec       _GetModuleFileNameA@12     005d6eec f   kernel32:KERNEL32.dll
 0001:001d5ef2       _FreeEnvironmentStringsA@4 005d6ef2 f   kernel32:KERNEL32.dll
 0001:001d5ef8       _FreeEnvironmentStringsW@4 005d6ef8 f   kernel32:KERNEL32.dll
 0001:001d5efe       _WideCharToMultiByte@32    005d6efe f   kernel32:KERNEL32.dll
 0001:001d5f04       _GetEnvironmentStrings@0   005d6f04 f   kernel32:KERNEL32.dll
 0001:001d5f0a       _GetEnvironmentStringsW@0  005d6f0a f   kernel32:KERNEL32.dll
 0001:001d5f10       _SetHandleCount@4          005d6f10 f   kernel32:KERNEL32.dll
 0001:001d5f16       _GetStdHandle@4            005d6f16 f   kernel32:KERNEL32.dll
 0001:001d5f1c       _GetFileType@4             005d6f1c f   kernel32:KERNEL32.dll
 0001:001d5f22       _GetStartupInfoA@4         005d6f22 f   kernel32:KERNEL32.dll
 0001:001d5f28       _HeapDestroy@4             005d6f28 f   kernel32:KERNEL32.dll
 0001:001d5f2e       _HeapCreate@12             005d6f2e f   kernel32:KERNEL32.dll
 0001:001d5f34       _VirtualFree@12            005d6f34 f   kernel32:KERNEL32.dll
 0001:001d5f3a       _HeapFree@12               005d6f3a f   kernel32:KERNEL32.dll
 0001:001d5f40       _RtlUnwind@16              005d6f40 f   kernel32:KERNEL32.dll
 0001:001d5f46       _WriteFile@20              005d6f46 f   kernel32:KERNEL32.dll
 0001:001d5f4c       _GetProcAddress@8          005d6f4c f   kernel32:KERNEL32.dll
 0001:001d5f52       _GetModuleHandleA@4        005d6f52 f   kernel32:KERNEL32.dll
 0001:001d5f58       _RaiseException@16         005d6f58 f   kernel32:KERNEL32.dll
 0001:001d5f5e       _ReadFile@20               005d6f5e f   kernel32:KERNEL32.dll
 0001:001d5f64       _SetFilePointer@16         005d6f64 f   kernel32:KERNEL32.dll
 0001:001d5f6a       _FlushFileBuffers@4        005d6f6a f   kernel32:KERNEL32.dll
 0001:001d5f70       _CloseHandle@4             005d6f70 f   kernel32:KERNEL32.dll
 0001:001d5f76       _GetFileAttributesA@4      005d6f76 f   kernel32:KERNEL32.dll
 0001:001d5f7c       _VirtualAlloc@16           005d6f7c f   kernel32:KERNEL32.dll
 0001:001d5f82       _HeapReAlloc@16            005d6f82 f   kernel32:KERNEL32.dll
 0001:001d5f88       _IsBadWritePtr@8           005d6f88 f   kernel32:KERNEL32.dll
 0001:001d5f8e       _GetCPInfo@8               005d6f8e f   kernel32:KERNEL32.dll
 0001:001d5f94       _GetACP@0                  005d6f94 f   kernel32:KERNEL32.dll
 0001:001d5f9a       _GetOEMCP@0                005d6f9a f   kernel32:KERNEL32.dll
 0001:001d5fa0       _LoadLibraryA@4            005d6fa0 f   kernel32:KERNEL32.dll
 0001:001d5fa6       _MultiByteToWideChar@24    005d6fa6 f   kernel32:KERNEL32.dll
 0001:001d5fac       _LCMapStringA@24           005d6fac f   kernel32:KERNEL32.dll
 0001:001d5fb2       _LCMapStringW@24           005d6fb2 f   kernel32:KERNEL32.dll
 0001:001d5fb8       _GetStringTypeA@20         005d6fb8 f   kernel32:KERNEL32.dll
 0001:001d5fbe       _GetStringTypeW@16         005d6fbe f   kernel32:KERNEL32.dll
 0001:001d5fc4       _CompareStringA@24         005d6fc4 f   kernel32:KERNEL32.dll
 0001:001d5fca       _CompareStringW@24         005d6fca f   kernel32:KERNEL32.dll
 0001:001d5fd0       _SetEnvironmentVariableA@8 005d6fd0 f   kernel32:KERNEL32.dll
 0001:001d5fd6       _SetStdHandle@8            005d6fd6 f   kernel32:KERNEL32.dll
 0001:001d5fdc       _CreateFileA@28            005d6fdc f   kernel32:KERNEL32.dll
 0001:001d5fe2       _GetExitCodeProcess@8      005d6fe2 f   kernel32:KERNEL32.dll
 0001:001d5fe8       _WaitForSingleObject@8     005d6fe8 f   kernel32:KERNEL32.dll
 0001:001d5fee       _CreateProcessA@40         005d6fee f   kernel32:KERNEL32.dll
 0001:001d5ff4       _SetEndOfFile@4            005d6ff4 f   kernel32:KERNEL32.dll
 0002:00000020       __real@8@bfff8000000000000000 0064e020     Core:function.obj
 0002:00000028       __real@8@00000000000000000000 0064e028     choco:chocutils.obj
 0002:00000030       __real@8@3fff8000000000000000 0064e030     palm:p-solve.obj
 0002:00000038       ??_7CPFile@@6B@            0064e038     Kernel:Clport.obj
 0002:00000058       __real@8@400fc350000000000000 0064e058     Kernel:Clport.obj
 0002:00000060       __real@8@3feb8637bd05af6c6800 0064e060     Kernel:Clport.obj
 0002:00000068       ??_7CPStringOut@@6B@       0064e068     Kernel:Clport.obj
 0002:00000088       __real@8@3feea7c5ac471b478800 0064e088     Kernel:Clport.obj
 0002:00000090       ??_7CPStringIn@@6B@        0064e090     Kernel:Clport.obj
 0002:000000b0       __real@8@4002a000000000000000 0064e0b0     Kernel:Clport.obj
 0002:000000c4       ??_C@_07OOMJ@cmd?4exe?$AA@ 0064e0c4     LIBC:system.obj
 0002:000000cc       ??_C@_0M@IPJP@command?4com?$AA@ 0064e0cc     LIBC:system.obj
 0002:000000d8       ??_C@_02JMK@?1c?$AA@       0064e0d8     LIBC:system.obj
 0002:000000dc       ??_C@_07KFDO@COMSPEC?$AA@  0064e0dc     LIBC:system.obj
 0002:000000e4       ??_C@_0P@GGKG@runtime?5error?5?$AA@ 0064e0e4     LIBC:crt0msg.obj
 0002:000000f4       ??_C@_02PIMC@?$AN?6?$AA@   0064e0f4     LIBC:crt0msg.obj
 0002:000000f8       ??_C@_0O@DELO@TLOSS?5error?$AN?6?$AA@ 0064e0f8     LIBC:crt0msg.obj
 0002:00000108       ??_C@_0N@OMLL@SING?5error?$AN?6?$AA@ 0064e108     LIBC:crt0msg.obj
 0002:00000118       ??_C@_0P@OJAK@DOMAIN?5error?$AN?6?$AA@ 0064e118     LIBC:crt0msg.obj
 0002:00000128       ??_C@_0CF@EANP@R6028?$AN?6?9?5unable?5to?5initialize?5he@ 0064e128     LIBC:crt0msg.obj
 0002:00000150       ??_C@_0DF@ECGN@R6027?$AN?6?9?5not?5enough?5space?5for?5lo@ 0064e150     LIBC:crt0msg.obj
 0002:00000188       ??_C@_0DF@FKAC@R6026?$AN?6?9?5not?5enough?5space?5for?5st@ 0064e188     LIBC:crt0msg.obj
 0002:000001c0       ??_C@_0CG@DPMN@R6025?$AN?6?9?5pure?5virtual?5function?5c@ 0064e1c0     LIBC:crt0msg.obj
 0002:000001e8       ??_C@_0DF@CKIP@R6024?$AN?6?9?5not?5enough?5space?5for?5_o@ 0064e1e8     LIBC:crt0msg.obj
 0002:00000220       ??_C@_0CJ@GGOE@R6019?$AN?6?9?5unable?5to?5open?5console?5@ 0064e220     LIBC:crt0msg.obj
 0002:0000024c       ??_C@_0CB@LBOB@R6018?$AN?6?9?5unexpected?5heap?5error?$AN?6@ 0064e24c     LIBC:crt0msg.obj
 0002:00000270       ??_C@_0CN@FPEG@R6017?$AN?6?9?5unexpected?5multithread?5@ 0064e270     LIBC:crt0msg.obj
 0002:000002a0       ??_C@_0CM@OBIC@R6016?$AN?6?9?5not?5enough?5space?5for?5th@ 0064e2a0     LIBC:crt0msg.obj
 0002:000002cc       ??_C@_0CB@HPAL@?$AN?6abnormal?5program?5termination?$AN?6@ 0064e2cc     LIBC:crt0msg.obj
 0002:000002f0       ??_C@_0CM@JOOB@R6009?$AN?6?9?5not?5enough?5space?5for?5en@ 0064e2f0     LIBC:crt0msg.obj
 0002:0000031c       ??_C@_0CK@OIBL@R6008?$AN?6?9?5not?5enough?5space?5for?5ar@ 0064e31c     LIBC:crt0msg.obj
 0002:00000348       ??_C@_0CF@LKPB@R6002?$AN?6?9?5floating?5point?5not?5load@ 0064e348     LIBC:crt0msg.obj
 0002:00000370       ??_C@_0CF@JPDF@Microsoft?5Visual?5C?$CL?$CL?5Runtime?5Lib@ 0064e370     LIBC:crt0msg.obj
 0002:00000398       ??_C@_02JJJH@?6?6?$AA@     0064e398     LIBC:crt0msg.obj
 0002:0000039c       ??_C@_0BK@DEOK@Runtime?5Error?$CB?6?6Program?3?5?$AA@ 0064e39c     LIBC:crt0msg.obj
 0002:000003b8       ??_C@_0BH@NNCD@?$DMprogram?5name?5unknown?$DO?$AA@ 0064e3b8     LIBC:crt0msg.obj
 0002:000003d0       __real@8@4015800bf60000000000 0064e3d0     LIBC:testfdiv.obj
 0002:000003d8       __real@8@4014bffffc0000000000 0064e3d8     LIBC:testfdiv.obj
 0002:000003e0       ??_C@_0BK@JEGK@IsProcessorFeaturePresent?$AA@ 0064e3e0     LIBC:testfdiv.obj
 0002:000003fc       ??_C@_08OBID@KERNEL32?$AA@ 0064e3fc     LIBC:testfdiv.obj
 0002:00000408       ??_C@_05OFLO@e?$CL000?$AA@ 0064e408     LIBC:cvt.obj
 0002:00000428       __DEFAULT_CW_in_mem        0064e428     LIBC:common.obj
 0002:0000042a       __pi_by_2_to_61            0064e42a     LIBC:common.obj
 0002:00000468       __real@8@40008000000000000000 0064e468     LIBC:powhlp.obj
 0002:00000470       ___dnames                  0064e470     LIBC:timeset.obj
 0002:00000488       ___mnames                  0064e488     LIBC:timeset.obj
 0002:000004b0       ??_C@_02JHIA@TZ?$AA@       0064e4b0     LIBC:tzset.obj
 0002:000004b4       ___lookuptable             0064e4b4     LIBC:output.obj
 0002:00000510       ??_C@_1O@POHA@?$AA?$CI?$AAn?$AAu?$AAl?$AAl?$AA?$CJ?$AA?$AA@ 0064e510     LIBC:output.obj
 0002:00000520       ??_C@_06ONKE@?$CInull?$CJ?$AA@ 0064e520     LIBC:output.obj
 0002:00000528       ??_C@_03GAFO@_yn?$AA@      0064e528     LIBC:fpexcept.obj
 0002:0000052c       ??_C@_03GNLD@_y1?$AA@      0064e52c     LIBC:fpexcept.obj
 0002:00000530       ??_C@_03MHCE@_y0?$AA@      0064e530     LIBC:fpexcept.obj
 0002:00000534       ??_C@_05PAK@frexp?$AA@     0064e534     LIBC:fpexcept.obj
 0002:0000053c       ??_C@_04JKCH@fmod?$AA@     0064e53c     LIBC:fpexcept.obj
 0002:00000544       ??_C@_06GGHF@_hypot?$AA@   0064e544     LIBC:fpexcept.obj
 0002:0000054c       ??_C@_05JNMC@_cabs?$AA@    0064e54c     LIBC:fpexcept.obj
 0002:00000554       ??_C@_05MEKH@ldexp?$AA@    0064e554     LIBC:fpexcept.obj
 0002:0000055c       ??_C@_04KAOJ@modf?$AA@     0064e55c     LIBC:fpexcept.obj
 0002:00000564       ??_C@_04EHAJ@fabs?$AA@     0064e564     LIBC:fpexcept.obj
 0002:0000056c       ??_C@_05MFBN@floor?$AA@    0064e56c     LIBC:fpexcept.obj
 0002:00000574       ??_C@_04JJMP@ceil?$AA@     0064e574     LIBC:fpexcept.obj
 0002:0000057c       ??_C@_03JLPI@tan?$AA@      0064e57c     LIBC:fpexcept.obj
 0002:00000580       ??_C@_03DLFL@cos?$AA@      0064e580     LIBC:fpexcept.obj
 0002:00000584       ??_C@_03JAMN@sin?$AA@      0064e584     LIBC:fpexcept.obj
 0002:00000588       ??_C@_05BFPO@atan2?$AA@    0064e588     LIBC:fpexcept.obj
 0002:00000590       ??_C@_04OAMO@acos?$AA@     0064e590     LIBC:fpexcept.obj
 0002:00000598       ??_C@_04ELFI@asin?$AA@     0064e598     LIBC:fpexcept.obj
 0002:000005a0       ??_C@_04LFAD@tanh?$AA@     0064e5a0     LIBC:fpexcept.obj
 0002:000005a8       ??_C@_04PFKD@cosh?$AA@     0064e5a8     LIBC:fpexcept.obj
 0002:000005b0       ??_C@_04NPAI@sinh?$AA@     0064e5b0     LIBC:fpexcept.obj
 0002:000005b8       ??_C@_05IJHH@log10?$AA@    0064e5b8     LIBC:fpexcept.obj
 0002:000005c0       ??_C@_03EGFG@pow?$AA@      0064e5c0     LIBC:fpexcept.obj
 0002:000005c4       ??_C@_03CDGJ@exp?$AA@      0064e5c4     LIBC:fpexcept.obj
 0002:000005c8       ??_C@_04LNMG@PATH?$AA@     0064e5c8     LIBC:spawnvpe.obj
 0002:000005d0       ??_C@_04GGNP@?4com?$AA@    0064e5d0     LIBC:spawnve.obj
 0002:000005d8       ??_C@_04NFOM@?4exe?$AA@    0064e5d8     LIBC:spawnve.obj
 0002:000005e0       ??_C@_04KBDN@?4bat?$AA@    0064e5e0     LIBC:spawnve.obj
 0002:000005e8       ??_C@_04LFKF@?4cmd?$AA@    0064e5e8     LIBC:spawnve.obj
 0002:000005f0       ??_C@_02OFKN@?4?2?$AA@     0064e5f0     LIBC:spawnve.obj
 0002:000005f4       ??_C@_0BD@NJFP@GetLastActivePopup?$AA@ 0064e5f4     LIBC:crtmbox.obj
 0002:00000608       ??_C@_0BA@GILI@GetActiveWindow?$AA@ 0064e608     LIBC:crtmbox.obj
 0002:00000618       ??_C@_0M@PKCK@MessageBoxA?$AA@ 0064e618     LIBC:crtmbox.obj
 0002:00000624       ??_C@_0L@HKL@user32?4dll?$AA@ 0064e624     LIBC:crtmbox.obj
 0002:00000630       ??_C@_01A@?$AA?$AA@        0064e630     LIBC:a_map.obj
 0002:00000634       ??_C@_13A@?$AA?$AA?$AA?$AA@ 0064e634     LIBC:a_map.obj
 0002:00000678       ??_C@_06PAPI@1?$CDQNAN?$AA@ 0064e678     LIBC:x10fout.obj
 0002:00000680       ??_C@_05BGNL@1?$CDINF?$AA@ 0064e680     LIBC:x10fout.obj
 0002:00000688       ??_C@_05EDPF@1?$CDIND?$AA@ 0064e688     LIBC:x10fout.obj
 0002:00000690       ??_C@_06LKFM@1?$CDSNAN?$AA@ 0064e690     LIBC:x10fout.obj
 0003:00000000       ___xc_a                    0064f000     LIBC:crt0init.obj
 0003:00000104       ___xc_z                    0064f104     LIBC:crt0init.obj
 0003:00000208       ___xi_a                    0064f208     LIBC:crt0init.obj
 0003:0000041c       ___xi_z                    0064f41c     LIBC:crt0init.obj
 0003:00000520       ___xp_a                    0064f520     LIBC:crt0init.obj
 0003:00000728       ___xp_z                    0064f728     LIBC:crt0init.obj
 0003:0000082c       ___xt_a                    0064f82c     LIBC:crt0init.obj
 0003:00000930       ___xt_z                    0064f930     LIBC:crt0init.obj
 0003:00001048       ??_C@_0L@OLJE@list_I_set?$AA@ 00650048     Core:Core.obj
 0003:00001054       ??_C@_0BA@LHMA@list_I_set_type?$AA@ 00650054     Core:Core.obj
 0003:00001064       ??_C@_09FNBG@set_I_bag?$AA@ 00650064     Core:Core.obj
 0003:00001070       ??_C@_0P@HGKD@set_I_bag_type?$AA@ 00650070     Core:Core.obj
 0003:00001080       ??_C@_0N@HGK@array_I_list?$AA@ 00650080     Core:Core.obj
 0003:00001090       ??_C@_0BC@FKPE@array_I_list_type?$AA@ 00650090     Core:Core.obj
 0003:000010a4       ??_C@_0N@LOKI@list_I_array?$AA@ 006500a4     Core:Core.obj
 0003:000010b4       ??_C@_0BC@MGGD@list_I_array_type?$AA@ 006500b4     Core:Core.obj
 0003:000010c8       ??_C@_0P@CAAH@make_set_array?$AA@ 006500c8     Core:Core.obj
 0003:000010d8       ??_C@_0BE@KMK@make_set_array_type?$AA@ 006500d8     Core:Core.obj
 0003:000010ec       ??_C@_0BD@FNGP@make_list_integer2?$AA@ 006500ec     Core:Core.obj
 0003:00001100       ??_C@_0BI@GHEA@make_list_integer2_type?$AA@ 00650100     Core:Core.obj
 0003:00001118       ??_C@_0BD@GHHO@make_array_integer?$AA@ 00650118     Core:Core.obj
 0003:0000112c       ??_C@_0BI@KGAO@make_array_integer_type?$AA@ 0065012c     Core:Core.obj
 0003:00001144       ??_C@_09FLED@nth_array?$AA@ 00650144     Core:Core.obj
 0003:00001150       ??_C@_0P@PJC@nth_array_type?$AA@ 00650150     Core:Core.obj
 0003:00001160       ??_C@_0O@KJIF@nth_get_array?$AA@ 00650160     Core:Core.obj
 0003:00001170       ??_C@_0BD@HOPA@nth_get_array_type?$AA@ 00650170     Core:Core.obj
 0003:00001184       ??_C@_0BE@MAPI@meet_arg_types_type?$AA@ 00650184     Core:Core.obj
 0003:00001198       ??_C@_0BF@BPEJ@second_arg_type_type?$AA@ 00650198     Core:Core.obj
 0003:000011b0       ??_C@_0BF@PBAF@first_arg_type_type2?$AA@ 006501b0     Core:Core.obj
 0003:000011c8       ??_C@_0BE@LLNM@first_arg_type_type?$AA@ 006501c8     Core:Core.obj
 0003:000011dc       ??_C@_0BI@FHIB@abstract_type_operation?$AA@ 006501dc     Core:Core.obj
 0003:000011f4       ??_C@_0BC@DIMO@abstract_type_set?$AA@ 006501f4     Core:Core.obj
 0003:00001208       ??_C@_0BB@DADD@make_set_integer?$AA@ 00650208     Core:Core.obj
 0003:0000121c       ??_C@_0N@NNLE@integer?$CB_set?$AA@ 0065021c     Core:Core.obj
 0003:0000122c       ??_C@_08CCAE@the_type?$AA@ 0065022c     Core:Core.obj
 0003:00001238       ??_C@_0N@OAIN@unique?$DP_type?$AA@ 00650238     Core:Core.obj
 0003:00001248       ??_C@_06PKHF@?$EA_type?$AA@ 00650248     Core:Core.obj
 0003:00001250       ??_C@_0BA@KIDM@of_extract_type?$AA@ 00650250     Core:Core.obj
 0003:00001260       ??_C@_0M@BOPH@member_type?$AA@ 00650260     Core:Core.obj
 0003:0000126c       ??_C@_07OHEO@?$DM?$DN_type?$AA@ 0065026c     Core:Core.obj
 0003:00001274       ??_C@_08HPIG@?$DM?$DNt_type?$AA@ 00650274     Core:Core.obj
 0003:00001280       ??_C@_09JOLC@?$DM?$DNt_tuple?$AA@ 00650280     Core:Core.obj
 0003:0000128c       ??_C@_0O@NMGC@?$DM?$DNt_Reference?$AA@ 0065028c     Core:Core.obj
 0003:0000129c       ??_C@_09NDCF@?$DM?$DNt_Param?$AA@ 0065029c     Core:Core.obj
 0003:000012a8       ??_C@_0M@BGKC@?$DM?$DNt_subtype?$AA@ 006502a8     Core:Core.obj
 0003:000012b4       ??_C@_0N@OGIA@?$DM?$DNt_Interval?$AA@ 006502b4     Core:Core.obj
 0003:000012c4       ??_C@_09FJEN@?$DM?$DNt_Union?$AA@ 006502c4     Core:Core.obj
 0003:000012d0       ??_C@_09DNCI@?$DM?$DNt_class?$AA@ 006502d0     Core:Core.obj
 0003:000012dc       ??_C@_08BGDN@?$DM?$DNt_bag2?$AA@ 006502dc     Core:Core.obj
 0003:000012e8       ??_C@_03JPD@?$DM?$DNt?$AA@ 006502e8     Core:Core.obj
 0003:000012ec       ??_C@_09FBKM@Uall_list?$AA@ 006502ec     Core:Core.obj
 0003:000012f8       ??_C@_06BGHF@?$FO_list?$AA@ 006502f8     Core:Core.obj
 0003:00001300       ??_C@_0L@MNBO@join_class?$AA@ 00650300     Core:Core.obj
 0003:0000130c       ??_C@_06HALG@?$FO_type?$AA@ 0065030c     Core:Core.obj
 0003:00001314       ??_C@_0O@PHCC@glb_Reference?$AA@ 00650314     Core:Core.obj
 0003:00001324       ??_C@_09LDOH@glb_tuple?$AA@ 00650324     Core:Core.obj
 0003:00001330       ??_C@_0M@FMAG@glb_subtype?$AA@ 00650330     Core:Core.obj
 0003:0000133c       ??_C@_09POHA@glb_Param?$AA@ 0065033c     Core:Core.obj
 0003:00001348       ??_C@_09BAHN@glb_class?$AA@ 00650348     Core:Core.obj
 0003:00001354       ??_C@_0N@KGMK@glb_Interval?$AA@ 00650354     Core:Core.obj
 0003:00001364       ??_C@_09HEBI@glb_Union?$AA@ 00650364     Core:Core.obj
 0003:00001370       ??_C@_07NCFD@glb_set?$AA@  00650370     Core:Core.obj
 0003:00001378       ??_C@_03ELBJ@glb?$AA@      00650378     Core:Core.obj
 0003:0000137c       ??_C@_06FLPG@?2_type?$AA@  0065037c     Core:Core.obj
 0003:00001384       ??_C@_01PCFE@?2?$AA@       00650384     Core:Core.obj
 0003:00001388       ??_C@_07LJCG@but_any?$AA@  00650388     Core:Core.obj
 0003:00001390       ??_C@_0N@KICC@but_any_type?$AA@ 00650390     Core:Core.obj
 0003:000013a0       ??_C@_03MOAA@but?$AA@      006503a0     Core:Core.obj
 0003:000013a4       ??_C@_0L@OBIP@?4?4_integer?$AA@ 006503a4     Core:Core.obj
 0003:000013b0       ??_C@_0BA@JKFK@?4?4_integer_type?$AA@ 006503b0     Core:Core.obj
 0003:000013c0       ??_C@_06GDFH@U_type?$AA@   006503c0     Core:Core.obj
 0003:000013c8       ??_C@_0M@JHBD@class?$CB_type?$AA@ 006503c8     Core:Core.obj
 0003:000013d4       ??_C@_0M@LCGE@member?$DP_any?$AA@ 006503d4     Core:Core.obj
 0003:000013e0       ??_C@_0L@LDEJ@size_tuple?$AA@ 006503e0     Core:Core.obj
 0003:000013ec       ??_C@_0L@EGIF@set?$CB_tuple?$AA@ 006503ec     Core:Core.obj
 0003:000013f8       ??_C@_0N@ELGM@size_subtype?$AA@ 006503f8     Core:Core.obj
 0003:00001408       ??_C@_0N@HAJJ@set?$CB_subtype?$AA@ 00650408     Core:Core.obj
 0003:00001418       ??_C@_0L@PONO@size_Param?$AA@ 00650418     Core:Core.obj
 0003:00001424       ??_C@_0L@LBC@set?$CB_Param?$AA@ 00650424     Core:Core.obj
 0003:00001430       ??_C@_0O@EONN@size_Interval?$AA@ 00650430     Core:Core.obj
 0003:00001440       ??_C@_0O@HCOG@set?$CB_Interval?$AA@ 00650440     Core:Core.obj
 0003:00001450       ??_C@_0L@HELG@size_Union?$AA@ 00650450     Core:Core.obj
 0003:0000145c       ??_C@_0L@IBHK@set?$CB_Union?$AA@ 0065045c     Core:Core.obj
 0003:00001468       ??_C@_0L@BAND@size_class?$AA@ 00650468     Core:Core.obj
 0003:00001474       ??_C@_0L@OFBP@set?$CB_class?$AA@ 00650474     Core:Core.obj
 0003:00001480       ??_C@_0BA@DDMA@size_list2_Core?$AA@ 00650480     Core:Core.obj
 0003:00001490       ??_C@_08FCFG@size_set?$AA@ 00650490     Core:Core.obj
 0003:0000149c       ??_C@_08MFKN@set?$CB_set?$AA@ 0065049c     Core:Core.obj
 0003:000014a8       ??_C@_0BA@EFPD@size_collection?$AA@ 006504a8     Core:Core.obj
 0003:000014b8       ??_C@_0BA@GHDH@set?$CB_collection?$AA@ 006504b8     Core:Core.obj
 0003:000014c8       ??_C@_0M@KMAP@?$EA_Reference?$AA@ 006504c8     Core:Core.obj
 0003:000014d4       ??_C@_0O@CCEA@get_Reference?$AA@ 006504d4     Core:Core.obj
 0003:000014e4       ??_C@_0BK@NBMF@self_print_Reference_Core?$AA@ 006504e4     Core:Core.obj
 0003:00001500       ??_C@_09NCBE@Reference?$AA@ 00650500     Core:Core.obj
 0003:0000150c       ??_C@_0O@0finite?$DP_tuple?$AA@ 0065050c     Core:Core.obj
 0003:0000151c       ??_C@_08DIEE@nth_type?$AA@ 0065051c     Core:Core.obj
 0003:00001528       ??_C@_0O@MOLA@param_I_class?$AA@ 00650528     Core:Core.obj
 0003:00001538       ??_C@_0L@LLJE@nth_class2?$AA@ 00650538     Core:Core.obj
 0003:00001544       ??_C@_0L@EECN@nth_class1?$AA@ 00650544     Core:Core.obj
 0003:00001550       ??_C@_0BA@EFOB@finite?$DP_subtype?$AA@ 00650550     Core:Core.obj
 0003:00001560       ??_C@_0BI@BJFK@self_print_subtype_Core?$AA@ 00650560     Core:Core.obj
 0003:00001578       ??_C@_07BNAO@subtype?$AA@  00650578     Core:Core.obj
 0003:00001580       ??_C@_0O@ENJG@finite?$DP_Param?$AA@ 00650580     Core:Core.obj
 0003:00001590       ??_C@_0BG@OHEF@self_print_Param_Core?$AA@ 00650590     Core:Core.obj
 0003:000015a8       ??_C@_05FIKC@Param?$AA@    006505a8     Core:Core.obj
 0003:000015b0       ??_C@_0L@DHBB@?9?9_integer?$AA@ 006505b0     Core:Core.obj
 0003:000015bc       ??_C@_0BB@GEND@finite?$DP_Interval?$AA@ 006505bc     Core:Core.obj
 0003:000015d0       ??_C@_0BJ@BOAN@self_print_Interval_Core?$AA@ 006505d0     Core:Core.obj
 0003:000015ec       ??_C@_08JAIL@Interval?$AA@ 006505ec     Core:Core.obj
 0003:000015f8       ??_C@_0O@MHPO@finite?$DP_Union?$AA@ 006505f8     Core:Core.obj
 0003:00001608       ??_C@_0BG@DMOJ@self_print_Union_Core?$AA@ 00650608     Core:Core.obj
 0003:00001620       ??_C@_05NCMK@Union?$AA@    00650620     Core:Core.obj
 0003:00001628       ??_C@_04FCOP@Type?$AA@     00650628     Core:Core.obj
 0003:00001630       ??_C@_09LKED@Ztype_any?$AA@ 00650630     Core:Core.obj
 0003:0000163c       ??_C@_06JKHK@?$CF_any1?$AA@ 0065063c     Core:Core.obj
 0003:00001644       ??_C@_0L@GJMF@sort?$CB_type?$AA@ 00650644     Core:Core.obj
 0003:00001650       ??_C@_0L@GJI@?$DNtype?$DP_any?$AA@ 00650650     Core:Core.obj
 0003:0000165c       ??_C@_06IEBC@?$DNtype?$DP?$AA@ 0065065c     Core:Core.obj
 0003:00001664       ??_C@_0O@ILGP@enumerate_any?$AA@ 00650664     Core:Core.obj
 0003:00001674       ??_C@_0N@MMBH@finite?$DP_type?$AA@ 00650674     Core:Core.obj
 0003:00001684       ??_C@_02CKJF@?9?9?$AA@     00650684     Core:Core.obj
 0003:00001688       ??_C@_04CJLB@arg2?$AA@     00650688     Core:Core.obj
 0003:00001690       ??_C@_04NGAI@arg1?$AA@     00650690     Core:Core.obj
 0003:00001698       ??_C@_0L@GAIN@CL_Oid_inv?$AA@ 00650698     Core:Core.obj
 0003:000016a4       ??_C@_06KFID@CL_Oid?$AA@   006506a4     Core:Core.obj
 0003:000016ac       ??_C@_0L@OGGN@CL_Address?$AA@ 006506ac     Core:Core.obj
 0003:000016b8       ??_C@_07LLDL@?$DM?$DN_char?$AA@ 006506b8     Core:Core.obj
 0003:000016c0       ??_C@_0BF@KLFB@self_print_char_Core?$AA@ 006506c0     Core:Core.obj
 0003:000016d8       ??_C@_0BG@CDC@self_print_array_Core?$AA@ 006506d8     Core:Core.obj
 0003:000016f0       ??_C@_0L@IEIC@nth?$DN_array?$AA@ 006506f0     Core:Core.obj
 0003:000016fc       ??_C@_0P@BNEM@difference_set?$AA@ 006506fc     Core:Core.obj
 0003:0000170c       ??_C@_0BH@JIDD@make_copy_list_integer?$AA@ 0065070c     Core:Core.obj
 0003:00001724       ??_C@_0M@BCMO@tuple?$CB_list?$AA@ 00650724     Core:Core.obj
 0003:00001730       ??_C@_09HBHA@skip_list?$AA@ 00650730     Core:Core.obj
 0003:0000173c       ??_C@_0BE@KPNG@build_powerset_list?$AA@ 0065073c     Core:Core.obj
 0003:00001750       ??_C@_0P@MIKK@quicksort_list?$AA@ 00650750     Core:Core.obj
 0003:00001760       ??_C@_0M@JKCB@sort_method?$AA@ 00650760     Core:Core.obj
 0003:0000176c       ??_C@_0O@KGPG@hashsize_list?$AA@ 0065076c     Core:Core.obj
 0003:0000177c       ??_C@_0BB@COCB@hashlist_integer?$AA@ 0065077c     Core:Core.obj
 0003:00001790       ??_C@_08NGLN@car_list?$AA@ 00650790     Core:Core.obj
 0003:0000179c       ??_C@_0N@DKCJ@nth_set_list?$AA@ 0065079c     Core:Core.obj
 0003:000017ac       ??_C@_0M@GNH@rmlast_list?$AA@ 006507ac     Core:Core.obj
 0003:000017b8       ??_C@_09EPDO@last_list?$AA@ 006507b8     Core:Core.obj
 0003:000017c4       ??_C@_0P@FANO@last_list_type?$AA@ 006507c4     Core:Core.obj
 0003:000017d4       ??_C@_06GNMK@?1?$CL_bag?$AA@ 006507d4     Core:Core.obj
 0003:000017dc       ??_C@_0L@ODFF@max_method?$AA@ 006507dc     Core:Core.obj
 0003:000017e8       ??_C@_0BA@ILLH@max_method_type?$AA@ 006507e8     Core:Core.obj
 0003:000017f8       ??_C@_0L@MDBK@min_method?$AA@ 006507f8     Core:Core.obj
 0003:00001804       ??_C@_0BA@HIIO@min_method_type?$AA@ 00650804     Core:Core.obj
 0003:00001814       ??_C@_0M@LMHJ@nth_get_bag?$AA@ 00650814     Core:Core.obj
 0003:00001820       ??_C@_07EBBH@nth_bag?$AA@  00650820     Core:Core.obj
 0003:00001828       ??_C@_0N@MIJJ@nth_bag_type?$AA@ 00650828     Core:Core.obj
 0003:00001838       ??_C@_0L@LNGN@length_bag?$AA@ 00650838     Core:Core.obj
 0003:00001844       ??_C@_0O@IKHB@string?$CB_float?$AA@ 00650844     Core:Core.obj
 0003:00001854       ??_C@_0P@PKGH@string?$CB_float_?$AA@ 00650854     Core:Core.obj
 0003:00001864       ??_C@_0L@FMEO@atan_float?$AA@ 00650864     Core:Core.obj
 0003:00001870       ??_C@_0M@BALB@atan_float_?$AA@ 00650870     Core:Core.obj
 0003:0000187c       ??_C@_09EGDP@log_float?$AA@ 0065087c     Core:Core.obj
 0003:00001888       ??_C@_0L@BMKL@log_float_?$AA@ 00650888     Core:Core.obj
 0003:00001894       ??_C@_0L@BBEP@_exp_float?$AA@ 00650894     Core:Core.obj
 0003:000018a0       ??_C@_0M@DGPM@_exp_float_?$AA@ 006508a0     Core:Core.obj
 0003:000018ac       ??_C@_0L@OOMA@sqrt_float?$AA@ 006508ac     Core:Core.obj
 0003:000018b8       ??_C@_0M@OMAD@sqrt_float_?$AA@ 006508b8     Core:Core.obj
 0003:000018c4       ??_C@_08KKAD@?9_float2?$AA@ 006508c4     Core:Core.obj
 0003:000018d0       ??_C@_09JBEH@?9_float2_?$AA@ 006508d0     Core:Core.obj
 0003:000018dc       ??_C@_08ENFJ@_7_float?$AA@ 006508dc     Core:Core.obj
 0003:000018e8       ??_C@_09LBKA@_7_float_?$AA@ 006508e8     Core:Core.obj
 0003:000018f4       ??_C@_0M@FCJC@_star_float?$AA@ 006508f4     Core:Core.obj
 0003:00001900       ??_C@_0N@EELP@_star_float_?$AA@ 00650900     Core:Core.obj
 0003:00001910       ??_C@_0M@DMHL@_dash_float?$AA@ 00650910     Core:Core.obj
 0003:0000191c       ??_C@_0N@MGNB@_dash_float_?$AA@ 0065091c     Core:Core.obj
 0003:0000192c       ??_C@_0M@HINB@_plus_float?$AA@ 0065092c     Core:Core.obj
 0003:00001938       ??_C@_0N@JMJF@_plus_float_?$AA@ 00650938     Core:Core.obj
 0003:00001948       ??_C@_0M@MOKA@princ_float?$AA@ 00650948     Core:Core.obj
 0003:00001954       ??_C@_0N@NICD@princ_float_?$AA@ 00650954     Core:Core.obj
 0003:00001964       ??_C@_0M@KKH@pair_2_list?$AA@ 00650964     Core:Core.obj
 0003:00001970       ??_C@_0BB@EHLF@pair_2_list_type?$AA@ 00650970     Core:Core.obj
 0003:00001984       ??_C@_0M@LEEH@pair_1_list?$AA@ 00650984     Core:Core.obj
 0003:00001990       ??_C@_0BB@HICF@pair_1_list_type?$AA@ 00650990     Core:Core.obj
 0003:000019a4       ??_C@_08CHFK@pair_any?$AA@ 006509a4     Core:Core.obj
 0003:000019b0       ??_C@_04OJPI@pair?$AA@     006509b0     Core:Core.obj
 0003:000019b8       ??_C@_06IEAD@Id_any?$AA@   006509b8     Core:Core.obj
 0003:000019c0       ??_C@_0M@EPGE@Id_any_type?$AA@ 006509c0     Core:Core.obj
 0003:000019cc       ??_C@_0BA@EJLO@divide?$DP_integer?$AA@ 006509cc     Core:Core.obj
 0003:000019dc       ??_C@_0BA@JPEI@factor?$DP_integer?$AA@ 006509dc     Core:Core.obj
 0003:000019ec       ??_C@_0M@EKEC@nth_integer?$AA@ 006509ec     Core:Core.obj
 0003:000019f8       ??_C@_09GDNL@?$DO_integer?$AA@ 006509f8     Core:Core.obj
 0003:00001a04       ??_C@_0L@GAHF@?$DM?$DN_integer?$AA@ 00650a04     Core:Core.obj
 0003:00001a10       ??_C@_09OHEL@?$DM_integer?$AA@ 00650a10     Core:Core.obj
 0003:00001a1c       ??_C@_0L@DDDH@or_integer?$AA@ 00650a1c     Core:Core.obj
 0003:00001a28       ??_C@_0M@NEA@and_integer?$AA@ 00650a28     Core:Core.obj
 0003:00001a34       ??_C@_0L@DJCJ@?$DO?$DO_integer?$AA@ 00650a34     Core:Core.obj
 0003:00001a40       ??_C@_0L@KCDN@?$DM?$DM_integer?$AA@ 00650a40     Core:Core.obj
 0003:00001a4c       ??_C@_07DPPH@CL_exit?$AA@  00650a4c     Core:Core.obj
 0003:00001a54       ??_C@_0BB@BAOO@sequence_integer?$AA@ 00650a54     Core:Core.obj
 0003:00001a68       ??_C@_0M@HMMD@mod_integer?$AA@ 00650a68     Core:Core.obj
 0003:00001a74       ??_C@_07JMDL@ch_sign?$AA@  00650a74     Core:Core.obj
 0003:00001a7c       ??_C@_0L@HDAG@?9_integer1?$AA@ 00650a7c     Core:Core.obj
 0003:00001a88       ??_C@_0BA@DPM@?9_integer1_type?$AA@ 00650a88     Core:Core.obj
 0003:00001a98       ??_C@_09IMDB@?$CL_integer?$AA@ 00650a98     Core:Core.obj
 0003:00001aa4       ??_C@_0P@HFIH@?$CL_integer_type?$AA@ 00650aa4     Core:Core.obj
 0003:00001ab4       ??_C@_0O@NFCI@gensym_string?$AA@ 00650ab4     Core:Core.obj
 0003:00001ac4       ??_C@_0P@LBBP@c_princ_symbol?$AA@ 00650ac4     Core:Core.obj
 0003:00001ad4       ??_C@_0BH@GIMI@self_print_symbol_Core?$AA@ 00650ad4     Core:Core.obj
 0003:00001aec       ??_C@_0BD@PGO@make_string_symbol?$AA@ 00650aec     Core:Core.obj
 0003:00001b00       ??_C@_0N@KJCE@value_module?$AA@ 00650b00     Core:Core.obj
 0003:00001b10       ??_C@_0N@MLME@value_string?$AA@ 00650b10     Core:Core.obj
 0003:00001b20       ??_C@_0O@FAII@getenv_string?$AA@ 00650b20     Core:Core.obj
 0003:00001b30       ??_C@_0N@GEB@claire_shell?$AA@ 00650b30     Core:Core.obj
 0003:00001b40       ??_C@_0P@ELFB@nth_put_string?$AA@ 00650b40     Core:Core.obj
 0003:00001b50       ??_C@_0P@DMLI@nth_get_string?$AA@ 00650b50     Core:Core.obj
 0003:00001b60       ??_C@_0BA@KALH@externC_string2?$AA@ 00650b60     Core:Core.obj
 0003:00001b70       ??_C@_0BF@KFFG@externC_string2_type?$AA@ 00650b70     Core:Core.obj
 0003:00001b88       ??_C@_0P@JKP@externC_string?$AA@ 00650b88     Core:Core.obj
 0003:00001b98       ??_C@_0BA@JEED@symbol?$CB_string2?$AA@ 00650b98     Core:Core.obj
 0003:00001ba8       ??_C@_0BF@PIPC@make_function_string?$AA@ 00650ba8     Core:Core.obj
 0003:00001bc0       ??_C@_06CGBO@strlen?$AA@   00650bc0     Core:Core.obj
 0003:00001bc8       ??_C@_0P@HIKP@store_listargs?$AA@ 00650bc8     Core:Core.obj
 0003:00001bd8       ??_C@_07JLKI@world?9?$CB?$AA@ 00650bd8     Core:Core.obj
 0003:00001be0       ??_C@_06NPFN@world?9?$AA@  00650be0     Core:Core.obj
 0003:00001be8       ??_C@_06CACP@world?$CL?$AA@ 00650be8     Core:Core.obj
 0003:00001bf0       ??_C@_0BC@DDME@backtrack_integer?$AA@ 00650bf0     Core:Core.obj
 0003:00001c04       ??_C@_0P@LPAG@commit_integer?$AA@ 00650c04     Core:Core.obj
 0003:00001c14       ??_C@_0N@PPGA@store_array1?$AA@ 00650c14     Core:Core.obj
 0003:00001c24       ??_C@_0M@NDMB@store_list4?$AA@ 00650c24     Core:Core.obj
 0003:00001c30       ??_C@_0M@MPDC@gensym_void?$AA@ 00650c30     Core:Core.obj
 0003:00001c3c       ??_C@_0M@NLGM@claire_stat?$AA@ 00650c3c     Core:Core.obj
 0003:00001c48       ??_C@_0P@PPB@time_show_void?$AA@ 00650c48     Core:Core.obj
 0003:00001c58       ??_C@_0O@EEHM@time_set_void?$AA@ 00650c58     Core:Core.obj
 0003:00001c68       ??_C@_0P@JDGL@time_read_void?$AA@ 00650c68     Core:Core.obj
 0003:00001c78       ??_C@_0O@OGCP@time_get_void?$AA@ 00650c78     Core:Core.obj
 0003:00001c88       ??_C@_09NCJJ@claire_gc?$AA@ 00650c88     Core:Core.obj
 0003:00001c94       ??_C@_0BC@CNAO@get_symbol_string?$AA@ 00650c94     Core:Core.obj
 0003:00001ca8       ??_C@_0BC@EPOO@get_symbol_module?$AA@ 00650ca8     Core:Core.obj
 0003:00001cbc       ??_C@_0N@KEPE@close_module?$AA@ 00650cbc     Core:Core.obj
 0003:00001ccc       ??_C@_0P@LEBP@final_relation?$AA@ 00650ccc     Core:Core.obj
 0003:00001cdc       ??_C@_0BC@MHNA@abstract_property?$AA@ 00650cdc     Core:Core.obj
 0003:00001cf0       ??_C@_0O@NAPK@class?$CB_symbol?$AA@ 00650cf0     Core:Core.obj
 0003:00001d00       ??_C@_0P@LHEA@inherit?$DP_class?$AA@ 00650d00     Core:Core.obj
 0003:00001d10       ??_C@_0L@FFJC@meet_class?$AA@ 00650d10     Core:Core.obj
 0003:00001d1c       ??_C@_0BA@EIHN@new_thing_class?$AA@ 00650d1c     Core:Core.obj
 0003:00001d2c       ??_C@_0BF@ENKF@new_thing_class_type?$AA@ 00650d2c     Core:Core.obj
 0003:00001d44       ??_C@_0BB@HIFL@new_object_class?$AA@ 00650d44     Core:Core.obj
 0003:00001d58       ??_C@_0BG@IODM@new_object_class_type?$AA@ 00650d58     Core:Core.obj
 0003:00001d70       ??_C@_0L@GGAK@new_class2?$AA@ 00650d70     Core:Core.obj
 0003:00001d7c       ??_C@_0BA@DGJM@new_class2_type?$AA@ 00650d7c     Core:Core.obj
 0003:00001d8c       ??_C@_0L@JJLD@new_class1?$AA@ 00650d8c     Core:Core.obj
 0003:00001d98       ??_C@_0BA@IIHM@new_class1_type?$AA@ 00650d98     Core:Core.obj
 0003:00001da8       ??_C@_0M@OGH@final_class?$AA@ 00650da8     Core:Core.obj
 0003:00001db4       ??_C@_0P@PELJ@abstract_class?$AA@ 00650db4     Core:Core.obj
 0003:00001dc4       ??_C@_0BA@NEDE@ephemeral_class?$AA@ 00650dc4     Core:Core.obj
 0003:00001dd4       ??_C@_05JOMK@?$DO_any?$AA@ 00650dd4     Core:Core.obj
 0003:00001ddc       ??_C@_05NOIA@?$DM_any?$AA@ 00650ddc     Core:Core.obj
 0003:00001de4       ??_C@_0N@MFJN@check_in_bag?$AA@ 00650de4     Core:Core.obj
 0003:00001df4       ??_C@_0N@OFBN@check_in_any?$AA@ 00650df4     Core:Core.obj
 0003:00001e04       ??_C@_0N@GKLL@unknown?$DP_any?$AA@ 00650e04     Core:Core.obj
 0003:00001e14       ??_C@_0L@HAPH@known?$DP_any?$AA@ 00650e14     Core:Core.obj
 0003:00001e20       ??_C@_09BPOA@owner_any?$AA@ 00650e20     Core:Core.obj
 0003:00001e2c       ??_C@_06FPAB@?$CB?$DN_any?$AA@ 00650e2c     Core:Core.obj
 0003:00001e34       ??_C@_07KLJO@not_any?$AA@  00650e34     Core:Core.obj
 0003:00001e3c       ??_C@_0L@LNOH@kill_I_any?$AA@ 00650e3c     Core:Core.obj
 0003:00001e48       ??_C@_05GKFA@kill?$CB?$AA@ 00650e48     Core:Core.obj
 0003:00001e50       ??_C@_0BC@NLAB@complete_I_object?$AA@ 00650e50     Core:Core.obj
 0003:00001e64       ??_C@_0BF@IPDH@short_enough_integer?$AA@ 00650e64     Core:Core.obj
 0003:00001e7c       ??_C@_09BEJJ@print_any?$AA@ 00650e7c     Core:Core.obj
 0003:00001e88       ??_C@_0N@EALC@much_too_far?$AA@ 00650e88     Core:Core.obj
 0003:00001e98       ??_C@_0BM@CHPO@self_print_restriction_Core?$AA@ 00650e98     Core:Core.obj
 0003:00001eb4       ??_C@_0BJ@OHJ@self_print_function_Core?$AA@ 00650eb4     Core:Core.obj
 0003:00001ed0       ??_C@_0BI@EMJG@self_print_boolean_Core?$AA@ 00650ed0     Core:Core.obj
 0003:00001ee8       ??_C@_0BE@KG@self_print_any_Core?$AA@ 00650ee8     Core:Core.obj
 0003:00001efc       ??_C@_0BF@GHIB@apply_self_print_any?$AA@ 00650efc     Core:Core.obj
 0003:00001f14       ??_C@_0BK@GHGC@buffer_set_length_integer?$AA@ 00650f14     Core:Core.obj
 0003:00001f30       ??_C@_0BD@OPJB@buffer_length_void?$AA@ 00650f30     Core:Core.obj
 0003:00001f44       ??_C@_0BC@EONG@end_of_print_void?$AA@ 00650f44     Core:Core.obj
 0003:00001f58       ??_C@_0BF@JIIB@print_in_string_void?$AA@ 00650f58     Core:Core.obj
 0003:00001f70       ??_C@_05KCGF@print?$AA@    00650f70     Core:Core.obj
 0003:00001f78       ??_C@_0N@EKHG@short_enough?$AA@ 00650f78     Core:Core.obj
 0003:00001f88       ??_C@_0BB@JDKL@apply_self_print?$AA@ 00650f88     Core:Core.obj
 0003:00001f9c       ??_C@_06MGPH@pretty?$AA@   00650f9c     Core:Core.obj
 0003:00001fa4       ??_C@_0P@OCBM@pretty_printer?$AA@ 00650fa4     Core:Core.obj
 0003:00001fb4       ??_C@_08OOME@inherit?$DP?$AA@ 00650fb4     Core:Core.obj
 0003:00001fc0       ??_C@_04HOIF@meet?$AA@     00650fc0     Core:Core.obj
 0003:00001fc8       ??_C@_03CODD@max?$AA@      00650fc8     Core:Core.obj
 0003:00001fcc       ??_C@_03MNGF@min?$AA@      00650fcc     Core:Core.obj
 0003:00001fd0       ??_C@_01KNJC@?$CG?$AA@     00650fd0     Core:Core.obj
 0003:00001fd4       ??_C@_05GNO@less?$DP?$AA@  00650fd4     Core:Core.obj
 0003:00001fdc       ??_C@_01MHL@U?$AA@         00650fdc     Core:Core.obj
 0003:00001fe0       ??_C@_02KAII@or?$AA@       00650fe0     Core:Core.obj
 0003:00001fe4       ??_C@_03HFEJ@and?$AA@      00650fe4     Core:Core.obj
 0003:00001fe8       ??_C@_02CNAK@?$DO?$DO?$AA@ 00650fe8     Core:Core.obj
 0003:00001fec       ??_C@_02FFHB@?$DM?$DM?$AA@ 00650fec     Core:Core.obj
 0003:00001ff0       ??_C@_02GMBL@?$CB?$DN?$AA@ 00650ff0     Core:Core.obj
 0003:00001ff4       ??_C@_0BK@MDHF@Sat?5Sep?514?518?302?343?52002?6?$AA@ 00650ff4     Core:Core.obj
 0003:00002010       ??_C@_0M@GKJL@claire_date?$AA@ 00651010     Core:Core.obj
 0003:0000201c       ??_C@_03GOHA@nil?$AA@      0065101c     Core:Core.obj
 0003:00002020       ??_C@_0BE@JEAM@contradiction?$CB_void?$AA@ 00651020     Core:Core.obj
 0003:00002034       ??_C@_0BF@GNMD@contradiction_occurs?$AA@ 00651034     Core:Core.obj
 0003:0000204c       ??_C@_03FDEB@?$DM?$DN2?$AA@ 0065104c     Core:Core.obj
 0003:00002050       ??_C@_0BG@ICHN@close_global_variable?$AA@ 00651050     Core:Core.obj
 0003:00002068       ??_C@_0BA@HKJF@global_variable?$AA@ 00651068     Core:Core.obj
 0003:00002078       ??_C@_09FGLG@princ_bag?$AA@ 00651078     Core:Core.obj
 0003:00002084       ??_C@_0P@ODJH@tformat_string?$AA@ 00651084     Core:Core.obj
 0003:00002094       ??_C@_0O@HJLC@format_string?$AA@ 00651094     Core:Core.obj
 0003:000020a4       ??_C@_0BO@MONI@self_print_contradiction_Core?$AA@ 006510a4     Core:Core.obj
 0003:000020c4       ??_C@_0O@LHO@contradiction?$AA@ 006510c4     Core:Core.obj
 0003:000020d4       ??_C@_0BN@MJLD@self_print_system_error_Core?$AA@ 006510d4     Core:Core.obj
 0003:000020f4       ??_C@_0BN@FDHH@self_print_return_error_Core?$AA@ 006510f4     Core:Core.obj
 0003:00002114       ??_C@_0N@CODM@return_error?$AA@ 00651114     Core:Core.obj
 0003:00002124       ??_C@_0BP@BKDL@self_print_selector_error_Core?$AA@ 00651124     Core:Core.obj
 0003:00002144       ??_C@_0P@HHLK@selector_error?$AA@ 00651144     Core:Core.obj
 0003:00002154       ??_C@_0BM@KANH@self_print_range_error_Core?$AA@ 00651154     Core:Core.obj
 0003:00002170       ??_C@_0M@HK@range_error?$AA@ 00651170     Core:Core.obj
 0003:0000217c       ??_C@_0CA@OMAA@self_print_read_slot_error_Core?$AA@ 0065117c     Core:Core.obj
 0003:0000219c       ??_C@_0BA@JPAM@read_slot_error?$AA@ 0065119c     Core:Core.obj
 0003:000021ac       ??_C@_0BO@MGMA@self_print_general_error_Core?$AA@ 006511ac     Core:Core.obj
 0003:000021cc       ??_C@_0O@GBIG@general_error?$AA@ 006511cc     Core:Core.obj
 0003:000021dc       ??_C@_05KFME@value?$AA@    006511dc     Core:Core.obj
 0003:000021e4       ??_C@_04CGOG@args?$AA@     006511e4     Core:Core.obj
 0003:000021ec       ??_C@_05IABL@?$CK?$CKarg?$AA@ 006511ec     Core:Core.obj
 0003:000021f4       ??_C@_0P@EMMO@reify_listargs?$AA@ 006511f4     Core:Core.obj
 0003:00002204       ??_C@_05KMJH@reify?$AA@    00651204     Core:Core.obj
 0003:0000220c       ??_C@_0O@PGEF@methods_class?$AA@ 0065120c     Core:Core.obj
 0003:0000221c       ??_C@_0BE@LOGC@domain?$CB_restriction?$AA@ 0065121c     Core:Core.obj
 0003:00002230       ??_C@_0BA@HKKJ@invert_relation?$AA@ 00651230     Core:Core.obj
 0003:00002240       ??_C@_0BC@FJAD@check_inverse_any?$AA@ 00651240     Core:Core.obj
 0003:00002254       ??_C@_05OADB@pname?$AA@    00651254     Core:Core.obj
 0003:0000225c       ??_C@_0BA@JKH@funcall_lambda3?$AA@ 0065125c     Core:Core.obj
 0003:0000226c       ??_C@_0BA@KDDA@funcall_lambda2?$AA@ 0065126c     Core:Core.obj
 0003:0000227c       ??_C@_0BA@FMIJ@funcall_lambda1?$AA@ 0065127c     Core:Core.obj
 0003:0000228c       ??_C@_0N@PLLN@StopProperty?$AA@ 0065128c     Core:Core.obj
 0003:0000229c       ??_C@_0BA@DOIH@make_table_type?$AA@ 0065129c     Core:Core.obj
 0003:000022ac       ??_C@_0M@NAAG@erase_table?$AA@ 006512ac     Core:Core.obj
 0003:000022b8       ??_C@_0BB@DPLM@get_index_table2?$AA@ 006512b8     Core:Core.obj
 0003:000022cc       ??_C@_0BB@MAAF@get_index_table1?$AA@ 006512cc     Core:Core.obj
 0003:000022e0       ??_C@_0M@MPKN@nth?$DN_table2?$AA@ 006512e0     Core:Core.obj
 0003:000022ec       ??_C@_0L@FFHC@nth_table2?$AA@ 006512ec     Core:Core.obj
 0003:000022f8       ??_C@_0BA@DIEK@nth_table2_type?$AA@ 006512f8     Core:Core.obj
 0003:00002308       ??_C@_0N@PDAM@delete_table?$AA@ 00651308     Core:Core.obj
 0003:00002318       ??_C@_0BB@BGDD@add_value_table3?$AA@ 00651318     Core:Core.obj
 0003:0000232c       ??_C@_0BA@INGJ@add_value_array?$AA@ 0065132c     Core:Core.obj
 0003:0000233c       ??_C@_0L@KAKK@add?$CB_table?$AA@ 0065133c     Core:Core.obj
 0003:00002348       ??_C@_09NNHA@add_table?$AA@ 00651348     Core:Core.obj
 0003:00002354       ??_C@_09BICH@put_table?$AA@ 00651354     Core:Core.obj
 0003:00002360       ??_C@_0O@NHIO@nth_put_table?$AA@ 00651360     Core:Core.obj
 0003:00002370       ??_C@_0M@DABE@nth?$DN_table1?$AA@ 00651370     Core:Core.obj
 0003:0000237c       ??_C@_09PBLE@get_table?$AA@ 0065137c     Core:Core.obj
 0003:00002388       ??_C@_0P@BBM@get_table_type?$AA@ 00651388     Core:Core.obj
 0003:00002398       ??_C@_0L@KKML@nth_table1?$AA@ 00651398     Core:Core.obj
 0003:000023a4       ??_C@_0BA@IGKK@nth_table1_type?$AA@ 006513a4     Core:Core.obj
 0003:000023b4       ??_C@_0BE@HKCH@add_value_property3?$AA@ 006513b4     Core:Core.obj
 0003:000023c8       ??_C@_0O@FLKH@put_property2?$AA@ 006513c8     Core:Core.obj
 0003:000023d8       ??_C@_0P@BNOH@identical?$DP_any?$AA@ 006513d8     Core:Core.obj
 0003:000023e8       ??_C@_0BC@BCLA@identified?$DP_class?$AA@ 006513e8     Core:Core.obj
 0003:000023fc       ??_C@_0BC@FBEN@tr_indent_boolean?$AA@ 006513fc     Core:Core.obj
 0003:00002410       ??_C@_0BD@HOLK@pop_debug_property?$AA@ 00651410     Core:Core.obj
 0003:00002424       ??_C@_0BE@LLKI@push_debug_property?$AA@ 00651424     Core:Core.obj
 0003:00002438       ??_C@_0N@LAED@apply_method?$AA@ 00651438     Core:Core.obj
 0003:00002448       ??_C@_0P@BPKI@apply_property?$AA@ 00651448     Core:Core.obj
 0003:00002458       ??_C@_0O@LLEK@call_property?$AA@ 00651458     Core:Core.obj
 0003:00002468       ??_C@_0P@LMNE@apply_function?$AA@ 00651468     Core:Core.obj
 0003:00002478       ??_C@_0BA@JIFC@funcall_method3?$AA@ 00651478     Core:Core.obj
 0003:00002488       ??_C@_0BA@DCMF@funcall_method2?$AA@ 00651488     Core:Core.obj
 0003:00002498       ??_C@_0BA@MNHM@funcall_method1?$AA@ 00651498     Core:Core.obj
 0003:000024a8       ??_C@_0BB@NJPP@get_args_integer?$AA@ 006514a8     Core:Core.obj
 0003:000024bc       ??_C@_0L@MDIC@about_void?$AA@ 006514bc     Core:Core.obj
 0003:000024c8       ??_C@_0N@OLNI@release_void?$AA@ 006514c8     Core:Core.obj
 0003:000024d8       ??_C@_06NBGB@?5?$FN?5?9?9?6?$AA@ 006514d8     Core:Core.obj
 0003:000024e0       ??_C@_07MCIG@MS?5VC?$CL?$CL?$AA@ 006514e0     Core:Core.obj
 0003:000024e8       ??_C@_06PFPI@?0?5C?$CL?$CL?3?$AA@ 006514e8     Core:Core.obj
 0003:000024f0       ??_C@_03FFGL@ntv?$AA@      006514f0     Core:Core.obj
 0003:000024f4       ??_C@_06BFJN@?5?$FLos?3?5?$AA@ 006514f4     Core:Core.obj
 0003:000024fc       ??_C@_0CA@PPOC@?9?9?5CLAIRE?5run?9time?5library?5v?53?4?$AA@ 006514fc     Core:Core.obj
 0003:0000251c       ??_C@_0BB@CFEK@find_which_class?$AA@ 0065151c     Core:Core.obj
 0003:00002530       ??_C@_0BA@HLDB@find_which_list?$AA@ 00651530     Core:Core.obj
 0003:00002540       ??_C@_0BE@BCKJ@find_which_property?$AA@ 00651540     Core:Core.obj
 0003:00002554       ??_C@_0M@MICK@tmatch?$DP_any?$AA@ 00651554     Core:Core.obj
 0003:00002560       ??_C@_0N@LDCO@tmatch?$DP_list?$AA@ 00651560     Core:Core.obj
 0003:00002570       ??_C@_0M@BNDF@vmatch?$DP_any?$AA@ 00651570     Core:Core.obj
 0003:0000257c       ??_C@_0P@BKON@matching?$DP_list?$AA@ 0065157c     Core:Core.obj
 0003:0000258c       ??_C@_0M@KLJP@?$EA_property2?$AA@ 0065158c     Core:Core.obj
 0003:00002598       ??_C@_0M@FECG@?$EA_property1?$AA@ 00651598     Core:Core.obj
 0003:000025a4       ??_C@_09CPIC@join_list?$AA@ 006515a4     Core:Core.obj
 0003:000025b0       ??_C@_0O@FDBN@hashget_class?$AA@ 006515b0     Core:Core.obj
 0003:000025c0       ??_C@_0BA@EOKF@hashinsert_list?$AA@ 006515c0     Core:Core.obj
 0003:000025d0       ??_C@_0BB@OPHP@hashinsert_class?$AA@ 006515d0     Core:Core.obj
 0003:000025e4       ??_C@_0BH@JILH@hashinsert_restriction?$AA@ 006515e4     Core:Core.obj
 0003:000025fc       ??_C@_0BI@OAB@initialize_restriction2?$AA@ 006515fc     Core:Core.obj
 0003:00002614       ??_C@_0BB@IILE@uniform_property?$AA@ 00651614     Core:Core.obj
 0003:00002628       ??_C@_0BE@BNKN@uniform_restriction?$AA@ 00651628     Core:Core.obj
 0003:0000263c       ??_C@_0BI@PBLI@initialize_restriction1?$AA@ 0065163c     Core:Core.obj
 0003:00002654       ??_C@_0BL@LCMO@insert_definition_property?$AA@ 00651654     Core:Core.obj
 0003:00002670       ??_C@_04PHLL@join?$AA@     00651670     Core:Core.obj
 0003:00002678       ??_C@_0BD@FDFA@fastcall_relation2?$AA@ 00651678     Core:Core.obj
 0003:0000268c       ??_C@_0L@GDMM@multi?$DP_any?$AA@ 0065168c     Core:Core.obj
 0003:00002698       ??_C@_06FEKD@multi?$DP?$AA@ 00651698     Core:Core.obj
 0003:000026a0       ??_C@_0BE@NJFA@put_store_property2?$AA@ 006516a0     Core:Core.obj
 0003:000026b4       ??_C@_0BD@LFDO@set_range_property?$AA@ 006516b4     Core:Core.obj
 0003:000026c8       ??_C@_0P@FLGG@erase_property?$AA@ 006516c8     Core:Core.obj
 0003:000026d8       ??_C@_0BA@PFCB@delete_property?$AA@ 006516d8     Core:Core.obj
 0003:000026e8       ??_C@_0BC@JFNI@unknown?$DP_property?$AA@ 006516e8     Core:Core.obj
 0003:000026fc       ??_C@_0BA@PNEM@known?$DP_property?$AA@ 006516fc     Core:Core.obj
 0003:0000270c       ??_C@_0N@BEFH@add_property?$AA@ 0065170c     Core:Core.obj
 0003:0000271c       ??_C@_0BD@OOM@add_value_property?$AA@ 0065171c     Core:Core.obj
 0003:00002730       ??_C@_0O@KJOE@add?$CB_property?$AA@ 00651730     Core:Core.obj
 0003:00002740       ??_C@_0BB@OEJB@update?9_relation?$AA@ 00651740     Core:Core.obj
 0003:00002754       ??_C@_0BB@MEBM@update?$CL_relation?$AA@ 00651754     Core:Core.obj
 0003:00002768       ??_C@_0BA@FED@update_property?$AA@ 00651768     Core:Core.obj
 0003:00002778       ??_C@_0O@KEBO@put_property1?$AA@ 00651778     Core:Core.obj
 0003:00002788       ??_C@_0BE@BCGC@range_is_wrong_slot?$AA@ 00651788     Core:Core.obj
 0003:0000279c       ??_C@_0P@OECJ@write_property?$AA@ 0065179c     Core:Core.obj
 0003:000027ac       ??_C@_0P@BEPF@hold?$DP_property?$AA@ 006517ac     Core:Core.obj
 0003:000027bc       ??_C@_0O@CBIP@read_property?$AA@ 006517bc     Core:Core.obj
 0003:000027cc       ??_C@_0BB@PEBJ@funcall_property?$AA@ 006517cc     Core:Core.obj
 0003:000027e0       ??_C@_0N@GOID@get_property?$AA@ 006517e0     Core:Core.obj
 0003:000027f0       ??_C@_08LIPP@put_slot?$AA@ 006517f0     Core:Core.obj
 0003:000027fc       ??_C@_08CLIF@get_slot?$AA@ 006517fc     Core:Core.obj
 0003:00002808       ??_C@_0BB@NPIG@inlineok?$DP_method?$AA@ 00651808     Core:Core.obj
 0003:0000281c       ??_C@_0BH@FMD@self_eval_ClaireObject?$AA@ 0065181c     Core:Core.obj
 0003:00002834       ??_C@_08IDDE@eval_any?$AA@ 00651834     Core:Core.obj
 0003:00002840       ??_C@_0P@CBLO@execute_method?$AA@ 00651840     Core:Core.obj
 0003:00002850       ??_C@_0BJ@KAAB@noeval_message_property2?$AA@ 00651850     Core:Core.obj
 0003:0000286c       ??_C@_0BG@EDOF@eval_message_property?$AA@ 0065186c     Core:Core.obj
 0003:00002884       ??_C@_04HBMH@main?$AA@     00651884     Core:Core.obj
 0003:0000288c       ??_C@_0L@DPBP@find_which?$AA@ 0065188c     Core:Core.obj
 0003:00002898       ??_C@_07EKD@tmatch?$DP?$AA@ 00651898     Core:Core.obj
 0003:000028a0       ??_C@_07FJII@vmatch?$DP?$AA@ 006518a0     Core:Core.obj
 0003:000028a8       ??_C@_09KAEA@matching?$DP?$AA@ 006518a8     Core:Core.obj
 0003:000028b4       ??_C@_09LPBN@put_store?$AA@ 006518b4     Core:Core.obj
 0003:000028c0       ??_C@_09EKIN@set_range?$AA@ 006518c0     Core:Core.obj
 0003:000028cc       ??_C@_05IACP@erase?$AA@    006518cc     Core:Core.obj
 0003:000028d4       ??_C@_08DCON@unknown?$DP?$AA@ 006518d4     Core:Core.obj
 0003:000028e0       ??_C@_06DCOL@known?$DP?$AA@ 006518e0     Core:Core.obj
 0003:000028e8       ??_C@_09CIKP@add_value?$AA@ 006518e8     Core:Core.obj
 0003:000028f4       ??_C@_07EBJP@update?9?$AA@ 006518f4     Core:Core.obj
 0003:000028fc       ??_C@_07LOON@update?$CL?$AA@ 006518fc     Core:Core.obj
 0003:00002904       ??_C@_0P@GJGI@range_is_wrong?$AA@ 00651904     Core:Core.obj
 0003:00002914       ??_C@_05DDNA@write?$AA@    00651914     Core:Core.obj
 0003:0000291c       ??_C@_05OCDN@hold?$DP?$AA@ 0065191c     Core:Core.obj
 0003:00002924       ??_C@_0O@IDPP@restore_state?$AA@ 00651924     Core:Core.obj
 0003:00002934       ??_C@_09MJIE@inlineok?$DP?$AA@ 00651934     Core:Core.obj
 0003:00002940       ??_C@_04IFA@read?$AA@      00651940     Core:Core.obj
 0003:00002948       ??_C@_09IJKK@self_eval?$AA@ 00651948     Core:Core.obj
 0003:00002954       ??_C@_04JNJF@call?$AA@     00651954     Core:Core.obj
 0003:0000295c       ??_C@_04CECG@eval?$AA@     0065195c     Core:Core.obj
 0003:00002964       ??_C@_0P@GDJ@noeval_message?$AA@ 00651964     Core:Core.obj
 0003:00002974       ??_C@_0N@JAIK@eval_message?$AA@ 00651974     Core:Core.obj
 0003:00002984       ??_C@_05FLHP@debug?$AA@    00651984     Core:Core.obj
 0003:0000298c       ??_C@_07DACI@execute?$AA@  0065198c     Core:Core.obj
 0003:00002994       ??_C@_06PFKC@lambda?$AA@   00651994     Core:Core.obj
 0003:0000299c       ??_C@_0BB@MNHO@ephemeral_object?$AA@ 0065199c     Core:Core.obj
 0003:000029b0       ??_C@_07BPOH@version?$AA@  006519b0     Core:Core.obj
 0003:000029b8       ??_C@_09KHEH@dimension?$AA@ 006519b8     Core:Core.obj
 0003:000029c4       ??_C@_04HIIB@vars?$AA@     006519c4     Core:Core.obj
 0003:000029cc       ??_C@_0L@IMFK@make_table?$AA@ 006519cc     Core:Core.obj
 0003:000029d8       ??_C@_04EAGN@atan?$AA@     006519d8     Core:Core.obj
 0003:000029e0       ??_C@_04FKPE@new?$CB?$AA@  006519e0     Core:Core.obj
 0003:000029e8       ??_C@_03BGKD@log?$AA@      006519e8     Core:Core.obj
 0003:000029ec       ??_C@_0P@JFAC@make_copy_list?$AA@ 006519ec     Core:Core.obj
 0003:000029fc       ??_C@_0P@PMKM@meet_arg_types?$AA@ 006519fc     Core:Core.obj
 0003:00002a0c       ??_C@_0BA@KEIK@second_arg_type?$AA@ 00651a0c     Core:Core.obj
 0003:00002a1c       ??_C@_0P@NHJM@first_arg_type?$AA@ 00651a1c     Core:Core.obj
 0003:00002a2c       ??_C@_09BLJP@time_read?$AA@ 00651a2c     Core:Core.obj
 0003:00002a38       ??_C@_0L@NJMH@get_symbol?$AA@ 00651a38     Core:Core.obj
 0003:00002a44       ??_C@_08JKCD@make_set?$AA@ 00651a44     Core:Core.obj
 0003:00002a50       ??_C@_06MHN@update?$AA@    00651a50     Core:Core.obj
 0003:00002a58       ??_C@_05NMLH@?$CFtype?$AA@ 00651a58     Core:Core.obj
 0003:00002a60       ??_C@_09JMPC@complete?$CB?$AA@ 00651a60     Core:Core.obj
 0003:00002a6c       ??_C@_09JNHN@set_index?$AA@ 00651a6c     Core:Core.obj
 0003:00002a78       ??_C@_06MGGG@index?$CB?$AA@ 00651a78     Core:Core.obj
 0003:00002a80       ??_C@_08PFOM@set_base?$AA@ 00651a80     Core:Core.obj
 0003:00002a8c       ??_C@_05ENIP@base?$CB?$AA@ 00651a8c     Core:Core.obj
 0003:00002a94       ??_C@_06MCLG@pbreak?$AA@   00651a94     Core:Core.obj
 0003:00002a9c       ??_C@_06CEGK@pprint?$AA@   00651a9c     Core:Core.obj
 0003:00002aa4       ??_C@_05PNBN@width?$AA@    00651aa4     Core:Core.obj
 0003:00002aac       ??_C@_09OCKF@cprevious?$AA@ 00651aac     Core:Core.obj
 0003:00002ab8       ??_C@_07MCJF@cpretty?$AA@  00651ab8     Core:Core.obj
 0003:00002ac0       ??_C@_0L@BLMC@make_array?$AA@ 00651ac0     Core:Core.obj
 0003:00002acc       ??_C@_0BC@ILOE@insert_definition?$AA@ 00651acc     Core:Core.obj
 0003:00002ae0       ??_C@_04LMBE@sqrt?$AA@     00651ae0     Core:Core.obj
 0003:00002ae8       ??_C@_03IDPP@new?$AA@      00651ae8     Core:Core.obj
 0003:00002aec       ??_C@_0O@OOML@abstract_type?$AA@ 00651aec     Core:Core.obj
 0003:00002afc       ??_C@_03JDAH@the?$AA@      00651afc     Core:Core.obj
 0003:00002b00       ??_C@_07BBKP@unique?$DP?$AA@ 00651b00     Core:Core.obj
 0003:00002b08       ??_C@_04LNBK@Uall?$AA@     00651b08     Core:Core.obj
 0003:00002b10       ??_C@_06IAGC@tuple?$CB?$AA@ 00651b10     Core:Core.obj
 0003:00002b18       ??_C@_02OBEK@t2?$AA@       00651b18     Core:Core.obj
 0003:00002b1c       ??_C@_02BOPD@t1?$AA@       00651b1c     Core:Core.obj
 0003:00002b20       ??_C@_09LGJB@enumerate?$AA@ 00651b20     Core:Core.obj
 0003:00002b2c       ??_C@_09EGL@get_value?$AA@ 00651b2c     Core:Core.obj
 0003:00002b38       ??_C@_04FBLA@Oid?$HO?$AA@  00651b38     Core:Core.obj
 0003:00002b40       ??_C@_03CKAL@Oid?$AA@      00651b40     Core:Core.obj
 0003:00002b44       ??_C@_07DPCC@Address?$AA@  00651b44     Core:Core.obj
 0003:00002b4c       ??_C@_06KAPE@member?$AA@   00651b4c     Core:Core.obj
 0003:00002b54       ??_C@_0L@DMMJ@of_extract?$AA@ 00651b54     Core:Core.obj
 0003:00002b60       ??_C@_0L@EKL@difference?$AA@ 00651b60     Core:Core.obj
 0003:00002b6c       ??_C@_0P@MEB@build_powerset?$AA@ 00651b6c     Core:Core.obj
 0003:00002b7c       ??_C@_09JLMA@quicksort?$AA@ 00651b7c     Core:Core.obj
 0003:00002b88       ??_C@_04OBLM@sort?$AA@     00651b88     Core:Core.obj
 0003:00002b90       ??_C@_08JJAJ@hashsize?$AA@ 00651b90     Core:Core.obj
 0003:00002b9c       ??_C@_08LMBP@hashlist?$AA@ 00651b9c     Core:Core.obj
 0003:00002ba8       ??_C@_03FDGH@car?$AA@      00651ba8     Core:Core.obj
 0003:00002bac       ??_C@_06IPPA@rmlast?$AA@   00651bac     Core:Core.obj
 0003:00002bb4       ??_C@_04ONL@last?$AA@      00651bb4     Core:Core.obj
 0003:00002bbc       ??_C@_04BAHI@exit?$AA@     00651bbc     Core:Core.obj
 0003:00002bc4       ??_C@_03BOOH@?9?9?$DP?$AA@ 00651bc4     Core:Core.obj
 0003:00002bc8       ??_C@_06OGMA@getenv?$AA@   00651bc8     Core:Core.obj
 0003:00002bd0       ??_C@_05HPGN@shell?$AA@    00651bd0     Core:Core.obj
 0003:00002bd8       ??_C@_07KMOP@externC?$AA@  00651bd8     Core:Core.obj
 0003:00002be0       ??_C@_0O@BAEK@make_function?$AA@ 00651be0     Core:Core.obj
 0003:00002bf0       ??_C@_03OEEH@not?$AA@      00651bf0     Core:Core.obj
 0003:00002bf4       ??_C@_0BC@ONJD@buffer_set_length?$AA@ 00651bf4     Core:Core.obj
 0003:00002c08       ??_C@_0O@NLKB@buffer_length?$AA@ 00651c08     Core:Core.obj
 0003:00002c18       ??_C@_0BA@IBKH@print_in_string?$AA@ 00651c18     Core:Core.obj
 0003:00002c28       ??_C@_09CAFG@time_show?$AA@ 00651c28     Core:Core.obj
 0003:00002c34       ??_C@_08BIPN@time_set?$AA@ 00651c34     Core:Core.obj
 0003:00002c40       ??_C@_08HBMN@time_get?$AA@ 00651c40     Core:Core.obj
 0003:00002c4c       ??_C@_02BGDL@gc?$AA@       00651c4c     Core:Core.obj
 0003:00002c50       ??_C@_05DGKN@push?$CB?$AA@ 00651c50     Core:Core.obj
 0003:00002c58       ??_C@_09BEBG@put_stack?$AA@ 00651c58     Core:Core.obj
 0003:00002c64       ??_C@_09PNIF@get_stack?$AA@ 00651c64     Core:Core.obj
 0003:00002c70       ??_C@_0P@MAHM@contradiction?$CB?$AA@ 00651c70     Core:Core.obj
 0003:00002c80       ??_C@_07NIKG@tformat?$AA@  00651c80     Core:Core.obj
 0003:00002c88       ??_C@_06PMHG@format?$AA@   00651c88     Core:Core.obj
 0003:00002c90       ??_C@_05HICB@wrong?$AA@    00651c90     Core:Core.obj
 0003:00002c98       ??_C@_05BDBH@cause?$AA@    00651c98     Core:Core.obj
 0003:00002ca0       ??_C@_07LOOJ@methods?$AA@  00651ca0     Core:Core.obj
 0003:00002ca8       ??_C@_07ODOA@domain?$CB?$AA@ 00651ca8     Core:Core.obj
 0003:00002cb0       ??_C@_06ENJJ@invert?$AA@   00651cb0     Core:Core.obj
 0003:00002cb8       ??_C@_0O@IDGH@check_inverse?$AA@ 00651cb8     Core:Core.obj
 0003:00002cc8       ??_C@_06CCFK@pair_2?$AA@   00651cc8     Core:Core.obj
 0003:00002cd0       ??_C@_06NNOD@pair_1?$AA@   00651cd0     Core:Core.obj
 0003:00002cd8       ??_C@_02FECH@Id?$AA@       00651cd8     Core:Core.obj
 0003:00002cdc       ??_C@_07FBEI@divide?$DP?$AA@ 00651cdc     Core:Core.obj
 0003:00002ce4       ??_C@_07CBFO@factor?$DP?$AA@ 00651ce4     Core:Core.obj
 0003:00002cec       ??_C@_09LANP@get_index?$AA@ 00651cec     Core:Core.obj
 0003:00002cf8       ??_C@_0L@LLCI@identical?$DP?$AA@ 00651cf8     Core:Core.obj
 0003:00002d04       ??_C@_0M@GKFC@identified?$DP?$AA@ 00651d04     Core:Core.obj
 0003:00002d10       ??_C@_01PJOB@?$CL?$AA@     00651d10     Core:Core.obj
 0003:00002d14       ??_C@_09MMFD@tr_indent?$AA@ 00651d14     Core:Core.obj
 0003:00002d20       ??_C@_09PKNF@pop_debug?$AA@ 00651d20     Core:Core.obj
 0003:00002d2c       ??_C@_0L@LLJC@push_debug?$AA@ 00651d2c     Core:Core.obj
 0003:00002d38       ??_C@_08IJBJ@get_args?$AA@ 00651d38     Core:Core.obj
 0003:00002d44       ??_C@_05FNEB@about?$AA@    00651d44     Core:Core.obj
 0003:00002d4c       ??_C@_01KFMA@?$EA?$AA@     00651d4c     Core:Core.obj
 0003:00002d50       ??_C@_07FCDP@release?$AA@  00651d50     Core:Core.obj
 0003:00002d58       ??_C@_03KFAP@spy?$AA@      00651d58     Core:Core.obj
 0003:00002d5c       ??_C@_09CIAN@call_step?$AA@ 00651d5c     Core:Core.obj
 0003:00002d68       ??_C@_07COHG@finite?$DP?$AA@ 00651d68     Core:Core.obj
 0003:00002d70       ??_C@_05NAFO@apply?$AA@    00651d70     Core:Core.obj
 0003:00002d78       ??_C@_0O@KGJO@end_of_string?$AA@ 00651d78     Core:Core.obj
 0003:00002d88       ??_C@_04LLHI@size?$AA@     00651d88     Core:Core.obj
 0003:00002d90       ??_C@_06CBCL@param?$CB?$AA@ 00651d90     Core:Core.obj
 0003:00002d98       ??_C@_07MPKK@hashget?$AA@  00651d98     Core:Core.obj
 0003:00002da0       ??_C@_0L@MFJA@hashinsert?$AA@ 00651da0     Core:Core.obj
 0003:00002dac       ??_C@_07PJKA@uniform?$AA@  00651dac     Core:Core.obj
 0003:00002db4       ??_C@_0L@OJAJ@initialize?$AA@ 00651db4     Core:Core.obj
 0003:00002dc0       ??_C@_08JGJP@check_in?$AA@ 00651dc0     Core:Core.obj
 0003:00002dcc       ??_C@_05LOEC@owner?$AA@    00651dcc     Core:Core.obj
 0003:00002dd4       ??_C@_06PDMB@class?$CB?$AA@ 00651dd4     Core:Core.obj
 0003:00002ddc       ??_C@_0BK@JOGI@?$FL178?$FN?5cannot?5enumerate?5?$HOS?$AA@ 00651ddc     Core:types.obj
 0003:00002df8       ??_C@_01KMMP@?$CJ?$AA@     00651df8     Core:types.obj
 0003:00002dfc       ??_C@_03JMDJ@?5U?5?$AA@    00651dfc     Core:types.obj
 0003:00002e00       ??_C@_01GFI@?$CI?$AA@      00651e00     Core:types.obj
 0003:00002e04       ??_C@_04NBEM@?5?4?4?5?$AA@ 00651e04     Core:types.obj
 0003:00002e0c       ??_C@_0CH@POGK@?$FL182?$FN?5the?5interval?5?$CI?$HOS?5?9?9?5?$HOS?$CJ?5is@ 00651e0c     Core:types.obj
 0003:00002e34       ??_C@_01FIMD@?$FN?$AA@     00651e34     Core:types.obj
 0003:00002e38       ??_C@_02CBKC@?3?$CI?$AA@   00651e38     Core:types.obj
 0003:00002e3c       ??_C@_02GIEM@?0?5?$AA@     00651e3c     Core:types.obj
 0003:00002e40       ??_C@_01KHLB@?$FL?$AA@     00651e40     Core:types.obj
 0003:00002e44       ??_C@_01FAFK@?$DO?$AA@     00651e44     Core:types.obj
 0003:00002e48       ??_C@_01FHE@?$DM?$AA@      00651e48     Core:types.obj
 0003:00002e4c       ??_C@_08PAKM@subtype?$FL?$AA@ 00651e4c     Core:types.obj
 0003:00002e58       ??_C@_0CC@BFED@?$FL177?$FN?5subtyping?5of?5?$HOS?5not?5allowe@ 00651e58     Core:types.obj
 0003:00002e7c       ??_C@_0DF@IPLO@?$FL177?$FN?5the?5subtyping?5expression?5?$HO@ 00651e7c     Core:types.obj
 0003:00002eb4       ??_C@_03IMP@?$FN?$CJ?$DO?$AA@ 00651eb4     Core:types.obj
 0003:00002eb8       ??_C@_07NINM@?$CIltype?$FL?$AA@ 00651eb8     Core:types.obj
 0003:00002ec0       ??_C@_05EJDP@?$DMref?3?$AA@ 00651ec0     Core:types.obj
 0003:00002ec8       ??_C@_0CC@CBDL@?$FL179?$FN?5?$CI?$HOS?5?$CF?5?$HOS?$CJ?3?5not?5implemented@ 00651ec8     Core:types.obj
 0003:00002eec       ??_C@_0CC@PKPH@?$FL180?$FN?5nth?$FL?$HOS?$FN?5out?5of?5scope?5for?5?$HO@ 00651eec     Core:types.obj
 0003:00002f10       ??_C@_0DF@DBKC@?$FL123?$FN?5YOU?5ARE?5USING?5PRINT_in_str@ 00651f10     Core:function.obj
 0003:00002f48       ??_C@_0O@JMGD@?$DMunprintable?3?$AA@ 00651f48     Core:function.obj
 0003:00002f58       ??_C@_07CAMD@unknown?$AA@  00651f58     Core:function.obj
 0003:00002f60       ??_C@_05NAGO@false?$AA@    00651f60     Core:function.obj
 0003:00002f68       ??_C@_04NCCD@true?$AA@     00651f68     Core:function.obj
 0003:00002f70       ??_C@_02OJKI@?$CD?8?$AA@   00651f70     Core:function.obj
 0003:00002f74       ??_C@_03LKJA@?5?$EA?5?$AA@ 00651f74     Core:function.obj
 0003:00002f78       ??_C@_0DD@GMI@?$FL124?$FN?5the?5value?5?$HOS?5does?5not?5belo@ 00651f78     Core:function.obj
 0003:00002fac       ??_C@_0DD@NKFD@?$FL124?$FN?5the?5value?5?$HOS?5does?5not?5belo@ 00651fac     Core:function.obj
 0003:00002fe0       ??_C@_0DD@KBCF@?$FL187?$FN?5cannot?5declare?5?$HOS?5as?5ephem@ 00651fe0     Core:function.obj
 0003:00003014       ??_C@_0CL@EKGJ@?$FL125?$FN?5ephemeral?5classes?5cannot?5b@ 00652014     Core:function.obj
 0003:00003040       ??_C@_0CP@JFB@?$FL126?$FN?5ephemeral?5classes?5cannot?5b@ 00652040     Core:function.obj
 0003:00003070       ??_C@_0BM@NFPJ@?$FL105?$FN?5cannot?5instantiate?5?$HOS?$AA@ 00652070     Core:function.obj
 0003:0000308c       ??_C@_0CH@FHHJ@?$FL127?$FN?5?$HOS?5can?5no?5longer?5become?5ab@ 0065208c     Core:function.obj
 0003:000030b4       ??_C@_01KCMF@g?$AA@        006520b4     Core:function.obj
 0003:000030b8       ??_C@_0BK@KDII@cannot?5execute?5C?5code?3?5?$HOA?$AA@ 006520b8     Core:function.obj
 0003:000030d4       ??_C@_0BC@NPJF@cannot?5execute?5?$HOA?$AA@ 006520d4     Core:function.obj
 0003:000030e8       ??_C@_0BF@CIOB@Buffer?5string?5access?$AA@ 006520e8     Core:function.obj
 0003:00003100       ??_C@_01FDLN@?1?$AA@       00652100     Core:function.obj
 0003:00003104       ??_C@_0CB@FIDD@?$FL41?$FN?5nth?$FL?$HOS?$FN?5out?5of?5scope?5for?5?$HOS@ 00652104     Core:function.obj
 0003:00003128       ??_C@_0CE@NLHF@?$FL183?$FN?5min?5of?5empty?5set?5is?5undefi@ 00652128     Core:function.obj
 0003:0000314c       ??_C@_0CE@FPDK@?$FL183?$FN?5max?5of?5empty?5set?5is?5undefi@ 0065214c     Core:function.obj
 0003:00003170       ??_C@_0BL@HJGC@?$FL41?$FN?5car?$CInil?$CJ?5is?5undefined?$AA@ 00652170     Core:function.obj
 0003:0000318c       ??_C@_0BM@OPEO@nth?$FL?$HOS?$FN?5out?5of?5scope?5for?5?$HOS?$AA@ 0065218c     Core:function.obj
 0003:000031a8       ??_C@_0CG@NOOD@type?5mismatch?5for?5array?5update?5?$HO@ 006521a8     Core:function.obj
 0003:000031d0       ??_C@_02NKOB@?$DO?$FL?$AA@ 006521d0     Core:function.obj
 0003:000031d4       ??_C@_06MBLD@array?$DM?$AA@ 006521d4     Core:function.obj
 0003:000031dc       ??_C@_01HAF@?8?$AA@        006521dc     Core:function.obj
 0003:000031e0       ??_C@_02HNCO@3?4?$AA@      006521e0     Core:object.obj
 0003:000031e4       ??_C@_0BK@EFMD@FOR?5A?5PARTICULAR?5PURPOSE?6?$AA@ 006521e4     Core:object.obj
 0003:00003200       ??_C@_0EK@HGFN@WITHOUT?5LIMITATION?0?5THE?5IMPLIED?5@ 00652200     Core:object.obj
 0003:0000324c       ??_C@_0EG@NKCE@THIS?5SOFTWARE?5IS?5PROVIDED?5AS?5IS?5@ 0065224c     Core:object.obj
 0003:00003294       ??_C@_0CD@OBGO@explicit?5agreement?5of?5Yves?5Casea@ 00652294     Core:object.obj
 0003:000032b8       ??_C@_0EE@OMDD@redistribution?5or?5resale?5in?5any?5@ 006522b8     Core:object.obj
 0003:000032fc       ??_C@_0CC@PLLD@use?5in?5binary?5forms?5is?5permitted@ 006522fc     Core:object.obj
 0003:00003320       ??_C@_0DM@GECE@?5Copyright?5?$CIC?$CJ?51994?92001?5Yves?5Ca@ 00652320     Core:object.obj
 0003:0000335c       ??_C@_0L@LIME@CLAIRE?5v3?4?$AA@ 0065235c     Core:object.obj
 0003:00003368       ??_C@_0BL@HBDN@stop?5as?5required?5in?5?$HOS?$CI?$HOA?$CJ?$AA@ 00652368     Core:object.obj
 0003:00003384       ??_C@_02HHDK@?$CJ?6?$AA@   00652384     Core:object.obj
 0003:00003388       ??_C@_02HCOD@?5?$FL?$AA@   00652388     Core:object.obj
 0003:0000338c       ??_C@_01KMAE@?0?$AA@       0065238c     Core:object.obj
 0003:00003390       ??_C@_01FCOA@?5?$AA@       00652390     Core:object.obj
 0003:00003394       ??_C@_01BJG@?6?$AA@        00652394     Core:object.obj
 0003:00003398       ??_C@_01KPOD@?$DN?$AA@     00652398     Core:object.obj
 0003:0000339c       ??_C@_02IIBJ@?3?$DN?$AA@   0065239c     Core:object.obj
 0003:000033a0       ??_C@_0BN@NCIF@?$FL134?$FN?5Cannot?5apply?5add?5to?5?$HOS?$AA@ 006523a0     Core:object.obj
 0003:000033c0       ??_C@_0CE@CLGK@?$FL138?$FN?5the?5value?5?$HOS?$CI?$HOS?$CJ?5is?5unknow@ 006523c0     Core:object.obj
 0003:000033e4       ??_C@_0CN@PNBM@?$FL135?$FN?5?$HOS?5does?5not?5belong?5to?5the?5@ 006523e4     Core:object.obj
 0003:00003414       ??_C@_0BE@PBFE@?$HOS?$CI?$HOS?$CJ?5is?5unknown?5?$CB?$AA@ 00652414     Core:object.obj
 0003:00003428       ??_C@_0DD@MLPJ@?$FL137?$FN?5?$HOS?5and?5?$HOS?5cannot?5be?5invers@ 00652428     Core:object.obj
 0003:0000345c       ??_C@_0BN@HIEA@?$CK?$CK?$CK?$CK?5An?5error?5has?5occurred?4?6?$AA@ 0065245c     Core:object.obj
 0003:0000347c       ??_C@_0N@ILFJ@?$CJ?5is?5unknown?$AA@ 0065247c     Core:object.obj
 0003:0000348c       ??_C@_0BI@NGF@?$CK?$CK?$CK?$CK?$FL138?$FN?5The?5value?5of?5?$AA@ 0065248c     Core:object.obj
 0003:000034a4       ??_C@_02BGGP@?4?6?$AA@     006524a4     Core:object.obj
 0003:000034a8       ??_C@_0BG@IAJB@?5does?5not?5belong?$DP?5to?5?$AA@ 006524a8     Core:object.obj
 0003:000034c0       ??_C@_0BA@OCOA@?3?5range?5error?0?5?$AA@ 006524c0     Core:object.obj
 0003:000034d0       ??_C@_0L@LEMD@?$CK?$CK?$CK?$CK?$FL139?$FN?5?$AA@ 006524d0     Core:object.obj
 0003:000034dc       ??_C@_0BK@BHKO@?5is?5a?5wrong?5arg?5list?5for?5?$AA@ 006524dc     Core:object.obj
 0003:000034f8       ??_C@_0L@NOMI@?$CK?$CK?$CK?$CK?$FL141?$FN?5?$AA@ 006524f8     Core:object.obj
 0003:00003504       ??_C@_03JGBJ@?$CJ?4?6?$AA@ 00652504     Core:object.obj
 0003:00003508       ??_C@_0CB@MHIL@?5is?5not?5defined?5?$CIwas?5applied?5to?5@ 00652508     Core:object.obj
 0003:0000352c       ??_C@_0BE@MGNN@?$FL140?$FN?5The?5property?5?$AA@ 0065252c     Core:object.obj
 0003:00003540       ??_C@_0DK@OIJE@?$CK?$CK?$CK?$CK?$FL142?$FN?5return?5called?5outside?5@ 00652540     Core:object.obj
 0003:0000357c       ??_C@_0CE@FNKE@What?5the?5hell?5is?5this?5?$CB?5?$FLcode?3?5?$HO@ 0065257c     Core:object.obj
 0003:000035a0       ??_C@_0BN@LPKF@C?$CL?$CL?5imported?5error?5?$CI?$HOS?$CJ?5?3?5?$HOS?$AA@ 006525a0     Core:object.obj
 0003:000035c0       ??_C@_0BP@JPDA@Wrong?5array?$FL?$HOS?$FN?5init?5value?3?5?$HOS?$AA@ 006525c0     Core:object.obj
 0003:000035e0       ??_C@_0BO@ONFH@wrong?5NTH?5access?5on?5?$HOS?5and?5?$HOS?$AA@ 006525e0     Core:object.obj
 0003:00003600       ??_C@_0CP@GMBD@integer?5multiplication?5overflow?5@ 00652600     Core:object.obj
 0003:00003630       ??_C@_0CA@KHHA@cannot?5convert?5?$HOS?5to?5an?5integer?$AA@ 00652630     Core:object.obj
 0003:00003650       ??_C@_0BH@MPLM@Undefined?5access?5to?5?$HOS?$AA@ 00652650     Core:object.obj
 0003:00003668       ??_C@_0BE@CAEM@world?5stack?5is?5full?$AA@ 00652668     Core:object.obj
 0003:0000367c       ??_C@_0BE@DBJI@cannot?5open?5file?5?$HOA?$AA@ 0065267c     Core:object.obj
 0003:00003690       ??_C@_0CC@FAO@reading?5char?5?8?$HOS?8?3?5wrong?5char?3?5?$HO@ 00652690     Core:object.obj
 0003:000036b4       ??_C@_0CC@CFLA@User?5interrupt?3?5EXECUTION?5ABORTE@ 006526b4     Core:object.obj
 0003:000036d8       ??_C@_0CD@OEEA@Exception?5handling?3?5stack?5overfl@ 006526d8     Core:object.obj
 0003:000036fc       ??_C@_0CI@LDLF@Too?5many?5arguments?5?$CI?$HOS?$CJ?5for?5func@ 006526fc     Core:object.obj
 0003:00003724       ??_C@_0CD@PDKJ@External?5function?5not?5compiled?5y@ 00652724     Core:object.obj
 0003:00003748       ??_C@_0CE@HLKF@Attempt?5to?5read?5a?5private?5symbol@ 00652748     Core:object.obj
 0003:0000376c       ??_C@_0BG@MHED@There?5is?5no?5module?5?$HOS?$AA@ 0065276c     Core:object.obj
 0003:00003784       ??_C@_0DH@PKHF@the?5multivalued?5status?5of?5?$HOS?5is?5@ 00652784     Core:object.obj
 0003:000037bc       ??_C@_0CL@LCCJ@internal?5garbage?5protection?5stac@ 006527bc     Core:object.obj
 0003:000037e8       ??_C@_0CB@FECP@Wrong?5usage?5of?5time?5counter?5?$FL?$HOA?$FN@ 006527e8     Core:object.obj
 0003:0000380c       ??_C@_0BN@NMPH@execution?5stack?5is?5full?5?$FL?$HOA?$FN?$AA@ 0065280c     Core:object.obj
 0003:0000382c       ??_C@_0CD@HCHN@Not?5enough?5memory?5to?5instal?5clai@ 0065282c     Core:object.obj
 0003:00003850       ??_C@_0DA@HKMM@Cannote?5create?5a?5string?5with?5neg@ 00652850     Core:object.obj
 0003:00003880       ??_C@_0CK@LJML@Integer?5to?5character?3?5?$HOS?5is?5a?5wr@ 00652880     Core:object.obj
 0003:000038ac       ??_C@_0CP@DOHJ@Integer?5arithmetic?3?5division?1mod@ 006528ac     Core:object.obj
 0003:000038dc       ??_C@_0BB@BHDO@Integer?5overflow?$AA@ 006528dc     Core:object.obj
 0003:000038f0       ??_C@_0DH@ICOG@definition?5of?5?$HOS?5is?5in?5conflict?5@ 006528f0     Core:object.obj
 0003:00003928       ??_C@_0CJ@PJNF@Bag?5Type?5Error?3?5?$HOS?5cannot?5be?5add@ 00652928     Core:object.obj
 0003:00003954       ??_C@_0CJ@CFAH@Temporary?5output?5string?5buffer?5t@ 00652954     Core:object.obj
 0003:00003980       ??_C@_0CF@LHIF@Cannot?5create?5a?5subclass?5for?5?$HOS?5@ 00652980     Core:object.obj
 0003:000039a8       ??_C@_0BI@NFPG@Symbol?5Table?5table?5full?$AA@ 006529a8     Core:object.obj
 0003:000039c0       ??_C@_0CD@NCJF@nth_string?$FL?$HOS?$FN?3?5string?5too?5short@ 006529c0     Core:object.obj
 0003:000039e4       ??_C@_0DF@OPOM@Cannot?5create?5an?5imported?5entity@ 006529e4     Core:object.obj
 0003:00003a1c       ??_C@_0BK@OIAC@String?5buffer?5is?5full?3?5?$HOS?$AA@ 00652a1c     Core:object.obj
 0003:00003a38       ??_C@_0CF@JODH@List?5operation?3?5cdr?$CI?$CI?$CJ?$CJ?5is?5undef@ 00652a38     Core:object.obj
 0003:00003a60       ??_C@_0CP@IBCK@Skip?5applied?5on?5?$HOS?5with?5a?5negati@ 00652a60     Core:object.obj
 0003:00003a90       ??_C@_0CA@BMGG@nth?$FL?$HOS?$FN?5outside?5of?5scope?5for?5?$HOS?$AA@ 00652a90     Core:object.obj
 0003:00003ab0       ??_C@_0DH@IKCF@object?5allocation?0?5too?5large?5for@ 00652ab0     Core:object.obj
 0003:00003ae8       ??_C@_0DI@HBHD@dynamic?5allocation?0?5too?5large?5fo@ 00652ae8     Core:object.obj
 0003:00003b20       ??_C@_0CJ@HGAF@dynamic?5allocation?0?5item?5is?5too?5@ 00652b20     Core:object.obj
 0003:00003b4c       ??_C@_0BA@CGAJ@?$FN?5has?5occured?3?6?$AA@ 00652b4c     Core:object.obj
 0003:00003b5c       ??_C@_0BJ@PKGL@?$CK?$CK?$CK?$CK?5An?5internal?5error?5?$FL?$AA@ 00652b5c     Core:object.obj
 0003:00003b78       ??_C@_0BN@FGLM@A?5contradiction?5has?5occured?4?$AA@ 00652b78     Core:object.obj
 0003:00003b98       ??_C@_0BP@JGOH@?$FL143?$FN?5?$HOI?5not?5allowed?5in?5format?$AA@ 00652b98     Core:object.obj
 0003:00003bb8       ??_C@_04PDBK@?$CJ?5?$DN?5?$AA@ 00652bb8     Core:method.obj
 0003:00003bc0       ??_C@_06KBKL@read?3?5?$AA@ 00652bc0     Core:method.obj
 0003:00003bc8       ??_C@_0DA@HNOK@?9?9?9?9?5WARNING?3?5inline?5definition?5@ 00652bc8     Core:method.obj
 0003:00003bf8       ??_C@_0BL@KOFH@?$FL132?$FN?5Cannot?5change?5?$HOS?$CI?$HOS?$CJ?$AA@ 00652bf8     Core:method.obj
 0003:00003c14       ??_C@_0EF@MOME@are?5you?5still?5using?5this?5dead?5th@ 00652c14     Core:method.obj
 0003:00003c5c       ??_C@_0CI@BLHH@?$FL133?$FN?5Inversion?5of?5?$HOS?$CI?$HOS?0?$HOS?$CJ?5imp@ 00652c5c     Core:method.obj
 0003:00003c84       ??_C@_0BE@MCFJ@insert?5?$HOS?5into?5?$HOS?5?6?$AA@ 00652c84     Core:method.obj
 0003:00003c98       ??_C@_0DL@CCGF@Cannot?5create?5a?5non?9uniform?5rest@ 00652c98     Core:method.obj
 0003:00003cd4       ??_C@_0BK@INKN@?$HOS?5and?5?$HOS?5are?5conflicting?$AA@ 00652cd4     Core:method.obj
 0003:00003cf0       ??_C@_0BB@MDAB@hashinsert?$CI?$HOS?$CJ?5?6?$AA@ 00652cf0     Core:method.obj
 0003:00003d04       ??_C@_0BA@IEJP@interface_class?$AA@ 00652d04     Language:Language.obj
 0003:00003d14       ??_C@_0BD@EPOL@interface_property?$AA@ 00652d14     Language:Language.obj
 0003:00003d28       ??_C@_09IHFO@interface?$AA@ 00652d28     Language:Language.obj
 0003:00003d34       ??_C@_0O@OKDA@InterfaceList?$AA@ 00652d34     Language:Language.obj
 0003:00003d44       ??_C@_0BF@DLKL@eventMethod_property?$AA@ 00652d44     Language:Language.obj
 0003:00003d5c       ??_C@_0BH@LLGL@eval_if_write_relation?$AA@ 00652d5c     Language:Language.obj
 0003:00003d74       ??_C@_0BC@JEHL@putCall_relation2?$AA@ 00652d74     Language:Language.obj
 0003:00003d88       ??_C@_0BC@HMCG@readCall_relation?$AA@ 00652d88     Language:Language.obj
 0003:00003d9c       ??_C@_0BE@NKLE@make_demon_relation?$AA@ 00652d9c     Language:Language.obj
 0003:00003db0       ??_C@_0BA@CHFP@make_filter_any?$AA@ 00652db0     Language:Language.obj
 0003:00003dc0       ??_C@_0BB@GNMK@make_filter_any_?$AA@ 00652dc0     Language:Language.obj
 0003:00003dd4       ??_C@_0BH@JLPC@eventMethod?$DP_relation2?$AA@ 00652dd4     Language:Language.obj
 0003:00003dec       ??_C@_0BC@IIOO@self_eval_Defrule?$AA@ 00652dec     Language:Language.obj
 0003:00003e00       ??_C@_09ECPC@eval_rule?$AA@ 00652e00     Language:Language.obj
 0003:00003e0c       ??_C@_09KLKJ@last_rule?$AA@ 00652e0c     Language:Language.obj
 0003:00003e18       ??_C@_09GGFA@relations?$AA@ 00652e18     Language:Language.obj
 0003:00003e24       ??_C@_0M@LLDI@rule_object?$AA@ 00652e24     Language:Language.obj
 0003:00003e30       ??_C@_02FGJG@?$DM?9?$AA@   00652e30     Language:Language.obj
 0003:00003e34       ??_C@_06DGJA@demons?$AA@   00652e34     Language:Language.obj
 0003:00003e3c       ??_C@_0P@ECGM@funcall_demon2?$AA@ 00652e3c     Language:Language.obj
 0003:00003e4c       ??_C@_0P@LNNF@funcall_demon1?$AA@ 00652e4c     Language:Language.obj
 0003:00003e5c       ??_C@_0BB@KLIN@self_print_demon?$AA@ 00652e5c     Language:Language.obj
 0003:00003e70       ??_C@_06HBLM@unamed?$AA@   00652e70     Language:Language.obj
 0003:00003e78       ??_C@_05HJCM@demon?$AA@    00652e78     Language:Language.obj
 0003:00003e80       ??_C@_0BD@MJHB@self_eval_Defarray?$AA@ 00652e80     Language:Language.obj
 0003:00003e94       ??_C@_09PIM@type?$CB_any?$AA@ 00652e94     Language:Language.obj
 0003:00003ea0       ??_C@_0BD@DCLJ@extract_status_any?$AA@ 00652ea0     Language:Language.obj
 0003:00003eb4       ??_C@_0BF@GJEI@bit_vector_listargs2?$AA@ 00652eb4     Language:Language.obj
 0003:00003ecc       ??_C@_0L@IHM@bit_vector?$AA@ 00652ecc     Language:Language.obj
 0003:00003ed8       ??_C@_07PEKM@SAFE_GC?$AA@  00652ed8     Language:Language.obj
 0003:00003ee0       ??_C@_0M@MFPH@SAFE_RESULT?$AA@ 00652ee0     Language:Language.obj
 0003:00003eec       ??_C@_0L@PBPG@RETURN_ARG?$AA@ 00652eec     Language:Language.obj
 0003:00003ef8       ??_C@_0M@MBNA@SLOT_UPDATE?$AA@ 00652ef8     Language:Language.obj
 0003:00003f04       ??_C@_0L@GOLI@BAG_UPDATE?$AA@ 00652f04     Language:Language.obj
 0003:00003f10       ??_C@_09KHMP@NEW_ALLOC?$AA@ 00652f10     Language:Language.obj
 0003:00003f1c       ??_C@_0BC@JHJI@extract_range_any?$AA@ 00652f1c     Language:Language.obj
 0003:00003f30       ??_C@_0BJ@OHEE@extract_class_call_class?$AA@ 00652f30     Language:Language.obj
 0003:00003f4c       ??_C@_0BJ@FEJL@extract_pattern_nth_list?$AA@ 00652f4c     Language:Language.obj
 0003:00003f68       ??_C@_0BB@HLPI@extract_item_any?$AA@ 00652f68     Language:Language.obj
 0003:00003f7c       ??_C@_0BB@KIJH@extract_type_any?$AA@ 00652f7c     Language:Language.obj
 0003:00003f90       ??_C@_0BE@IMP@extract_pattern_any?$AA@ 00652f90     Language:Language.obj
 0003:00003fa4       ??_C@_0BH@IIJL@extract_signature_list?$AA@ 00652fa4     Language:Language.obj
 0003:00003fbc       ??_C@_0BD@OEKN@attach_comment_any?$AA@ 00652fbc     Language:Language.obj
 0003:00003fd0       ??_C@_0BE@CAIC@self_eval_Defmethod?$AA@ 00652fd0     Language:Language.obj
 0003:00003fe4       ??_C@_04JKLK@LDEF?$AA@     00652fe4     Language:Language.obj
 0003:00003fec       ??_C@_0BD@LIFN@self_eval_Defclass?$AA@ 00652fec     Language:Language.obj
 0003:00004000       ??_C@_0BB@FKGG@self_eval_Defobj?$AA@ 00653000     Language:Language.obj
 0003:00004014       ??_C@_0BA@MEOA@complete_object?$AA@ 00653014     Language:Language.obj
 0003:00004024       ??_C@_08IFCJ@complete?$AA@ 00653024     Language:Language.obj
 0003:00004030       ??_C@_0BF@OJH@self_eval_Definition?$AA@ 00653030     Language:Language.obj
 0003:00004048       ??_C@_0BL@CNBA@self_print_Defvar_Language?$AA@ 00653048     Language:Language.obj
 0003:00004064       ??_C@_06FKKN@Defvar?$AA@   00653064     Language:Language.obj
 0003:0000406c       ??_C@_0BM@PLPC@self_print_Defrule_Language?$AA@ 0065306c     Language:Language.obj
 0003:00004088       ??_C@_07LHML@Defrule?$AA@  00653088     Language:Language.obj
 0003:00004090       ??_C@_0BN@EGFE@self_print_Defarray_Language?$AA@ 00653090     Language:Language.obj
 0003:000040b0       ??_C@_08KOEO@Defarray?$AA@ 006530b0     Language:Language.obj
 0003:000040bc       ??_C@_0BO@FDGB@self_print_Defmethod_Language?$AA@ 006530bc     Language:Language.obj
 0003:000040dc       ??_C@_09GNOF@Defmethod?$AA@ 006530dc     Language:Language.obj
 0003:000040e8       ??_C@_0BN@IMJ@self_print_Defclass_Language?$AA@ 006530e8     Language:Language.obj
 0003:00004108       ??_C@_08NPGC@Defclass?$AA@ 00653108     Language:Language.obj
 0003:00004114       ??_C@_0BL@EMKA@self_print_Defobj_Language?$AA@ 00653114     Language:Language.obj
 0003:00004130       ??_C@_06HPFD@Defobj?$AA@   00653130     Language:Language.obj
 0003:00004138       ??_C@_0BP@CPDJ@self_print_Definition_Language?$AA@ 00653138     Language:Language.obj
 0003:00004158       ??_C@_0L@CANK@Definition?$AA@ 00653158     Language:Language.obj
 0003:00004164       ??_C@_09JCGM@Defclaire?$AA@ 00653164     Language:Language.obj
 0003:00004170       ??_C@_0M@JNOF@NeedComment?$AA@ 00653170     Language:Language.obj
 0003:0000417c       ??_C@_0M@FMCI@LastComment?$AA@ 0065317c     Language:Language.obj
 0003:00004188       ??_C@_09OGOO@function?$CB?$AA@ 00653188     Language:Language.obj
 0003:00004194       ??_C@_0N@JEFJ@extract_item?$AA@ 00653194     Language:Language.obj
 0003:000041a4       ??_C@_0BB@KOCF@self_eval_Branch?$AA@ 006531a4     Language:Language.obj
 0003:000041b8       ??_C@_0BB@OCHM@self_eval_Assert?$AA@ 006531b8     Language:Language.obj
 0003:000041cc       ??_C@_06MHEJ@Assert?$AA@   006531cc     Language:Language.obj
 0003:000041d4       ??_C@_0BA@HJLC@self_eval_Trace?$AA@ 006531d4     Language:Language.obj
 0003:000041e4       ??_C@_05EMFM@Trace?$AA@    006531e4     Language:Language.obj
 0003:000041ec       ??_C@_0BB@FFMB@self_eval_Printf?$AA@ 006531ec     Language:Language.obj
 0003:00004200       ??_C@_0BA@BPPI@self_eval_Error?$AA@ 00653200     Language:Language.obj
 0003:00004210       ??_C@_0BB@FIIH@self_eval_Macro2?$AA@ 00653210     Language:Language.obj
 0003:00004224       ??_C@_0M@OFFA@macroexpand?$AA@ 00653224     Language:Language.obj
 0003:00004230       ??_C@_05MGJ@Macro?$AA@     00653230     Language:Language.obj
 0003:00004238       ??_C@_0BB@PLEI@self_eval_Array2?$AA@ 00653238     Language:Language.obj
 0003:0000424c       ??_C@_0BA@CEHB@self_eval_Tuple?$AA@ 0065324c     Language:Language.obj
 0003:0000425c       ??_C@_0O@NPEM@self_eval_Set?$AA@ 0065325c     Language:Language.obj
 0003:0000426c       ??_C@_0P@NKGG@self_eval_List?$AA@ 0065326c     Language:Language.obj
 0003:0000427c       ??_C@_0BO@OGMB@self_print_Construct_Language?$AA@ 0065327c     Language:Language.obj
 0003:0000429c       ??_C@_06ILBA@Branch?$AA@   0065329c     Language:Language.obj
 0003:000042a4       ??_C@_05CKBG@Error?$AA@    006532a4     Language:Language.obj
 0003:000042ac       ??_C@_06HAPE@Printf?$AA@   006532ac     Language:Language.obj
 0003:000042b4       ??_C@_05MDCJ@Array?$AA@    006532b4     Language:Language.obj
 0003:000042bc       ??_C@_03JFAA@Set?$AA@      006532bc     Language:Language.obj
 0003:000042c0       ??_C@_05BBJP@Tuple?$AA@    006532c0     Language:Language.obj
 0003:000042c8       ??_C@_04DECM@List?$AA@     006532c8     Language:Language.obj
 0003:000042d0       ??_C@_09JNNL@Construct?$AA@ 006532d0     Language:Language.obj
 0003:000042dc       ??_C@_0BB@KOJK@self_eval_Handle?$AA@ 006532dc     Language:Language.obj
 0003:000042f0       ??_C@_0BL@HKGB@self_print_Handle_Language?$AA@ 006532f0     Language:Language.obj
 0003:0000430c       ??_C@_06ILKP@Handle?$AA@   0065330c     Language:Language.obj
 0003:00004314       ??_C@_0BA@OIHM@self_eval_While?$AA@ 00653314     Language:Language.obj
 0003:00004324       ??_C@_0BK@LBBN@self_print_While_Language?$AA@ 00653324     Language:Language.obj
 0003:00004340       ??_C@_05NNJC@While?$AA@    00653340     Language:Language.obj
 0003:00004348       ??_C@_0P@JJBK@self_eval_Case?$AA@ 00653348     Language:Language.obj
 0003:00004358       ??_C@_0BJ@FMJI@self_print_Case_Language?$AA@ 00653358     Language:Language.obj
 0003:00004374       ??_C@_04HHFA@Case?$AA@     00653374     Language:Language.obj
 0003:0000437c       ??_C@_0BB@IPKL@self_eval_Exists?$AA@ 0065337c     Language:Language.obj
 0003:00004390       ??_C@_0BL@EJJJ@self_print_Exists_Language?$AA@ 00653390     Language:Language.obj
 0003:000043ac       ??_C@_06KKJO@Exists?$AA@   006533ac     Language:Language.obj
 0003:000043b4       ??_C@_0BC@GNDP@self_eval_Lselect?$AA@ 006533b4     Language:Language.obj
 0003:000043c8       ??_C@_0BM@KGJC@self_print_Lselect_Language?$AA@ 006533c8     Language:Language.obj
 0003:000043e4       ??_C@_07FCBK@Lselect?$AA@  006533e4     Language:Language.obj
 0003:000043ec       ??_C@_0BB@KILI@self_eval_Select?$AA@ 006533ec     Language:Language.obj
 0003:00004400       ??_C@_0BL@POMF@self_print_Select_Language?$AA@ 00653400     Language:Language.obj
 0003:0000441c       ??_C@_06ININ@Select?$AA@   0065341c     Language:Language.obj
 0003:00004424       ??_C@_0BA@IFNI@self_eval_Image?$AA@ 00653424     Language:Language.obj
 0003:00004434       ??_C@_0BK@GHAH@self_print_Image_Language?$AA@ 00653434     Language:Language.obj
 0003:00004450       ??_C@_05LADG@Image?$AA@    00653450     Language:Language.obj
 0003:00004458       ??_C@_0BC@NAPG@self_eval_Collect?$AA@ 00653458     Language:Language.obj
 0003:0000446c       ??_C@_0BM@NKJG@self_print_Collect_Language?$AA@ 0065346c     Language:Language.obj
 0003:00004488       ??_C@_07OPND@Collect?$AA@  00653488     Language:Language.obj
 0003:00004490       ??_C@_0O@IDBJ@self_eval_For?$AA@ 00653490     Language:Language.obj
 0003:000044a0       ??_C@_0BI@COHG@self_print_For_Language?$AA@ 006534a0     Language:Language.obj
 0003:000044b8       ??_C@_03MJFF@For?$AA@      006534b8     Language:Language.obj
 0003:000044bc       ??_C@_07MOKF@Iterate?$AA@  006534bc     Language:Language.obj
 0003:000044c4       ??_C@_07BMBB@iterate?$AA@  006534c4     Language:Language.obj
 0003:000044cc       ??_C@_09MBMD@Iteration?$AA@ 006534cc     Language:Language.obj
 0003:000044d8       ??_C@_0BJ@GCDM@self_print_Let?$CK_Language?$AA@ 006534d8     Language:Language.obj
 0003:000044f4       ??_C@_0BJ@ONPO@self_print_Let?$CL_Language?$AA@ 006534f4     Language:Language.obj
 0003:00004510       ??_C@_04CKOM@Let?$CK?$AA@  00653510     Language:Language.obj
 0003:00004518       ??_C@_04IAHL@Let?$CL?$AA@  00653518     Language:Language.obj
 0003:00004520       ??_C@_0P@CNIH@self_eval_When?$AA@ 00653520     Language:Language.obj
 0003:00004530       ??_C@_0BJ@DEMH@self_print_When_Language?$AA@ 00653530     Language:Language.obj
 0003:0000454c       ??_C@_04MDMN@When?$AA@     0065354c     Language:Language.obj
 0003:00004554       ??_C@_0O@NAPC@self_eval_Let?$AA@ 00653554     Language:Language.obj
 0003:00004564       ??_C@_0O@HFCJ@printbody_Let?$AA@ 00653564     Language:Language.obj
 0003:00004574       ??_C@_0BI@DLBL@self_print_Let_Language?$AA@ 00653574     Language:Language.obj
 0003:0000458c       ??_C@_03JKLO@Let?$AA@      0065358c     Language:Language.obj
 0003:00004590       ??_C@_0N@EKCA@self_eval_Do?$AA@ 00653590     Language:Language.obj
 0003:000045a0       ??_C@_0P@CDGG@printblock_any?$AA@ 006535a0     Language:Language.obj
 0003:000045b0       ??_C@_0N@CHDI@printdo_list?$AA@ 006535b0     Language:Language.obj
 0003:000045c0       ??_C@_0BH@DN@self_print_Do_Language?$AA@ 006535c0     Language:Language.obj
 0003:000045d8       ??_C@_02GHC@Do?$AA@        006535d8     Language:Language.obj
 0003:000045dc       ??_C@_0N@ENFL@self_eval_If?$AA@ 006535dc     Language:Language.obj
 0003:000045ec       ??_C@_0N@GJPG@printelse_If?$AA@ 006535ec     Language:Language.obj
 0003:000045fc       ??_C@_0M@BBPB@printif_any?$AA@ 006535fc     Language:Language.obj
 0003:00004608       ??_C@_0N@KCLO@printstat_If?$AA@ 00653608     Language:Language.obj
 0003:00004618       ??_C@_0BH@OFCD@self_print_If_Language?$AA@ 00653618     Language:Language.obj
 0003:00004630       ??_C@_02BAJ@If?$AA@        00653630     Language:Language.obj
 0003:00004634       ??_C@_0BF@CHAN@instruction_copy_any?$AA@ 00653634     Language:Language.obj
 0003:0000464c       ??_C@_0P@JHFI@occurrence_any?$AA@ 0065364c     Language:Language.obj
 0003:0000465c       ??_C@_0BB@HFKM@substitution_any?$AA@ 0065365c     Language:Language.obj
 0003:00004670       ??_C@_0BB@LHCG@self_eval_Return?$AA@ 00653670     Language:Language.obj
 0003:00004684       ??_C@_0BL@KALN@self_print_Return_Language?$AA@ 00653684     Language:Language.obj
 0003:000046a0       ??_C@_06JCBD@Return?$AA@   006536a0     Language:Language.obj
 0003:000046a8       ??_C@_0P@JKPN@self_eval_Cast?$AA@ 006536a8     Language:Language.obj
 0003:000046b8       ??_C@_0BJ@CPHO@self_print_Cast_Language?$AA@ 006536b8     Language:Language.obj
 0003:000046d4       ??_C@_04HELH@Cast?$AA@     006536d4     Language:Language.obj
 0003:000046dc       ??_C@_0BA@BLOA@self_eval_Super?$AA@ 006536dc     Language:Language.obj
 0003:000046ec       ??_C@_0BK@IILP@self_print_Super_Language?$AA@ 006536ec     Language:Language.obj
 0003:00004708       ??_C@_05COAO@Super?$AA@    00653708     Language:Language.obj
 0003:00004710       ??_C@_0BB@JNEM@self_eval_Update?$AA@ 00653710     Language:Language.obj
 0003:00004724       ??_C@_0BL@CHHG@self_print_Update_Language?$AA@ 00653724     Language:Language.obj
 0003:00004740       ??_C@_06LIHJ@Update?$AA@   00653740     Language:Language.obj
 0003:00004748       ??_C@_0BF@KGDA@self_eval_Call_table?$AA@ 00653748     Language:Language.obj
 0003:00004760       ??_C@_0BP@PNII@self_print_Call_table_Language?$AA@ 00653760     Language:Language.obj
 0003:00004780       ??_C@_0L@IIHN@Call_table?$AA@ 00653780     Language:Language.obj
 0003:0000478c       ??_C@_0BF@DBKI@self_eval_Call_array?$AA@ 0065378c     Language:Language.obj
 0003:000047a4       ??_C@_0BP@ELLL@self_print_Call_array_Language?$AA@ 006537a4     Language:Language.obj
 0003:000047c4       ??_C@_0L@BPOF@Call_array?$AA@ 006537c4     Language:Language.obj
 0003:000047d0       ??_C@_0BE@KPON@self_eval_Call_slot?$AA@ 006537d0     Language:Language.obj
 0003:000047e4       ??_C@_0BO@NFIH@self_print_Call_slot_Language?$AA@ 006537e4     Language:Language.obj
 0003:00004804       ??_C@_09OCIK@Call_slot?$AA@ 00653804     Language:Language.obj
 0003:00004810       ??_C@_0BH@PJDH@self_eval_Call_method2?$AA@ 00653810     Language:Language.obj
 0003:00004828       ??_C@_0N@NMPL@Call_method2?$AA@ 00653828     Language:Language.obj
 0003:00004838       ??_C@_0BH@GIO@self_eval_Call_method1?$AA@ 00653838     Language:Language.obj
 0003:00004850       ??_C@_0N@CDEC@Call_method1?$AA@ 00653850     Language:Language.obj
 0003:00004860       ??_C@_0BG@IJHK@self_eval_Call_method?$AA@ 00653860     Language:Language.obj
 0003:00004878       ??_C@_0CA@POGM@self_print_Call_method_Language?$AA@ 00653878     Language:Language.obj
 0003:00004898       ??_C@_0M@EFFE@Call_method?$AA@ 00653898     Language:Language.obj
 0003:000048a4       ??_C@_0BG@LNGF@Optimized_instruction?$AA@ 006538a4     Language:Language.obj
 0003:000048bc       ??_C@_0BA@NEIC@self_eval_Quote?$AA@ 006538bc     Language:Language.obj
 0003:000048cc       ??_C@_0BK@GJGM@self_print_Quote_Language?$AA@ 006538cc     Language:Language.obj
 0003:000048e8       ??_C@_05OBGM@Quote?$AA@    006538e8     Language:Language.obj
 0003:000048f0       ??_C@_0N@DJII@self_eval_Or?$AA@ 006538f0     Language:Language.obj
 0003:00004900       ??_C@_0BH@FJCO@self_print_Or_Language?$AA@ 00653900     Language:Language.obj
 0003:00004918       ??_C@_02HFNK@Or?$AA@       00653918     Language:Language.obj
 0003:0000491c       ??_C@_0O@HNNA@self_eval_And?$AA@ 0065391c     Language:Language.obj
 0003:0000492c       ??_C@_0BI@BJMF@self_print_And_Language?$AA@ 0065392c     Language:Language.obj
 0003:00004944       ??_C@_03DHJM@And?$AA@      00653944     Language:Language.obj
 0003:00004948       ??_C@_0BC@HGEI@self_eval_Gassign?$AA@ 00653948     Language:Language.obj
 0003:0000495c       ??_C@_0BM@GFLH@self_print_Gassign_Language?$AA@ 0065395c     Language:Language.obj
 0003:00004978       ??_C@_07EJGN@Gassign?$AA@  00653978     Language:Language.obj
 0003:00004980       ??_C@_0BB@LENM@self_eval_Assign?$AA@ 00653980     Language:Language.obj
 0003:00004994       ??_C@_0BL@FBLC@self_print_Assign_Language?$AA@ 00653994     Language:Language.obj
 0003:000049b0       ??_C@_06JBOJ@Assign?$AA@   006539b0     Language:Language.obj
 0003:000049b8       ??_C@_0L@GMAK@sugar?$DP_any?$AA@ 006539b8     Language:Language.obj
 0003:000049c4       ??_C@_0L@MIMD@printe_any?$AA@ 006539c4     Language:Language.obj
 0003:000049d0       ??_C@_0BA@HBDI@self_eval_Call?$CL?$AA@ 006539d0     Language:Language.obj
 0003:000049e0       ??_C@_0P@NJJN@self_eval_Call?$AA@ 006539e0     Language:Language.obj
 0003:000049f0       ??_C@_0BK@JLAB@self_print_Call?$CL_Language?$AA@ 006539f0     Language:Language.obj
 0003:00004a0c       ??_C@_0BJ@MEGF@self_print_Call_Language?$AA@ 00653a0c     Language:Language.obj
 0003:00004a28       ??_C@_05EENG@Call?$CL?$AA@ 00653a28     Language:Language.obj
 0003:00004a30       ??_C@_05OOEB@Call?$CK?$AA@ 00653a30     Language:Language.obj
 0003:00004a38       ??_C@_04DHNH@Call?$AA@     00653a38     Language:Language.obj
 0003:00004a40       ??_C@_08LDCE@LastCall?$AA@ 00653a40     Language:Language.obj
 0003:00004a4c       ??_C@_0BK@OLO@self_print_tuple_Language?$AA@ 00653a4c     Language:Language.obj
 0003:00004a68       ??_C@_0BI@DGCD@self_print_set_Language?$AA@ 00653a68     Language:Language.obj
 0003:00004a80       ??_C@_0BJ@FAPJ@self_print_list_Language?$AA@ 00653a80     Language:Language.obj
 0003:00004a9c       ??_C@_0BB@JOMG@pretty_print_any?$AA@ 00653a9c     Language:Language.obj
 0003:00004ab0       ??_C@_0N@BJBL@printexp_any?$AA@ 00653ab0     Language:Language.obj
 0003:00004ac0       ??_C@_0L@EJEM@printl_bag?$AA@ 00653ac0     Language:Language.obj
 0003:00004acc       ??_C@_0O@GAGK@printbox_bag3?$AA@ 00653acc     Language:Language.obj
 0003:00004adc       ??_C@_0O@MKPN@printbox_bag2?$AA@ 00653adc     Language:Language.obj
 0003:00004aec       ??_C@_0O@DFEE@printbox_bag1?$AA@ 00653aec     Language:Language.obj
 0003:00004afc       ??_C@_0BC@PLED@set_level_integer?$AA@ 00653afc     Language:Language.obj
 0003:00004b10       ??_C@_0P@CKOK@set_level_void?$AA@ 00653b10     Language:Language.obj
 0003:00004b20       ??_C@_0P@FFMN@indent_integer?$AA@ 00653b20     Language:Language.obj
 0003:00004b30       ??_C@_0P@KALA@lbreak_integer?$AA@ 00653b30     Language:Language.obj
 0003:00004b40       ??_C@_0O@LEPG@checkfar_void?$AA@ 00653b40     Language:Language.obj
 0003:00004b50       ??_C@_0BA@LAFD@put_buffer_void?$AA@ 00653b50     Language:Language.obj
 0003:00004b60       ??_C@_0M@OGEJ@lbreak_void?$AA@ 00653b60     Language:Language.obj
 0003:00004b6c       ??_C@_06MFGG@printl?$AA@   00653b6c     Language:Language.obj
 0003:00004b74       ??_C@_0BE@JOMH@make_a_property_any?$AA@ 00653b74     Language:Language.obj
 0003:00004b88       ??_C@_0BD@DLLP@extract_symbol_any?$AA@ 00653b88     Language:Language.obj
 0003:00004b9c       ??_C@_0M@HENI@close_class?$AA@ 00653b9c     Language:Language.obj
 0003:00004ba8       ??_C@_0BD@FNPG@lexical_change_any?$AA@ 00653ba8     Language:Language.obj
 0003:00004bbc       ??_C@_0BC@PHNM@lexical_build_any?$AA@ 00653bbc     Language:Language.obj
 0003:00004bd0       ??_C@_0N@DMII@lambda?$CB_list?$AA@ 00653bd0     Language:Language.obj
 0003:00004be0       ??_C@_0BB@KAPD@?$CKvariable_index?$CK?$AA@ 00653be0     Language:Language.obj
 0003:00004bf4       ??_C@_0BL@NAFE@self_print_lambda_Language?$AA@ 00653bf4     Language:Language.obj
 0003:00004c10       ??_C@_0N@PAFP@call_lambda2?$AA@ 00653c10     Language:Language.obj
 0003:00004c20       ??_C@_0N@EFGN@apply_lambda?$AA@ 00653c20     Language:Language.obj
 0003:00004c30       ??_C@_03BCEL@EOS?$AA@      00653c30     Language:Language.obj
 0003:00004c34       ??_C@_03LLPA@EOF?$AA@      00653c34     Language:Language.obj
 0003:00004c38       ??_C@_0BM@JHDI@write_value_global_variable?$AA@ 00653c38     Language:Language.obj
 0003:00004c54       ??_C@_0BK@KLOO@self_eval_global_variable?$AA@ 00653c54     Language:Language.obj
 0003:00004c70       ??_C@_0BC@ICGJ@Control_structure?$AA@ 00653c70     Language:Language.obj
 0003:00004c84       ??_C@_0BF@JBK@Instruction_with_var?$AA@ 00653c84     Language:Language.obj
 0003:00004c9c       ??_C@_0BE@IKGH@Complex_instruction?$AA@ 00653c9c     Language:Language.obj
 0003:00004cb0       ??_C@_0BB@JCOH@self_eval_Vardef?$AA@ 00653cb0     Language:Language.obj
 0003:00004cc4       ??_C@_06LHNC@Vardef?$AA@   00653cc4     Language:Language.obj
 0003:00004ccc       ??_C@_0BF@GIJL@write_value_Variable?$AA@ 00653ccc     Language:Language.obj
 0003:00004ce4       ??_C@_0BD@NJEG@self_eval_Variable?$AA@ 00653ce4     Language:Language.obj
 0003:00004cf8       ??_C@_0BA@EDCP@ppvariable_list?$AA@ 00653cf8     Language:Language.obj
 0003:00004d08       ??_C@_0BE@JAJG@ppvariable_Variable?$AA@ 00653d08     Language:Language.obj
 0003:00004d1c       ??_C@_0BN@NLDP@self_print_Variable_Language?$AA@ 00653d1c     Language:Language.obj
 0003:00004d3c       ??_C@_08LOHJ@Variable?$AA@ 00653d3c     Language:Language.obj
 0003:00004d48       ??_C@_0BJ@JILJ@self_eval_unbound_symbol?$AA@ 00653d48     Language:Language.obj
 0003:00004d64       ??_C@_0CD@EKGD@self_print_unbound_symbol_Langua@ 00653d64     Language:Language.obj
 0003:00004d88       ??_C@_05BBHA@index?$AA@    00653d88     Language:Language.obj
 0003:00004d90       ??_C@_06MPII@typing?$AA@   00653d90     Language:Language.obj
 0003:00004d98       ??_C@_0BE@BDCC@no_eval_Instruction?$AA@ 00653d98     Language:Language.obj
 0003:00004dac       ??_C@_0BC@EDFB@Basic_instruction?$AA@ 00653dac     Language:Language.obj
 0003:00004dc0       ??_C@_0M@PJEI@Instruction?$AA@ 00653dc0     Language:Language.obj
 0003:00004dcc       ??_C@_07GDEA@putCall?$AA@  00653dcc     Language:Language.obj
 0003:00004dd4       ??_C@_0N@FPNE@eventMethod?$DP?$AA@ 00653dd4     Language:Language.obj
 0003:00004de4       ??_C@_0M@BJBA@eventMethod?$AA@ 00653de4     Language:Language.obj
 0003:00004df0       ??_C@_08MMN@readCall?$AA@  00653df0     Language:Language.obj
 0003:00004dfc       ??_C@_0O@HOHJ@eval_if_write?$AA@ 00653dfc     Language:Language.obj
 0003:00004e0c       ??_C@_0L@KFGN@make_demon?$AA@ 00653e0c     Language:Language.obj
 0003:00004e18       ??_C@_0M@KDDJ@make_filter?$AA@ 00653e18     Language:Language.obj
 0003:00004e24       ??_C@_08MMKE@priority?$AA@ 00653e24     Language:Language.obj
 0003:00004e30       ??_C@_08PACK@forward?$DP?$AA@ 00653e30     Language:Language.obj
 0003:00004e3c       ??_C@_05GIP@type?$CB?$AA@  00653e3c     Language:Language.obj
 0003:00004e44       ??_C@_0P@IICP@extract_status?$AA@ 00653e44     Language:Language.obj
 0003:00004e54       ??_C@_0O@FFNL@extract_range?$AA@ 00653e54     Language:Language.obj
 0003:00004e64       ??_C@_0BD@NDG@extract_class_call?$AA@ 00653e64     Language:Language.obj
 0003:00004e78       ??_C@_0BE@NHFE@extract_pattern_nth?$AA@ 00653e78     Language:Language.obj
 0003:00004e8c       ??_C@_0N@KDBK@extract_type?$AA@ 00653e8c     Language:Language.obj
 0003:00004e9c       ??_C@_0BA@FDNL@extract_pattern?$AA@ 00653e9c     Language:Language.obj
 0003:00004eac       ??_C@_0BC@KCHP@extract_signature?$AA@ 00653eac     Language:Language.obj
 0003:00004ec0       ??_C@_0P@NJJ@attach_comment?$AA@ 00653ec0     Language:Language.obj
 0003:00004ed0       ??_C@_05FDBN@ident?$AA@    00653ed0     Language:Language.obj
 0003:00004ed8       ??_C@_09JFLD@printbody?$AA@ 00653ed8     Language:Language.obj
 0003:00004ee4       ??_C@_0L@EBGE@printblock?$AA@ 00653ee4     Language:Language.obj
 0003:00004ef0       ??_C@_07OJOM@printdo?$AA@  00653ef0     Language:Language.obj
 0003:00004ef8       ??_C@_09MFFO@printelse?$AA@ 00653ef8     Language:Language.obj
 0003:00004f04       ??_C@_07OOJH@printif?$AA@  00653f04     Language:Language.obj
 0003:00004f0c       ??_C@_09LKFH@printstat?$AA@ 00653f0c     Language:Language.obj
 0003:00004f18       ??_C@_04DJDA@test?$AA@     00653f18     Language:Language.obj
 0003:00004f20       ??_C@_05DNMD@other?$AA@    00653f20     Language:Language.obj
 0003:00004f28       ??_C@_0BB@PCD@instruction_copy?$AA@ 00653f28     Language:Language.obj
 0003:00004f3c       ??_C@_0L@DMDM@occurrence?$AA@ 00653f3c     Language:Language.obj
 0003:00004f48       ??_C@_0N@KJBA@substitution?$AA@ 00653f48     Language:Language.obj
 0003:00004f58       ??_C@_07KDAG@set_arg?$AA@  00653f58     Language:Language.obj
 0003:00004f60       ??_C@_07KPDI@cast_to?$AA@  00653f60     Language:Language.obj
 0003:00004f68       ??_C@_06EECC@sugar?$DP?$AA@ 00653f68     Language:Language.obj
 0003:00004f70       ??_C@_06DLEJ@printe?$AA@   00653f70     Language:Language.obj
 0003:00004f78       ??_C@_06CFON@assign?$AA@   00653f78     Language:Language.obj
 0003:00004f80       ??_C@_0N@GFJI@pretty_print?$AA@ 00653f80     Language:Language.obj
 0003:00004f90       ??_C@_08HKFD@printexp?$AA@ 00653f90     Language:Language.obj
 0003:00004f9c       ??_C@_08JLHG@printbox?$AA@ 00653f9c     Language:Language.obj
 0003:00004fa8       ??_C@_09HOMA@set_level?$AA@ 00653fa8     Language:Language.obj
 0003:00004fb4       ??_C@_06NHEL@indent?$AA@   00653fb4     Language:Language.obj
 0003:00004fbc       ??_C@_08NFED@checkfar?$AA@ 00653fbc     Language:Language.obj
 0003:00004fc8       ??_C@_0L@HHLE@put_buffer?$AA@ 00653fc8     Language:Language.obj
 0003:00004fd4       ??_C@_06GDDF@lbreak?$AA@   00653fd4     Language:Language.obj
 0003:00004fdc       ??_C@_0BA@BANI@make_a_property?$AA@ 00653fdc     Language:Language.obj
 0003:00004fec       ??_C@_0P@IBPF@extract_symbol?$AA@ 00653fec     Language:Language.obj
 0003:00004ffc       ??_C@_0P@DNBP@lexical_change?$AA@ 00653ffc     Language:Language.obj
 0003:0000500c       ??_C@_0O@NJAP@lexical_build?$AA@ 0065400c     Language:Language.obj
 0003:0000501c       ??_C@_07HGIC@lambda?$CB?$AA@ 0065401c     Language:Language.obj
 0003:00005024       ??_C@_03GIEB@var?$AA@      00654024     Language:Language.obj
 0003:00005028       ??_C@_0M@LCLC@write_value?$AA@ 00654028     Language:Language.obj
 0003:00005034       ??_C@_0L@LANI@ppvariable?$AA@ 00654034     Language:Language.obj
 0003:00005040       ??_C@_07DDJH@no_eval?$AA@  00654040     Language:Language.obj
 0003:00005048       ??_C@_04IIHP@?5?3?3?5?$AA@ 00654048     Language:define.obj
 0003:00005050       ??_C@_04OJCK@?5?3?$DN?5?$AA@ 00654050     Language:define.obj
 0003:00005058       ??_C@_01PKAG@?3?$AA@       00654058     Language:define.obj
 0003:0000505c       ??_C@_03FGJK@?5?$DN?5?$AA@ 0065405c     Language:define.obj
 0003:00005060       ??_C@_04GEAI@?5?$DM?3?5?$AA@ 00654060     Language:define.obj
 0003:00005068       ??_C@_02HMFM@?9?$DO?$AA@   00654068     Language:define.obj
 0003:0000506c       ??_C@_02BGPF@?$DN?$DO?$AA@ 0065406c     Language:define.obj
 0003:00005070       ??_C@_04JCEP@?$CJ?5?3?5?$AA@ 00654070     Language:define.obj
 0003:00005078       ??_C@_04KMOB@?$FN?5?3?5?$AA@ 00654078     Language:define.obj
 0003:00005080       ??_C@_03MGPG@?$DN?$DO?5?$AA@ 00654080     Language:define.obj
 0003:00005084       ??_C@_0L@MOMA@?$CJ?5?3?3?5rule?$CI?$AA@ 00654084     Language:define.obj
 0003:00005090       ??_C@_0CL@EDNH@?$FL106?$FN?5the?5object?5?$HOS?5does?5not?5und@ 00654090     Language:define.obj
 0003:000050bc       ??_C@_0CK@GCOI@?$FL109?$FN?5the?5parent?5class?5?$HOS?5of?5?$HOS?5@ 006540bc     Language:define.obj
 0003:000050e8       ??_C@_0DF@DIEM@?$FL181?$FN?5cannot?5overide?5a?5slot?5for?5@ 006540e8     Language:define.obj
 0003:00005120       ??_C@_0CN@CDLK@?$FL108?$FN?5default?$CI?$HOS?$CJ?5?$DN?5?$HOS?5does?5not?5@ 00654120     Language:define.obj
 0003:00005150       ??_C@_0CL@NEAE@?$FL107?$FN?5class?5re?9definition?5is?5not@ 00654150     Language:define.obj
 0003:0000517c       ??_C@_0CM@EKON@?$FL184?$FN?5the?5close?5method?5?$HOS?5has?5a?5@ 0065417c     Language:define.obj
 0003:000051a8       ??_C@_0FA@OOPF@?9?9?9?5WARNING?5?$CB?5?$FL186?$FN?5conflict?5bet@ 006541a8     Language:define.obj
 0003:000051f8       ??_C@_0P@IHCM@XfakeParameter?$AA@ 006541f8     Language:define.obj
 0003:00005208       ??_C@_0CE@MDBG@?$FL110?$FN?5wrong?5signature?5definition@ 00654208     Language:define.obj
 0003:0000522c       ??_C@_0BO@HOLB@?$FL111?$FN?5wrong?5typed?5argument?5?$HOS?$AA@ 0065422c     Language:define.obj
 0003:0000524c       ??_C@_0CD@JOBF@?$FL111?$FN?5wrong?5typed?5argument?5?$HOS?5?$CI?$HO@ 0065424c     Language:define.obj
 0003:00005270       ??_C@_0BP@MELK@?$FL112?$FN?5wrong?5type?5expression?5?$HOS?$AA@ 00654270     Language:define.obj
 0003:00005290       ??_C@_0BP@OALK@?$FL114?$FN?5Wrong?5parametrization?5?$HOS?$AA@ 00654290     Language:define.obj
 0003:000052b0       ??_C@_0CJ@NKPN@?$FL113?$FN?5Wrong?5lambda?5definition?5la@ 006542b0     Language:define.obj
 0003:000052dc       ??_C@_0CN@KNPN@?$FL115?$FN?5the?5?$CIresulting?$CJ?5range?5?$HOS?5i@ 006542dc     Language:define.obj
 0003:0000530c       ??_C@_06FMKK@?0?5l?5?$DN?5?$AA@ 0065430c     Language:define.obj
 0003:00005314       ??_C@_09OGKN@lambda?5?$DN?5?$AA@ 00654314     Language:define.obj
 0003:00005320       ??_C@_0BJ@GHEL@?5is?5not?5a?5valid?5because?6?$AA@ 00654320     Language:define.obj
 0003:0000533c       ??_C@_0BF@HDBF@The?5type?5expression?5?$AA@ 0065433c     Language:define.obj
 0003:00005354       ??_C@_0CC@PKIP@?$FL116?$FN?5?$HOS?5not?5allowed?5in?5function@ 00654354     Language:define.obj
 0003:00005378       ??_C@_0CP@FFMJ@cannot?5define?5a?5new?5rule?5on?5?$HOS?5w@ 00654378     Language:define.obj
 0003:000053a8       ??_C@_0BN@HJKO@?$FL188?$FN?5wrong?5event?5filter?3?5?$HOS?$AA@ 006543a8     Language:define.obj
 0003:000053c8       ??_C@_0DG@PPEA@?$FL188?$FN?5wrong?5event?5filter?5?$HOS?5for?5@ 006543c8     Language:define.obj
 0003:00005400       ??_C@_0BI@OONO@make_filter?5?3?5?$HOS?5?$CI?$HOS?$CJ?5?6?$AA@ 00654400     Language:define.obj
 0003:00005418       ??_C@_0BH@PHHM@?9?9?9?5trigger?5?$HOA?$CI?$HOS?0?$HOS?$CJ?6?$AA@ 00654418     Language:define.obj
 0003:00005430       ??_C@_06EELK@_write?$AA@   00654430     Language:define.obj
 0003:00005438       ??_C@_0DP@JHA@?$FL185?$FN?5cannot?5define?5an?5non?9unifo@ 00654438     Language:define.obj
 0003:00005478       ??_C@_0DJ@DCND@?$FL185?$FN?5cannot?5define?5an?5empty?5pro@ 00654478     Language:define.obj
 0003:000054b4       ??_C@_03FPDE@if?5?$AA@     006544b4     Language:control.obj
 0003:000054b8       ??_C@_05BNGI@else?5?$AA@   006544b8     Language:control.obj
 0003:000054c0       ??_C@_08DPBD@else?5if?5?$AA@ 006544c0     Language:control.obj
 0003:000054cc       ??_C@_04IBDI@let?5?$AA@    006544cc     Language:control.obj
 0003:000054d4       ??_C@_04EACC@?5in?5?$AA@   006544d4     Language:control.obj
 0003:000054dc       ??_C@_05HDOM@?5?4?4?4?6?$AA@ 006544dc     Language:control.obj
 0003:000054e4       ??_C@_0M@GCBC@start?3?5let?5?$AA@ 006544e4     Language:control.obj
 0003:000054f0       ??_C@_05IJIJ@when?5?$AA@   006544f0     Language:control.obj
 0003:000054f8       ??_C@_0N@CAGK@start?3?5when?5?$AA@ 006544f8     Language:control.obj
 0003:00005508       ??_C@_05EMIP@?$CJ?5?3?$DN?5?$AA@ 00654508     Language:control.obj
 0003:00005510       ??_C@_05LPNJ@let?5?$CI?$AA@ 00654510     Language:control.obj
 0003:00005518       ??_C@_04KCGL@for?5?$AA@    00654518     Language:control.obj
 0003:00005520       ??_C@_0BP@FENP@?$FL136?$FN?5?$HOS?5is?5not?5a?5collection?5?$CB?$AA@ 00654520     Language:control.obj
 0003:00005540       ??_C@_0M@EBEB@start?3?5for?5?$AA@ 00654540     Language:control.obj
 0003:0000554c       ??_C@_01KCD@?$HN?$AA@      0065454c     Language:control.obj
 0003:00005550       ??_C@_03OKJF@?5?$HM?5?$AA@ 00654550     Language:control.obj
 0003:00005554       ??_C@_06CIDH@list?$HL?5?$AA@ 00654554     Language:control.obj
 0003:0000555c       ??_C@_02MJBF@?$HL?5?$AA@   0065455c     Language:control.obj
 0003:00005560       ??_C@_04FMPD@some?$AA@     00654560     Language:control.obj
 0003:00005568       ??_C@_06BOJK@exists?$AA@   00654568     Language:control.obj
 0003:00005570       ??_C@_06CAAF@forall?$AA@   00654570     Language:control.obj
 0003:00005578       ??_C@_05EHDN@case?5?$AA@   00654578     Language:control.obj
 0003:00005580       ??_C@_05NJDI@while?$AA@    00654580     Language:control.obj
 0003:00005588       ??_C@_05FPCC@until?$AA@    00654588     Language:control.obj
 0003:00005590       ??_C@_06FIJP@catch?5?$AA@  00654590     Language:control.obj
 0003:00005598       ??_C@_04JING@try?5?$AA@    00654598     Language:control.obj
 0003:000055a0       ??_C@_06DPBE@branch?$AA@   006545a0     Language:control.obj
 0003:000055a8       ??_C@_06HDEN@assert?$AA@   006545a8     Language:control.obj
 0003:000055b0       ??_C@_05EIPG@trace?$AA@    006545b0     Language:control.obj
 0003:000055b8       ??_C@_05COLM@error?$AA@    006545b8     Language:control.obj
 0003:000055c0       ??_C@_06MEPA@printf?$AA@   006545c0     Language:control.obj
 0003:000055c8       ??_C@_05BFDF@tuple?$AA@    006545c8     Language:control.obj
 0003:000055d0       ??_C@_03NHNF@set?$AA@      006545d0     Language:control.obj
 0003:000055d4       ??_C@_04JOGO@list?$AA@     006545d4     Language:control.obj
 0003:000055dc       ??_C@_0BB@ELOI@Syntax?5error?3?5?$HOS?$AA@ 006545dc     Language:control.obj
 0003:000055f0       ??_C@_0CB@LAKM@?$FL103?$FN?5not?5enough?5arguments?5in?5?$HOS@ 006545f0     Language:control.obj
 0003:00005614       ??_C@_0DA@MHNG@?$FL102?$FN?5the?5first?5argument?5in?5?$HOS?5m@ 00654614     Language:control.obj
 0003:00005644       ??_C@_0BE@LIJL@Assertion?5Violation?$AA@ 00654644     Language:control.obj
 0003:00005658       ??_C@_0M@IBLG@?3?5?$CIASSERT?$CJ?5?$AA@ 00654658     Language:control.obj
 0003:00005664       ??_C@_06BFGI@?0line?$DN?$AA@ 00654664     Language:control.obj
 0003:0000566c       ??_C@_0CP@LCKF@?$FL104?$FN?5Syntax?5error?5with?5?$HOS?5?$CIone?5@ 0065466c     Language:control.obj
 0003:0000569c       ??_C@_02MMMJ@?$CI?$CJ?$AA@ 0065469c     Language:call.obj
 0003:000056a0       ??_C@_0L@MJON@?$CJ?5?3delete?5?$AA@ 006546a0     Language:call.obj
 0003:000056ac       ??_C@_07FIBK@?$CJ?5?3add?5?$AA@ 006546ac     Language:call.obj
 0003:000056b4       ??_C@_03KPCC@?$CJ?5?3?$AA@ 006546b4     Language:call.obj
 0003:000056b8       ??_C@_03BGN@?$FN?5?3?$AA@  006546b8     Language:call.obj
 0003:000056bc       ??_C@_05MDLB@?$FN?5?3?$DN?5?$AA@ 006546bc     Language:call.obj
 0003:000056c4       ??_C@_02BGGE@?$FL?$FN?$AA@ 006546c4     Language:call.obj
 0003:000056c8       ??_C@_01PJCK@?4?$AA@       006546c8     Language:call.obj
 0003:000056cc       ??_C@_02CPFE@?5?3?$AA@     006546cc     Language:call.obj
 0003:000056d0       ??_C@_0BL@CLNP@?$FL101?$FN?5?$HOS?5is?5not?5a?5variable?$AA@ 006546d0     Language:call.obj
 0003:000056ec       ??_C@_03LCJI@?5?$CG?5?$AA@ 006546ec     Language:call.obj
 0003:000056f0       ??_C@_06IJLN@quote?$CI?$AA@ 006546f0     Language:call.obj
 0003:000056f8       ??_C@_04EDGK@?5as?5?$AA@   006546f8     Language:call.obj
 0003:00005700       ??_C@_06JEBM@break?$CI?$AA@ 00654700     Language:call.obj
 0003:00005708       ??_C@_0CC@JLMC@?$FL144?$FN?5evaluate?$CI?$HOS?$CJ?5is?5not?5define@ 00654708     Language:pretty.obj
 0003:0000572c       ??_C@_0BP@NDCE@?$FL145?$FN?5the?5symbol?5?$HOA?5is?5unbound?$AA@ 0065472c     Language:pretty.obj
 0003:0000574c       ??_C@_02ENDO@V?$DP?$AA@    0065474c     Language:pretty.obj
 0003:00005750       ??_C@_0CF@PLGI@?$FL146?$FN?5The?5variable?5?$HOS?5is?5not?5def@ 00654750     Language:pretty.obj
 0003:00005778       ??_C@_02NKKI@?$CJ?0?$AA@   00654778     Language:pretty.obj
 0003:0000577c       ??_C@_08HPHB@lambda?$FL?$CI?$AA@ 0065477c     Language:pretty.obj
 0003:00005788       ??_C@_0CE@PMFB@?$FL147?$FN?5a?5name?5cannot?5be?5made?5from@ 00654788     Language:pretty.obj
 0003:000057ac       ??_C@_0DC@LBLC@?$FL148?$FN?5Wrong?5selector?3?5?$HOS?0?5cannot@ 006547ac     Language:pretty.obj
 0003:000057e0       ??_C@_05CHOK@list?$DM?$AA@ 006547e0     Language:pretty.obj
 0003:000057e8       ??_C@_04FDKD@set?$DM?$AA@  006547e8     Language:pretty.obj
 0003:000057f0       ??_C@_01PFFB@?$HL?$AA@     006547f0     Language:pretty.obj
 0003:000057f4       ??_C@_06HOEN@tuple?$CI?$AA@ 006547f4     Language:pretty.obj
 0003:000057fc       ??_C@_0BD@CLCM@PRdepends_property?$AA@ 006547fc     Reader:Reader.obj
 0003:00005810       ??_C@_0P@DGMC@dependents_any?$AA@ 00654810     Reader:Reader.obj
 0003:00005820       ??_C@_0BC@IGFI@dependents_method?$AA@ 00654820     Reader:Reader.obj
 0003:00005834       ??_C@_0O@NLPP@PRdependentOf?$AA@ 00654834     Reader:Reader.obj
 0003:00005844       ??_C@_0M@BOLP@PRdependent?$AA@ 00654844     Reader:Reader.obj
 0003:00005850       ??_C@_0M@DMJK@PRshow_void?$AA@ 00654850     Reader:Reader.obj
 0003:0000585c       ??_C@_0BA@LMGA@PRtime_property?$AA@ 0065485c     Reader:Reader.obj
 0003:0000586c       ??_C@_0BA@FBDE@PRshow_property?$AA@ 0065486c     Reader:Reader.obj
 0003:0000587c       ??_C@_0BB@IFHI@PRlook_property2?$AA@ 0065487c     Reader:Reader.obj
 0003:00005890       ??_C@_0P@JALB@PRget_property?$AA@ 00654890     Reader:Reader.obj
 0003:000058a0       ??_C@_07CDAI@PRcount?$AA@  006548a0     Reader:Reader.obj
 0003:000058a8       ??_C@_09DCLD@mem_class?$AA@ 006548a8     Reader:Reader.obj
 0003:000058b4       ??_C@_08DJHL@step_any?$AA@ 006548b4     Reader:Reader.obj
 0003:000058c0       ??_C@_0BK@GBDJ@call_step_property_Reader?$AA@ 006548c0     Reader:Reader.obj
 0003:000058dc       ??_C@_0BC@LCGP@closure_build_any?$AA@ 006548dc     Reader:Reader.obj
 0003:000058f0       ??_C@_0BF@CHFL@closure_build_lambda?$AA@ 006548f0     Reader:Reader.obj
 0003:00005908       ??_C@_0O@HOGO@block_integer?$AA@ 00654908     Reader:Reader.obj
 0003:00005918       ??_C@_0N@EMBN@Show_integer?$AA@ 00654918     Reader:Reader.obj
 0003:00005928       ??_C@_0BJ@GFFA@print_debug_info_integer?$AA@ 00654928     Reader:Reader.obj
 0003:00005944       ??_C@_0O@KGLG@where_integer?$AA@ 00654944     Reader:Reader.obj
 0003:00005954       ??_C@_0L@CKBF@up_integer?$AA@ 00654954     Reader:Reader.obj
 0003:00005960       ??_C@_0L@OCIA@dn_integer?$AA@ 00654960     Reader:Reader.obj
 0003:0000596c       ??_C@_05KJNF@where?$AA@    0065496c     Reader:Reader.obj
 0003:00005974       ??_C@_02HJLH@dn?$AA@       00654974     Reader:Reader.obj
 0003:00005978       ??_C@_02HAO@up?$AA@        00654978     Reader:Reader.obj
 0003:0000597c       ??_C@_0BA@EEJM@breakpoint_void?$AA@ 0065497c     Reader:Reader.obj
 0003:0000598c       ??_C@_0BA@JJKE@call_debug_void?$AA@ 0065498c     Reader:Reader.obj
 0003:0000599c       ??_C@_0L@PBLD@debug_void?$AA@ 0065499c     Reader:Reader.obj
 0003:000059a8       ??_C@_0O@CLND@stop_property?$AA@ 006549a8     Reader:Reader.obj
 0003:000059b8       ??_C@_0BE@BKCE@trace_rule_relation?$AA@ 006549b8     Reader:Reader.obj
 0003:000059cc       ??_C@_0BB@MIKM@self_trace_Trace?$AA@ 006549cc     Reader:Reader.obj
 0003:000059e0       ??_C@_0BF@GNFI@spy_listargs2_Reader?$AA@ 006549e0     Reader:Reader.obj
 0003:000059f8       ??_C@_0M@OJEF@untrace_any?$AA@ 006549f8     Reader:Reader.obj
 0003:00005a04       ??_C@_0N@KAOH@trace_on_any?$AA@ 00654a04     Reader:Reader.obj
 0003:00005a14       ??_C@_0BF@FKLE@get_from_integer_any?$AA@ 00654a14     Reader:Reader.obj
 0003:00005a2c       ??_C@_0BB@LH@inspect_loop_any?$AA@ 00654a2c     Reader:Reader.obj
 0003:00005a40       ??_C@_0M@HIHL@inspect_any?$AA@ 00654a40     Reader:Reader.obj
 0003:00005a4c       ??_C@_0BA@BFGF@CommandLoopVoid?$AA@ 00654a4c     Reader:Reader.obj
 0003:00005a5c       ??_C@_08JCDJ@StepLoop?$AA@ 00654a5c     Reader:Reader.obj
 0003:00005a68       ??_C@_09IEE@DebugLoop?$AA@ 00654a68     Reader:Reader.obj
 0003:00005a74       ??_C@_0M@IHBD@InspectLoop?$AA@ 00654a74     Reader:Reader.obj
 0003:00005a80       ??_C@_09HJAP@?$CKshowall?$CK?$AA@ 00654a80     Reader:Reader.obj
 0003:00005a8c       ??_C@_06PADL@?$CKcurd?$CK?$AA@ 00654a8c     Reader:Reader.obj
 0003:00005a94       ??_C@_06MFDP@?$CKmaxd?$CK?$AA@ 00654a94     Reader:Reader.obj
 0003:00005a9c       ??_C@_07JGFF@?$CKindex?$CK?$AA@ 00654a9c     Reader:Reader.obj
 0003:00005aa4       ??_C@_06GJDN@?$CKlast?$CK?$AA@ 00654aa4     Reader:Reader.obj
 0003:00005aac       ??_C@_0N@NCIM@top_debugger?$AA@ 00654aac     Reader:Reader.obj
 0003:00005abc       ??_C@_0BB@BNAL@get_from_integer?$AA@ 00654abc     Reader:Reader.obj
 0003:00005ad0       ??_C@_0N@COC@inspect_loop?$AA@ 00654ad0     Reader:Reader.obj
 0003:00005ae0       ??_C@_0L@DHAH@execute_bk?$AA@ 00654ae0     Reader:Reader.obj
 0003:00005aec       ??_C@_0L@OKKE@execute_do?$AA@ 00654aec     Reader:Reader.obj
 0003:00005af8       ??_C@_05OBHA@step?$CB?$AA@ 00654af8     Reader:Reader.obj
 0003:00005b00       ??_C@_06EAGC@?$DO?$DN_any?$AA@ 00654b00     Reader:Reader.obj
 0003:00005b08       ??_C@_0CD@FMBM@lambda?$FL?$CIself?3any?0x?3any?$CJ?0x?5?$DM?$DN?5sel@ 00654b08     Reader:Reader.obj
 0003:00005b2c       ??_C@_0O@DMJG@float?$CB_string?$AA@ 00654b2c     Reader:Reader.obj
 0003:00005b3c       ??_C@_0P@INNB@float?$CB_string_?$AA@ 00654b3c     Reader:Reader.obj
 0003:00005b4c       ??_C@_0P@NALD@unknown?$DP_table?$AA@ 00654b4c     Reader:Reader.obj
 0003:00005b5c       ??_C@_0CM@DDKO@lambda?$FL?$CIa?3table?0x?3any?$CJ?0get?$CIa?0?5x?$CJ@ 00654b5c     Reader:Reader.obj
 0003:00005b88       ??_C@_0N@PAAD@known?$DP_table?$AA@ 00654b88     Reader:Reader.obj
 0003:00005b98       ??_C@_0CN@GFAF@lambda?$FL?$CIa?3table?0x?3any?$CJ?0get?$CIa?0?5x?$CJ@ 00654b98     Reader:Reader.obj
 0003:00005bc8       ??_C@_0O@JMGB@hashgrow_list?$AA@ 00654bc8     Reader:Reader.obj
 0003:00005bd8       ??_C@_0IP@LDGM@lambda?$FL?$CIl?3list?0hi?3property?$CJ?0let?5@ 00654bd8     Reader:Reader.obj
 0003:00005c68       ??_C@_07IJFO@max_any?$AA@  00654c68     Reader:Reader.obj
 0003:00005c70       ??_C@_0CN@IBMI@lambda?$FL?$CIx?3any?0y?3any?$CJ?0?$CIif?5?$CIx?5?$DM?$DN?5y@ 00654c70     Reader:Reader.obj
 0003:00005ca0       ??_C@_07OGNF@min_any?$AA@  00654ca0     Reader:Reader.obj
 0003:00005ca8       ??_C@_0CN@FMBM@lambda?$FL?$CIx?3any?0y?3any?$CJ?0?$CIif?5?$CIx?5?$DM?$DN?5y@ 00654ca8     Reader:Reader.obj
 0003:00005cd8       ??_C@_0M@BNLP@max_integer?$AA@ 00654cd8     Reader:Reader.obj
 0003:00005ce4       ??_C@_0DF@CGAB@lambda?$FL?$CIx?3integer?0y?3integer?$CJ?0?$CIif@ 00654ce4     Reader:Reader.obj
 0003:00005d1c       ??_C@_0M@MKJP@min_integer?$AA@ 00654d1c     Reader:Reader.obj
 0003:00005d28       ??_C@_0DF@PLNF@lambda?$FL?$CIx?3integer?0y?3integer?$CJ?0?$CIif@ 00654d28     Reader:Reader.obj
 0003:00005d60       ??_C@_0L@PKND@kill_class?$AA@ 00654d60     Reader:Reader.obj
 0003:00005d6c       ??_C@_0M@BJFA@kill_object?$AA@ 00654d6c     Reader:Reader.obj
 0003:00005d78       ??_C@_08PIGB@show_any?$AA@ 00654d78     Reader:Reader.obj
 0003:00005d84       ??_C@_0M@MOPL@pretty_show?$AA@ 00654d84     Reader:Reader.obj
 0003:00005d90       ??_C@_0BF@CCKL@print_exception_void?$AA@ 00654d90     Reader:Reader.obj
 0003:00005da8       ??_C@_0BH@JEGG@debug_if_possible_void?$AA@ 00654da8     Reader:Reader.obj
 0003:00005dc0       ??_C@_04ELAD@EVAL?$AA@     00654dc0     Reader:Reader.obj
 0003:00005dc8       ??_C@_0L@HLFA@call_debug?$AA@ 00654dc8     Reader:Reader.obj
 0003:00005dd4       ??_C@_01PEMH@q?$AA@        00654dd4     Reader:Reader.obj
 0003:00005dd8       ??_C@_0M@LNNB@read_string?$AA@ 00654dd8     Reader:Reader.obj
 0003:00005de4       ??_C@_09CKKA@read_port?$AA@ 00654de4     Reader:Reader.obj
 0003:00005df0       ??_C@_0P@IEBP@readblock_port?$AA@ 00654df0     Reader:Reader.obj
 0003:00005e00       ??_C@_0N@ECFH@eload_string?$AA@ 00654e00     Reader:Reader.obj
 0003:00005e10       ??_C@_0BB@HCKH@add_modules_list?$AA@ 00654e10     Reader:Reader.obj
 0003:00005e24       ??_C@_0BD@FBGF@add_modules_module?$AA@ 00654e24     Reader:Reader.obj
 0003:00005e38       ??_C@_0N@JCGA@sload_module?$AA@ 00654e38     Reader:Reader.obj
 0003:00005e48       ??_C@_0M@DNAF@load_module?$AA@ 00654e48     Reader:Reader.obj
 0003:00005e54       ??_C@_0BB@CPON@load_file_module?$AA@ 00654e54     Reader:Reader.obj
 0003:00005e68       ??_C@_0N@PAIA@sload_string?$AA@ 00654e68     Reader:Reader.obj
 0003:00005e78       ??_C@_0M@FPOF@load_string?$AA@ 00654e78     Reader:Reader.obj
 0003:00005e84       ??_C@_0BB@ENAN@load_file_string?$AA@ 00654e84     Reader:Reader.obj
 0003:00005e98       ??_C@_0BK@LGAB@restore_state_meta_reader?$AA@ 00654e98     Reader:Reader.obj
 0003:00005eb4       ??_C@_0L@HEJM@flush_port?$AA@ 00654eb4     Reader:Reader.obj
 0003:00005ec0       ??_C@_08BMO@?1_string?$AA@ 00654ec0     Reader:Reader.obj
 0003:00005ecc       ??_C@_04JMKJ@?$CKfs?$CK?$AA@ 00654ecc     Reader:Reader.obj
 0003:00005ed4       ??_C@_05LFCD@STDIN?$AA@    00654ed4     Reader:Reader.obj
 0003:00005edc       ??_C@_05NOKM@stdin?$AA@    00654edc     Reader:Reader.obj
 0003:00005ee4       ??_C@_06EHCM@STDOUT?$AA@   00654ee4     Reader:Reader.obj
 0003:00005eec       ??_C@_06JIKH@stdout?$AA@   00654eec     Reader:Reader.obj
 0003:00005ef4       ??_C@_0BE@PHD@unbind?$CB_meta_reader?$AA@ 00654ef4     Reader:Reader.obj
 0003:00005f08       ??_C@_0BC@LPLI@bind?$CB_meta_reader?$AA@ 00654f08     Reader:Reader.obj
 0003:00005f1c       ??_C@_0BF@PNCG@extract_variable_any?$AA@ 00654f1c     Reader:Reader.obj
 0003:00005f34       ??_C@_06OMDI@reader?$AA@   00654f34     Reader:Reader.obj
 0003:00005f3c       ??_C@_0O@OAOF@Serror_string?$AA@ 00654f3c     Reader:Reader.obj
 0003:00005f4c       ??_C@_0L@KDJK@verify_any?$AA@ 00654f4c     Reader:Reader.obj
 0003:00005f58       ??_C@_0BE@KKGM@checkno_meta_reader?$AA@ 00654f58     Reader:Reader.obj
 0003:00005f6c       ??_C@_0BE@CINP@findeol_meta_reader?$AA@ 00654f6c     Reader:Reader.obj
 0003:00005f80       ??_C@_0BC@CDJA@cnext_meta_reader?$AA@ 00654f80     Reader:Reader.obj
 0003:00005f94       ??_C@_0BD@JJDF@skipc?$CB_meta_reader?$AA@ 00654f94     Reader:Reader.obj
 0003:00005fa8       ??_C@_0BC@HKJD@skipc_meta_reader?$AA@ 00654fa8     Reader:Reader.obj
 0003:00005fbc       ??_C@_0BC@MGI@useless_c_integer?$AA@ 00654fbc     Reader:Reader.obj
 0003:00005fd0       ??_C@_0BE@OPIG@self_eval_delimiter?$AA@ 00654fd0     Reader:Reader.obj
 0003:00005fe4       ??_C@_0BJ@BKBG@nextDefclass_meta_reader?$AA@ 00654fe4     Reader:Reader.obj
 0003:00006000       ??_C@_0BF@JNOD@nextinst_meta_reader?$AA@ 00655000     Reader:Reader.obj
 0003:00006018       ??_C@_0BH@BBA@nextmethod_meta_reader?$AA@ 00655018     Reader:Reader.obj
 0003:00006030       ??_C@_0BL@NCHH@nextdefinition_meta_reader?$AA@ 00655030     Reader:Reader.obj
 0003:0000604c       ??_C@_0BF@PLGI@readcall_meta_reader?$AA@ 0065504c     Reader:Reader.obj
 0003:00006064       ??_C@_0BF@BJGB@extract_of_type_Call?$AA@ 00655064     Reader:Reader.obj
 0003:0000607c       ??_C@_07HLBN@Do?$CB_any?$AA@ 0065507c     Reader:Reader.obj
 0003:00006084       ??_C@_0BG@BFFL@readblock_meta_reader?$AA@ 00655084     Reader:Reader.obj
 0003:0000609c       ??_C@_0BE@CIHF@nextseq_meta_reader?$AA@ 0065509c     Reader:Reader.obj
 0003:000060b0       ??_C@_0BA@MMCF@dereference_any?$AA@ 006550b0     Reader:Reader.obj
 0003:000060c0       ??_C@_0BE@NOBB@readset_meta_reader?$AA@ 006550c0     Reader:Reader.obj
 0003:000060d4       ??_C@_0BF@EHEB@readcase_meta_reader?$AA@ 006550d4     Reader:Reader.obj
 0003:000060ec       ??_C@_0BD@JEMI@readif_meta_reader?$AA@ 006550ec     Reader:Reader.obj
 0003:00006100       ??_C@_0BF@LHOL@readwhen_meta_reader?$AA@ 00655100     Reader:Reader.obj
 0003:00006118       ??_C@_0BF@KBDK@readlet?$CK_meta_reader?$AA@ 00655118     Reader:Reader.obj
 0003:00006130       ??_C@_0BE@KMHH@readlet_meta_reader?$AA@ 00655130     Reader:Reader.obj
 0003:00006144       ??_C@_0BH@JNEP@nextstruct_meta_reader?$AA@ 00655144     Reader:Reader.obj
 0003:0000615c       ??_C@_0BA@BCOB@precedence?$CB_any?$AA@ 0065515c     Reader:Reader.obj
 0003:0000616c       ??_C@_0N@OFFM@operand?$CB_any?$AA@ 0065516c     Reader:Reader.obj
 0003:0000617c       ??_C@_0P@MCIJ@operation?$CB_any?$AA@ 0065517c     Reader:Reader.obj
 0003:0000618c       ??_C@_0N@NKML@combine?$CB_any?$AA@ 0065518c     Reader:Reader.obj
 0003:0000619c       ??_C@_0M@NNLF@combine_any?$AA@ 0065519c     Reader:Reader.obj
 0003:000061a8       ??_C@_0P@BCJ@operation?$DP_any?$AA@ 006551a8     Reader:Reader.obj
 0003:000061b8       ??_C@_0P@GGGG@Call?$CB_property?$AA@ 006551b8     Reader:Reader.obj
 0003:000061c8       ??_C@_0BA@LBJG@DBregister_Call?$AA@ 006551c8     Reader:Reader.obj
 0003:000061d8       ??_C@_06HJOD@DBline?$AA@   006551d8     Reader:Reader.obj
 0003:000061e0       ??_C@_0BO@KPOL@extended_comment?$CB_meta_reader?$AA@ 006551e0     Reader:Reader.obj
 0003:00006200       ??_C@_0BO@NFDG@extended_comment?$DP_meta_reader?$AA@ 00655200     Reader:Reader.obj
 0003:00006220       ??_C@_0BE@BMKJ@nexts?$CB_meta_reader3?$AA@ 00655220     Reader:Reader.obj
 0003:00006234       ??_C@_0BE@LGDO@nexts?$CB_meta_reader2?$AA@ 00655234     Reader:Reader.obj
 0003:00006248       ??_C@_0BD@EELG@nexte?$CB_meta_reader?$AA@ 00655248     Reader:Reader.obj
 0003:0000625c       ??_C@_0BE@EJIH@nexts?$CB_meta_reader1?$AA@ 0065525c     Reader:Reader.obj
 0003:00006270       ??_C@_0BJ@BMOF@nextvariable_meta_reader?$AA@ 00655270     Reader:Reader.obj
 0003:0000628c       ??_C@_0BI@FPPL@read_escape_meta_reader?$AA@ 0065528c     Reader:Reader.obj
 0003:000062a4       ??_C@_0BC@DHOJ@nexti_meta_reader?$AA@ 006552a4     Reader:Reader.obj
 0003:000062b8       ??_C@_0BE@PKFF@nextexp_meta_reader?$AA@ 006552b8     Reader:Reader.obj
 0003:000062cc       ??_C@_0BC@PJDB@nexte_meta_reader?$AA@ 006552cc     Reader:Reader.obj
 0003:000062e0       ??_C@_0BE@ILME@loopexp_meta_reader?$AA@ 006552e0     Reader:Reader.obj
 0003:000062f4       ??_C@_0BC@IID@nexts_meta_reader?$AA@ 006552f4     Reader:Reader.obj
 0003:00006308       ??_C@_0BF@EPOJ@nextunit_meta_reader?$AA@ 00655308     Reader:Reader.obj
 0003:00006320       ??_C@_0M@HIME@LastExpRead?$AA@ 00655320     Reader:Reader.obj
 0003:0000632c       ??_C@_0N@GADP@Declarations?$AA@ 0065532c     Reader:Reader.obj
 0003:0000633c       ??_C@_0O@CFAF@StrictClaire2?$AA@ 0065533c     Reader:Reader.obj
 0003:0000634c       ??_C@_01KALE@?$HM?$AA@     0065534c     Reader:Reader.obj
 0003:00006350       ??_C@_02CHDK@OR?$AA@       00655350     Reader:Reader.obj
 0003:00006354       ??_C@_03LACO@AND?$AA@      00655354     Reader:Reader.obj
 0003:00006358       ??_C@_0O@FLOK@stop?$DP_integer?$AA@ 00655358     Reader:Reader.obj
 0003:00006368       ??_C@_06DAFB@known?$CB?$AA@ 00655368     Reader:Reader.obj
 0003:00006370       ??_C@_07IDN@inspect?$AA@   00655370     Reader:Reader.obj
 0003:00006378       ??_C@_05OFMG@quote?$AA@    00655378     Reader:Reader.obj
 0003:00006380       ??_C@_04HKPJ@rule?$AA@     00655380     Reader:Reader.obj
 0003:00006388       ??_C@_01PKMN@?$DP?$AA@     00655388     Reader:Reader.obj
 0003:0000638c       ??_C@_05EELJ@break?$AA@    0065538c     Reader:Reader.obj
 0003:00006394       ??_C@_06CGBH@return?$AA@   00655394     Reader:Reader.obj
 0003:0000639c       ??_C@_02NNPM@?3?3?$AA@     0065539c     Reader:Reader.obj
 0003:000063a0       ??_C@_02MILE@as?$AA@       006553a0     Reader:Reader.obj
 0003:000063a4       ??_C@_02IAOD@in?$AA@       006553a4     Reader:Reader.obj
 0003:000063a8       ??_C@_05HPNL@catch?$AA@    006553a8     Reader:Reader.obj
 0003:000063b0       ??_C@_04COF@None?$AA@      006553b0     Reader:Reader.obj
 0003:000063b8       ??_C@_04KIKH@none?$AA@     006553b8     Reader:Reader.obj
 0003:000063c0       ??_C@_0N@NJHP@keyword?$DP_any?$AA@ 006553c0     Reader:Reader.obj
 0003:000063d0       ??_C@_03EEAD@Zif?$AA@      006553d0     Reader:Reader.obj
 0003:000063d4       ??_C@_02NEFL@if?$AA@       006553d4     Reader:Reader.obj
 0003:000063d8       ??_C@_03DGDL@try?$AA@      006553d8     Reader:Reader.obj
 0003:000063dc       ??_C@_04GJIP@when?$AA@     006553dc     Reader:Reader.obj
 0003:000063e4       ??_C@_03NIGL@let?$AA@      006553e4     Reader:Reader.obj
 0003:000063e8       ??_C@_04NNBC@case?$AA@     006553e8     Reader:Reader.obj
 0003:000063f0       ??_C@_03ILIA@for?$AA@      006553f0     Reader:Reader.obj
 0003:000063f4       ??_C@_04IIAH@else?$AA@     006553f4     Reader:Reader.obj
 0003:000063fc       ??_C@_0BB@BLLE@reserved_keyword?$AA@ 006553fc     Reader:Reader.obj
 0003:00006410       ??_C@_07NCOK@?$CKarrow?$CK?$AA@ 00655410     Reader:Reader.obj
 0003:00006418       ??_C@_02KKAD@?$DM?3?$AA@   00655418     Reader:Reader.obj
 0003:0000641c       ??_C@_08DDLJ@triangle?$AA@ 0065541c     Reader:Reader.obj
 0003:00006428       ??_C@_05KOOC@arrow?$AA@    00655428     Reader:Reader.obj
 0003:00006430       ??_C@_09KCOB@delimiter?$AA@ 00655430     Reader:Reader.obj
 0003:0000643c       ??_C@_0BD@MGIJ@firstc_meta_reader?$AA@ 0065543c     Reader:Reader.obj
 0003:00006450       ??_C@_0BB@LDLK@next_meta_reader?$AA@ 00655450     Reader:Reader.obj
 0003:00006464       ??_C@_0M@PDGM@meta_reader?$AA@ 00655464     Reader:Reader.obj
 0003:00006470       ??_C@_06DDHK@PRtime?$AA@   00655470     Reader:Reader.obj
 0003:00006478       ??_C@_06EKNJ@PRshow?$AA@   00655478     Reader:Reader.obj
 0003:00006480       ??_C@_0L@FGFO@call_count?$AA@ 00655480     Reader:Reader.obj
 0003:0000648c       ??_C@_09DEA@PRdepends?$AA@ 0065548c     Reader:Reader.obj
 0003:00006498       ??_C@_0BA@HFJK@extract_of_type?$AA@ 00655498     Reader:Reader.obj
 0003:000064a8       ??_C@_0L@NCOP@dependents?$AA@ 006554a8     Reader:Reader.obj
 0003:000064b4       ??_C@_06CGCD@PRlook?$AA@   006554b4     Reader:Reader.obj
 0003:000064bc       ??_C@_05POOE@PRget?$AA@    006554bc     Reader:Reader.obj
 0003:000064c4       ??_C@_06CFEL@rstart?$AA@   006554c4     Reader:Reader.obj
 0003:000064cc       ??_C@_05BCPD@rloop?$AA@    006554cc     Reader:Reader.obj
 0003:000064d4       ??_C@_04KAPC@rnum?$AA@     006554d4     Reader:Reader.obj
 0003:000064dc       ??_C@_06GEIA@rdepth?$AA@   006554dc     Reader:Reader.obj
 0003:000064e4       ??_C@_05FNL@rtime?$AA@     006554e4     Reader:Reader.obj
 0003:000064ec       ??_C@_04HPI@step?$AA@      006554ec     Reader:Reader.obj
 0003:000064f4       ??_C@_0O@OPKO@closure_build?$AA@ 006554f4     Reader:Reader.obj
 0003:00006504       ??_C@_05PNCJ@block?$AA@    00655504     Reader:Reader.obj
 0003:0000650c       ??_C@_04JJNL@Show?$AA@     0065550c     Reader:Reader.obj
 0003:00006514       ??_C@_0BB@JMGC@print_debug_info?$AA@ 00655514     Reader:Reader.obj
 0003:00006528       ??_C@_0L@PBML@breakpoint?$AA@ 00655528     Reader:Reader.obj
 0003:00006534       ??_C@_04JPPJ@stop?$AA@     00655534     Reader:Reader.obj
 0003:0000653c       ??_C@_0L@PNNE@trace_rule?$AA@ 0065553c     Reader:Reader.obj
 0003:00006548       ??_C@_0L@LEFL@self_trace?$AA@ 00655548     Reader:Reader.obj
 0003:00006554       ??_C@_07EOHP@untrace?$AA@  00655554     Reader:Reader.obj
 0003:0000655c       ??_C@_08PIGA@trace_on?$AA@ 0065555c     Reader:Reader.obj
 0003:00006568       ??_C@_0M@EPOI@CommandLoop?$AA@ 00655568     Reader:Reader.obj
 0003:00006574       ??_C@_0M@KPKN@step_system?$AA@ 00655574     Reader:Reader.obj
 0003:00006580       ??_C@_0N@IKCC@debug_system?$AA@ 00655580     Reader:Reader.obj
 0003:00006590       ??_C@_0P@EHNM@inspect_system?$AA@ 00655590     Reader:Reader.obj
 0003:000065a0       ??_C@_08MEHD@hashgrow?$AA@ 006555a0     Reader:Reader.obj
 0003:000065ac       ??_C@_04CHLA@kill?$AA@     006555ac     Reader:Reader.obj
 0003:000065b4       ??_C@_0BA@MNOD@print_exception?$AA@ 006555b4     Reader:Reader.obj
 0003:000065c4       ??_C@_0BC@BANL@debug_if_possible?$AA@ 006555c4     Reader:Reader.obj
 0003:000065d8       ??_C@_05LBNL@eload?$AA@    006555d8     Reader:Reader.obj
 0003:000065e0       ??_C@_0M@NIEN@add_modules?$AA@ 006555e0     Reader:Reader.obj
 0003:000065ec       ??_C@_05HDFB@sload?$AA@    006555ec     Reader:Reader.obj
 0003:000065f4       ??_C@_04JMJF@load?$AA@     006555f4     Reader:Reader.obj
 0003:000065fc       ??_C@_09INKF@load_file?$AA@ 006555fc     Reader:Reader.obj
 0003:00006608       ??_C@_07NMKP@unbind?$CB?$AA@ 00655608     Reader:Reader.obj
 0003:00006610       ??_C@_05NKCG@bind?$CB?$AA@ 00655610     Reader:Reader.obj
 0003:00006618       ??_C@_0BB@IJCH@extract_variable?$AA@ 00655618     Reader:Reader.obj
 0003:0000662c       ??_C@_06KCFH@Serror?$AA@   0065562c     Reader:Reader.obj
 0003:00006634       ??_C@_06JKGI@verify?$AA@   00655634     Reader:Reader.obj
 0003:0000663c       ??_C@_07CDMB@checkno?$AA@  0065563c     Reader:Reader.obj
 0003:00006644       ??_C@_07KMII@findeol?$AA@  00655644     Reader:Reader.obj
 0003:0000664c       ??_C@_05GPBP@cnext?$AA@    0065564c     Reader:Reader.obj
 0003:00006654       ??_C@_06HPDL@skipc?$CB?$AA@ 00655654     Reader:Reader.obj
 0003:0000665c       ??_C@_05EMHO@skipc?$AA@    0065565c     Reader:Reader.obj
 0003:00006664       ??_C@_09EBHO@useless_c?$AA@ 00655664     Reader:Reader.obj
 0003:00006670       ??_C@_0N@NFEC@nextDefclass?$AA@ 00655670     Reader:Reader.obj
 0003:00006680       ??_C@_08CINO@nextinst?$AA@ 00655680     Reader:Reader.obj
 0003:0000668c       ??_C@_0L@KPJE@nextmethod?$AA@ 0065568c     Reader:Reader.obj
 0003:00006698       ??_C@_0P@OBFB@nextdefinition?$AA@ 00655698     Reader:Reader.obj
 0003:000066a8       ??_C@_08KGIP@readcall?$AA@ 006556a8     Reader:Reader.obj
 0003:000066b4       ??_C@_03JOHB@Do?$CB?$AA@   006556b4     Reader:Reader.obj
 0003:000066b8       ??_C@_09DDBC@readblock?$AA@ 006556b8     Reader:Reader.obj
 0003:000066c4       ??_C@_07BMBA@nextseq?$AA@  006556c4     Reader:Reader.obj
 0003:000066cc       ??_C@_0M@HLDG@dereference?$AA@ 006556cc     Reader:Reader.obj
 0003:000066d8       ??_C@_07MNAB@readset?$AA@  006556d8     Reader:Reader.obj
 0003:000066e0       ??_C@_08OGAI@readcase?$AA@ 006556e0     Reader:Reader.obj
 0003:000066ec       ??_C@_06OK@readif?$AA@     006556ec     Reader:Reader.obj
 0003:000066f4       ??_C@_04DDJJ@show?$AA@     006556f4     Reader:Reader.obj
 0003:000066fc       ??_C@_08FCJF@readwhen?$AA@ 006556fc     Reader:Reader.obj
 0003:00006708       ??_C@_08LLLE@readlet?$CK?$AA@ 00655708     Reader:Reader.obj
 0003:00006714       ??_C@_07MCLP@readlet?$AA@  00655714     Reader:Reader.obj
 0003:0000671c       ??_C@_0L@LFNG@nextstruct?$AA@ 0065571c     Reader:Reader.obj
 0003:00006728       ??_C@_0M@MCEO@precedence?$CB?$AA@ 00655728     Reader:Reader.obj
 0003:00006734       ??_C@_08MEIC@operand?$CB?$AA@ 00655734     Reader:Reader.obj
 0003:00006740       ??_C@_0L@BIFC@operation?$CB?$AA@ 00655740     Reader:Reader.obj
 0003:0000674c       ??_C@_08GCDN@combine?$CB?$AA@ 0065574c     Reader:Reader.obj
 0003:00006758       ??_C@_07EKGC@combine?$AA@  00655758     Reader:Reader.obj
 0003:00006760       ??_C@_0L@BKOI@operation?$DP?$AA@ 00655760     Reader:Reader.obj
 0003:0000676c       ??_C@_05EFEA@Call?$CB?$AA@ 0065576c     Reader:Reader.obj
 0003:00006774       ??_C@_0L@OMJG@DBregister?$AA@ 00655774     Reader:Reader.obj
 0003:00006780       ??_C@_0BC@NFCF@extended_comment?$CB?$AA@ 00655780     Reader:Reader.obj
 0003:00006794       ??_C@_0BC@NHJP@extended_comment?$DP?$AA@ 00655794     Reader:Reader.obj
 0003:000067a8       ??_C@_06MFDL@nexte?$CB?$AA@ 006557a8     Reader:Reader.obj
 0003:000067b0       ??_C@_06NIGN@nexts?$CB?$AA@ 006557b0     Reader:Reader.obj
 0003:000067b8       ??_C@_0N@LBIL@nextvariable?$AA@ 006557b8     Reader:Reader.obj
 0003:000067c8       ??_C@_0M@OHAD@read_escape?$AA@ 006557c8     Reader:Reader.obj
 0003:000067d4       ??_C@_05LCIN@nexti?$AA@    006557d4     Reader:Reader.obj
 0003:000067dc       ??_C@_07OIGH@nextexp?$AA@  006557dc     Reader:Reader.obj
 0003:000067e4       ??_C@_05EMGJ@nexte?$AA@    006557e4     Reader:Reader.obj
 0003:000067ec       ??_C@_07MEOK@loopexp?$AA@  006557ec     Reader:Reader.obj
 0003:000067f4       ??_C@_05BKGL@nexts?$AA@    006557f4     Reader:Reader.obj
 0003:000067fc       ??_C@_08DAIP@nextunit?$AA@ 006557fc     Reader:Reader.obj
 0003:00006808       ??_C@_05NHFC@stop?$DP?$AA@ 00655808     Reader:Reader.obj
 0003:00006810       ??_C@_08BGNB@keyword?$DP?$AA@ 00655810     Reader:Reader.obj
 0003:0000681c       ??_C@_04ICIO@next?$AA@     0065581c     Reader:Reader.obj
 0003:00006824       ??_C@_05IECD@curly?$AA@    00655824     Reader:Reader.obj
 0003:0000682c       ??_C@_05FFOK@comma?$AA@    0065582c     Reader:Reader.obj
 0003:00006834       ??_C@_05PJBL@paren?$AA@    00655834     Reader:Reader.obj
 0003:0000683c       ??_C@_07NNFI@bracket?$AA@  0065583c     Reader:Reader.obj
 0003:00006844       ??_C@_03GFBM@tab?$AA@      00655844     Reader:Reader.obj
 0003:00006848       ??_C@_05GCKI@space?$AA@    00655848     Reader:Reader.obj
 0003:00006850       ??_C@_03HOJH@eof?$AA@      00655850     Reader:Reader.obj
 0003:00006854       ??_C@_08BCHP@toplevel?$AA@ 00655854     Reader:Reader.obj
 0003:00006860       ??_C@_08JPK@maxstack?$AA@  00655860     Reader:Reader.obj
 0003:0000686c       ??_C@_09ICII@last_form?$AA@ 0065586c     Reader:Reader.obj
 0003:00006878       ??_C@_06LLDN@firstc?$AA@   00655878     Reader:Reader.obj
 0003:00006880       ??_C@_07HHOE@nb_line?$AA@  00655880     Reader:Reader.obj
 0003:00006888       ??_C@_05BNDL@fromp?$AA@    00655888     Reader:Reader.obj
 0003:00006890       ??_C@_07ILCC@s_index?$AA@  00655890     Reader:Reader.obj
 0003:00006898       ??_C@_03NAME@?4?4?4?$AA@   00655898     Reader:inspect.obj
 0003:0000689c       ??_C@_02HFBK@?3?5?$AA@     0065589c     Reader:inspect.obj
 0003:000068a0       ??_C@_0CB@LPEL@?$DN?$DO?5given?5to?5inspector?5is?5wrong?4?6@ 006558a0     Reader:inspect.obj
 0003:000068c4       ??_C@_0BO@FANB@?$FL128?$FN?5?$HOS?5should?5be?5an?5integer?$AA@ 006558c4     Reader:inspect.obj
 0003:000068e4       ??_C@_0BK@KBOI@?5is?5not?5a?5good?5index?5for?5?$AA@ 006558e4     Reader:inspect.obj
 0003:00006900       ??_C@_0BK@OOCF@?5in?5not?5a?5good?5index?5for?5?$AA@ 00655900     Reader:inspect.obj
 0003:0000691c       ??_C@_0CD@KNIF@?$FL129?$FN?5trace?5not?5implemented?5on?5?$HO@ 0065591c     Reader:inspect.obj
 0003:00006940       ??_C@_01LLF@w?$AA@         00655940     Reader:inspect.obj
 0003:00006944       ??_C@_0CF@JJCM@?$FL130?$FN?5untrace?5not?5implemented?5on@ 00655944     Reader:inspect.obj
 0003:0000696c       ??_C@_02NEME@?5?6?$AA@     0065596c     Reader:inspect.obj
 0003:00006970       ??_C@_04HCBP@?3add?$AA@    00655970     Reader:inspect.obj
 0003:00006978       ??_C@_02CEEM@?$CJ?5?$AA@   00655978     Reader:inspect.obj
 0003:0000697c       ??_C@_0BA@MEFN@?$CJ?5by?5an?5update?5?$AA@ 0065597c     Reader:inspect.obj
 0003:0000698c       ??_C@_0BE@HFMD@?5is?5triggered?5for?5?$CI?$AA@ 0065598c     Reader:inspect.obj
 0003:000069a0       ??_C@_0O@MDBM@?9?9?9?5the?5rule?5?$AA@ 006559a0     Reader:inspect.obj
 0003:000069b0       ??_C@_0BE@CHDO@debugger?5installed?6?$AA@ 006559b0     Reader:inspect.obj
 0003:000069c4       ??_C@_0BC@ELJK@debugger?5removed?6?$AA@ 006559c4     Reader:inspect.obj
 0003:000069d8       ??_C@_09LJMO@?5in?5line?5?$AA@ 006559d8     Reader:inspect.obj
 0003:000069e4       ??_C@_0BC@FAN@?5?6?9?9?9?9?5Last?5call?5?$AA@ 006559e4     Reader:inspect.obj
 0003:000069f8       ??_C@_06MCBO@break?$DO?$AA@ 006559f8     Reader:inspect.obj
 0003:00006a00       ??_C@_07PDEJ@?$CJ?5?$FLq?$FN?5?$DO?$AA@ 00655a00     Reader:inspect.obj
 0003:00006a08       ??_C@_09EFHG@break?5in?5?$AA@ 00655a08     Reader:inspect.obj
 0003:00006a14       ??_C@_02GJAC@?$FN?$DO?$AA@ 00655a14     Reader:inspect.obj
 0003:00006a18       ??_C@_06FGOK@debug?$FL?$AA@ 00655a18     Reader:inspect.obj
 0003:00006a20       ??_C@_02MDFO@?$FN?3?$AA@   00655a20     Reader:inspect.obj
 0003:00006a24       ??_C@_03DADG@?5?5?$FL?$AA@ 00655a24     Reader:inspect.obj
 0003:00006a28       ??_C@_09OHBF@?0?5narg?5?$DN?5?$AA@ 00655a28     Reader:inspect.obj
 0003:00006a34       ??_C@_07DNMN@?$FN?3?5p?5?$DN?5?$AA@ 00655a34     Reader:inspect.obj
 0003:00006a3c       ??_C@_03DMDD@?5?9?5?$AA@   00655a3c     Reader:inspect.obj
 0003:00006a40       ??_C@_04ENNO@?5?9?$DO?5?$AA@ 00655a40     Reader:inspect.obj
 0003:00006a48       ??_C@_0L@JBFB@?$DMcompiled?3?$AA@ 00655a48     Reader:inspect.obj
 0003:00006a54       ??_C@_04PGEL@?$FN?5?$DO?5?$AA@ 00655a54     Reader:inspect.obj
 0003:00006a5c       ??_C@_0N@HMMO@exit?5stepper?$AA@ 00655a5c     Reader:inspect.obj
 0003:00006a6c       ??_C@_0CO@ECAB@?$CJ?5?3?5?$FL?$CIi?$CJn?0?$CIo?$CJut?0e?$CIx?$CJit?0?$CIt?$CJrace?0?$CI@ 00655a6c     Reader:inspect.obj
 0003:00006a9c       ??_C@_0CL@HNJB@?$FL131?$FN?5Cannot?5profile?5a?5reified?5p@ 00655a9c     Reader:inspect.obj
 0003:00006ac8       ??_C@_04MIPD@?5ms?6?$AA@   00655ac8     Reader:inspect.obj
 0003:00006ad0       ??_C@_0L@BPHH@?5calls?5?9?$DO?5?$AA@ 00655ad0     Reader:inspect.obj
 0003:00006adc       ??_C@_05PDIO@?5?5?5?$CK?5?$AA@ 00655adc     Reader:inspect.obj
 0003:00006ae4       ??_C@_0CF@GMCH@?9?9?9?9?9?9?9?9?9?9?9?9?9?9?9?9?9?9?9?9?9?9?9?9?9?9?9?9?9?9?9?9@ 00655ae4     Reader:inspect.obj
 0003:00006b0c       ??_C@_0DA@NCLO@?$FL117?$FN?5loose?5delimiter?5?$HOS?5in?5prog@ 00655b0c     Reader:file.obj
 0003:00006b3c       ??_C@_0CC@CNOC@?$FL118?$FN?5read?5wrong?5char?5?$HOS?5after?5?$HO@ 00655b3c     Reader:file.obj
 0003:00006b60       ??_C@_0CG@HHJF@?$FL119?$FN?5read?5?$HOS?5instead?5of?5a?5?$HOS?5in@ 00655b60     Reader:file.obj
 0003:00006b88       ??_C@_03IFF@?$FN?3?6?$AA@  00655b88     Reader:file.obj
 0003:00006b8c       ??_C@_0BJ@LIHC@?9?9?9?9?5Syntax?5Error?$FLline?3?5?$AA@ 00655b8c     Reader:file.obj
 0003:00006ba8       ??_C@_03NLEC@?5?6?6?$AA@   00655ba8     Reader:file.obj
 0003:00006bac       ??_C@_06HAMA@?$CJ?$FN?6?9?9?5?$AA@ 00655bac     Reader:file.obj
 0003:00006bb4       ??_C@_04NGPO@?6?9?9?5?$AA@ 00655bb4     Reader:file.obj
 0003:00006bbc       ??_C@_0CD@BBHA@?$FL120?$FN?5the?5file?5?$HOA?5cannot?5be?5open@ 00655bbc     Reader:file.obj
 0003:00006be0       ??_C@_01LHO@r?$AA@         00655be0     Reader:file.obj
 0003:00006be4       ??_C@_03HDNL@?4cl?$AA@     00655be4     Reader:file.obj
 0003:00006be8       ??_C@_0BN@FELO@?9?9?9?9?5?$FLload?5CLAIRE?5file?3?5?$HOA?$FN?6?$AA@ 00655be8     Reader:file.obj
 0003:00006c08       ??_C@_0BO@BHIO@?9?9?9?9?5?$FLeload?5CLAIRE?5file?3?5?$HOA?$FN?6?$AA@ 00655c08     Reader:file.obj
 0003:00006c28       ??_C@_0BH@HNJH@?$FL117?$FN?5Loose?5?$HOS?5in?5file?$AA@ 00655c28     Reader:file.obj
 0003:00006c40       ??_C@_0DE@EBBG@?$CK?$CK?$CK?$CK?$CK?$CK?5ERROR?$FL121?$FN?3?5unprintable?5e@ 00655c40     Reader:file.obj
 0003:00006c74       ??_C@_06KFIN@?5is?5a?5?$AA@ 00655c74     Reader:file.obj
 0003:00006c7c       ??_C@_0BH@FHFL@?$FL?$DP?$DP?$FN?5?$HOA?5is?5not?5a?5float?$AA@ 00655c7c     Reader:file.obj
 0003:00006c94       ??_C@_0CE@JCAI@?$FL164?$FN?5?$HOS?5cannot?5be?5assigned?5with@ 00655c94     Reader:syntax.obj
 0003:00006cb8       ??_C@_0CA@FAFN@?$FL165?$FN?5?$HOS?5is?5illegal?5after?5a?5let?$AA@ 00655cb8     Reader:syntax.obj
 0003:00006cd8       ??_C@_0CB@JLAH@?$FL165?$FN?5?$HOS?5is?5illegal?5after?5a?5when@ 00655cd8     Reader:syntax.obj
 0003:00006cfc       ??_C@_0BK@CJG@?$FL161?$FN?5missing?5?$HOS?5after?5?$HOS?$AA@ 00655cfc     Reader:syntax.obj
 0003:00006d18       ??_C@_0BO@BDPO@?$FL167?$FN?5missing?5?$CJ?5or?5?0?5after?5?$HOS?$AA@ 00655d18     Reader:syntax.obj
 0003:00006d38       ??_C@_0BO@KDEE@?$FL166?$FN?5Missing?5?$CI?5after?5case?5?$HOS?$AA@ 00655d38     Reader:syntax.obj
 0003:00006d58       ??_C@_0CL@LBKE@?$FL169?$FN?5missing?5separation?5between@ 00655d58     Reader:syntax.obj
 0003:00006d84       ??_C@_0BN@MENE@?$FL168?$FN?5missing?5?$HM?5in?5selection?$AA@ 00655d84     Reader:syntax.obj
 0003:00006da4       ??_C@_0DD@LGLI@?$FL170?$FN?5cannot?5use?5a?5variable?5?$CI?$HOS?$CJ@ 00655da4     Reader:syntax.obj
 0003:00006dd8       ??_C@_0CG@LMFA@?$FL170?$FN?5cannot?5use?5?$HOS?5in?5a?5set?5con@ 00655dd8     Reader:syntax.obj
 0003:00006e00       ??_C@_0CO@ILM@?$FL171?$FN?5Read?5the?5character?5?$HOS?5insi@ 00655e00     Reader:syntax.obj
 0003:00006e30       ??_C@_0CE@BAOB@?$FL173?$FN?5Expression?5starting?5with?5e@ 00655e30     Reader:syntax.obj
 0003:00006e54       ??_C@_0CK@LCKJ@?$FL172?$FN?5the?5sequence?5?4?4?4?$HOS?5must?5en@ 00655e54     Reader:syntax.obj
 0003:00006e80       ??_C@_0CI@MNDD@?$FL174?$FN?5Wrong?5instantiation?5list?5?$HO@ 00655e80     Reader:syntax.obj
 0003:00006ea8       ??_C@_0CC@GCNG@?$FL149?$FN?5wrong?5keyword?5?$CI?$HOS?$CJ?5after?5?$HO@ 00655ea8     Reader:syntax.obj
 0003:00006ecc       ??_C@_0BK@IDMJ@?$FL176?$FN?5Missing?5?$FN?5after?5?$HOS?5?$AA@ 00655ecc     Reader:syntax.obj
 0003:00006ee8       ??_C@_0BO@DGMC@?$FL175?$FN?5Wrong?5form?5?$HOS?5in?5?$HOS?$CI?$HOS?$CJ?$AA@ 00655ee8     Reader:syntax.obj
 0003:00006f08       ??_C@_0BP@EAEM@?$FL151?$FN?5?$HOS?5not?5allowed?5after?5?$HOS?6?$AA@ 00655f08     Reader:read.obj
 0003:00006f28       ??_C@_0DC@JFFN@?$FL152?$FN?5Separation?5missing?5between@ 00655f28     Reader:read.obj
 0003:00006f5c       ??_C@_0CC@MFOF@?$FL150?$FN?5Illegal?5use?5of?5?3?$HOS?5after?5?$HO@ 00655f5c     Reader:read.obj
 0003:00006f80       ??_C@_0BI@JEBC@?$FL154?$FN?5?$HOS?$DM?$HOS?5not?5allowed?$AA@ 00655f80     Reader:read.obj
 0003:00006f98       ??_C@_0BP@HOIJ@?$FL153?$FN?5eof?5inside?5an?5expression?$AA@ 00655f98     Reader:read.obj
 0003:00006fb8       ??_C@_0BM@GKOM@?$FL159?$FN?5missing?5?$CI?5after?5?$HOS?$EA?$HOS?$AA@ 00655fb8     Reader:read.obj
 0003:00006fd4       ??_C@_0BP@DGOA@?$FL158?$FN?5wrong?5type?5in?5call?5?$HOS?$EA?$HOS?$AA@ 00655fd4     Reader:read.obj
 0003:00006ff4       ??_C@_0BN@LPAG@?$FL157?$FN?5?$HOS?5cannot?5follow?5list?$HL?$AA@ 00655ff4     Reader:read.obj
 0003:00007014       ??_C@_0CE@NGOP@?$FL156?$FN?5wrong?5use?5of?5exists?$CI?$HOS?5?$HOS?5@ 00656014     Reader:read.obj
 0003:00007038       ??_C@_0CD@GCGJ@?$FL155?$FN?5missing?5?$HM?5in?5exists?5?1?5fora@ 00656038     Reader:read.obj
 0003:0000705c       ??_C@_0CC@GEBB@?$FL160?$FN?5wrong?5use?5of?5special?5char?5@ 0065605c     Reader:read.obj
 0003:00007080       ??_C@_0CC@OMEE@?$FL161?$FN?5Missing?5keyword?5?$HOS?5after?5?$HO@ 00656080     Reader:read.obj
 0003:000070a4       ??_C@_0CE@EN@?$FL162?$FN?5Missing?5separator?5?$HOS?5after@ 006560a4     Reader:read.obj
 0003:000070c8       ??_C@_0CC@LEG@?$FL163?$FN?5wrong?5separator?5?$HOS?5after?5?$HO@ 006560c8     Reader:read.obj
 0003:000070ec       ??_C@_03MGLN@?2n?$CC?$AA@  006560ec     Reader:read.obj
 0003:000070f0       ??_C@_02DNGC@?0?$CC?$AA@   006560f0     Reader:read.obj
 0003:000070f4       ??_C@_06EABA@trace?$CI?$AA@ 006560f4     Reader:read.obj
 0003:000070fc       ??_C@_07MLCL@assert?$CI?$AA@ 006560fc     Reader:read.obj
 0003:00007104       ??_C@_02FCOO@?1?1?$AA@     00656104     Reader:read.obj
 0003:00031360       ?CTRUE@@3PAVClaireBoolean@@A 00680360     Kernel:Kernel.obj
 0003:00031364       ??_C@_07BMMC@keyword?$AA@  00680364     Kernel:Kernel.obj
 0003:0003136c       ??_C@_0P@ODFJ@unbound_symbol?$AA@ 0068036c     Kernel:Kernel.obj
 0003:0003137c       ??_C@_06GMLA@system?$AA@   0068037c     Kernel:Kernel.obj
 0003:00031384       ??_C@_0M@PHAJ@environment?$AA@ 00680384     Kernel:Kernel.obj
 0003:00031390       ??_C@_0N@HBPC@system_error?$AA@ 00680390     Kernel:Kernel.obj
 0003:000313a0       ??_C@_09FAG@exception?$AA@ 006803a0     Kernel:Kernel.obj
 0003:000313ac       ??_C@_05FABL@table?$AA@    006803ac     Kernel:Kernel.obj
 0003:000313b4       ??_C@_09CFMM@operation?$AA@ 006803b4     Kernel:Kernel.obj
 0003:000313c0       ??_C@_08LJOF@relation?$AA@ 006803c0     Kernel:Kernel.obj
 0003:000313cc       ??_C@_04KENI@char?$AA@     006803cc     Kernel:Kernel.obj
 0003:000313d4       ??_C@_06IM@method?$AA@     006803d4     Kernel:Kernel.obj
 0003:000313dc       ??_C@_0N@BOGC@system_thing?$AA@ 006803dc     Kernel:Kernel.obj
 0003:000313ec       ??_C@_05EBCM@thing?$AA@    006803ec     Kernel:Kernel.obj
 0003:000313f4       ??_C@_08NDGK@listargs?$AA@ 006803f4     Kernel:Kernel.obj
 0003:00031400       ??_C@_03KIMK@bag?$AA@      00680400     Kernel:Kernel.obj
 0003:00031404       ??_C@_0L@PGGG@collection?$AA@ 00680404     Kernel:Kernel.obj
 0003:00031410       ??_C@_08JJOG@function?$AA@ 00680410     Kernel:Kernel.obj
 0003:0003141c       ??_C@_0O@MHED@system_object?$AA@ 0068041c     Kernel:Kernel.obj
 0003:0003142c       ??_C@_04IOEK@port?$AA@     0068042c     Kernel:Kernel.obj
 0003:00031434       ??_C@_05MHID@array?$AA@    00680434     Kernel:Kernel.obj
 0003:0003143c       ??_C@_06EMNG@string?$AA@   0068043c     Kernel:Kernel.obj
 0003:00031444       ??_C@_06EGIC@import?$AA@   00680444     Kernel:Kernel.obj
 0003:0003144c       ??_C@_09HOEO@primitive?$AA@ 0068044c     Kernel:Kernel.obj
 0003:00031458       ??_C@_06CHBM@object?$AA@   00680458     Kernel:Kernel.obj
 0003:00031460       ??_C@_07KBFM@integer?$AA@  00680460     Kernel:Kernel.obj
 0003:00031468       ??_C@_08ELGP@external?$AA@ 00680468     Kernel:Kernel.obj
 0003:00031474       ??_C@_0O@MGJP@count_trigger?$AA@ 00680474     Kernel:Kernel.obj
 0003:00031484       ??_C@_0M@HOGJ@count_level?$AA@ 00680484     Kernel:Kernel.obj
 0003:00031490       ??_C@_0L@DJOH@count_call?$AA@ 00680490     Kernel:Kernel.obj
 0003:0003149c       ??_C@_0L@EGKB@last_index?$AA@ 0068049c     Kernel:Kernel.obj
 0003:000314a8       ??_C@_0L@MKO@last_debug?$AA@ 006804a8     Kernel:Kernel.obj
 0003:000314b4       ??_C@_06CKBL@ctrace?$AA@   006804b4     Kernel:Kernel.obj
 0003:000314bc       ??_C@_04NFMI@cout?$AA@     006804bc     Kernel:Kernel.obj
 0003:000314c4       ??_C@_09MALM@ephemeral?$AA@ 006804c4     Kernel:Kernel.obj
 0003:000314d0       ??_C@_04KHOB@open?$AA@     006804d0     Kernel:Kernel.obj
 0003:000314d8       ??_C@_07FMEP@default?$AA@  006804d8     Kernel:Kernel.obj
 0003:000314e0       ??_C@_05OHAA@final?$AA@    006804e0     Kernel:Kernel.obj
 0003:000314e8       ??_C@_08BPFA@abstract?$AA@ 006804e8     Kernel:Kernel.obj
 0003:000314f4       ??_C@_05JMGP@close?$AA@    006804f4     Kernel:Kernel.obj
 0003:000314fc       ??_C@_04GMNC@spy?$CB?$AA@  006804fc     Kernel:Kernel.obj
 0003:00031504       ??_C@_0L@DEHC@exception?$CB?$AA@ 00680504     Kernel:Kernel.obj
 0003:00031510       ??_C@_07KNLF@verbose?$AA@  00680510     Kernel:Kernel.obj
 0003:00031518       ??_C@_07COOL@inline?$DP?$AA@ 00680518     Kernel:Kernel.obj
 0003:00031520       ??_C@_04JJMM@uses?$AA@     00680520     Kernel:Kernel.obj
 0003:00031528       ??_C@_06LOOG@source?$AA@   00680528     Kernel:Kernel.obj
 0003:00031530       ??_C@_07DEBJ@made_of?$AA@  00680530     Kernel:Kernel.obj
 0003:00031538       ??_C@_07IPNE@part_of?$AA@  00680538     Kernel:Kernel.obj
 0003:00031540       ??_C@_05HIBL@parts?$AA@    00680540     Kernel:Kernel.obj
 0003:00031548       ??_C@_06DKLM@status?$AA@   00680548     Kernel:Kernel.obj
 0003:00031550       ??_C@_0L@DJKH@precedence?$AA@ 00680550     Kernel:Kernel.obj
 0003:0003155c       ??_C@_0L@GOIH@functional?$AA@ 0068055c     Kernel:Kernel.obj
 0003:00031568       ??_C@_03PKH@arg?$AA@       00680568     Kernel:Kernel.obj
 0003:0003156c       ??_C@_0N@HFKL@multivalued?$DP?$AA@ 0068056c     Kernel:Kernel.obj
 0003:0003157c       ??_C@_06BCDK@store?$DP?$AA@ 0068057c     Kernel:Kernel.obj
 0003:00031584       ??_C@_08NDDG@if_write?$AA@ 00680584     Kernel:Kernel.obj
 0003:00031590       ??_C@_04NIOK@body?$AA@     00680590     Kernel:Kernel.obj
 0003:00031598       ??_C@_07BDIG@formula?$AA@  00680598     Kernel:Kernel.obj
 0003:000315a0       ??_C@_08OMHO@evaluate?$AA@ 006805a0     Kernel:Kernel.obj
 0003:000315ac       ??_C@_07EMFJ@module?$CB?$AA@ 006805ac     Kernel:Kernel.obj
 0003:000315b4       ??_C@_06JCM@debug?$CB?$AA@ 006805b4     Kernel:Kernel.obj
 0003:000315bc       ??_C@_04PIEA@base?$AA@     006805bc     Kernel:Kernel.obj
 0003:000315c4       ??_C@_07DLPD@inverse?$AA@  006805c4     Kernel:Kernel.obj
 0003:000315cc       ??_C@_0L@NIJD@definition?$AA@ 006805cc     Kernel:Kernel.obj
 0003:000315d8       ??_C@_0N@DKMN@restrictions?$AA@ 006805d8     Kernel:Kernel.obj
 0003:000315e8       ??_C@_06LODP@trace?$CB?$AA@ 006805e8     Kernel:Kernel.obj
 0003:000315f0       ??_C@_06POGP@srange?$AA@   006805f0     Kernel:Kernel.obj
 0003:000315f8       ??_C@_08CCMG@selector?$AA@ 006805f8     Kernel:Kernel.obj
 0003:00031604       ??_C@_05MGIA@range?$AA@    00680604     Kernel:Kernel.obj
 0003:0003160c       ??_C@_06JHGE@domain?$AA@   0068060c     Kernel:Kernel.obj
 0003:00031614       ??_C@_05KPOJ@graph?$AA@    00680614     Kernel:Kernel.obj
 0003:0003161c       ??_C@_07DKAN@reified?$AA@  0068061c     Kernel:Kernel.obj
 0003:00031624       ??_C@_0L@MOFP@dispatcher?$AA@ 00680624     Kernel:Kernel.obj
 0003:00031630       ??_C@_0L@EACF@dictionary?$AA@ 00680630     Kernel:Kernel.obj
 0003:0003163c       ??_C@_06CJJO@ident?$DP?$AA@ 0068063c     Kernel:Kernel.obj
 0003:00031644       ??_C@_04KKCM@code?$AA@     00680644     Kernel:Kernel.obj
 0003:0003164c       ??_C@_06HILF@params?$AA@   0068064c     Kernel:Kernel.obj
 0003:00031654       ??_C@_09GNNK@prototype?$AA@ 00680654     Kernel:Kernel.obj
 0003:00031660       ??_C@_09MMGO@instances?$AA@ 00680660     Kernel:Kernel.obj
 0003:0003166c       ??_C@_0M@PGLC@descendents?$AA@ 0068066c     Kernel:Kernel.obj
 0003:00031678       ??_C@_09FMMO@ancestors?$AA@ 00680678     Kernel:Kernel.obj
 0003:00031684       ??_C@_08BPEK@subclass?$AA@ 00680684     Kernel:Kernel.obj
 0003:00031690       ??_C@_0L@CEDM@superclass?$AA@ 00680690     Kernel:Kernel.obj
 0003:0003169c       ??_C@_05KJGN@slots?$AA@    0068069c     Kernel:Kernel.obj
 0003:000316a4       ??_C@_07EBEE@comment?$AA@  006806a4     Kernel:Kernel.obj
 0003:000316ac       ??_C@_05FO@sname?$AA@      006806ac     Kernel:Kernel.obj
 0003:000316b4       ??_C@_04OPJK@name?$AA@     006806b4     Kernel:Kernel.obj
 0003:000316bc       ??_C@_03HGMK@isa?$AA@      006806bc     Kernel:Kernel.obj
 0003:000316c0       ??_C@_07HGCO@boolean?$AA@  006806c0     Kernel:Kernel.obj
 0003:000316c8       ??_C@_04BMNE@void?$AA@     006806c8     Kernel:Kernel.obj
 0003:000316d0       ??_C@_05PIME@float?$AA@    006806d0     Kernel:Kernel.obj
 0003:000316d8       ??_C@_04PIKN@type?$AA@     006806d8     Kernel:Kernel.obj
 0003:000316e0       ??_C@_03IIEK@any?$AA@      006806e0     Kernel:Kernel.obj
 0003:000316e4       ??_C@_04IEHK@slot?$AA@     006806e4     Kernel:Kernel.obj
 0003:000316ec       ??_C@_0M@CEHF@restriction?$AA@ 006806ec     Kernel:Kernel.obj
 0003:000316f8       ??_C@_08DKJK@property?$AA@ 006806f8     Kernel:Kernel.obj
 0003:00031704       ??_C@_07MGEE@private?$AA@  00680704     Kernel:Kernel.obj
 0003:0003170c       ??_C@_09DEML@NoDefault?$AA@ 0068070c     Kernel:Kernel.obj
 0003:00031718       ??_C@_06DDGG@symbol?$AA@   00680718     Kernel:Kernel.obj
 0003:00031720       ??_C@_06DGGK@Kernel?$AA@   00680720     Kernel:Kernel.obj
 0003:00031728       ??_C@_07NMLD@mClaire?$AA@  00680728     Kernel:Kernel.obj
 0003:00031730       ??_C@_06PPAF@claire?$AA@   00680730     Kernel:Kernel.obj
 0003:00031738       ??_C@_06CODG@module?$AA@   00680738     Kernel:Kernel.obj
 0003:00031740       ??_C@_05LGKP@class?$AA@    00680740     Kernel:Kernel.obj
 0003:00031748       ??_C@_0BD@EJB@restore_state_void?$AA@ 00680748     Kernel:Kernel.obj
 0003:0003175c       ??_C@_0N@PDFE@world_get_id?$AA@ 0068075c     Kernel:Kernel.obj
 0003:0003176c       ??_C@_0N@MDPJ@world_number?$AA@ 0068076c     Kernel:Kernel.obj
 0003:0003177c       ??_C@_0BA@FLDN@world_slaughter?$AA@ 0068077c     Kernel:Kernel.obj
 0003:0003178c       ??_C@_0N@EHBF@world_remove?$AA@ 0068078c     Kernel:Kernel.obj
 0003:0003179c       ??_C@_09KMMN@world_pop?$AA@ 0068079c     Kernel:Kernel.obj
 0003:000317a8       ??_C@_0L@ECDJ@world_push?$AA@ 006807a8     Kernel:Kernel.obj
 0003:000317b4       ??_C@_09GDCK@store_add?$AA@ 006807b4     Kernel:Kernel.obj
 0003:000317c0       ??_C@_0N@ENLM@store_object?$AA@ 006807c0     Kernel:Kernel.obj
 0003:000317d0       ??_C@_0M@GHBA@store_array?$AA@ 006807d0     Kernel:Kernel.obj
 0003:000317dc       ??_C@_0L@NOA@store_list?$AA@ 006807dc     Kernel:Kernel.obj
 0003:000317e8       ??_C@_0BC@ILPH@string_I_function?$AA@ 006807e8     Kernel:Kernel.obj
 0003:000317fc       ??_C@_0BF@CBDF@stack_apply_function?$AA@ 006807fc     Kernel:Kernel.obj
 0003:00031814       ??_C@_06BMHJ@fcall3?$AA@   00680814     Kernel:Kernel.obj
 0003:0003181c       ??_C@_06LGOO@fcall2?$AA@   0068081c     Kernel:Kernel.obj
 0003:00031824       ??_C@_06EJFH@fcall1?$AA@   00680824     Kernel:Kernel.obj
 0003:0003182c       ??_C@_09POKN@stack_add?$AA@ 0068082c     Kernel:Kernel.obj
 0003:00031838       ??_C@_0BA@KINP@close_exception?$AA@ 00680838     Kernel:Kernel.obj
 0003:00031848       ??_C@_0P@HOMH@integer_I_char?$AA@ 00680848     Kernel:Kernel.obj
 0003:00031858       ??_C@_0L@LPOG@claire_mem?$AA@ 00680858     Kernel:Kernel.obj
 0003:00031864       ??_C@_0P@MOKP@c_princ_string?$AA@ 00680864     Kernel:Kernel.obj
 0003:00031874       ??_C@_09BEHE@c_princ_c?$AA@ 00680874     Kernel:Kernel.obj
 0003:00031880       ??_C@_0L@MACG@princ_char?$AA@ 00680880     Kernel:Kernel.obj
 0003:0003188c       ??_C@_0BB@LDH@_sup_equal_float?$AA@ 0068088c     Kernel:Kernel.obj
 0003:000318a0       ??_C@_0BC@NOOG@_sup_equal_float_?$AA@ 006808a0     Kernel:Kernel.obj
 0003:000318b4       ??_C@_0L@JBJN@_sup_float?$AA@ 006808b4     Kernel:Kernel.obj
 0003:000318c0       ??_C@_0N@DKKM@?$CK_sup_float_?$AA@ 006808c0     Kernel:Kernel.obj
 0003:000318d0       ??_C@_0BB@KHKM@_inf_equal_float?$AA@ 006808d0     Kernel:Kernel.obj
 0003:000318e4       ??_C@_0BC@DDEK@_inf_equal_float_?$AA@ 006808e4     Kernel:Kernel.obj
 0003:000318f8       ??_C@_0L@DGAH@_inf_float?$AA@ 006808f8     Kernel:Kernel.obj
 0003:00031904       ??_C@_0M@OMNL@_inf_float_?$AA@ 00680904     Kernel:Kernel.obj
 0003:00031910       ??_C@_0BA@CKBO@integer_I_float?$AA@ 00680910     Kernel:Kernel.obj
 0003:00031920       ??_C@_0BB@KKMH@integer_I_float_?$AA@ 00680920     Kernel:Kernel.obj
 0003:00031934       ??_C@_09DLAJ@to_float?5?$AA@ 00680934     Kernel:Kernel.obj
 0003:00031940       ??_C@_09GEAE@to_float_?$AA@ 00680940     Kernel:Kernel.obj
 0003:0003194c       ??_C@_0O@LEFA@princ_integer?$AA@ 0068094c     Kernel:Kernel.obj
 0003:0003195c       ??_C@_0O@JGMN@times_integer?$AA@ 0068095c     Kernel:Kernel.obj
 0003:0003196c       ??_C@_05HLMP@srand?$AA@    0068096c     Kernel:Kernel.obj
 0003:00031974       ??_C@_0P@KKIK@random_integer?$AA@ 00680974     Kernel:Kernel.obj
 0003:00031984       ??_C@_0BE@GBGA@make_string_integer?$AA@ 00680984     Kernel:Kernel.obj
 0003:00031998       ??_C@_0BC@LPFA@string_I_integer?5?$AA@ 00680998     Kernel:Kernel.obj
 0003:000319ac       ??_C@_0P@CIJK@char_I_integer?$AA@ 006809ac     Kernel:Kernel.obj
 0003:000319bc       ??_C@_0N@JPHN@exp2_integer?$AA@ 006809bc     Kernel:Kernel.obj
 0003:000319cc       ??_C@_0N@JMLO@_exp_integer?$AA@ 006809cc     Kernel:Kernel.obj
 0003:000319dc       ??_C@_0L@GODJ@_7_integer?$AA@ 006809dc     Kernel:Kernel.obj
 0003:000319e8       ??_C@_0BB@ENLE@integer_I_symbol?$AA@ 006809e8     Kernel:Kernel.obj
 0003:000319fc       ??_C@_0P@PNMN@symbol?$CB_string?$AA@ 006809fc     Kernel:Kernel.obj
 0003:00031a0c       ??_C@_0L@KOCO@put_symbol?$AA@ 00680a0c     Kernel:Kernel.obj
 0003:00031a18       ??_C@_0BA@FJEM@string_I_symbol?$AA@ 00680a18     Kernel:Kernel.obj
 0003:00031a28       ??_C@_0P@LAKE@defined_symbol?$AA@ 00680a28     Kernel:Kernel.obj
 0003:00031a38       ??_C@_0N@DPFA@princ_symbol?$AA@ 00680a38     Kernel:Kernel.obj
 0003:00031a48       ??_C@_0O@HEDH@append_symbol?$AA@ 00680a48     Kernel:Kernel.obj
 0003:00031a58       ??_C@_0L@NGD@end_module?$AA@ 00680a58     Kernel:Kernel.obj
 0003:00031a64       ??_C@_0N@CCKJ@begin_module?$AA@ 00680a64     Kernel:Kernel.obj
 0003:00031a74       ??_C@_0M@FFJC@free_I_port?$AA@ 00680a74     Kernel:Kernel.obj
 0003:00031a80       ??_C@_0BA@MAHI@read_thing_port?$AA@ 00680a80     Kernel:Kernel.obj
 0003:00031a90       ??_C@_0BB@MPFF@read_number_port?$AA@ 00680a90     Kernel:Kernel.obj
 0003:00031aa4       ??_C@_0BA@GMMI@read_ident_port?$AA@ 00680aa4     Kernel:Kernel.obj
 0003:00031ab4       ??_C@_0BB@ICKI@read_string_port?$AA@ 00680ab4     Kernel:Kernel.obj
 0003:00031ac8       ??_C@_0BA@PGKC@set_length_port?$AA@ 00680ac8     Kernel:Kernel.obj
 0003:00031ad8       ??_C@_0M@LHFP@length_port?$AA@ 00680ad8     Kernel:Kernel.obj
 0003:00031ae4       ??_C@_0O@LMLK@string_I_port?$AA@ 00680ae4     Kernel:Kernel.obj
 0003:00031af4       ??_C@_0O@NJFJ@port_I_string?$AA@ 00680af4     Kernel:Kernel.obj
 0003:00031b04       ??_C@_0M@IDJA@port_I_void?$AA@ 00680b04     Kernel:Kernel.obj
 0003:00031b10       ??_C@_0N@DOII@fopen_string?$AA@ 00680b10     Kernel:Kernel.obj
 0003:00031b20       ??_C@_0O@IGHM@pushback_port?$AA@ 00680b20     Kernel:Kernel.obj
 0003:00031b30       ??_C@_09FALD@getc_port?$AA@ 00680b30     Kernel:Kernel.obj
 0003:00031b3c       ??_C@_09JDLC@putc_char?$AA@ 00680b3c     Kernel:Kernel.obj
 0003:00031b48       ??_C@_0M@HEJO@fclose_port?$AA@ 00680b48     Kernel:Kernel.obj
 0003:00031b54       ??_C@_0BD@OMFG@use_as_output_port?$AA@ 00680b54     Kernel:Kernel.obj
 0003:00031b68       ??_C@_0P@KKJF@date_I_integer?$AA@ 00680b68     Kernel:Kernel.obj
 0003:00031b78       ??_C@_0O@CDMH@shrink_string?$AA@ 00680b78     Kernel:Kernel.obj
 0003:00031b88       ??_C@_0P@PPJF@nth_set_string?$AA@ 00680b88     Kernel:Kernel.obj
 0003:00031b98       ??_C@_0L@FCEK@nth_string?$AA@ 00680b98     Kernel:Kernel.obj
 0003:00031ba4       ??_C@_0BA@MCEH@included_string?$AA@ 00680ba4     Kernel:Kernel.obj
 0003:00031bb4       ??_C@_0N@COIL@_less_string?$AA@ 00680bb4     Kernel:Kernel.obj
 0003:00031bc4       ??_C@_0L@KGHH@get_string?$AA@ 00680bc4     Kernel:Kernel.obj
 0003:00031bd0       ??_C@_0BB@DCCA@substring_string?$AA@ 00680bd0     Kernel:Kernel.obj
 0003:00031be4       ??_C@_0BB@DCAE@integer_I_string?$AA@ 00680be4     Kernel:Kernel.obj
 0003:00031bf8       ??_C@_0O@LIH@append_string?$AA@ 00680bf8     Kernel:Kernel.obj
 0003:00031c08       ??_C@_0BC@EKAE@self_print_string?$AA@ 00680c08     Kernel:Kernel.obj
 0003:00031c1c       ??_C@_0N@EAOA@princ_string?$AA@ 00680c1c     Kernel:Kernel.obj
 0003:00031c2c       ??_C@_0M@NDPH@copy_string?$AA@ 00680c2c     Kernel:Kernel.obj
 0003:00031c38       ??_C@_0O@EABG@nth_put_array?$AA@ 00680c38     Kernel:Kernel.obj
 0003:00031c48       ??_C@_08JHIC@of_array?$AA@ 00680c48     Kernel:Kernel.obj
 0003:00031c54       ??_C@_0N@HALK@length_array?$AA@ 00680c54     Kernel:Kernel.obj
 0003:00031c64       ??_C@_0L@OGOD@copy_array?$AA@ 00680c64     Kernel:Kernel.obj
 0003:00031c70       ??_C@_0N@GMBO@list_I_tuple?$AA@ 00680c70     Kernel:Kernel.obj
 0003:00031c80       ??_C@_0L@JAOM@append_set?$AA@ 00680c80     Kernel:Kernel.obj
 0003:00031c8c       ??_C@_0BA@GMEB@contain_ask_set?$AA@ 00680c8c     Kernel:Kernel.obj
 0003:00031c9c       ??_C@_08PBBE@_exp_set?$AA@ 00680c9c     Kernel:Kernel.obj
 0003:00031ca8       ??_C@_09CDGP@add_I_set?$AA@ 00680ca8     Kernel:Kernel.obj
 0003:00031cb4       ??_C@_07FIPA@add_set?$AA@  00680cb4     Kernel:Kernel.obj
 0003:00031cbc       ??_C@_0BB@HMDL@make_string_list?$AA@ 00680cbc     Kernel:Kernel.obj
 0003:00031cd0       ??_C@_0L@KPJH@index_list?$AA@ 00680cd0     Kernel:Kernel.obj
 0003:00031cdc       ??_C@_0BB@LNNF@contain_ask_list?$AA@ 00680cdc     Kernel:Kernel.obj
 0003:00031cf0       ??_C@_0M@LAMD@shrink_list?$AA@ 00680cf0     Kernel:Kernel.obj
 0003:00031cfc       ??_C@_08ECHO@cdr_list?$AA@ 00680cfc     Kernel:Kernel.obj
 0003:00031d08       ??_C@_0P@MGIC@delete_at_list?$AA@ 00680d08     Kernel:Kernel.obj
 0003:00031d18       ??_C@_0M@LAPD@add_at_list?$AA@ 00680d18     Kernel:Kernel.obj
 0003:00031d24       ??_C@_0M@OPCJ@append_list?$AA@ 00680d24     Kernel:Kernel.obj
 0003:00031d30       ??_C@_0O@MHOH@add_star_list?$AA@ 00680d30     Kernel:Kernel.obj
 0003:00031d40       ??_C@_0BC@NBMH@make_list_integer?$AA@ 00680d40     Kernel:Kernel.obj
 0003:00031d54       ??_C@_08KGFF@cons_any?$AA@ 00680d54     Kernel:Kernel.obj
 0003:00031d60       ??_C@_0L@COJK@add_I_list?$AA@ 00680d60     Kernel:Kernel.obj
 0003:00031d6c       ??_C@_08PFOB@add_list?$AA@ 00680d6c     Kernel:Kernel.obj
 0003:00031d78       ??_C@_0L@FHJH@cast_I_bag?$AA@ 00680d78     Kernel:Kernel.obj
 0003:00031d84       ??_C@_06CNAN@of_bag?$AA@   00680d84     Kernel:Kernel.obj
 0003:00031d8c       ??_C@_0L@CPJD@delete_bag?$AA@ 00680d8c     Kernel:Kernel.obj
 0003:00031d98       ??_C@_09KOBM@empty_bag?$AA@ 00680d98     Kernel:Kernel.obj
 0003:00031da4       ??_C@_08ENHG@copy_bag?$AA@ 00680da4     Kernel:Kernel.obj
 0003:00031db0       ??_C@_0N@EMNN@index_table2?$AA@ 00680db0     Kernel:Kernel.obj
 0003:00031dc0       ??_C@_0M@GDCK@index_table?$AA@ 00680dc0     Kernel:Kernel.obj
 0003:00031dcc       ??_C@_0BE@LAGJ@add_method_property?$AA@ 00680dcc     Kernel:Kernel.obj
 0003:00031de0       ??_C@_0N@IPAP@sort_I_class?$AA@ 00680de0     Kernel:Kernel.obj
 0003:00031df0       ??_C@_0P@MBNL@add_slot_class?$AA@ 00680df0     Kernel:Kernel.obj
 0003:00031e00       ??_C@_09OHJN@hash_list?$AA@ 00680e00     Kernel:Kernel.obj
 0003:00031e0c       ??_C@_0O@DDPE@boolean_I_any?$AA@ 00680e0c     Kernel:Kernel.obj
 0003:00031e1c       ??_C@_09OCNJ@belong_to?$AA@ 00680e1c     Kernel:Kernel.obj
 0003:00031e28       ??_C@_0BA@OOHK@slot_get_object?$AA@ 00680e28     Kernel:Kernel.obj
 0003:00031e38       ??_C@_05DPDK@equal?$AA@    00680e38     Kernel:Kernel.obj
 0003:00031e40       ??_C@_0M@LIDN@copy_object?$AA@ 00680e40     Kernel:Kernel.obj
 0003:00031e4c       ??_C@_05DKNA@free?$CB?$AA@ 00680e4c     Kernel:Kernel.obj
 0003:00031e54       ??_C@_05EAJN@empty?$AA@    00680e54     Kernel:Kernel.obj
 0003:00031e5c       ??_C@_05DDDB@date?$CB?$AA@ 00680e5c     Kernel:Kernel.obj
 0003:00031e64       ??_C@_08NPAB@boolean?$CB?$AA@ 00680e64     Kernel:Kernel.obj
 0003:00031e70       ??_C@_07EKEE@symbol?$CB?$AA@ 00680e70     Kernel:Kernel.obj
 0003:00031e78       ??_C@_05JBKJ@cast?$CB?$AA@ 00680e78     Kernel:Kernel.obj
 0003:00031e80       ??_C@_07PGN@member?$DP?$AA@ 00680e80     Kernel:Kernel.obj
 0003:00031e88       ??_C@_08GLH@contain?$DP?$AA@ 00680e88     Kernel:Kernel.obj
 0003:00031e94       ??_C@_08PPCO@world_id?$AA@ 00680e94     Kernel:Kernel.obj
 0003:00031ea0       ??_C@_06CDAD@world?$DP?$AA@ 00680ea0     Kernel:Kernel.obj
 0003:00031ea8       ??_C@_07GEJP@commit0?$AA@  00680ea8     Kernel:Kernel.obj
 0003:00031eb0       ??_C@_06PAN@commit?$AA@    00680eb0     Kernel:Kernel.obj
 0003:00031eb8       ??_C@_09DBHF@backtrack?$AA@ 00680eb8     Kernel:Kernel.obj
 0003:00031ec4       ??_C@_06PGOP@choice?$AA@   00680ec4     Kernel:Kernel.obj
 0003:00031ecc       ??_C@_05PHCB@store?$AA@    00680ecc     Kernel:Kernel.obj
 0003:00031ed4       ??_C@_07IEBA@funcall?$AA@  00680ed4     Kernel:Kernel.obj
 0003:00031edc       ??_C@_08MNJN@fastcall?$AA@ 00680edc     Kernel:Kernel.obj
 0003:00031ee8       ??_C@_0M@LGCL@stack_apply?$AA@ 00680ee8     Kernel:Kernel.obj
 0003:00031ef4       ??_C@_04PHAO@stat?$AA@     00680ef4     Kernel:Kernel.obj
 0003:00031efc       ??_C@_03NNCC@mem?$AA@      00680efc     Kernel:Kernel.obj
 0003:00031f00       ??_C@_07CNPI@c_princ?$AA@  00680f00     Kernel:Kernel.obj
 0003:00031f08       ??_C@_0L@EGII@read_thing?$AA@ 00680f08     Kernel:Kernel.obj
 0003:00031f14       ??_C@_0M@ONEG@read_number?$AA@ 00680f14     Kernel:Kernel.obj
 0003:00031f20       ??_C@_0L@FELJ@read_ident?$AA@ 00680f20     Kernel:Kernel.obj
 0003:00031f2c       ??_C@_0L@LNIH@set_length?$AA@ 00680f2c     Kernel:Kernel.obj
 0003:00031f38       ??_C@_05NEPJ@port?$CB?$AA@ 00680f38     Kernel:Kernel.obj
 0003:00031f40       ??_C@_05GKMA@fopen?$AA@    00680f40     Kernel:Kernel.obj
 0003:00031f48       ??_C@_05PNFO@flush?$AA@    00680f48     Kernel:Kernel.obj
 0003:00031f50       ??_C@_04JOCH@getc?$AA@     00680f50     Kernel:Kernel.obj
 0003:00031f58       ??_C@_03ELEH@put?$AA@      00680f58     Kernel:Kernel.obj
 0003:00031f5c       ??_C@_04BANC@putc?$AA@     00680f5c     Kernel:Kernel.obj
 0003:00031f64       ??_C@_06DNKC@fclose?$AA@   00680f64     Kernel:Kernel.obj
 0003:00031f6c       ??_C@_0O@MLLH@use_as_output?$AA@ 00680f6c     Kernel:Kernel.obj
 0003:00031f7c       ??_C@_02NCLD@?$DO?$DN?$AA@ 00680f7c     Kernel:Kernel.obj
 0003:00031f80       ??_C@_02PPOG@?$DM?$DN?$AA@ 00680f80     Kernel:Kernel.obj
 0003:00031f84       ??_C@_06CBIP@float?$CB?$AA@ 00680f84     Kernel:Kernel.obj
 0003:00031f8c       ??_C@_01FDHG@?$CK?$AA@     00680f8c     Kernel:Kernel.obj
 0003:00031f90       ??_C@_07LKPL@random?$CB?$AA@ 00680f90     Kernel:Kernel.obj
 0003:00031f98       ??_C@_06IMKP@random?$AA@   00680f98     Kernel:Kernel.obj
 0003:00031fa0       ??_C@_0M@DFAK@make_string?$AA@ 00680fa0     Kernel:Kernel.obj
 0003:00031fac       ??_C@_07NODL@string?$CB?$AA@ 00680fac     Kernel:Kernel.obj
 0003:00031fb4       ??_C@_05GMND@char?$CB?$AA@ 00680fb4     Kernel:Kernel.obj
 0003:00031fbc       ??_C@_02KMBJ@?$FO2?$AA@    00680fbc     Kernel:Kernel.obj
 0003:00031fc0       ??_C@_03LLAM@mod?$AA@      00680fc0     Kernel:Kernel.obj
 0003:00031fc4       ??_C@_01GJD@?9?$AA@        00680fc4     Kernel:Kernel.obj
 0003:00031fc8       ??_C@_06BHEF@gensym?$AA@   00680fc8     Kernel:Kernel.obj
 0003:00031fd0       ??_C@_07DLLF@defined?$AA@  00680fd0     Kernel:Kernel.obj
 0003:00031fd8       ??_C@_03DNBD@end?$AA@      00680fd8     Kernel:Kernel.obj
 0003:00031fdc       ??_C@_05PKJE@begin?$AA@    00680fdc     Kernel:Kernel.obj
 0003:00031fe4       ??_C@_04MALE@nth?$DN?$AA@  00680fe4     Kernel:Kernel.obj
 0003:00031fec       ??_C@_03FHNB@nth?$AA@      00680fec     Kernel:Kernel.obj
 0003:00031ff0       ??_C@_03LOOF@get?$AA@      00680ff0     Kernel:Kernel.obj
 0003:00031ff4       ??_C@_09DLHP@substring?$AA@ 00680ff4     Kernel:Kernel.obj
 0003:00032000       ??_C@_08HNG@integer?$CB?$AA@ 00681000     Kernel:Kernel.obj
 0003:0003200c       ??_C@_0L@FOMI@self_print?$AA@ 0068100c     Kernel:Kernel.obj
 0003:00032018       ??_C@_05FOPA@princ?$AA@    00681018     Kernel:Kernel.obj
 0003:00032020       ??_C@_06DMLA@array?$CB?$AA@ 00681020     Kernel:Kernel.obj
 0003:00032028       ??_C@_07KCJK@nth_put?$AA@  00681028     Kernel:Kernel.obj
 0003:00032030       ??_C@_07FHDI@nth_get?$AA@  00681030     Kernel:Kernel.obj
 0003:00032038       ??_C@_02KDKE@of?$AA@       00681038     Kernel:Kernel.obj
 0003:0003203c       ??_C@_06JEAL@length?$AA@   0068103c     Kernel:Kernel.obj
 0003:00032044       ??_C@_02OOND@?4?4?$AA@     00681044     Kernel:Kernel.obj
 0003:00032048       ??_C@_05NKOJ@list?$CB?$AA@ 00681048     Kernel:Kernel.obj
 0003:00032050       ??_C@_04KOKA@set?$CB?$AA@  00681050     Kernel:Kernel.obj
 0003:00032058       ??_C@_01KHHK@?$FO?$AA@     00681058     Kernel:Kernel.obj
 0003:0003205c       ??_C@_06DBNI@shrink?$AA@   0068105c     Kernel:Kernel.obj
 0003:00032064       ??_C@_03BPGH@cdr?$AA@      00681064     Kernel:Kernel.obj
 0003:00032068       ??_C@_04GJME@nth?9?$AA@    00681068     Kernel:Kernel.obj
 0003:00032070       ??_C@_04JGLG@nth?$CL?$AA@  00681070     Kernel:Kernel.obj
 0003:00032078       ??_C@_02PILC@?1?$CL?$AA@   00681078     Kernel:Kernel.obj
 0003:0003207c       ??_C@_04CCJL@add?$CK?$AA@  0068107c     Kernel:Kernel.obj
 0003:00032084       ??_C@_09NPCD@make_list?$AA@ 00681084     Kernel:Kernel.obj
 0003:00032090       ??_C@_04GECP@cons?$AA@     00681090     Kernel:Kernel.obj
 0003:00032098       ??_C@_04IJJK@add?$CB?$AA@  00681098     Kernel:Kernel.obj
 0003:000320a0       ??_C@_03ONEI@add?$AA@      006810a0     Kernel:Kernel.obj
 0003:000320a4       ??_C@_06IDPA@delete?$AA@   006810a4     Kernel:Kernel.obj
 0003:000320ac       ??_C@_0L@IKAB@add_method?$AA@ 006810ac     Kernel:Kernel.obj
 0003:000320b8       ??_C@_05DEJG@sort?$CB?$AA@ 006810b8     Kernel:Kernel.obj
 0003:000320c0       ??_C@_08OPPF@add_slot?$AA@ 006810c0     Kernel:Kernel.obj
 0003:000320cc       ??_C@_04MMAH@hash?$AA@     006810cc     Kernel:Kernel.obj
 0003:000320d4       ??_C@_01FCCL@?$CF?$AA@     006810d4     Kernel:Kernel.obj
 0003:000320d8       ??_C@_08JEPH@slot_get?$AA@ 006810d8     Kernel:Kernel.obj
 0003:000320e4       ??_C@_04MNLL@copy?$AA@     006810e4     Kernel:Kernel.obj
 0003:000320f0       ?CLMAXFLOAT@@3NA           006810f0     Kernel:Clstring.obj
 0003:000320f8       ?CLMINFLOAT@@3NA           006810f8     Kernel:Clstring.obj
 0003:00032100       ??_C@_0CD@JJPE@________________________________@ 00681100     Kernel:Clstring.obj
 0003:00032124       ??_C@_0BM@IFAC@problem?5with?5the?5table?5?$CB?$CB?$CB?6?$AA@ 00681124     Kernel:Clstring.obj
 0003:00032140       ??_C@_0BA@COHG@?5position?5is?5?$CFd?$AA@ 00681140     Kernel:Clstring.obj
 0003:00032150       ??_C@_0BK@NFLL@?5string?5is?5?$CFs?0?5module?3?$CFs?6?$AA@ 00681150     Kernel:Clstring.obj
 0003:0003216c       ??_C@_0CP@KPOH@______?5symbol?5debug?5s?5?$DN?5?$CFx?5_____@ 0068116c     Kernel:Clstring.obj
 0003:0003219c       ??_C@_0BL@LLFG@?$DN?$DN?5bug?5because?5of?5cell?5?$CFd?6?$AA@ 0068119c     Kernel:Clalloc.OBJ
 0003:000321b8       ??_C@_05CAEI@Chunk?$AA@    006811b8     Kernel:Clalloc.OBJ
 0003:000321c0       ??_C@_06JDBI@Object?$AA@   006811c0     Kernel:Clalloc.OBJ
 0003:000321c8       ??_C@_0CI@OAHD@ClAlloc?3?3makeAny?$CI?$CFd?$CJ?5?9?$DO?5?$CFx?5?$CIADR?5@ 006811c8     Kernel:Clalloc.OBJ
 0003:000321f0       ??_C@_0BL@DBFK@?$DN?$DN?$DN?$DN?$DN?$DN?5free?5bad?5guy?5?9?$DO?5?$CFd?6?$AA@ 006811f0     Kernel:Clalloc.OBJ
 0003:0003220c       ??_C@_0BL@HAIG@Free?5chain?5OK?3?5?$CFd?5members?6?$AA@ 0068120c     Kernel:Clalloc.OBJ
 0003:00032228       ??_C@_0BO@HDPE@?$FL?$CFd?$FN?5Chaine?5buggee?5?$CFd?5?9?$DO?5?$CFd?5?6?$AA@ 00681228     Kernel:Clalloc.OBJ
 0003:00032248       ??_C@_0M@CBGL@?5?4?4?4?5done?4?6?$AA@ 00681248     Kernel:Clalloc.OBJ
 0003:00032254       ??_C@_03EPOH@?$CFc?$CK?$AA@ 00681254     Kernel:Clalloc.OBJ
 0003:00032258       ??_C@_0BH@ODKK@?$CK?$FLO?$FN?5?$DN?5?$CFd?0?51?3?$CFd?0?52?3?$CFd?6?$AA@ 00681258     Kernel:Clalloc.OBJ
 0003:00032270       ??_C@_0CG@HEPH@?9?9?9?5the?5probe?5is?5?$CFd?5?9?$DO?5adr?5?$DN?5?$CFd?5@ 00681270     Kernel:Clalloc.OBJ
 0003:00032298       ??_C@_0BJ@DJBF@Stack?5overflow?5during?5gc?$AA@ 00681298     Kernel:Clalloc.OBJ
 0003:000322b4       ??_C@_0BL@HONM@probe?5found?5and?5marked?5?9?9?6?$AA@ 006812b4     Kernel:Clalloc.OBJ
 0003:000322d0       ??_C@_0CF@LOAM@primitive?5probe?5found?5and?5marked@ 006812d0     Kernel:Clalloc.OBJ
 0003:000322f8       ??_C@_0P@PMHA@bag?$FL?$CFd?$FN?5?9?$DO?5?$CFd?6?$AA@ 006812f8     Kernel:Clalloc.OBJ
 0003:00032308       ??_C@_0BP@IHBK@bag?5probe?5found?5and?5marked?5?9?9?6?$AA@ 00681308     Kernel:Clalloc.OBJ
 0003:00032328       ??_C@_0BI@HFJI@free?5the?5probe?5chunk?5?$CB?6?$AA@ 00681328     Kernel:Clalloc.OBJ
 0003:00032340       ??_C@_0BP@KDCD@free?5the?5probe?5short?5object?5?$CB?6?$AA@ 00681340     Kernel:Clalloc.OBJ
 0003:00032360       ??_C@_0CK@ODOD@OID?5?$CFd?5?$FLADR?5?$DN?5?$CFd?$FN?5has?5a?5corrupte@ 00681360     Kernel:Clalloc.OBJ
 0003:0003238c       ??_C@_0CB@MBA@OID?5?$CFd?5?$FLADR?5?$DN?5?$CFd?$FN?5has?5been?5freed@ 0068138c     Kernel:Clalloc.OBJ
 0003:000323b0       ??_C@_0BO@JLKJ@OID?5?$CFd?5?$FLADR?5?$DN?5?$CFd?$FN?5has?5size?50?$CB?$AA@ 006813b0     Kernel:Clalloc.OBJ
 0003:000323d0       ??_C@_08OGLI@?5Array?3?5?$AA@ 006813d0     Kernel:Clalloc.OBJ
 0003:000323dc       ??_C@_09OMIM@?5Object?3?5?$AA@ 006813dc     Kernel:Clalloc.OBJ
 0003:000323e8       ??_C@_09OFDP@?6String?3?5?$AA@ 006813e8     Kernel:Clalloc.OBJ
 0003:000323f4       ??_C@_0O@GDPG@?6List?5usage?3?5?$AA@ 006813f4     Kernel:Clalloc.OBJ
 0003:00032404       ??_C@_0BF@FGJI@?5Max?5free?5bag?5size?3?5?$AA@ 00681404     Kernel:Clalloc.OBJ
 0003:0003241c       ??_C@_05JOIP@Bag?3?5?$AA@  0068141c     Kernel:Clalloc.OBJ
 0003:00032424       ??_C@_04DJPA@bag?$CI?$AA@  00681424     Kernel:Clalloc.OBJ
 0003:0003242c       ??_C@_07EHHP@object?$CI?$AA@ 0068142c     Kernel:Clalloc.OBJ
 0003:00032434       ??_C@_06MCJP@array?$CI?$AA@ 00681434     Kernel:Clalloc.OBJ
 0003:0003243c       ??_C@_07CABE@string?$CI?$AA@ 0068143c     Kernel:Clalloc.OBJ
 0003:00032444       ??_C@_0P@NENO@?6World?5stack?3?5?$AA@ 00681444     Kernel:Clalloc.OBJ
 0003:00032454       ??_C@_0BF@LEDB@?6Symbol?5allocation?3?5?$AA@ 00681454     Kernel:Clalloc.OBJ
 0003:0003246c       ??_C@_0BJ@JIOL@?6Short?5item?5allocation?3?5?$AA@ 0068146c     Kernel:Clalloc.OBJ
 0003:00032488       ??_C@_0BE@KEKB@?5used?5cells?5out?5of?5?$AA@ 00681488     Kernel:Clalloc.OBJ
 0003:0003249c       ??_C@_0BD@FBHJ@Chunk?5allocation?3?5?$AA@ 0068149c     Kernel:Clalloc.OBJ
 0003:000324b0       ??_C@_0O@CMLN@Loglist?5?$DN?5?$CFd?6?$AA@ 006814b0     Kernel:Clalloc.OBJ
 0003:000324c0       ??_C@_0BB@PDNN@Badguy?3?5?$CFd?0?5?$CFd?5?6?$AA@ 006814c0     Kernel:Clalloc.OBJ
 0003:000324d4       ??_C@_0DM@KMJI@addFast?3?5complex?5insertion?5of?5OI@ 006814d4     Kernel:Clbag.OBJ
 0003:00032510       ??_C@_0BL@HENP@read?5slot?$FL?$CFd?$FN?5of?5?$CFd?5?9?$DO?5?$CFd?6?$AA@ 00681510     Kernel:Clreflect.obj
 0003:0003252c       ??_C@_02MECO@?$CFd?$AA@    0068152c     Kernel:Clreflect.obj
 0003:00032530       ??_C@_0CJ@COOI@?$DN?$DN?$DN?5class?3?3make?5allocates?5a?5clas@ 00681530     Kernel:Clreflect.obj
 0003:0003255c       ??_C@_0BM@CKBI@create?5a?5new?5?$HM?$CFs?$HM?5?$EA?5adr?5?$CFd?6?$AA@ 0068155c     Kernel:Clreflect.obj
 0003:00032578       ??_C@_0BN@KBFI@?9?9?9?5create?5property?5?$CFs?5?$EA?5?$CFd?6?$AA@ 00681578     Kernel:Clreflect.obj
 0003:00032598       ??_C@_0BJ@EJI@I?5AM?5A?5BLOODY?5CPFile?5?$CB?$CB?6?$AA@ 00681598     Kernel:Clport.obj
 0003:000325b4       ??_C@_02DLJH@?$CFg?$AA@    006815b4     Kernel:Clport.obj
 0003:000325b8       ??_C@_06PEEJ@?$CF0?420g?$AA@ 006815b8     Kernel:Clport.obj
 0003:000325c0       ??_C@_04IFEM@?$CF?41f?$AA@ 006815c0     Kernel:Clport.obj
 0003:000325c8       ??_C@_0CD@EOE@?1?1?5?9?9?9?9?5We?5could?5free?5a?5port?5?3?9?$CJ@ 006815c8     Kernel:Clport.obj
 0003:000325ec       ??_C@_0BI@PMDM@I?5AM?5A?5CPString?5Out?5?$CB?$CB?6?$AA@ 006815ec     Kernel:Clport.obj
 0003:00032604       ??_C@_0BG@JMP@I?5AM?5A?5CPStringIn?5?$CB?$CB?6?$AA@ 00681604     Kernel:Clport.obj
 0003:0003261c       ??_C@_04PNLD@_two?$AA@     0068161c     Kernel:Clport.obj
 0003:00032624       ??_C@_07CLHI@_dollar?$AA@  00681624     Kernel:Clport.obj
 0003:0003262c       ??_C@_06ONBH@_prime?$AA@   0068162c     Kernel:Clport.obj
 0003:00032634       ??_C@_02EILG@L_?$AA@       00681634     Kernel:Clport.obj
 0003:00032638       ??_C@_06FGNM@_brack?$AA@   00681638     Kernel:Clport.obj
 0003:00032640       ??_C@_06GOCL@_tilda?$AA@   00681640     Kernel:Clport.obj
 0003:00032648       ??_C@_03BHEF@_at?$AA@      00681648     Kernel:Clport.obj
 0003:0003264c       ??_C@_04PCOD@_exp?$AA@     0068164c     Kernel:Clport.obj
 0003:00032654       ??_C@_06CCIA@_comma?$AA@   00681654     Kernel:Clport.obj
 0003:0003265c       ??_C@_06EIFA@_equal?$AA@   0068165c     Kernel:Clport.obj
 0003:00032664       ??_C@_04MGKK@_sup?$AA@     00681664     Kernel:Clport.obj
 0003:0003266c       ??_C@_04GBFI@_inf?$AA@     0068166c     Kernel:Clport.obj
 0003:00032674       ??_C@_02EPOC@_I?$AA@       00681674     Kernel:Clport.obj
 0003:00032678       ??_C@_04DGGD@_ask?$AA@     00681678     Kernel:Clport.obj
 0003:00032680       ??_C@_05GCKN@_star?$AA@    00681680     Kernel:Clport.obj
 0003:00032688       ??_C@_02BJCL@_Z?$AA@       00681688     Kernel:Clport.obj
 0003:0003268c       ??_C@_05CGBA@_plus?$AA@    0068168c     Kernel:Clport.obj
 0003:00032694       ??_C@_05BJAO@_dash?$AA@    00681694     Kernel:Clport.obj
 0003:0003269c       ??_C@_04KEMD@_and?$AA@     0068169c     Kernel:Clport.obj
 0003:000326a4       ??_C@_0L@LJCJ@_backslash?$AA@ 006816a4     Kernel:Clport.obj
 0003:000326b0       ??_C@_02LKHI@_7?$AA@       006816b0     Kernel:Clport.obj
 0003:000326b4       ??_C@_04BFF@_dot?$AA@      006816b4     Kernel:Clport.obj
 0003:000326bc       ??_C@_05CKH@ms?4?5?6?$AA@  006816bc     Kernel:Clport.obj
 0003:000326c4       ??_C@_0BB@NFFF@?$FN?5Elapsed?5time?3?5?$AA@ 006816c4     Kernel:Clport.obj
 0003:000326d8       ??_C@_08OMEM@Counter?$FL?$AA@ 006816d8     Kernel:Clport.obj
 0003:000326e8       ?CKernelRelease@@3NA       006816e8     Kernel:Clenv.obj
 0003:000326f0       ??_C@_0P@GBCA@System?5Error?3?5?$AA@ 006816f0     Kernel:Clenv.obj
 0003:00032700       ??_C@_07FELA@?5?$FLline?5?$AA@ 00681700     Kernel:Clenv.obj
 0003:00032708       ??_C@_0BN@BEGA@Assertion?5violation?5in?5file?5?$AA@ 00681708     Kernel:Clenv.obj
 0003:00032728       ??_C@_0CK@JDPK@Aha?5?$CB?5?$FOC?5was?5entered?5on?5a?5PC?5?4?4?4@ 00681728     Kernel:Clenv.obj
 0003:00032754       ??_C@_0DA@BAAD@?6An?5error?5has?5occured?5in?5the?5com@ 00681754     Kernel:Clenv.obj
 0003:00032784       ??_C@_0CK@JLGA@increasing?5memory?5size?5by?52?$FO?$CFd?5a@ 00681784     Console:clConsole.obj
 0003:000327b0       ??_C@_02INOP@?9s?$AA@      006817b0     Console:clConsole.obj
 0003:000327b4       ??_C@_0DK@KICL@There?5is?5not?5enough?5memory?5for?5C@ 006817b4     Console:clConsole.obj
 0003:000327f0       ??_C@_08JOEH@?0?5line?3?5?$AA@ 006817f0     Console:clConsole.obj
 0003:000327fc       ??_C@_0M@PJAG@?9?9?9?9?5file?3?5?$AA@ 006817fc     Console:clConsole.obj
 0003:00032808       ??_C@_03BIJ@?$FN?$DO?5?$AA@ 00681808     Console:clConsole.obj
 0003:0003280c       ??_C@_05PLJF@eval?$FL?$AA@ 0068180c     Console:clConsole.obj
 0003:00032814       ??_C@_02CPLA@?$DO?5?$AA@   00681814     Console:clConsole.obj
 0003:00032818       ??_C@_0CO@MOBO@?$DO?$DO?$DO?$DO?$DO?$DO?$DO?$DO?$DO?$DO?$DO?$DO?$DO?$DO?5please?5fix?5the?5in@ 00681818     Console:clConsole.obj
 0003:00032848       ??_C@_0CA@IELM@d?3?2claire?2v2?49?2src?2make?2init?4cl?$AA@ 00681848     Console:clConsole.obj
 0003:00032868       ??_C@_0CL@PFHB@?9?9?9?9?9?9?9?9?9?9?9?9?9?9?9?5Debug?5?9?9?9?9?9?9?9?9?9?9@ 00681868     Console:clConsole.obj
 0003:00032894       ??_C@_02CEFE@?9f?$AA@      00681894     Console:clConsole.obj
 0003:00032898       ??_C@_0L@MAIF@?$CFs?$FL?$CFd?3?$CFd?$FN?$CI?$AA@ 00681898     Console:clConsole.obj
 0003:000328a4       ??_C@_07NPDM@?$DM?$CFs?3?$CFd?$DO?$AA@ 006818a4     Console:clConsole.obj
 0003:000328ac       ??_C@_07BKHE@method?$DM?$AA@ 006818ac     Console:clConsole.obj
 0003:000328b4       ??_C@_05NPA@slot?$DM?$AA@  006818b4     Console:clConsole.obj
 0003:000328bc       ??_C@_04ELGI@?8?$CFc?8?$AA@ 006818bc     Console:clConsole.obj
 0003:000328c4       ??_C@_06GNAI@CFALSE?$AA@   006818c4     Console:clConsole.obj
 0003:000328cc       ??_C@_05FEDN@CTRUE?$AA@    006818cc     Console:clConsole.obj
 0003:000328d4       ??_C@_03MEAP@?8?$CFs?$AA@  006818d4     Console:clConsole.obj
 0003:000328d8       ??_C@_06HLEI@?$EA?$CFd?6?0?5?$AA@ 006818d8     Console:clConsole.obj
 0003:000328e0       ??_C@_05CLBC@EMPTY?$AA@    006818e0     Console:clConsole.obj
 0003:000328e8       ??_C@_0O@PCKO@Chunk?$FL?$CFd?3?$CFd?$FN?$CI?$AA@ 006818e8     Console:clConsole.obj
 0003:000328f8       ??_C@_07DBHD@NOTHING?$AA@  006818f8     Console:clConsole.obj
 0003:00032900       ??_C@_05OIDB@CNULL?$AA@    00681900     Console:clConsole.obj
 0003:00032908       ??_C@_04HPGM@?$CFs?3?5?$AA@ 00681908     Console:clConsole.obj
 0003:00032910       __aexit_rtn                00681910     LIBC:crt0.obj
 0003:00032914       ___app_type                00681914     LIBC:crt0.obj
 0003:00032920       __fltused                  00681920     LIBC:fpinit.obj
 0003:00032924       __ldused                   00681924     LIBC:fpinit.obj
 0003:00032928       __FPinit                   00681928     LIBC:fpinit.obj
 0003:0003292c       __FPmtinit                 0068192c     LIBC:fpinit.obj
 0003:00032930       __FPmtterm                 00681930     LIBC:fpinit.obj
 0003:00032940       __half                     00681940     LIBC:pow.obj
 0003:00032958       __iob                      00681958     LIBC:_file.obj
 0003:00032bd8       __XcptActTab               00681bd8     LIBC:winxfltr.obj
 0003:00032c50       __First_FPE_Indx           00681c50     LIBC:winxfltr.obj
 0003:00032c54       __Num_FPE                  00681c54     LIBC:winxfltr.obj
 0003:00032c58       __XcptActTabCount          00681c58     LIBC:winxfltr.obj
 0003:00032c5c       __fpecode                  00681c5c     LIBC:winxfltr.obj
 0003:00032c60       ___badioinfo               00681c60     LIBC:ioinit.obj
 0003:00032c68       __amblksiz                 00681c68     LIBC:heapinit.obj
 0003:00032c6c       __NLG_Destination          00681c6c     LIBC:exsup.obj
 0003:00032d10       __cfltcvt_tab              00681d10     LIBC:cmiscdat.obj
 0003:00032d30       __infinity                 00681d30     LIBC:87tran.obj
 0003:00032d3a       __minfinity                00681d3a     LIBC:87tran.obj
 0003:00032d44       __logemax                  00681d44     LIBC:87tran.obj
 0003:00032d74       __OP_EXPjmptab             00681d74     LIBC:87tran.obj
 0003:00032da0       __indefinite               00681da0     LIBC:87disp.obj
 0003:00032daa       __piby2                    00681daa     LIBC:87disp.obj
 0003:00032dbc       __cpower                   00681dbc     LIBC:87disp.obj
 0003:00032dd0       __pctype                   00681dd0     LIBC:ctype.obj
 0003:00032dd4       __pwctype                  00681dd4     LIBC:ctype.obj
 0003:00032dd8       __ctype                    00681dd8     LIBC:ctype.obj
 0003:00032fdc       ___mb_cur_max              00681fdc     LIBC:nlsdata1.obj
 0003:00032fe0       ___decimal_point           00681fe0     LIBC:nlsdata1.obj
 0003:00032fe4       ___decimal_point_length    00681fe4     LIBC:nlsdata1.obj
 0003:00032fe8       __timezone                 00681fe8     LIBC:timeset.obj
 0003:00032fec       __daylight                 00681fec     LIBC:timeset.obj
 0003:00032ff0       __dstbias                  00681ff0     LIBC:timeset.obj
 0003:00033074       __tzname                   00682074     LIBC:timeset.obj
 0003:0003309c       ___nullstring              0068209c     LIBC:output.obj
 0003:000330a0       ___wnullstring             006820a0     LIBC:output.obj
 0003:00033180       __d_inf                    00682180     LIBC:util.obj
 0003:00033188       __d_ind                    00682188     LIBC:util.obj
 0003:00033190       __d_max                    00682190     LIBC:util.obj
 0003:00033198       __d_min                    00682198     LIBC:util.obj
 0003:000331a0       __d_mzero                  006821a0     LIBC:util.obj
 0003:000331e0       ___sbh_threshold           006821e0     LIBC:sbheap.obj
 0003:00033480       __lpdays                   00682480     LIBC:days.obj
 0003:000334b4       __days                     006824b4     LIBC:days.obj
 0003:000334f0       __matherr_flag             006824f0     LIBC:matherr.obj
 0003:00033668       __p_overlay                00682668     LIBC:dospawn.obj
 0003:00033670       __pow10pos                 00682670     LIBC:constpow.obj
 0003:000337d0       __pow10neg                 006827d0     LIBC:constpow.obj
 0003:0003dc00       ?Core@@3VCoreClass@@A      0068cc00     Core:Core.obj
 0003:0003df08       ??_C@_00A@?$AA@            0068cf08     Core:function.obj
 0003:0003df10       ?Language@@3VLanguageClass@@A 0068cf10     Language:Language.obj
 0003:0003e15c       ?iClaire@@3VNameSpace@@A   0068d15c     Language:Language.obj
 0003:0003e160       ?Reader@@3VReaderClass@@A  0068d160     Reader:Reader.obj
 0003:0003e418       ?choco@@3VchocoClass@@A    0068d418     choco:choco.obj
 0003:0003f180       ?ice@@3ViceClass@@A        0068e180     ice:ice.obj
 0003:0003f390       ?palm@@3VpalmClass@@A      0068e390     palm:palm.obj
 0003:0003fe98       ?ptidej@@3VptidejClass@@A  0068ee98     ptidej:ptidej.obj
 0003:000402d8       ?mClaire@@3VNameSpace@@A   0068f2d8     Kernel:Kernel.obj
 0003:000402dc       ?claire@@3VNameSpace@@A    0068f2dc     Kernel:Kernel.obj
 0003:000402e0       ?Kernel@@3VKernelClass@@A  0068f2e0     Kernel:Kernel.obj
 0003:00040620       ?ClEnv@@3PAVClaireEnvironment@@A 0068f620     Kernel:Kernel.obj
 0003:00040624       ?CNULL@@3HA                0068f624     Kernel:Kernel.obj
 0003:00040628       ?ClRes@@3PAVClaireResource@@A 0068f628     Kernel:Kernel.obj
 0003:0004062c       ?CFALSE@@3PAVClaireBoolean@@A 0068f62c     Kernel:Kernel.obj
 0003:00040630       ?ClAlloc@@3PAVClaireAllocation@@A 0068f630     Kernel:Clalloc.OBJ
 0003:00040634       ?CL_dummy@@3PAHA           0068f634     Kernel:Clalloc.OBJ
 0003:00040638       ?Cmemory@@3PAHA            0068f638     Kernel:Clalloc.OBJ
 0003:0004063c       ?BadGuy@@3HA               0068f63c     Kernel:Clalloc.OBJ
 0003:00040640       ?maxIndex@@3HA             0068f640     Kernel:Clalloc.OBJ
 0003:00040644       ?MyMark@@3PAVCPFile@@A     0068f644     Kernel:Clport.obj
 0003:000406ac       ?store_d@@3HA              0068f6ac     Console:clConsole.obj
 0003:000406b0       ?store_i@@3HA              0068f6b0     Console:clConsole.obj
 0003:000406b4       ?store_b@@3HA              0068f6b4     Console:clConsole.obj
 0003:000406b8       ?STACK@@3PAVlist@@A        0068f6b8     Console:clConsole.obj
 0003:000406bc       ?NBEVAL@@3HA               0068f6bc     Console:clConsole.obj
 0003:000406c0       ?MODE@@3HA                 0068f6c0     Console:clConsole.obj
 0003:000406c4       __aenvptr                  0068f6c4     LIBC:crt0.obj
 0003:000406c8       __wenvptr                  0068f6c8     LIBC:crt0.obj
 0003:000406cc       ___error_mode              0068f6cc     LIBC:crt0.obj
 0003:000406d0       ___fastflag                0068f6d0     LIBC:fpinit.obj
 0003:000406d4       __adjust_fdiv              0068f6d4     LIBC:fpinit.obj
 0003:0004072c       _errno                     0068f72c     LIBC:crt0dat.obj
 0003:00040730       __doserrno                 0068f730     LIBC:crt0dat.obj
 0003:00040734       __umaskval                 0068f734     LIBC:crt0dat.obj
 0003:00040738       __osver                    0068f738     LIBC:crt0dat.obj
 0003:0004073c       __winver                   0068f73c     LIBC:crt0dat.obj
 0003:00040740       __winmajor                 0068f740     LIBC:crt0dat.obj
 0003:00040744       __winminor                 0068f744     LIBC:crt0dat.obj
 0003:00040748       ___argc                    0068f748     LIBC:crt0dat.obj
 0003:0004074c       ___argv                    0068f74c     LIBC:crt0dat.obj
 0003:00040750       ___wargv                   0068f750     LIBC:crt0dat.obj
 0003:00040754       __environ                  0068f754     LIBC:crt0dat.obj
 0003:00040758       ___initenv                 0068f758     LIBC:crt0dat.obj
 0003:0004075c       __wenviron                 0068f75c     LIBC:crt0dat.obj
 0003:00040760       ___winitenv                0068f760     LIBC:crt0dat.obj
 0003:00040764       __pgmptr                   0068f764     LIBC:crt0dat.obj
 0003:00040768       __wpgmptr                  0068f768     LIBC:crt0dat.obj
 0003:0004076c       __exitflag                 0068f76c     LIBC:crt0dat.obj
 0003:00040770       __C_Termination_Done       0068f770     LIBC:crt0dat.obj
 0003:00040774       __C_Exit_Done              0068f774     LIBC:crt0dat.obj
 0003:00040778       __cflush                   0068f778     LIBC:_file.obj
 0003:0004077c       __pxcptinfoptrs            0068f77c     LIBC:winxfltr.obj
 0003:00040888       __adbgmsg                  0068f888     LIBC:crt0msg.obj
 0003:00040984       __stdbuf                   0068f984     LIBC:_sftbuf.obj
 0003:0004098c       __newmode                  0068f98c     LIBC:_newmode.obj
 0003:00040990       ?_pnhHeap@@3P6AHI@ZA       0068f990     LIBC:handler.obj
 0003:000409dc       ___lc_handle               0068f9dc     LIBC:nlsdata2.obj
 0003:000409f4       ___lc_codepage             0068f9f4     LIBC:nlsdata2.obj
 0003:000409f8       ___lc_collate_cp           0068f9f8     LIBC:nlsdata2.obj
 0003:00040a04       __commode                  0068fa04     LIBC:ncommode.obj
 0003:00040a08       __fmode                    0068fa08     LIBC:txtmode.obj
 0003:00040a0c       ___mbcodepage              0068fa0c     <common>
 0003:00040a90       ___mbulinfo                0068fa90     <common>
 0003:00040a9c       ___ismbcodepage            0068fa9c     <common>
 0003:00040aa0       __mbcasemap                0068faa0     <common>
 0003:00040ba0       __mbctype                  0068fba0     <common>
 0003:00040ca4       ___mblcid                  0068fca4     <common>
 0003:00040ca8       ___sbh_sizeHeaderList      0068fca8     <common>
 0003:00040cb8       ___sbh_indGroupDefer       0068fcb8     <common>
 0003:00040cbc       ___sbh_pHeaderScan         0068fcbc     <common>
 0003:00040cc0       ___sbh_pHeaderDefer        0068fcc0     <common>
 0003:00040cc4       ___sbh_cntHeaderList       0068fcc4     <common>
 0003:00040cc8       ___sbh_pHeaderList         0068fcc8     <common>
 0003:00040ccc       __crtheap                  0068fccc     <common>
 0003:00040ce0       ___pioinfo                 0068fce0     <common>
 0003:00040e1c       __nhandle                  0068fe1c     <common>
 0003:00040e20       ___piob                    0068fe20     <common>
 0003:00041160       __bufin                    00690160     <common>
 0003:00042160       __nstream                  00691160     <common>
 0003:00042164       ___env_initialized         00691164     <common>
 0003:00042174       ___mbctype_initialized     00691174     <common>
 0003:00042178       ___onexitend               00691178     <common>
 0003:0004217c       ___onexitbegin             0069117c     <common>
 0003:00042180       __setjmpexused             00691180     <common>
 0003:0004218c       __acmdln                   0069118c     <common>
 0004:00000000       __IMPORT_DESCRIPTOR_KERNEL32 00692000     kernel32:KERNEL32.dll
 0004:00000014       __NULL_IMPORT_DESCRIPTOR   00692014     kernel32:KERNEL32.dll
 0004:00000168       __imp__GetProcAddress@8    00692168     kernel32:KERNEL32.dll
 0004:0000016c       __imp__GetVersion@0        0069216c     kernel32:KERNEL32.dll
 0004:00000170       __imp__ExitProcess@4       00692170     kernel32:KERNEL32.dll
 0004:00000174       __imp__GetTimeZoneInformation@4 00692174     kernel32:KERNEL32.dll
 0004:00000178       __imp__GetSystemTime@4     00692178     kernel32:KERNEL32.dll
 0004:0000017c       __imp__GetLocalTime@4      0069217c     kernel32:KERNEL32.dll
 0004:00000180       __imp__GetSystemTimeAsFileTime@4 00692180     kernel32:KERNEL32.dll
 0004:00000184       __imp__GetLastError@0      00692184     kernel32:KERNEL32.dll
 0004:00000188       __imp__SetConsoleCtrlHandler@8 00692188     kernel32:KERNEL32.dll
 0004:0000018c       __imp__TerminateProcess@8  0069218c     kernel32:KERNEL32.dll
 0004:00000190       __imp__GetCurrentProcess@0 00692190     kernel32:KERNEL32.dll
 0004:00000194       __imp__HeapAlloc@12        00692194     kernel32:KERNEL32.dll
 0004:00000198       __imp__UnhandledExceptionFilter@4 00692198     kernel32:KERNEL32.dll
 0004:0000019c       __imp__GetModuleFileNameA@12 0069219c     kernel32:KERNEL32.dll
 0004:000001a0       __imp__FreeEnvironmentStringsA@4 006921a0     kernel32:KERNEL32.dll
 0004:000001a4       __imp__FreeEnvironmentStringsW@4 006921a4     kernel32:KERNEL32.dll
 0004:000001a8       __imp__WideCharToMultiByte@32 006921a8     kernel32:KERNEL32.dll
 0004:000001ac       __imp__GetEnvironmentStrings@0 006921ac     kernel32:KERNEL32.dll
 0004:000001b0       __imp__GetEnvironmentStringsW@0 006921b0     kernel32:KERNEL32.dll
 0004:000001b4       __imp__SetHandleCount@4    006921b4     kernel32:KERNEL32.dll
 0004:000001b8       __imp__GetStdHandle@4      006921b8     kernel32:KERNEL32.dll
 0004:000001bc       __imp__GetFileType@4       006921bc     kernel32:KERNEL32.dll
 0004:000001c0       __imp__GetStartupInfoA@4   006921c0     kernel32:KERNEL32.dll
 0004:000001c4       __imp__HeapDestroy@4       006921c4     kernel32:KERNEL32.dll
 0004:000001c8       __imp__HeapCreate@12       006921c8     kernel32:KERNEL32.dll
 0004:000001cc       __imp__VirtualFree@12      006921cc     kernel32:KERNEL32.dll
 0004:000001d0       __imp__HeapFree@12         006921d0     kernel32:KERNEL32.dll
 0004:000001d4       __imp__RtlUnwind@16        006921d4     kernel32:KERNEL32.dll
 0004:000001d8       __imp__WriteFile@20        006921d8     kernel32:KERNEL32.dll
 0004:000001dc       __imp__GetCommandLineA@0   006921dc     kernel32:KERNEL32.dll
 0004:000001e0       __imp__GetModuleHandleA@4  006921e0     kernel32:KERNEL32.dll
 0004:000001e4       __imp__RaiseException@16   006921e4     kernel32:KERNEL32.dll
 0004:000001e8       __imp__ReadFile@20         006921e8     kernel32:KERNEL32.dll
 0004:000001ec       __imp__SetFilePointer@16   006921ec     kernel32:KERNEL32.dll
 0004:000001f0       __imp__FlushFileBuffers@4  006921f0     kernel32:KERNEL32.dll
 0004:000001f4       __imp__CloseHandle@4       006921f4     kernel32:KERNEL32.dll
 0004:000001f8       __imp__GetFileAttributesA@4 006921f8     kernel32:KERNEL32.dll
 0004:000001fc       __imp__VirtualAlloc@16     006921fc     kernel32:KERNEL32.dll
 0004:00000200       __imp__HeapReAlloc@16      00692200     kernel32:KERNEL32.dll
 0004:00000204       __imp__IsBadWritePtr@8     00692204     kernel32:KERNEL32.dll
 0004:00000208       __imp__GetCPInfo@8         00692208     kernel32:KERNEL32.dll
 0004:0000020c       __imp__GetACP@0            0069220c     kernel32:KERNEL32.dll
 0004:00000210       __imp__GetOEMCP@0          00692210     kernel32:KERNEL32.dll
 0004:00000214       __imp__LoadLibraryA@4      00692214     kernel32:KERNEL32.dll
 0004:00000218       __imp__MultiByteToWideChar@24 00692218     kernel32:KERNEL32.dll
 0004:0000021c       __imp__LCMapStringA@24     0069221c     kernel32:KERNEL32.dll
 0004:00000220       __imp__LCMapStringW@24     00692220     kernel32:KERNEL32.dll
 0004:00000224       __imp__GetStringTypeA@20   00692224     kernel32:KERNEL32.dll
 0004:00000228       __imp__GetStringTypeW@16   00692228     kernel32:KERNEL32.dll
 0004:0000022c       __imp__CompareStringA@24   0069222c     kernel32:KERNEL32.dll
 0004:00000230       __imp__CompareStringW@24   00692230     kernel32:KERNEL32.dll
 0004:00000234       __imp__SetEnvironmentVariableA@8 00692234     kernel32:KERNEL32.dll
 0004:00000238       __imp__SetStdHandle@8      00692238     kernel32:KERNEL32.dll
 0004:0000023c       __imp__CreateFileA@28      0069223c     kernel32:KERNEL32.dll
 0004:00000240       __imp__GetExitCodeProcess@8 00692240     kernel32:KERNEL32.dll
 0004:00000244       __imp__WaitForSingleObject@8 00692244     kernel32:KERNEL32.dll
 0004:00000248       __imp__CreateProcessA@40   00692248     kernel32:KERNEL32.dll
 0004:0000024c       __imp__SetEndOfFile@4      0069224c     kernel32:KERNEL32.dll
 0004:00000250       \177KERNEL32_NULL_THUNK_DATA 00692250     kernel32:KERNEL32.dll

 entry point at        0001:001c96e0

